ARM GAS  C:\Users\Rick\AppData\Local\Temp\cclSDNNL.s 			page 1


   1              		.cpu cortex-m4
   2              		.arch armv7e-m
   3              		.fpu fpv4-sp-d16
   4              		.eabi_attribute 27, 1
   5              		.eabi_attribute 28, 1
   6              		.eabi_attribute 20, 1
   7              		.eabi_attribute 21, 1
   8              		.eabi_attribute 23, 3
   9              		.eabi_attribute 24, 1
  10              		.eabi_attribute 25, 1
  11              		.eabi_attribute 26, 1
  12              		.eabi_attribute 30, 1
  13              		.eabi_attribute 34, 1
  14              		.eabi_attribute 18, 4
  15              		.file	"can.c"
  16              		.text
  17              	.Ltext0:
  18              		.cfi_sections	.debug_frame
  19              		.file 1 "Core/Src/can.c"
  20              		.section	.text.MX_CAN1_Init,"ax",%progbits
  21              		.align	1
  22              		.global	MX_CAN1_Init
  23              		.syntax unified
  24              		.thumb
  25              		.thumb_func
  27              	MX_CAN1_Init:
  28              	.LFB239:
   1:Core/Src/can.c **** /* USER CODE BEGIN Header */
   2:Core/Src/can.c **** /**
   3:Core/Src/can.c ****   ******************************************************************************
   4:Core/Src/can.c ****   * @file    can.c
   5:Core/Src/can.c ****   * @brief   This file provides code for the configuration
   6:Core/Src/can.c ****   *          of the CAN instances.
   7:Core/Src/can.c ****   ******************************************************************************
   8:Core/Src/can.c ****   * @attention
   9:Core/Src/can.c ****   *
  10:Core/Src/can.c ****   * Copyright (c) 2025 STMicroelectronics.
  11:Core/Src/can.c ****   * All rights reserved.
  12:Core/Src/can.c ****   *
  13:Core/Src/can.c ****   * This software is licensed under terms that can be found in the LICENSE file
  14:Core/Src/can.c ****   * in the root directory of this software component.
  15:Core/Src/can.c ****   * If no LICENSE file comes with this software, it is provided AS-IS.
  16:Core/Src/can.c ****   *
  17:Core/Src/can.c ****   ******************************************************************************
  18:Core/Src/can.c ****   */
  19:Core/Src/can.c **** /* USER CODE END Header */
  20:Core/Src/can.c **** /* Includes ------------------------------------------------------------------*/
  21:Core/Src/can.c **** #include "can.h"
  22:Core/Src/can.c **** 
  23:Core/Src/can.c **** /* USER CODE BEGIN 0 */
  24:Core/Src/can.c **** 
  25:Core/Src/can.c **** /* USER CODE END 0 */
  26:Core/Src/can.c **** 
  27:Core/Src/can.c **** CAN_HandleTypeDef hcan1;
  28:Core/Src/can.c **** 
  29:Core/Src/can.c **** /* CAN1 init function */
  30:Core/Src/can.c **** void MX_CAN1_Init(void)
ARM GAS  C:\Users\Rick\AppData\Local\Temp\cclSDNNL.s 			page 2


  31:Core/Src/can.c **** {
  29              		.loc 1 31 1 view -0
  30              		.cfi_startproc
  31              		@ args = 0, pretend = 0, frame = 0
  32              		@ frame_needed = 0, uses_anonymous_args = 0
  33 0000 08B5     		push	{r3, lr}
  34              		.cfi_def_cfa_offset 8
  35              		.cfi_offset 3, -8
  36              		.cfi_offset 14, -4
  32:Core/Src/can.c **** 
  33:Core/Src/can.c ****   /* USER CODE BEGIN CAN1_Init 0 */
  34:Core/Src/can.c **** 
  35:Core/Src/can.c ****   /* USER CODE END CAN1_Init 0 */
  36:Core/Src/can.c **** 
  37:Core/Src/can.c ****   /* USER CODE BEGIN CAN1_Init 1 */
  38:Core/Src/can.c **** 
  39:Core/Src/can.c ****   /* USER CODE END CAN1_Init 1 */
  40:Core/Src/can.c ****   hcan1.Instance = CAN1;
  37              		.loc 1 40 3 view .LVU1
  38              		.loc 1 40 18 is_stmt 0 view .LVU2
  39 0002 0B48     		ldr	r0, .L5
  40 0004 0B4B     		ldr	r3, .L5+4
  41 0006 0360     		str	r3, [r0]
  41:Core/Src/can.c ****   hcan1.Init.Prescaler = 16;
  42              		.loc 1 41 3 is_stmt 1 view .LVU3
  43              		.loc 1 41 24 is_stmt 0 view .LVU4
  44 0008 1023     		movs	r3, #16
  45 000a 4360     		str	r3, [r0, #4]
  42:Core/Src/can.c ****   hcan1.Init.Mode = CAN_MODE_NORMAL;
  46              		.loc 1 42 3 is_stmt 1 view .LVU5
  47              		.loc 1 42 19 is_stmt 0 view .LVU6
  48 000c 0023     		movs	r3, #0
  49 000e 8360     		str	r3, [r0, #8]
  43:Core/Src/can.c ****   hcan1.Init.SyncJumpWidth = CAN_SJW_1TQ;
  50              		.loc 1 43 3 is_stmt 1 view .LVU7
  51              		.loc 1 43 28 is_stmt 0 view .LVU8
  52 0010 C360     		str	r3, [r0, #12]
  44:Core/Src/can.c ****   hcan1.Init.TimeSeg1 = CAN_BS1_1TQ;
  53              		.loc 1 44 3 is_stmt 1 view .LVU9
  54              		.loc 1 44 23 is_stmt 0 view .LVU10
  55 0012 0361     		str	r3, [r0, #16]
  45:Core/Src/can.c ****   hcan1.Init.TimeSeg2 = CAN_BS2_1TQ;
  56              		.loc 1 45 3 is_stmt 1 view .LVU11
  57              		.loc 1 45 23 is_stmt 0 view .LVU12
  58 0014 4361     		str	r3, [r0, #20]
  46:Core/Src/can.c ****   hcan1.Init.TimeTriggeredMode = DISABLE;
  59              		.loc 1 46 3 is_stmt 1 view .LVU13
  60              		.loc 1 46 32 is_stmt 0 view .LVU14
  61 0016 0376     		strb	r3, [r0, #24]
  47:Core/Src/can.c ****   hcan1.Init.AutoBusOff = DISABLE;
  62              		.loc 1 47 3 is_stmt 1 view .LVU15
  63              		.loc 1 47 25 is_stmt 0 view .LVU16
  64 0018 4376     		strb	r3, [r0, #25]
  48:Core/Src/can.c ****   hcan1.Init.AutoWakeUp = DISABLE;
  65              		.loc 1 48 3 is_stmt 1 view .LVU17
  66              		.loc 1 48 25 is_stmt 0 view .LVU18
  67 001a 8376     		strb	r3, [r0, #26]
ARM GAS  C:\Users\Rick\AppData\Local\Temp\cclSDNNL.s 			page 3


  49:Core/Src/can.c ****   hcan1.Init.AutoRetransmission = DISABLE;
  68              		.loc 1 49 3 is_stmt 1 view .LVU19
  69              		.loc 1 49 33 is_stmt 0 view .LVU20
  70 001c C376     		strb	r3, [r0, #27]
  50:Core/Src/can.c ****   hcan1.Init.ReceiveFifoLocked = DISABLE;
  71              		.loc 1 50 3 is_stmt 1 view .LVU21
  72              		.loc 1 50 32 is_stmt 0 view .LVU22
  73 001e 0377     		strb	r3, [r0, #28]
  51:Core/Src/can.c ****   hcan1.Init.TransmitFifoPriority = DISABLE;
  74              		.loc 1 51 3 is_stmt 1 view .LVU23
  75              		.loc 1 51 35 is_stmt 0 view .LVU24
  76 0020 4377     		strb	r3, [r0, #29]
  52:Core/Src/can.c ****   if (HAL_CAN_Init(&hcan1) != HAL_OK)
  77              		.loc 1 52 3 is_stmt 1 view .LVU25
  78              		.loc 1 52 7 is_stmt 0 view .LVU26
  79 0022 FFF7FEFF 		bl	HAL_CAN_Init
  80              	.LVL0:
  81              		.loc 1 52 6 discriminator 1 view .LVU27
  82 0026 00B9     		cbnz	r0, .L4
  83              	.L1:
  53:Core/Src/can.c ****   {
  54:Core/Src/can.c ****     Error_Handler();
  55:Core/Src/can.c ****   }
  56:Core/Src/can.c ****   /* USER CODE BEGIN CAN1_Init 2 */
  57:Core/Src/can.c **** 
  58:Core/Src/can.c ****   /* USER CODE END CAN1_Init 2 */
  59:Core/Src/can.c **** 
  60:Core/Src/can.c **** }
  84              		.loc 1 60 1 view .LVU28
  85 0028 08BD     		pop	{r3, pc}
  86              	.L4:
  54:Core/Src/can.c ****   }
  87              		.loc 1 54 5 is_stmt 1 view .LVU29
  88 002a FFF7FEFF 		bl	Error_Handler
  89              	.LVL1:
  90              		.loc 1 60 1 is_stmt 0 view .LVU30
  91 002e FBE7     		b	.L1
  92              	.L6:
  93              		.align	2
  94              	.L5:
  95 0030 00000000 		.word	hcan1
  96 0034 00640040 		.word	1073767424
  97              		.cfi_endproc
  98              	.LFE239:
 100              		.section	.text.HAL_CAN_MspInit,"ax",%progbits
 101              		.align	1
 102              		.global	HAL_CAN_MspInit
 103              		.syntax unified
 104              		.thumb
 105              		.thumb_func
 107              	HAL_CAN_MspInit:
 108              	.LVL2:
 109              	.LFB240:
  61:Core/Src/can.c **** 
  62:Core/Src/can.c **** void HAL_CAN_MspInit(CAN_HandleTypeDef* canHandle)
  63:Core/Src/can.c **** {
 110              		.loc 1 63 1 is_stmt 1 view -0
ARM GAS  C:\Users\Rick\AppData\Local\Temp\cclSDNNL.s 			page 4


 111              		.cfi_startproc
 112              		@ args = 0, pretend = 0, frame = 32
 113              		@ frame_needed = 0, uses_anonymous_args = 0
 114              		.loc 1 63 1 is_stmt 0 view .LVU32
 115 0000 00B5     		push	{lr}
 116              		.cfi_def_cfa_offset 4
 117              		.cfi_offset 14, -4
 118 0002 89B0     		sub	sp, sp, #36
 119              		.cfi_def_cfa_offset 40
  64:Core/Src/can.c **** 
  65:Core/Src/can.c ****   GPIO_InitTypeDef GPIO_InitStruct = {0};
 120              		.loc 1 65 3 is_stmt 1 view .LVU33
 121              		.loc 1 65 20 is_stmt 0 view .LVU34
 122 0004 0023     		movs	r3, #0
 123 0006 0393     		str	r3, [sp, #12]
 124 0008 0493     		str	r3, [sp, #16]
 125 000a 0593     		str	r3, [sp, #20]
 126 000c 0693     		str	r3, [sp, #24]
 127 000e 0793     		str	r3, [sp, #28]
  66:Core/Src/can.c ****   if(canHandle->Instance==CAN1)
 128              		.loc 1 66 3 is_stmt 1 view .LVU35
 129              		.loc 1 66 15 is_stmt 0 view .LVU36
 130 0010 0268     		ldr	r2, [r0]
 131              		.loc 1 66 5 view .LVU37
 132 0012 154B     		ldr	r3, .L11
 133 0014 9A42     		cmp	r2, r3
 134 0016 02D0     		beq	.L10
 135              	.LVL3:
 136              	.L7:
  67:Core/Src/can.c ****   {
  68:Core/Src/can.c ****   /* USER CODE BEGIN CAN1_MspInit 0 */
  69:Core/Src/can.c **** 
  70:Core/Src/can.c ****   /* USER CODE END CAN1_MspInit 0 */
  71:Core/Src/can.c ****     /* CAN1 clock enable */
  72:Core/Src/can.c ****     __HAL_RCC_CAN1_CLK_ENABLE();
  73:Core/Src/can.c **** 
  74:Core/Src/can.c ****     __HAL_RCC_GPIOB_CLK_ENABLE();
  75:Core/Src/can.c ****     /**CAN1 GPIO Configuration
  76:Core/Src/can.c ****     PB8     ------> CAN1_RX
  77:Core/Src/can.c ****     PB9     ------> CAN1_TX
  78:Core/Src/can.c ****     */
  79:Core/Src/can.c ****     GPIO_InitStruct.Pin = GPIO_PIN_8|GPIO_PIN_9;
  80:Core/Src/can.c ****     GPIO_InitStruct.Mode = GPIO_MODE_AF_PP;
  81:Core/Src/can.c ****     GPIO_InitStruct.Pull = GPIO_NOPULL;
  82:Core/Src/can.c ****     GPIO_InitStruct.Speed = GPIO_SPEED_FREQ_VERY_HIGH;
  83:Core/Src/can.c ****     GPIO_InitStruct.Alternate = GPIO_AF9_CAN1;
  84:Core/Src/can.c ****     HAL_GPIO_Init(GPIOB, &GPIO_InitStruct);
  85:Core/Src/can.c **** 
  86:Core/Src/can.c ****   /* USER CODE BEGIN CAN1_MspInit 1 */
  87:Core/Src/can.c **** 
  88:Core/Src/can.c ****   /* USER CODE END CAN1_MspInit 1 */
  89:Core/Src/can.c ****   }
  90:Core/Src/can.c **** }
 137              		.loc 1 90 1 view .LVU38
 138 0018 09B0     		add	sp, sp, #36
 139              		.cfi_remember_state
 140              		.cfi_def_cfa_offset 4
ARM GAS  C:\Users\Rick\AppData\Local\Temp\cclSDNNL.s 			page 5


 141              		@ sp needed
 142 001a 5DF804FB 		ldr	pc, [sp], #4
 143              	.LVL4:
 144              	.L10:
 145              		.cfi_restore_state
  72:Core/Src/can.c **** 
 146              		.loc 1 72 5 is_stmt 1 view .LVU39
 147              	.LBB2:
  72:Core/Src/can.c **** 
 148              		.loc 1 72 5 view .LVU40
 149 001e 0021     		movs	r1, #0
 150 0020 0191     		str	r1, [sp, #4]
  72:Core/Src/can.c **** 
 151              		.loc 1 72 5 view .LVU41
 152 0022 03F5EA33 		add	r3, r3, #119808
 153 0026 1A6C     		ldr	r2, [r3, #64]
 154 0028 42F00072 		orr	r2, r2, #33554432
 155 002c 1A64     		str	r2, [r3, #64]
  72:Core/Src/can.c **** 
 156              		.loc 1 72 5 view .LVU42
 157 002e 1A6C     		ldr	r2, [r3, #64]
 158 0030 02F00072 		and	r2, r2, #33554432
 159 0034 0192     		str	r2, [sp, #4]
  72:Core/Src/can.c **** 
 160              		.loc 1 72 5 view .LVU43
 161 0036 019A     		ldr	r2, [sp, #4]
 162              	.LBE2:
  72:Core/Src/can.c **** 
 163              		.loc 1 72 5 view .LVU44
  74:Core/Src/can.c ****     /**CAN1 GPIO Configuration
 164              		.loc 1 74 5 view .LVU45
 165              	.LBB3:
  74:Core/Src/can.c ****     /**CAN1 GPIO Configuration
 166              		.loc 1 74 5 view .LVU46
 167 0038 0291     		str	r1, [sp, #8]
  74:Core/Src/can.c ****     /**CAN1 GPIO Configuration
 168              		.loc 1 74 5 view .LVU47
 169 003a 1A6B     		ldr	r2, [r3, #48]
 170 003c 42F00202 		orr	r2, r2, #2
 171 0040 1A63     		str	r2, [r3, #48]
  74:Core/Src/can.c ****     /**CAN1 GPIO Configuration
 172              		.loc 1 74 5 view .LVU48
 173 0042 1B6B     		ldr	r3, [r3, #48]
 174 0044 03F00203 		and	r3, r3, #2
 175 0048 0293     		str	r3, [sp, #8]
  74:Core/Src/can.c ****     /**CAN1 GPIO Configuration
 176              		.loc 1 74 5 view .LVU49
 177 004a 029B     		ldr	r3, [sp, #8]
 178              	.LBE3:
  74:Core/Src/can.c ****     /**CAN1 GPIO Configuration
 179              		.loc 1 74 5 view .LVU50
  79:Core/Src/can.c ****     GPIO_InitStruct.Mode = GPIO_MODE_AF_PP;
 180              		.loc 1 79 5 view .LVU51
  79:Core/Src/can.c ****     GPIO_InitStruct.Mode = GPIO_MODE_AF_PP;
 181              		.loc 1 79 25 is_stmt 0 view .LVU52
 182 004c 4FF44073 		mov	r3, #768
 183 0050 0393     		str	r3, [sp, #12]
ARM GAS  C:\Users\Rick\AppData\Local\Temp\cclSDNNL.s 			page 6


  80:Core/Src/can.c ****     GPIO_InitStruct.Pull = GPIO_NOPULL;
 184              		.loc 1 80 5 is_stmt 1 view .LVU53
  80:Core/Src/can.c ****     GPIO_InitStruct.Pull = GPIO_NOPULL;
 185              		.loc 1 80 26 is_stmt 0 view .LVU54
 186 0052 0223     		movs	r3, #2
 187 0054 0493     		str	r3, [sp, #16]
  81:Core/Src/can.c ****     GPIO_InitStruct.Speed = GPIO_SPEED_FREQ_VERY_HIGH;
 188              		.loc 1 81 5 is_stmt 1 view .LVU55
  82:Core/Src/can.c ****     GPIO_InitStruct.Alternate = GPIO_AF9_CAN1;
 189              		.loc 1 82 5 view .LVU56
  82:Core/Src/can.c ****     GPIO_InitStruct.Alternate = GPIO_AF9_CAN1;
 190              		.loc 1 82 27 is_stmt 0 view .LVU57
 191 0056 0323     		movs	r3, #3
 192 0058 0693     		str	r3, [sp, #24]
  83:Core/Src/can.c ****     HAL_GPIO_Init(GPIOB, &GPIO_InitStruct);
 193              		.loc 1 83 5 is_stmt 1 view .LVU58
  83:Core/Src/can.c ****     HAL_GPIO_Init(GPIOB, &GPIO_InitStruct);
 194              		.loc 1 83 31 is_stmt 0 view .LVU59
 195 005a 0923     		movs	r3, #9
 196 005c 0793     		str	r3, [sp, #28]
  84:Core/Src/can.c **** 
 197              		.loc 1 84 5 is_stmt 1 view .LVU60
 198 005e 03A9     		add	r1, sp, #12
 199 0060 0248     		ldr	r0, .L11+4
 200              	.LVL5:
  84:Core/Src/can.c **** 
 201              		.loc 1 84 5 is_stmt 0 view .LVU61
 202 0062 FFF7FEFF 		bl	HAL_GPIO_Init
 203              	.LVL6:
 204              		.loc 1 90 1 view .LVU62
 205 0066 D7E7     		b	.L7
 206              	.L12:
 207              		.align	2
 208              	.L11:
 209 0068 00640040 		.word	1073767424
 210 006c 00040240 		.word	1073873920
 211              		.cfi_endproc
 212              	.LFE240:
 214              		.section	.text.HAL_CAN_MspDeInit,"ax",%progbits
 215              		.align	1
 216              		.global	HAL_CAN_MspDeInit
 217              		.syntax unified
 218              		.thumb
 219              		.thumb_func
 221              	HAL_CAN_MspDeInit:
 222              	.LVL7:
 223              	.LFB241:
  91:Core/Src/can.c **** 
  92:Core/Src/can.c **** void HAL_CAN_MspDeInit(CAN_HandleTypeDef* canHandle)
  93:Core/Src/can.c **** {
 224              		.loc 1 93 1 is_stmt 1 view -0
 225              		.cfi_startproc
 226              		@ args = 0, pretend = 0, frame = 0
 227              		@ frame_needed = 0, uses_anonymous_args = 0
 228              		.loc 1 93 1 is_stmt 0 view .LVU64
 229 0000 08B5     		push	{r3, lr}
 230              		.cfi_def_cfa_offset 8
ARM GAS  C:\Users\Rick\AppData\Local\Temp\cclSDNNL.s 			page 7


 231              		.cfi_offset 3, -8
 232              		.cfi_offset 14, -4
  94:Core/Src/can.c **** 
  95:Core/Src/can.c ****   if(canHandle->Instance==CAN1)
 233              		.loc 1 95 3 is_stmt 1 view .LVU65
 234              		.loc 1 95 15 is_stmt 0 view .LVU66
 235 0002 0268     		ldr	r2, [r0]
 236              		.loc 1 95 5 view .LVU67
 237 0004 074B     		ldr	r3, .L17
 238 0006 9A42     		cmp	r2, r3
 239 0008 00D0     		beq	.L16
 240              	.LVL8:
 241              	.L13:
  96:Core/Src/can.c ****   {
  97:Core/Src/can.c ****   /* USER CODE BEGIN CAN1_MspDeInit 0 */
  98:Core/Src/can.c **** 
  99:Core/Src/can.c ****   /* USER CODE END CAN1_MspDeInit 0 */
 100:Core/Src/can.c ****     /* Peripheral clock disable */
 101:Core/Src/can.c ****     __HAL_RCC_CAN1_CLK_DISABLE();
 102:Core/Src/can.c **** 
 103:Core/Src/can.c ****     /**CAN1 GPIO Configuration
 104:Core/Src/can.c ****     PB8     ------> CAN1_RX
 105:Core/Src/can.c ****     PB9     ------> CAN1_TX
 106:Core/Src/can.c ****     */
 107:Core/Src/can.c ****     HAL_GPIO_DeInit(GPIOB, GPIO_PIN_8|GPIO_PIN_9);
 108:Core/Src/can.c **** 
 109:Core/Src/can.c ****   /* USER CODE BEGIN CAN1_MspDeInit 1 */
 110:Core/Src/can.c **** 
 111:Core/Src/can.c ****   /* USER CODE END CAN1_MspDeInit 1 */
 112:Core/Src/can.c ****   }
 113:Core/Src/can.c **** }
 242              		.loc 1 113 1 view .LVU68
 243 000a 08BD     		pop	{r3, pc}
 244              	.LVL9:
 245              	.L16:
 101:Core/Src/can.c **** 
 246              		.loc 1 101 5 is_stmt 1 view .LVU69
 247 000c 064A     		ldr	r2, .L17+4
 248 000e 136C     		ldr	r3, [r2, #64]
 249 0010 23F00073 		bic	r3, r3, #33554432
 250 0014 1364     		str	r3, [r2, #64]
 107:Core/Src/can.c **** 
 251              		.loc 1 107 5 view .LVU70
 252 0016 4FF44071 		mov	r1, #768
 253 001a 0448     		ldr	r0, .L17+8
 254              	.LVL10:
 107:Core/Src/can.c **** 
 255              		.loc 1 107 5 is_stmt 0 view .LVU71
 256 001c FFF7FEFF 		bl	HAL_GPIO_DeInit
 257              	.LVL11:
 258              		.loc 1 113 1 view .LVU72
 259 0020 F3E7     		b	.L13
 260              	.L18:
 261 0022 00BF     		.align	2
 262              	.L17:
 263 0024 00640040 		.word	1073767424
 264 0028 00380240 		.word	1073887232
ARM GAS  C:\Users\Rick\AppData\Local\Temp\cclSDNNL.s 			page 8


 265 002c 00040240 		.word	1073873920
 266              		.cfi_endproc
 267              	.LFE241:
 269              		.global	hcan1
 270              		.section	.bss.hcan1,"aw",%nobits
 271              		.align	2
 274              	hcan1:
 275 0000 00000000 		.space	40
 275      00000000 
 275      00000000 
 275      00000000 
 275      00000000 
 276              		.text
 277              	.Letext0:
 278              		.file 2 "C:/Users/Rick/AppData/Roaming/Code/User/globalStorage/bmd.stm32-for-vscode/@xpack-dev-too
 279              		.file 3 "C:/Users/Rick/AppData/Roaming/Code/User/globalStorage/bmd.stm32-for-vscode/@xpack-dev-too
 280              		.file 4 "Drivers/CMSIS/Device/ST/STM32F4xx/Include/stm32f446xx.h"
 281              		.file 5 "Drivers/CMSIS/Device/ST/STM32F4xx/Include/stm32f4xx.h"
 282              		.file 6 "Drivers/STM32F4xx_HAL_Driver/Inc/stm32f4xx_hal_def.h"
 283              		.file 7 "Drivers/STM32F4xx_HAL_Driver/Inc/stm32f4xx_hal_gpio.h"
 284              		.file 8 "Drivers/STM32F4xx_HAL_Driver/Inc/stm32f4xx_hal_can.h"
 285              		.file 9 "Core/Inc/can.h"
 286              		.file 10 "Core/Inc/main.h"
ARM GAS  C:\Users\Rick\AppData\Local\Temp\cclSDNNL.s 			page 9

