ARM GAS  C:\Users\Rick\AppData\Local\Temp\ccYIUdgb.s 			page 1


   1              		.cpu cortex-m4
   2              		.arch armv7e-m
   3              		.fpu fpv4-sp-d16
   4              		.eabi_attribute 27, 1
   5              		.eabi_attribute 28, 1
   6              		.eabi_attribute 20, 1
   7              		.eabi_attribute 21, 1
   8              		.eabi_attribute 23, 3
   9              		.eabi_attribute 24, 1
  10              		.eabi_attribute 25, 1
  11              		.eabi_attribute 26, 1
  12              		.eabi_attribute 30, 1
  13              		.eabi_attribute 34, 1
  14              		.eabi_attribute 18, 4
  15              		.file	"controller.c"
  16              		.text
  17              	.Ltext0:
  18              		.cfi_sections	.debug_frame
  19              		.file 1 "Controller/controller.c"
  20              		.section	.text.controller_init,"ax",%progbits
  21              		.align	1
  22              		.global	controller_init
  23              		.syntax unified
  24              		.thumb
  25              		.thumb_func
  27              	controller_init:
  28              	.LFB239:
   1:Controller/controller.c **** #include "./controller.h"
   2:Controller/controller.c **** 
   3:Controller/controller.c **** #include "./Drivers/drv8323/drv8323.h"
   4:Controller/controller.c **** 
   5:Controller/controller.c **** drv8323_t g_driver;
   6:Controller/controller.c **** 
   7:Controller/controller.c **** void controller_init(void) {
  29              		.loc 1 7 28 view -0
  30              		.cfi_startproc
  31              		@ args = 0, pretend = 0, frame = 0
  32              		@ frame_needed = 0, uses_anonymous_args = 0
  33 0000 F0B5     		push	{r4, r5, r6, r7, lr}
  34              		.cfi_def_cfa_offset 20
  35              		.cfi_offset 4, -20
  36              		.cfi_offset 5, -16
  37              		.cfi_offset 6, -12
  38              		.cfi_offset 7, -8
  39              		.cfi_offset 14, -4
  40 0002 87B0     		sub	sp, sp, #28
  41              		.cfi_def_cfa_offset 48
   8:Controller/controller.c ****   drv8323_init(&g_driver, &hspi3);
  42              		.loc 1 8 3 view .LVU1
  43 0004 244E     		ldr	r6, .L3
  44 0006 2549     		ldr	r1, .L3+4
  45 0008 3046     		mov	r0, r6
  46 000a FFF7FEFF 		bl	drv8323_init
  47              	.LVL0:
   9:Controller/controller.c ****   drv8323_calibrate(&g_driver);
  48              		.loc 1 9 3 view .LVU2
  49 000e 3046     		mov	r0, r6
ARM GAS  C:\Users\Rick\AppData\Local\Temp\ccYIUdgb.s 			page 2


  50 0010 FFF7FEFF 		bl	drv8323_calibrate
  51              	.LVL1:
  10:Controller/controller.c ****   HAL_Delay(10);
  52              		.loc 1 10 3 view .LVU3
  53 0014 0A20     		movs	r0, #10
  54 0016 FFF7FEFF 		bl	HAL_Delay
  55              	.LVL2:
  11:Controller/controller.c ****   drv8323_write_dcr(&g_driver, 0x0, DIS_GDF_DIS, 0x0, PWM_MODE_3X, 0x0, 0x0,
  56              		.loc 1 11 3 view .LVU4
  57 001a 0125     		movs	r5, #1
  58 001c 0595     		str	r5, [sp, #20]
  59 001e 0024     		movs	r4, #0
  60 0020 0494     		str	r4, [sp, #16]
  61 0022 0394     		str	r4, [sp, #12]
  62 0024 0294     		str	r4, [sp, #8]
  63 0026 0194     		str	r4, [sp, #4]
  64 0028 0095     		str	r5, [sp]
  65 002a 2346     		mov	r3, r4
  66 002c 2A46     		mov	r2, r5
  67 002e 2146     		mov	r1, r4
  68 0030 3046     		mov	r0, r6
  69 0032 FFF7FEFF 		bl	drv8323_write_dcr
  70              	.LVL3:
  12:Controller/controller.c ****                     0x0, 0x0, 0x1);
  13:Controller/controller.c ****   HAL_Delay(10);
  71              		.loc 1 13 3 view .LVU5
  72 0036 0A20     		movs	r0, #10
  73 0038 FFF7FEFF 		bl	HAL_Delay
  74              	.LVL4:
  14:Controller/controller.c ****   drv8323_write_csacr(&g_driver, 0x0, 0x1, 0x0, CSA_GAIN_40, 0x0, 0x1, 0x1, 0x1,
  75              		.loc 1 14 3 view .LVU6
  76 003c 0327     		movs	r7, #3
  77 003e 0597     		str	r7, [sp, #20]
  78 0040 0495     		str	r5, [sp, #16]
  79 0042 0395     		str	r5, [sp, #12]
  80 0044 0295     		str	r5, [sp, #8]
  81 0046 0194     		str	r4, [sp, #4]
  82 0048 0097     		str	r7, [sp]
  83 004a 2346     		mov	r3, r4
  84 004c 2A46     		mov	r2, r5
  85 004e 2146     		mov	r1, r4
  86 0050 3046     		mov	r0, r6
  87 0052 FFF7FEFF 		bl	drv8323_write_csacr
  88              	.LVL5:
  15:Controller/controller.c ****                       SEN_LVL_1_0);
  16:Controller/controller.c ****   HAL_Delay(10);
  89              		.loc 1 16 3 view .LVU7
  90 0056 0A20     		movs	r0, #10
  91 0058 FFF7FEFF 		bl	HAL_Delay
  92              	.LVL6:
  17:Controller/controller.c ****   drv8323_write_csacr(&g_driver, 0x0, 0x1, 0x0, CSA_GAIN_40, 0x1, 0x0, 0x0, 0x0,
  93              		.loc 1 17 3 view .LVU8
  94 005c 0597     		str	r7, [sp, #20]
  95 005e 0494     		str	r4, [sp, #16]
  96 0060 0394     		str	r4, [sp, #12]
  97 0062 0294     		str	r4, [sp, #8]
  98 0064 0195     		str	r5, [sp, #4]
ARM GAS  C:\Users\Rick\AppData\Local\Temp\ccYIUdgb.s 			page 3


  99 0066 0097     		str	r7, [sp]
 100 0068 2346     		mov	r3, r4
 101 006a 2A46     		mov	r2, r5
 102 006c 2146     		mov	r1, r4
 103 006e 3046     		mov	r0, r6
 104 0070 FFF7FEFF 		bl	drv8323_write_csacr
 105              	.LVL7:
  18:Controller/controller.c ****                       SEN_LVL_1_0);
  19:Controller/controller.c ****   HAL_Delay(10);
 106              		.loc 1 19 3 view .LVU9
 107 0074 0A20     		movs	r0, #10
 108 0076 FFF7FEFF 		bl	HAL_Delay
 109              	.LVL8:
  20:Controller/controller.c ****   drv8323_write_ocpcr(&g_driver, TRETRY_50US, DEADTIME_50NS, OCP_NONE,
 110              		.loc 1 20 3 view .LVU10
 111 007a 0F23     		movs	r3, #15
 112 007c 0193     		str	r3, [sp, #4]
 113 007e 0097     		str	r7, [sp]
 114 0080 3B46     		mov	r3, r7
 115 0082 2246     		mov	r2, r4
 116 0084 2946     		mov	r1, r5
 117 0086 3046     		mov	r0, r6
 118 0088 FFF7FEFF 		bl	drv8323_write_ocpcr
 119              	.LVL9:
  21:Controller/controller.c ****                       OCP_DEG_8US, VDS_LVL_1_88);
  22:Controller/controller.c ****   drv8323_enable_gd(&g_driver);
 120              		.loc 1 22 3 view .LVU11
 121 008c 3046     		mov	r0, r6
 122 008e FFF7FEFF 		bl	drv8323_enable_gd
 123              	.LVL10:
  23:Controller/controller.c **** }...
 124              		.loc 1 23 1 is_stmt 0 view .LVU12
 125 0092 07B0     		add	sp, sp, #28
 126              		.cfi_def_cfa_offset 20
 127              		@ sp needed
 128 0094 F0BD     		pop	{r4, r5, r6, r7, pc}
 129              	.L4:
 130 0096 00BF     		.align	2
 131              	.L3:
 132 0098 00000000 		.word	g_driver
 133 009c 00000000 		.word	hspi3
 134              		.cfi_endproc
 135              	.LFE239:
 137              		.global	g_driver
 138              		.section	.bss.g_driver,"aw",%nobits
 139              		.align	2
 142              	g_driver:
 143 0000 00000000 		.space	4
 144              		.text
 145              	.Letext0:
 146              		.file 2 "C:/Users/Rick/AppData/Roaming/Code/User/globalStorage/bmd.stm32-for-vscode/@xpack-dev-too
 147              		.file 3 "C:/Users/Rick/AppData/Roaming/Code/User/globalStorage/bmd.stm32-for-vscode/@xpack-dev-too
 148              		.file 4 "Drivers/CMSIS/Device/ST/STM32F4xx/Include/stm32f446xx.h"
 149              		.file 5 "Drivers/STM32F4xx_HAL_Driver/Inc/stm32f4xx_hal_def.h"
 150              		.file 6 "Drivers/STM32F4xx_HAL_Driver/Inc/stm32f4xx_hal_dma.h"
 151              		.file 7 "Drivers/STM32F4xx_HAL_Driver/Inc/stm32f4xx_hal_spi.h"
 152              		.file 8 "Controller/./Drivers/drv8323/drv8323.h"
ARM GAS  C:\Users\Rick\AppData\Local\Temp\ccYIUdgb.s 			page 4


 153              		.file 9 "Core/Inc/spi.h"
 154              		.file 10 "Drivers/STM32F4xx_HAL_Driver/Inc/stm32f4xx_hal.h"
ARM GAS  C:\Users\Rick\AppData\Local\Temp\ccYIUdgb.s 			page 5

