ARM GAS  C:\Users\Rick\AppData\Local\Temp\ccBRnFl9.s 			page 1


   1              		.cpu cortex-m4
   2              		.arch armv7e-m
   3              		.fpu fpv4-sp-d16
   4              		.eabi_attribute 27, 1
   5              		.eabi_attribute 28, 1
   6              		.eabi_attribute 20, 1
   7              		.eabi_attribute 21, 1
   8              		.eabi_attribute 23, 3
   9              		.eabi_attribute 24, 1
  10              		.eabi_attribute 25, 1
  11              		.eabi_attribute 26, 1
  12              		.eabi_attribute 30, 1
  13              		.eabi_attribute 34, 1
  14              		.eabi_attribute 18, 4
  15              		.file	"controller.c"
  16              		.text
  17              	.Ltext0:
  18              		.cfi_sections	.debug_frame
  19              		.file 1 "Controller/controller.c"
  20              		.section	.text.controller_init,"ax",%progbits
  21              		.align	1
  22              		.global	controller_init
  23              		.syntax unified
  24              		.thumb
  25              		.thumb_func
  27              	controller_init:
  28              	.LFB239:
   1:Controller/controller.c **** #include "./controller.h"
   2:Controller/controller.c **** 
   3:Controller/controller.c **** #include <string.h>
   4:Controller/controller.c **** 
   5:Controller/controller.c **** #include "./Devices/dev_usart.h"
   6:Controller/controller.c **** #include "./Drivers/drv8323/drv8323.h"
   7:Controller/controller.c **** #include "./FOC/VF.h"
   8:Controller/controller.c **** #include "./PWM/pwm.h"
   9:Controller/controller.c **** #include "./Sensors/current.h"
  10:Controller/controller.c **** #include "./Sensors/hall.h"
  11:Controller/controller.c **** #include "./State/state.h"
  12:Controller/controller.c **** #include "./temp.h"
  13:Controller/controller.c **** #include "./vbus.h"
  14:Controller/controller.c **** 
  15:Controller/controller.c **** drv8323_t g_driver;
  16:Controller/controller.c **** 
  17:Controller/controller.c **** float load_data[5];
  18:Controller/controller.c **** static uint8_t g_tmp[24] = {0, 0, 0, 0, 0, 0, 0, 0, 0, 0, 0,    0,
  19:Controller/controller.c ****                             0, 0, 0, 0, 0, 0, 0, 0, 0, 0, 0x80, 0x7f};
  20:Controller/controller.c **** 
  21:Controller/controller.c **** void controller_init(void) {
  29              		.loc 1 21 28 view -0
  30              		.cfi_startproc
  31              		@ args = 0, pretend = 0, frame = 0
  32              		@ frame_needed = 0, uses_anonymous_args = 0
  33 0000 F0B5     		push	{r4, r5, r6, r7, lr}
  34              		.cfi_def_cfa_offset 20
  35              		.cfi_offset 4, -20
  36              		.cfi_offset 5, -16
  37              		.cfi_offset 6, -12
ARM GAS  C:\Users\Rick\AppData\Local\Temp\ccBRnFl9.s 			page 2


  38              		.cfi_offset 7, -8
  39              		.cfi_offset 14, -4
  40 0002 87B0     		sub	sp, sp, #28
  41              		.cfi_def_cfa_offset 48
  22:Controller/controller.c ****   /// 初始化串口
  23:Controller/controller.c ****   dev_usart_init();
  42              		.loc 1 23 3 view .LVU1
  43 0004 FFF7FEFF 		bl	dev_usart_init
  44              	.LVL0:
  24:Controller/controller.c **** 
  25:Controller/controller.c ****   /// 配置DRV8323
  26:Controller/controller.c **** 
  27:Controller/controller.c ****   // 使用PWM_MODE_3X控制时将互补引脚拉低
  28:Controller/controller.c ****   HAL_GPIO_WritePin(GPIOB, GPIO_PIN_13, GPIO_PIN_SET);
  45              		.loc 1 28 3 view .LVU2
  46 0008 3B4C     		ldr	r4, .L3
  47 000a 0122     		movs	r2, #1
  48 000c 4FF40051 		mov	r1, #8192
  49 0010 2046     		mov	r0, r4
  50 0012 FFF7FEFF 		bl	HAL_GPIO_WritePin
  51              	.LVL1:
  29:Controller/controller.c ****   HAL_GPIO_WritePin(GPIOB, GPIO_PIN_14, GPIO_PIN_SET);
  52              		.loc 1 29 3 view .LVU3
  53 0016 0122     		movs	r2, #1
  54 0018 4FF48041 		mov	r1, #16384
  55 001c 2046     		mov	r0, r4
  56 001e FFF7FEFF 		bl	HAL_GPIO_WritePin
  57              	.LVL2:
  30:Controller/controller.c ****   HAL_GPIO_WritePin(GPIOB, GPIO_PIN_15, GPIO_PIN_SET);
  58              		.loc 1 30 3 view .LVU4
  59 0022 0122     		movs	r2, #1
  60 0024 4FF40041 		mov	r1, #32768
  61 0028 2046     		mov	r0, r4
  62 002a FFF7FEFF 		bl	HAL_GPIO_WritePin
  63              	.LVL3:
  31:Controller/controller.c **** 
  32:Controller/controller.c ****   drv8323_init(&g_driver, &hspi3);
  64              		.loc 1 32 3 view .LVU5
  65 002e 334E     		ldr	r6, .L3+4
  66 0030 3349     		ldr	r1, .L3+8
  67 0032 3046     		mov	r0, r6
  68 0034 FFF7FEFF 		bl	drv8323_init
  69              	.LVL4:
  33:Controller/controller.c ****   drv8323_calibrate(&g_driver);
  70              		.loc 1 33 3 view .LVU6
  71 0038 3046     		mov	r0, r6
  72 003a FFF7FEFF 		bl	drv8323_calibrate
  73              	.LVL5:
  34:Controller/controller.c ****   HAL_Delay(10);
  74              		.loc 1 34 3 view .LVU7
  75 003e 0A20     		movs	r0, #10
  76 0040 FFF7FEFF 		bl	HAL_Delay
  77              	.LVL6:
  35:Controller/controller.c ****   drv8323_write_dcr(&g_driver, 0x0, DIS_GDF_DIS, 0x0, PWM_MODE_3X, 0x0, 0x0,
  78              		.loc 1 35 3 view .LVU8
  79 0044 0125     		movs	r5, #1
  80 0046 0595     		str	r5, [sp, #20]
ARM GAS  C:\Users\Rick\AppData\Local\Temp\ccBRnFl9.s 			page 3


  81 0048 0024     		movs	r4, #0
  82 004a 0494     		str	r4, [sp, #16]
  83 004c 0394     		str	r4, [sp, #12]
  84 004e 0294     		str	r4, [sp, #8]
  85 0050 0194     		str	r4, [sp, #4]
  86 0052 0095     		str	r5, [sp]
  87 0054 2346     		mov	r3, r4
  88 0056 2A46     		mov	r2, r5
  89 0058 2146     		mov	r1, r4
  90 005a 3046     		mov	r0, r6
  91 005c FFF7FEFF 		bl	drv8323_write_dcr
  92              	.LVL7:
  36:Controller/controller.c ****                     0x0, 0x0, 0x1);
  37:Controller/controller.c ****   HAL_Delay(10);
  93              		.loc 1 37 3 view .LVU9
  94 0060 0A20     		movs	r0, #10
  95 0062 FFF7FEFF 		bl	HAL_Delay
  96              	.LVL8:
  38:Controller/controller.c ****   drv8323_write_csacr(&g_driver, 0x0, 0x1, 0x0, CSA_GAIN_40, 0x0, 0x1, 0x1, 0x1,
  97              		.loc 1 38 3 view .LVU10
  98 0066 0327     		movs	r7, #3
  99 0068 0597     		str	r7, [sp, #20]
 100 006a 0495     		str	r5, [sp, #16]
 101 006c 0395     		str	r5, [sp, #12]
 102 006e 0295     		str	r5, [sp, #8]
 103 0070 0194     		str	r4, [sp, #4]
 104 0072 0097     		str	r7, [sp]
 105 0074 2346     		mov	r3, r4
 106 0076 2A46     		mov	r2, r5
 107 0078 2146     		mov	r1, r4
 108 007a 3046     		mov	r0, r6
 109 007c FFF7FEFF 		bl	drv8323_write_csacr
 110              	.LVL9:
  39:Controller/controller.c ****                       SEN_LVL_1_0);
  40:Controller/controller.c ****   HAL_Delay(10);
 111              		.loc 1 40 3 view .LVU11
 112 0080 0A20     		movs	r0, #10
 113 0082 FFF7FEFF 		bl	HAL_Delay
 114              	.LVL10:
  41:Controller/controller.c ****   drv8323_write_csacr(&g_driver, 0x0, 0x1, 0x0, CSA_GAIN_40, 0x1, 0x0, 0x0, 0x0,
 115              		.loc 1 41 3 view .LVU12
 116 0086 0597     		str	r7, [sp, #20]
 117 0088 0494     		str	r4, [sp, #16]
 118 008a 0394     		str	r4, [sp, #12]
 119 008c 0294     		str	r4, [sp, #8]
 120 008e 0195     		str	r5, [sp, #4]
 121 0090 0097     		str	r7, [sp]
 122 0092 2346     		mov	r3, r4
 123 0094 2A46     		mov	r2, r5
 124 0096 2146     		mov	r1, r4
 125 0098 3046     		mov	r0, r6
 126 009a FFF7FEFF 		bl	drv8323_write_csacr
 127              	.LVL11:
  42:Controller/controller.c ****                       SEN_LVL_1_0);
  43:Controller/controller.c ****   HAL_Delay(10);
 128              		.loc 1 43 3 view .LVU13
 129 009e 0A20     		movs	r0, #10
ARM GAS  C:\Users\Rick\AppData\Local\Temp\ccBRnFl9.s 			page 4


 130 00a0 FFF7FEFF 		bl	HAL_Delay
 131              	.LVL12:
  44:Controller/controller.c ****   drv8323_write_ocpcr(&g_driver, TRETRY_50US, DEADTIME_50NS, OCP_NONE,
 132              		.loc 1 44 3 view .LVU14
 133 00a4 0F23     		movs	r3, #15
 134 00a6 0193     		str	r3, [sp, #4]
 135 00a8 0097     		str	r7, [sp]
 136 00aa 3B46     		mov	r3, r7
 137 00ac 2246     		mov	r2, r4
 138 00ae 2946     		mov	r1, r5
 139 00b0 3046     		mov	r0, r6
 140 00b2 FFF7FEFF 		bl	drv8323_write_ocpcr
 141              	.LVL13:
  45:Controller/controller.c ****                       OCP_DEG_8US, VDS_LVL_1_88);
  46:Controller/controller.c ****   drv8323_enable_gd(&g_driver);
 142              		.loc 1 46 3 view .LVU15
 143 00b6 3046     		mov	r0, r6
 144 00b8 FFF7FEFF 		bl	drv8323_enable_gd
 145              	.LVL14:
  47:Controller/controller.c **** 
  48:Controller/controller.c ****   HAL_Delay(10);
 146              		.loc 1 48 3 view .LVU16
 147 00bc 0A20     		movs	r0, #10
 148 00be FFF7FEFF 		bl	HAL_Delay
 149              	.LVL15:
  49:Controller/controller.c **** 
  50:Controller/controller.c ****   // rtU.SpeedRef = 800;
  51:Controller/controller.c **** 
  52:Controller/controller.c ****   rtU.Vbus = vbus_get();
 150              		.loc 1 52 3 view .LVU17
 151              		.loc 1 52 14 is_stmt 0 view .LVU18
 152 00c2 FFF7FEFF 		bl	vbus_get
 153              	.LVL16:
 154              		.loc 1 52 12 discriminator 1 view .LVU19
 155 00c6 0F4C     		ldr	r4, .L3+12
 156 00c8 84ED030A 		vstr.32	s0, [r4, #12]
  53:Controller/controller.c **** 
  54:Controller/controller.c ****   current_init();
 157              		.loc 1 54 3 is_stmt 1 view .LVU20
 158 00cc FFF7FEFF 		bl	current_init
 159              	.LVL17:
  55:Controller/controller.c ****   vbus_init();
 160              		.loc 1 55 3 view .LVU21
 161 00d0 FFF7FEFF 		bl	vbus_init
 162              	.LVL18:
  56:Controller/controller.c ****   hall_init();
 163              		.loc 1 56 3 view .LVU22
 164 00d4 FFF7FEFF 		bl	hall_init
 165              	.LVL19:
  57:Controller/controller.c ****   pwm_init();
 166              		.loc 1 57 3 view .LVU23
 167 00d8 FFF7FEFF 		bl	pwm_init
 168              	.LVL20:
  58:Controller/controller.c **** 
  59:Controller/controller.c ****   // rtU.Motor_OnOff = 1;
  60:Controller/controller.c **** 
  61:Controller/controller.c ****   rtU.ud = 0;
ARM GAS  C:\Users\Rick\AppData\Local\Temp\ccBRnFl9.s 			page 5


 169              		.loc 1 61 3 view .LVU24
 170              		.loc 1 61 10 is_stmt 0 view .LVU25
 171 00dc 0023     		movs	r3, #0
 172 00de 2360     		str	r3, [r4]	@ float
  62:Controller/controller.c ****   rtU.uq = 12;
 173              		.loc 1 62 3 is_stmt 1 view .LVU26
 174              		.loc 1 62 10 is_stmt 0 view .LVU27
 175 00e0 094B     		ldr	r3, .L3+16
 176 00e2 6360     		str	r3, [r4, #4]	@ float
  63:Controller/controller.c ****   rtU.Freq = 4;
 177              		.loc 1 63 3 is_stmt 1 view .LVU28
 178              		.loc 1 63 12 is_stmt 0 view .LVU29
 179 00e4 4FF08143 		mov	r3, #1082130432
 180 00e8 A360     		str	r3, [r4, #8]	@ float
  64:Controller/controller.c **** 
  65:Controller/controller.c ****   pwm_start();
 181              		.loc 1 65 3 is_stmt 1 view .LVU30
 182 00ea FFF7FEFF 		bl	pwm_start
 183              	.LVL21:
  66:Controller/controller.c **** 
  67:Controller/controller.c ****   state_set(STATE_RUN);
 184              		.loc 1 67 3 view .LVU31
 185 00ee 0220     		movs	r0, #2
 186 00f0 FFF7FEFF 		bl	state_set
 187              	.LVL22:
  68:Controller/controller.c **** }
 188              		.loc 1 68 1 is_stmt 0 view .LVU32
 189 00f4 07B0     		add	sp, sp, #28
 190              		.cfi_def_cfa_offset 20
 191              		@ sp needed
 192 00f6 F0BD     		pop	{r4, r5, r6, r7, pc}
 193              	.L4:
 194              		.align	2
 195              	.L3:
 196 00f8 00040240 		.word	1073873920
 197 00fc 00000000 		.word	g_driver
 198 0100 00000000 		.word	hspi3
 199 0104 00000000 		.word	rtU
 200 0108 00004041 		.word	1094713344
 201              		.cfi_endproc
 202              	.LFE239:
 204              		.section	.text.controller_step,"ax",%progbits
 205              		.align	1
 206              		.global	controller_step
 207              		.syntax unified
 208              		.thumb
 209              		.thumb_func
 211              	controller_step:
 212              	.LFB240:
  69:Controller/controller.c **** 
  70:Controller/controller.c **** void controller_step(void) {
 213              		.loc 1 70 28 is_stmt 1 view -0
 214              		.cfi_startproc
 215              		@ args = 0, pretend = 0, frame = 0
 216              		@ frame_needed = 0, uses_anonymous_args = 0
 217 0000 08B5     		push	{r3, lr}
 218              		.cfi_def_cfa_offset 8
ARM GAS  C:\Users\Rick\AppData\Local\Temp\ccBRnFl9.s 			page 6


 219              		.cfi_offset 3, -8
 220              		.cfi_offset 14, -4
  71:Controller/controller.c ****   // float temp = temp_get();
  72:Controller/controller.c ****   rtU.Vbus = vbus_get();
 221              		.loc 1 72 3 view .LVU34
 222              		.loc 1 72 14 is_stmt 0 view .LVU35
 223 0002 FFF7FEFF 		bl	vbus_get
 224              	.LVL23:
 225              		.loc 1 72 12 discriminator 1 view .LVU36
 226 0006 024B     		ldr	r3, .L7
 227 0008 83ED030A 		vstr.32	s0, [r3, #12]
  73:Controller/controller.c **** }
 228              		.loc 1 73 1 view .LVU37
 229 000c 08BD     		pop	{r3, pc}
 230              	.L8:
 231 000e 00BF     		.align	2
 232              	.L7:
 233 0010 00000000 		.word	rtU
 234              		.cfi_endproc
 235              	.LFE240:
 237              		.section	.text.core_callback,"ax",%progbits
 238              		.align	1
 239              		.global	core_callback
 240              		.syntax unified
 241              		.thumb
 242              		.thumb_func
 244              	core_callback:
 245              	.LFB241:
  74:Controller/controller.c **** 
  75:Controller/controller.c **** void core_callback() {
 246              		.loc 1 75 22 is_stmt 1 view -0
 247              		.cfi_startproc
 248              		@ args = 0, pretend = 0, frame = 16
 249              		@ frame_needed = 0, uses_anonymous_args = 0
 250 0000 10B5     		push	{r4, lr}
 251              		.cfi_def_cfa_offset 8
 252              		.cfi_offset 4, -8
 253              		.cfi_offset 14, -4
 254 0002 84B0     		sub	sp, sp, #16
 255              		.cfi_def_cfa_offset 24
  76:Controller/controller.c ****   // hall_step();
  77:Controller/controller.c ****   // rtU.theta = hall_get_theta();
  78:Controller/controller.c ****   // rtU.SpeedFd = hall_get_speed();
  79:Controller/controller.c **** 
  80:Controller/controller.c ****   float current[3];
 256              		.loc 1 80 3 view .LVU39
  81:Controller/controller.c **** 
  82:Controller/controller.c ****   current_get(current);
 257              		.loc 1 82 3 view .LVU40
 258 0004 01A8     		add	r0, sp, #4
 259 0006 FFF7FEFF 		bl	current_get
 260              	.LVL24:
  83:Controller/controller.c **** 
  84:Controller/controller.c ****   // rtU.ia = current[0];
  85:Controller/controller.c ****   // rtU.ib = current[1];
  86:Controller/controller.c ****   // rtU.ic = current[2];
  87:Controller/controller.c ****   VF_step();
ARM GAS  C:\Users\Rick\AppData\Local\Temp\ccBRnFl9.s 			page 7


 261              		.loc 1 87 3 view .LVU41
 262 000a FFF7FEFF 		bl	VF_step
 263              	.LVL25:
  88:Controller/controller.c **** 
  89:Controller/controller.c ****   TIM1->CCR1 = rtY.tABC[0];
 264              		.loc 1 89 3 view .LVU42
 265              		.loc 1 89 24 is_stmt 0 view .LVU43
 266 000e 184A     		ldr	r2, .L11
 267 0010 D2ED006A 		vldr.32	s13, [r2]
 268              		.loc 1 89 14 view .LVU44
 269 0014 FCEEE67A 		vcvt.u32.f32	s15, s13
 270 0018 164B     		ldr	r3, .L11+4
 271 001a C3ED0D7A 		vstr.32	s15, [r3, #52]	@ int
  90:Controller/controller.c ****   TIM1->CCR2 = rtY.tABC[1];
 272              		.loc 1 90 3 is_stmt 1 view .LVU45
 273              		.loc 1 90 24 is_stmt 0 view .LVU46
 274 001e 92ED017A 		vldr.32	s14, [r2, #4]
 275              		.loc 1 90 14 view .LVU47
 276 0022 FCEEC77A 		vcvt.u32.f32	s15, s14
 277 0026 C3ED0E7A 		vstr.32	s15, [r3, #56]	@ int
  91:Controller/controller.c ****   TIM1->CCR3 = rtY.tABC[2];
 278              		.loc 1 91 3 is_stmt 1 view .LVU48
 279              		.loc 1 91 24 is_stmt 0 view .LVU49
 280 002a D2ED027A 		vldr.32	s15, [r2, #8]
 281              		.loc 1 91 14 view .LVU50
 282 002e FCEEE77A 		vcvt.u32.f32	s15, s15
 283 0032 C3ED0F7A 		vstr.32	s15, [r3, #60]	@ int
  92:Controller/controller.c **** 
  93:Controller/controller.c ****   load_data[0] = current[0];
 284              		.loc 1 93 3 is_stmt 1 view .LVU51
 285              		.loc 1 93 16 is_stmt 0 view .LVU52
 286 0036 104B     		ldr	r3, .L11+8
 287 0038 019A     		ldr	r2, [sp, #4]	@ float
 288 003a 1A60     		str	r2, [r3]	@ float
  94:Controller/controller.c ****   load_data[1] = current[1];
 289              		.loc 1 94 3 is_stmt 1 view .LVU53
 290              		.loc 1 94 25 is_stmt 0 view .LVU54
 291 003c 029A     		ldr	r2, [sp, #8]	@ float
 292              		.loc 1 94 16 view .LVU55
 293 003e 5A60     		str	r2, [r3, #4]	@ float
  95:Controller/controller.c ****   load_data[2] = current[2];
 294              		.loc 1 95 3 is_stmt 1 view .LVU56
 295              		.loc 1 95 25 is_stmt 0 view .LVU57
 296 0040 039A     		ldr	r2, [sp, #12]	@ float
 297              		.loc 1 95 16 view .LVU58
 298 0042 9A60     		str	r2, [r3, #8]	@ float
  96:Controller/controller.c ****   load_data[3] = rtY.tABC[0];
 299              		.loc 1 96 3 is_stmt 1 view .LVU59
 300              		.loc 1 96 16 is_stmt 0 view .LVU60
 301 0044 C3ED036A 		vstr.32	s13, [r3, #12]
  97:Controller/controller.c ****   load_data[4] = rtY.tABC[1];
 302              		.loc 1 97 3 is_stmt 1 view .LVU61
 303              		.loc 1 97 16 is_stmt 0 view .LVU62
 304 0048 83ED047A 		vstr.32	s14, [r3, #16]
  98:Controller/controller.c ****   memcpy(g_tmp, (uint8_t *)load_data, sizeof(load_data));
 305              		.loc 1 98 3 is_stmt 1 view .LVU63
 306 004c 0B4C     		ldr	r4, .L11+12
ARM GAS  C:\Users\Rick\AppData\Local\Temp\ccBRnFl9.s 			page 8


 307 004e A646     		mov	lr, r4
 308 0050 9C46     		mov	ip, r3
 309 0052 BCE80F00 		ldmia	ip!, {r0, r1, r2, r3}
 310 0056 AEE80F00 		stmia	lr!, {r0, r1, r2, r3}
 311 005a DCF80030 		ldr	r3, [ip]
 312 005e CEF80030 		str	r3, [lr]
  99:Controller/controller.c **** 
 100:Controller/controller.c ****   dev_usart_write(g_tmp, sizeof(g_tmp));
 313              		.loc 1 100 3 view .LVU64
 314 0062 1821     		movs	r1, #24
 315 0064 2046     		mov	r0, r4
 316 0066 FFF7FEFF 		bl	dev_usart_write
 317              	.LVL26:
 101:Controller/controller.c **** }...
 318              		.loc 1 101 1 is_stmt 0 view .LVU65
 319 006a 04B0     		add	sp, sp, #16
 320              		.cfi_def_cfa_offset 8
 321              		@ sp needed
 322 006c 10BD     		pop	{r4, pc}
 323              	.L12:
 324 006e 00BF     		.align	2
 325              	.L11:
 326 0070 00000000 		.word	rtY
 327 0074 00000140 		.word	1073807360
 328 0078 00000000 		.word	load_data
 329 007c 00000000 		.word	g_tmp
 330              		.cfi_endproc
 331              	.LFE241:
 333              		.section	.data.g_tmp,"aw"
 334              		.align	2
 337              	g_tmp:
 338 0000 00000000 		.ascii	"\000\000\000\000\000\000\000\000\000\000\000\000\000"
 338      00000000 
 338      00000000 
 338      00
 339 000d 00000000 		.ascii	"\000\000\000\000\000\000\000\000\000\200\177"
 339      00000000 
 339      00807F
 340              		.global	load_data
 341              		.section	.bss.load_data,"aw",%nobits
 342              		.align	2
 345              	load_data:
 346 0000 00000000 		.space	20
 346      00000000 
 346      00000000 
 346      00000000 
 346      00000000 
 347              		.global	g_driver
 348              		.section	.bss.g_driver,"aw",%nobits
 349              		.align	2
 352              	g_driver:
 353 0000 00000000 		.space	4
 354              		.text
 355              	.Letext0:
 356              		.file 2 "C:/Users/Rick/AppData/Roaming/Code/User/globalStorage/bmd.stm32-for-vscode/@xpack-dev-too
 357              		.file 3 "C:/Users/Rick/AppData/Roaming/Code/User/globalStorage/bmd.stm32-for-vscode/@xpack-dev-too
 358              		.file 4 "Drivers/CMSIS/Device/ST/STM32F4xx/Include/stm32f446xx.h"
ARM GAS  C:\Users\Rick\AppData\Local\Temp\ccBRnFl9.s 			page 9


 359              		.file 5 "Drivers/STM32F4xx_HAL_Driver/Inc/stm32f4xx_hal_def.h"
 360              		.file 6 "Drivers/STM32F4xx_HAL_Driver/Inc/stm32f4xx_hal_gpio.h"
 361              		.file 7 "Drivers/STM32F4xx_HAL_Driver/Inc/stm32f4xx_hal_dma.h"
 362              		.file 8 "Drivers/STM32F4xx_HAL_Driver/Inc/stm32f4xx_hal_spi.h"
 363              		.file 9 "Controller/./Drivers/drv8323/drv8323.h"
 364              		.file 10 "Controller/./FOC/rtwtypes.h"
 365              		.file 11 "Controller/./FOC/VF.h"
 366              		.file 12 "Controller/./State/state.h"
 367              		.file 13 "Core/Inc/spi.h"
 368              		.file 14 "Controller/./Devices/dev_usart.h"
 369              		.file 15 "C:/Users/Rick/AppData/Roaming/Code/User/globalStorage/bmd.stm32-for-vscode/@xpack-dev-to
 370              		.file 16 "Controller/./Sensors/current.h"
 371              		.file 17 "Controller/./PWM/pwm.h"
 372              		.file 18 "Controller/./Sensors/hall.h"
 373              		.file 19 "Controller/Sensors/./vbus.h"
 374              		.file 20 "Drivers/STM32F4xx_HAL_Driver/Inc/stm32f4xx_hal.h"
ARM GAS  C:\Users\Rick\AppData\Local\Temp\ccBRnFl9.s 			page 10


DEFINED SYMBOLS
                            *ABS*:00000000 controller.c
C:\Users\Rick\AppData\Local\Temp\ccBRnFl9.s:21     .text.controller_init:00000000 $t
C:\Users\Rick\AppData\Local\Temp\ccBRnFl9.s:27     .text.controller_init:00000000 controller_init
C:\Users\Rick\AppData\Local\Temp\ccBRnFl9.s:196    .text.controller_init:000000f8 $d
C:\Users\Rick\AppData\Local\Temp\ccBRnFl9.s:352    .bss.g_driver:00000000 g_driver
C:\Users\Rick\AppData\Local\Temp\ccBRnFl9.s:205    .text.controller_step:00000000 $t
C:\Users\Rick\AppData\Local\Temp\ccBRnFl9.s:211    .text.controller_step:00000000 controller_step
C:\Users\Rick\AppData\Local\Temp\ccBRnFl9.s:233    .text.controller_step:00000010 $d
C:\Users\Rick\AppData\Local\Temp\ccBRnFl9.s:238    .text.core_callback:00000000 $t
C:\Users\Rick\AppData\Local\Temp\ccBRnFl9.s:244    .text.core_callback:00000000 core_callback
C:\Users\Rick\AppData\Local\Temp\ccBRnFl9.s:326    .text.core_callback:00000070 $d
C:\Users\Rick\AppData\Local\Temp\ccBRnFl9.s:345    .bss.load_data:00000000 load_data
C:\Users\Rick\AppData\Local\Temp\ccBRnFl9.s:337    .data.g_tmp:00000000 g_tmp
C:\Users\Rick\AppData\Local\Temp\ccBRnFl9.s:334    .data.g_tmp:00000000 $d
C:\Users\Rick\AppData\Local\Temp\ccBRnFl9.s:342    .bss.load_data:00000000 $d
C:\Users\Rick\AppData\Local\Temp\ccBRnFl9.s:349    .bss.g_driver:00000000 $d

UNDEFINED SYMBOLS
dev_usart_init
HAL_GPIO_WritePin
drv8323_init
drv8323_calibrate
HAL_Delay
drv8323_write_dcr
drv8323_write_csacr
drv8323_write_ocpcr
drv8323_enable_gd
vbus_get
current_init
vbus_init
hall_init
pwm_init
pwm_start
state_set
hspi3
rtU
current_get
VF_step
dev_usart_write
rtY
