ARM GAS  C:\Users\Rick\AppData\Local\Temp\ccr3jOgE.s 			page 1


   1              		.cpu cortex-m4
   2              		.arch armv7e-m
   3              		.fpu fpv4-sp-d16
   4              		.eabi_attribute 27, 1
   5              		.eabi_attribute 28, 1
   6              		.eabi_attribute 20, 1
   7              		.eabi_attribute 21, 1
   8              		.eabi_attribute 23, 3
   9              		.eabi_attribute 24, 1
  10              		.eabi_attribute 25, 1
  11              		.eabi_attribute 26, 1
  12              		.eabi_attribute 30, 1
  13              		.eabi_attribute 34, 1
  14              		.eabi_attribute 18, 4
  15              		.file	"current.c"
  16              		.text
  17              	.Ltext0:
  18              		.cfi_sections	.debug_frame
  19              		.file 1 "Controller/Sensors/current.c"
  20              		.section	.text.core_callback,"ax",%progbits
  21              		.align	1
  22              		.weak	core_callback
  23              		.syntax unified
  24              		.thumb
  25              		.thumb_func
  27              	core_callback:
  28              	.LFB239:
   1:Controller/Sensors/current.c **** #include "./current.h"
   2:Controller/Sensors/current.c **** 
   3:Controller/Sensors/current.c **** #include <string.h>
   4:Controller/Sensors/current.c **** 
   5:Controller/Sensors/current.c **** #include "adc.h"
   6:Controller/Sensors/current.c **** #include "dev_usart.h"
   7:Controller/Sensors/current.c **** #include "stm32f4xx_hal_adc_ex.h"
   8:Controller/Sensors/current.c **** 
   9:Controller/Sensors/current.c **** #define ADC_RESOLUTION 4096.0
  10:Controller/Sensors/current.c **** #define ADC_VOLTAGE_REF 3.3
  11:Controller/Sensors/current.c **** #define SHUNT_RESISTANCE 0.005
  12:Controller/Sensors/current.c **** #define AMP_GAIN 40.0
  13:Controller/Sensors/current.c **** 
  14:Controller/Sensors/current.c **** static float g_ia_offset = 0.0;
  15:Controller/Sensors/current.c **** static float g_ib_offset = 0.0;
  16:Controller/Sensors/current.c **** static float g_ic_offset = 0.0;
  17:Controller/Sensors/current.c **** static float g_gain = 0.0;
  18:Controller/Sensors/current.c **** static float g_ia = 0.0;
  19:Controller/Sensors/current.c **** static float g_ib = 0.0;
  20:Controller/Sensors/current.c **** static float g_ic = 0.0;
  21:Controller/Sensors/current.c **** 
  22:Controller/Sensors/current.c **** static uint8_t g_adc1_state = 0;
  23:Controller/Sensors/current.c **** static uint8_t g_adc2_state = 0;
  24:Controller/Sensors/current.c **** static uint8_t g_adc3_state = 0;
  25:Controller/Sensors/current.c **** 
  26:Controller/Sensors/current.c **** static float g_current[3] = {0.0f, 0.0f, 0.0f};
  27:Controller/Sensors/current.c **** 
  28:Controller/Sensors/current.c **** static uint8_t g_tmp[16] = {0, 0, 0, 0, 0, 0, 0,    0,
  29:Controller/Sensors/current.c ****                             0, 0, 0, 0, 0, 0, 0x80, 0x7f};
  30:Controller/Sensors/current.c **** 
ARM GAS  C:\Users\Rick\AppData\Local\Temp\ccr3jOgE.s 			page 2


  31:Controller/Sensors/current.c **** __weak void core_callback() {}
  29              		.loc 1 31 29 view -0
  30              		.cfi_startproc
  31              		@ args = 0, pretend = 0, frame = 0
  32              		@ frame_needed = 0, uses_anonymous_args = 0
  33              		@ link register save eliminated.
  34              		.loc 1 31 30 view .LVU1
  35 0000 7047     		bx	lr
  36              		.cfi_endproc
  37              	.LFE239:
  39              		.section	.text.HAL_ADCEx_InjectedConvCpltCallback,"ax",%progbits
  40              		.align	1
  41              		.global	HAL_ADCEx_InjectedConvCpltCallback
  42              		.syntax unified
  43              		.thumb
  44              		.thumb_func
  46              	HAL_ADCEx_InjectedConvCpltCallback:
  47              	.LVL0:
  48              	.LFB240:
  32:Controller/Sensors/current.c **** 
  33:Controller/Sensors/current.c **** void HAL_ADCEx_InjectedConvCpltCallback(ADC_HandleTypeDef* hadc) {
  49              		.loc 1 33 66 view -0
  50              		.cfi_startproc
  51              		@ args = 0, pretend = 0, frame = 0
  52              		@ frame_needed = 0, uses_anonymous_args = 0
  53              		.loc 1 33 66 is_stmt 0 view .LVU3
  54 0000 08B5     		push	{r3, lr}
  55              		.cfi_def_cfa_offset 8
  56              		.cfi_offset 3, -8
  57              		.cfi_offset 14, -4
  34:Controller/Sensors/current.c ****   static int16_t adc1_cnt = 0;
  58              		.loc 1 34 3 is_stmt 1 view .LVU4
  35:Controller/Sensors/current.c ****   static int16_t adc2_cnt = 0;
  59              		.loc 1 35 3 view .LVU5
  36:Controller/Sensors/current.c ****   static int16_t adc3_cnd = 0;
  60              		.loc 1 36 3 view .LVU6
  37:Controller/Sensors/current.c **** 
  38:Controller/Sensors/current.c ****   if (ADC1 == hadc->Instance) {
  61              		.loc 1 38 3 view .LVU7
  62              		.loc 1 38 19 is_stmt 0 view .LVU8
  63 0002 0368     		ldr	r3, [r0]
  64              		.loc 1 38 6 view .LVU9
  65 0004 5C4A     		ldr	r2, .L15
  66 0006 9342     		cmp	r3, r2
  67 0008 13D0     		beq	.L11
  39:Controller/Sensors/current.c ****     float adc1_in0 = hadc1.Instance->JDR1;
  40:Controller/Sensors/current.c ****     if (0 == g_adc1_state) {
  41:Controller/Sensors/current.c ****       g_ia_offset += adc1_in0;
  42:Controller/Sensors/current.c ****       if (100 == ++adc1_cnt) {
  43:Controller/Sensors/current.c ****         g_ia_offset /= 100.0f;
  44:Controller/Sensors/current.c ****         g_adc1_state = 1;
  45:Controller/Sensors/current.c ****       }
  46:Controller/Sensors/current.c ****     } else {
  47:Controller/Sensors/current.c ****       g_ia = (adc1_in0 - g_ia_offset) * g_gain;
  48:Controller/Sensors/current.c ****     }
  49:Controller/Sensors/current.c ****   } else if (ADC2 == hadc->Instance) {
  68              		.loc 1 49 10 is_stmt 1 view .LVU10
ARM GAS  C:\Users\Rick\AppData\Local\Temp\ccr3jOgE.s 			page 3


  69              		.loc 1 49 13 is_stmt 0 view .LVU11
  70 000a 5C4A     		ldr	r2, .L15+4
  71 000c 9342     		cmp	r3, r2
  72 000e 40D0     		beq	.L12
  50:Controller/Sensors/current.c ****     float adc2_in1 = hadc2.Instance->JDR1;
  51:Controller/Sensors/current.c ****     if (0 == g_adc2_state) {
  52:Controller/Sensors/current.c ****       g_ib_offset += adc2_in1;
  53:Controller/Sensors/current.c ****       if (100 == ++adc2_cnt) {
  54:Controller/Sensors/current.c ****         g_ib_offset /= 100.0f;
  55:Controller/Sensors/current.c ****         g_adc2_state = 1;
  56:Controller/Sensors/current.c ****       }
  57:Controller/Sensors/current.c ****     } else {
  58:Controller/Sensors/current.c ****       g_ib = (adc2_in1 - g_ib_offset) * g_gain;
  59:Controller/Sensors/current.c ****     }
  60:Controller/Sensors/current.c ****   } else if (ADC3 == hadc->Instance) {
  73              		.loc 1 60 10 is_stmt 1 view .LVU12
  74              		.loc 1 60 13 is_stmt 0 view .LVU13
  75 0010 5B4A     		ldr	r2, .L15+8
  76 0012 9342     		cmp	r3, r2
  77 0014 6DD0     		beq	.L13
  78              	.L5:
  61:Controller/Sensors/current.c ****     float adc3_in2 = hadc3.Instance->JDR1;
  62:Controller/Sensors/current.c ****     if (0 == g_adc3_state) {
  63:Controller/Sensors/current.c ****       g_ic_offset += adc3_in2;
  64:Controller/Sensors/current.c ****       if (100 == ++adc3_cnd) {
  65:Controller/Sensors/current.c ****         g_ic_offset /= 100.0f;
  66:Controller/Sensors/current.c ****         g_adc3_state = 1;
  67:Controller/Sensors/current.c ****       }
  68:Controller/Sensors/current.c ****     } else {
  69:Controller/Sensors/current.c ****       g_ic = (adc3_in2 - g_ic_offset) * g_gain;
  70:Controller/Sensors/current.c ****     }
  71:Controller/Sensors/current.c ****   }
  72:Controller/Sensors/current.c **** 
  73:Controller/Sensors/current.c ****   if (!g_adc1_state || !g_adc2_state || !g_adc3_state) {
  79              		.loc 1 73 3 is_stmt 1 view .LVU14
  80              		.loc 1 73 7 is_stmt 0 view .LVU15
  81 0016 5B4A     		ldr	r2, .L15+12
  82 0018 1278     		ldrb	r2, [r2]	@ zero_extendqisi2
  83              		.loc 1 73 6 view .LVU16
  84 001a 4AB1     		cbz	r2, .L2
  85              		.loc 1 73 24 discriminator 1 view .LVU17
  86 001c 5A4A     		ldr	r2, .L15+16
  87 001e 1278     		ldrb	r2, [r2]	@ zero_extendqisi2
  88              		.loc 1 73 21 discriminator 1 view .LVU18
  89 0020 32B1     		cbz	r2, .L2
  90              		.loc 1 73 41 discriminator 2 view .LVU19
  91 0022 5A4A     		ldr	r2, .L15+20
  92 0024 1278     		ldrb	r2, [r2]	@ zero_extendqisi2
  93              		.loc 1 73 38 discriminator 2 view .LVU20
  94 0026 1AB1     		cbz	r2, .L2
  74:Controller/Sensors/current.c ****     return;
  75:Controller/Sensors/current.c ****   }
  76:Controller/Sensors/current.c **** 
  77:Controller/Sensors/current.c ****   if (ADC1 == hadc->Instance) {
  95              		.loc 1 77 3 is_stmt 1 view .LVU21
  96              		.loc 1 77 6 is_stmt 0 view .LVU22
  97 0028 534A     		ldr	r2, .L15
ARM GAS  C:\Users\Rick\AppData\Local\Temp\ccr3jOgE.s 			page 4


  98 002a 9342     		cmp	r3, r2
  99 002c 00F09280 		beq	.L14
 100              	.LVL1:
 101              	.L2:
  78:Controller/Sensors/current.c ****     HAL_GPIO_TogglePin(GPIOC, GPIO_PIN_13);
  79:Controller/Sensors/current.c ****     // 在ADC1中触发FOC控制
  80:Controller/Sensors/current.c ****     g_current[0] = g_ia;
  81:Controller/Sensors/current.c ****     g_current[1] = g_ib;
  82:Controller/Sensors/current.c ****     g_current[2] = g_ic;
  83:Controller/Sensors/current.c **** 
  84:Controller/Sensors/current.c ****     core_callback();
  85:Controller/Sensors/current.c ****   }
  86:Controller/Sensors/current.c **** }
 102              		.loc 1 86 1 view .LVU23
 103 0030 08BD     		pop	{r3, pc}
 104              	.LVL2:
 105              	.L11:
 106              	.LBB2:
  39:Controller/Sensors/current.c ****     if (0 == g_adc1_state) {
 107              		.loc 1 39 5 is_stmt 1 view .LVU24
  39:Controller/Sensors/current.c ****     if (0 == g_adc1_state) {
 108              		.loc 1 39 27 is_stmt 0 view .LVU25
 109 0032 574A     		ldr	r2, .L15+24
 110 0034 1268     		ldr	r2, [r2]
  39:Controller/Sensors/current.c ****     if (0 == g_adc1_state) {
 111              		.loc 1 39 36 view .LVU26
 112 0036 D2ED0F7A 		vldr.32	s15, [r2, #60]	@ int
  39:Controller/Sensors/current.c ****     if (0 == g_adc1_state) {
 113              		.loc 1 39 11 view .LVU27
 114 003a F8EE677A 		vcvt.f32.u32	s15, s15
 115              	.LVL3:
  40:Controller/Sensors/current.c ****       g_ia_offset += adc1_in0;
 116              		.loc 1 40 5 is_stmt 1 view .LVU28
  40:Controller/Sensors/current.c ****       g_ia_offset += adc1_in0;
 117              		.loc 1 40 11 is_stmt 0 view .LVU29
 118 003e 514A     		ldr	r2, .L15+12
 119 0040 1278     		ldrb	r2, [r2]	@ zero_extendqisi2
  40:Controller/Sensors/current.c ****       g_ia_offset += adc1_in0;
 120              		.loc 1 40 8 view .LVU30
 121 0042 C2B9     		cbnz	r2, .L4
  41:Controller/Sensors/current.c ****       if (100 == ++adc1_cnt) {
 122              		.loc 1 41 7 is_stmt 1 view .LVU31
  41:Controller/Sensors/current.c ****       if (100 == ++adc1_cnt) {
 123              		.loc 1 41 19 is_stmt 0 view .LVU32
 124 0044 534A     		ldr	r2, .L15+28
 125 0046 92ED007A 		vldr.32	s14, [r2]
 126 004a 77EE877A 		vadd.f32	s15, s15, s14
 127              	.LVL4:
  41:Controller/Sensors/current.c ****       if (100 == ++adc1_cnt) {
 128              		.loc 1 41 19 view .LVU33
 129 004e C2ED007A 		vstr.32	s15, [r2]
  42:Controller/Sensors/current.c ****         g_ia_offset /= 100.0f;
 130              		.loc 1 42 7 is_stmt 1 view .LVU34
  42:Controller/Sensors/current.c ****         g_ia_offset /= 100.0f;
 131              		.loc 1 42 18 is_stmt 0 view .LVU35
 132 0052 5149     		ldr	r1, .L15+32
 133 0054 0A88     		ldrh	r2, [r1]
ARM GAS  C:\Users\Rick\AppData\Local\Temp\ccr3jOgE.s 			page 5


 134 0056 0132     		adds	r2, r2, #1
 135 0058 12B2     		sxth	r2, r2
  42:Controller/Sensors/current.c ****         g_ia_offset /= 100.0f;
 136              		.loc 1 42 10 view .LVU36
 137 005a 0A80     		strh	r2, [r1]	@ movhi
 138 005c 642A     		cmp	r2, #100
 139 005e DAD1     		bne	.L5
  43:Controller/Sensors/current.c ****         g_adc1_state = 1;
 140              		.loc 1 43 9 is_stmt 1 view .LVU37
  43:Controller/Sensors/current.c ****         g_adc1_state = 1;
 141              		.loc 1 43 21 is_stmt 0 view .LVU38
 142 0060 DFED4E6A 		vldr.32	s13, .L15+36
 143 0064 87EEA67A 		vdiv.f32	s14, s15, s13
 144 0068 4A4A     		ldr	r2, .L15+28
 145 006a 82ED007A 		vstr.32	s14, [r2]
  44:Controller/Sensors/current.c ****       }
 146              		.loc 1 44 9 is_stmt 1 view .LVU39
  44:Controller/Sensors/current.c ****       }
 147              		.loc 1 44 22 is_stmt 0 view .LVU40
 148 006e 454A     		ldr	r2, .L15+12
 149 0070 0121     		movs	r1, #1
 150 0072 1170     		strb	r1, [r2]
 151 0074 CFE7     		b	.L5
 152              	.LVL5:
 153              	.L4:
  47:Controller/Sensors/current.c ****     }
 154              		.loc 1 47 7 is_stmt 1 view .LVU41
  47:Controller/Sensors/current.c ****     }
 155              		.loc 1 47 24 is_stmt 0 view .LVU42
 156 0076 474A     		ldr	r2, .L15+28
 157 0078 92ED007A 		vldr.32	s14, [r2]
 158 007c 77EEC77A 		vsub.f32	s15, s15, s14
 159              	.LVL6:
  47:Controller/Sensors/current.c ****     }
 160              		.loc 1 47 39 view .LVU43
 161 0080 474A     		ldr	r2, .L15+40
 162 0082 92ED007A 		vldr.32	s14, [r2]
 163 0086 67EE877A 		vmul.f32	s15, s15, s14
  47:Controller/Sensors/current.c ****     }
 164              		.loc 1 47 12 view .LVU44
 165 008a 464A     		ldr	r2, .L15+44
 166 008c C2ED007A 		vstr.32	s15, [r2]
 167 0090 C1E7     		b	.L5
 168              	.LVL7:
 169              	.L12:
  47:Controller/Sensors/current.c ****     }
 170              		.loc 1 47 12 view .LVU45
 171              	.LBE2:
 172              	.LBB3:
  50:Controller/Sensors/current.c ****     if (0 == g_adc2_state) {
 173              		.loc 1 50 5 is_stmt 1 view .LVU46
  50:Controller/Sensors/current.c ****     if (0 == g_adc2_state) {
 174              		.loc 1 50 27 is_stmt 0 view .LVU47
 175 0092 454A     		ldr	r2, .L15+48
 176 0094 1268     		ldr	r2, [r2]
  50:Controller/Sensors/current.c ****     if (0 == g_adc2_state) {
 177              		.loc 1 50 36 view .LVU48
ARM GAS  C:\Users\Rick\AppData\Local\Temp\ccr3jOgE.s 			page 6


 178 0096 D2ED0F7A 		vldr.32	s15, [r2, #60]	@ int
  50:Controller/Sensors/current.c ****     if (0 == g_adc2_state) {
 179              		.loc 1 50 11 view .LVU49
 180 009a F8EE677A 		vcvt.f32.u32	s15, s15
 181              	.LVL8:
  51:Controller/Sensors/current.c ****       g_ib_offset += adc2_in1;
 182              		.loc 1 51 5 is_stmt 1 view .LVU50
  51:Controller/Sensors/current.c ****       g_ib_offset += adc2_in1;
 183              		.loc 1 51 11 is_stmt 0 view .LVU51
 184 009e 3A4A     		ldr	r2, .L15+16
 185 00a0 1278     		ldrb	r2, [r2]	@ zero_extendqisi2
  51:Controller/Sensors/current.c ****       g_ib_offset += adc2_in1;
 186              		.loc 1 51 8 view .LVU52
 187 00a2 C2B9     		cbnz	r2, .L7
  52:Controller/Sensors/current.c ****       if (100 == ++adc2_cnt) {
 188              		.loc 1 52 7 is_stmt 1 view .LVU53
  52:Controller/Sensors/current.c ****       if (100 == ++adc2_cnt) {
 189              		.loc 1 52 19 is_stmt 0 view .LVU54
 190 00a4 414A     		ldr	r2, .L15+52
 191 00a6 92ED007A 		vldr.32	s14, [r2]
 192 00aa 77EE877A 		vadd.f32	s15, s15, s14
 193              	.LVL9:
  52:Controller/Sensors/current.c ****       if (100 == ++adc2_cnt) {
 194              		.loc 1 52 19 view .LVU55
 195 00ae C2ED007A 		vstr.32	s15, [r2]
  53:Controller/Sensors/current.c ****         g_ib_offset /= 100.0f;
 196              		.loc 1 53 7 is_stmt 1 view .LVU56
  53:Controller/Sensors/current.c ****         g_ib_offset /= 100.0f;
 197              		.loc 1 53 18 is_stmt 0 view .LVU57
 198 00b2 3F49     		ldr	r1, .L15+56
 199 00b4 0A88     		ldrh	r2, [r1]
 200 00b6 0132     		adds	r2, r2, #1
 201 00b8 12B2     		sxth	r2, r2
  53:Controller/Sensors/current.c ****         g_ib_offset /= 100.0f;
 202              		.loc 1 53 10 view .LVU58
 203 00ba 0A80     		strh	r2, [r1]	@ movhi
 204 00bc 642A     		cmp	r2, #100
 205 00be AAD1     		bne	.L5
  54:Controller/Sensors/current.c ****         g_adc2_state = 1;
 206              		.loc 1 54 9 is_stmt 1 view .LVU59
  54:Controller/Sensors/current.c ****         g_adc2_state = 1;
 207              		.loc 1 54 21 is_stmt 0 view .LVU60
 208 00c0 DFED366A 		vldr.32	s13, .L15+36
 209 00c4 87EEA67A 		vdiv.f32	s14, s15, s13
 210 00c8 384A     		ldr	r2, .L15+52
 211 00ca 82ED007A 		vstr.32	s14, [r2]
  55:Controller/Sensors/current.c ****       }
 212              		.loc 1 55 9 is_stmt 1 view .LVU61
  55:Controller/Sensors/current.c ****       }
 213              		.loc 1 55 22 is_stmt 0 view .LVU62
 214 00ce 2E4A     		ldr	r2, .L15+16
 215 00d0 0121     		movs	r1, #1
 216 00d2 1170     		strb	r1, [r2]
 217 00d4 9FE7     		b	.L5
 218              	.LVL10:
 219              	.L7:
  58:Controller/Sensors/current.c ****     }
ARM GAS  C:\Users\Rick\AppData\Local\Temp\ccr3jOgE.s 			page 7


 220              		.loc 1 58 7 is_stmt 1 view .LVU63
  58:Controller/Sensors/current.c ****     }
 221              		.loc 1 58 24 is_stmt 0 view .LVU64
 222 00d6 354A     		ldr	r2, .L15+52
 223 00d8 92ED007A 		vldr.32	s14, [r2]
 224 00dc 77EEC77A 		vsub.f32	s15, s15, s14
 225              	.LVL11:
  58:Controller/Sensors/current.c ****     }
 226              		.loc 1 58 39 view .LVU65
 227 00e0 2F4A     		ldr	r2, .L15+40
 228 00e2 92ED007A 		vldr.32	s14, [r2]
 229 00e6 67EE877A 		vmul.f32	s15, s15, s14
  58:Controller/Sensors/current.c ****     }
 230              		.loc 1 58 12 view .LVU66
 231 00ea 324A     		ldr	r2, .L15+60
 232 00ec C2ED007A 		vstr.32	s15, [r2]
 233 00f0 91E7     		b	.L5
 234              	.LVL12:
 235              	.L13:
  58:Controller/Sensors/current.c ****     }
 236              		.loc 1 58 12 view .LVU67
 237              	.LBE3:
 238              	.LBB4:
  61:Controller/Sensors/current.c ****     if (0 == g_adc3_state) {
 239              		.loc 1 61 5 is_stmt 1 view .LVU68
  61:Controller/Sensors/current.c ****     if (0 == g_adc3_state) {
 240              		.loc 1 61 27 is_stmt 0 view .LVU69
 241 00f2 314A     		ldr	r2, .L15+64
 242 00f4 1268     		ldr	r2, [r2]
  61:Controller/Sensors/current.c ****     if (0 == g_adc3_state) {
 243              		.loc 1 61 36 view .LVU70
 244 00f6 D2ED0F7A 		vldr.32	s15, [r2, #60]	@ int
  61:Controller/Sensors/current.c ****     if (0 == g_adc3_state) {
 245              		.loc 1 61 11 view .LVU71
 246 00fa F8EE677A 		vcvt.f32.u32	s15, s15
 247              	.LVL13:
  62:Controller/Sensors/current.c ****       g_ic_offset += adc3_in2;
 248              		.loc 1 62 5 is_stmt 1 view .LVU72
  62:Controller/Sensors/current.c ****       g_ic_offset += adc3_in2;
 249              		.loc 1 62 11 is_stmt 0 view .LVU73
 250 00fe 234A     		ldr	r2, .L15+20
 251 0100 1278     		ldrb	r2, [r2]	@ zero_extendqisi2
  62:Controller/Sensors/current.c ****       g_ic_offset += adc3_in2;
 252              		.loc 1 62 8 view .LVU74
 253 0102 CAB9     		cbnz	r2, .L8
  63:Controller/Sensors/current.c ****       if (100 == ++adc3_cnd) {
 254              		.loc 1 63 7 is_stmt 1 view .LVU75
  63:Controller/Sensors/current.c ****       if (100 == ++adc3_cnd) {
 255              		.loc 1 63 19 is_stmt 0 view .LVU76
 256 0104 2D4A     		ldr	r2, .L15+68
 257 0106 92ED007A 		vldr.32	s14, [r2]
 258 010a 77EE877A 		vadd.f32	s15, s15, s14
 259              	.LVL14:
  63:Controller/Sensors/current.c ****       if (100 == ++adc3_cnd) {
 260              		.loc 1 63 19 view .LVU77
 261 010e C2ED007A 		vstr.32	s15, [r2]
  64:Controller/Sensors/current.c ****         g_ic_offset /= 100.0f;
ARM GAS  C:\Users\Rick\AppData\Local\Temp\ccr3jOgE.s 			page 8


 262              		.loc 1 64 7 is_stmt 1 view .LVU78
  64:Controller/Sensors/current.c ****         g_ic_offset /= 100.0f;
 263              		.loc 1 64 18 is_stmt 0 view .LVU79
 264 0112 2B49     		ldr	r1, .L15+72
 265 0114 0A88     		ldrh	r2, [r1]
 266 0116 0132     		adds	r2, r2, #1
 267 0118 12B2     		sxth	r2, r2
  64:Controller/Sensors/current.c ****         g_ic_offset /= 100.0f;
 268              		.loc 1 64 10 view .LVU80
 269 011a 0A80     		strh	r2, [r1]	@ movhi
 270 011c 642A     		cmp	r2, #100
 271 011e 7FF47AAF 		bne	.L5
  65:Controller/Sensors/current.c ****         g_adc3_state = 1;
 272              		.loc 1 65 9 is_stmt 1 view .LVU81
  65:Controller/Sensors/current.c ****         g_adc3_state = 1;
 273              		.loc 1 65 21 is_stmt 0 view .LVU82
 274 0122 DFED1E6A 		vldr.32	s13, .L15+36
 275 0126 87EEA67A 		vdiv.f32	s14, s15, s13
 276 012a 244A     		ldr	r2, .L15+68
 277 012c 82ED007A 		vstr.32	s14, [r2]
  66:Controller/Sensors/current.c ****       }
 278              		.loc 1 66 9 is_stmt 1 view .LVU83
  66:Controller/Sensors/current.c ****       }
 279              		.loc 1 66 22 is_stmt 0 view .LVU84
 280 0130 164A     		ldr	r2, .L15+20
 281 0132 0121     		movs	r1, #1
 282 0134 1170     		strb	r1, [r2]
 283 0136 6EE7     		b	.L5
 284              	.LVL15:
 285              	.L8:
  69:Controller/Sensors/current.c ****     }
 286              		.loc 1 69 7 is_stmt 1 view .LVU85
  69:Controller/Sensors/current.c ****     }
 287              		.loc 1 69 24 is_stmt 0 view .LVU86
 288 0138 204A     		ldr	r2, .L15+68
 289 013a 92ED007A 		vldr.32	s14, [r2]
 290 013e 77EEC77A 		vsub.f32	s15, s15, s14
 291              	.LVL16:
  69:Controller/Sensors/current.c ****     }
 292              		.loc 1 69 39 view .LVU87
 293 0142 174A     		ldr	r2, .L15+40
 294 0144 92ED007A 		vldr.32	s14, [r2]
 295 0148 67EE877A 		vmul.f32	s15, s15, s14
  69:Controller/Sensors/current.c ****     }
 296              		.loc 1 69 12 view .LVU88
 297 014c 1D4A     		ldr	r2, .L15+76
 298 014e C2ED007A 		vstr.32	s15, [r2]
 299 0152 60E7     		b	.L5
 300              	.LVL17:
 301              	.L14:
  69:Controller/Sensors/current.c ****     }
 302              		.loc 1 69 12 view .LVU89
 303              	.LBE4:
  78:Controller/Sensors/current.c ****     // 在ADC1中触发FOC控制
 304              		.loc 1 78 5 is_stmt 1 view .LVU90
 305 0154 4FF40051 		mov	r1, #8192
 306 0158 1B48     		ldr	r0, .L15+80
ARM GAS  C:\Users\Rick\AppData\Local\Temp\ccr3jOgE.s 			page 9


 307              	.LVL18:
  78:Controller/Sensors/current.c ****     // 在ADC1中触发FOC控制
 308              		.loc 1 78 5 is_stmt 0 view .LVU91
 309 015a FFF7FEFF 		bl	HAL_GPIO_TogglePin
 310              	.LVL19:
  80:Controller/Sensors/current.c ****     g_current[1] = g_ib;
 311              		.loc 1 80 5 is_stmt 1 view .LVU92
  80:Controller/Sensors/current.c ****     g_current[1] = g_ib;
 312              		.loc 1 80 18 is_stmt 0 view .LVU93
 313 015e 1B4B     		ldr	r3, .L15+84
 314 0160 104A     		ldr	r2, .L15+44
 315 0162 1268     		ldr	r2, [r2]	@ float
 316 0164 1A60     		str	r2, [r3]	@ float
  81:Controller/Sensors/current.c ****     g_current[2] = g_ic;
 317              		.loc 1 81 5 is_stmt 1 view .LVU94
  81:Controller/Sensors/current.c ****     g_current[2] = g_ic;
 318              		.loc 1 81 18 is_stmt 0 view .LVU95
 319 0166 134A     		ldr	r2, .L15+60
 320 0168 1268     		ldr	r2, [r2]	@ float
 321 016a 5A60     		str	r2, [r3, #4]	@ float
  82:Controller/Sensors/current.c **** 
 322              		.loc 1 82 5 is_stmt 1 view .LVU96
  82:Controller/Sensors/current.c **** 
 323              		.loc 1 82 18 is_stmt 0 view .LVU97
 324 016c 154A     		ldr	r2, .L15+76
 325 016e 1268     		ldr	r2, [r2]	@ float
 326 0170 9A60     		str	r2, [r3, #8]	@ float
  84:Controller/Sensors/current.c ****   }
 327              		.loc 1 84 5 is_stmt 1 view .LVU98
 328 0172 FFF7FEFF 		bl	core_callback
 329              	.LVL20:
 330 0176 5BE7     		b	.L2
 331              	.L16:
 332              		.align	2
 333              	.L15:
 334 0178 00200140 		.word	1073815552
 335 017c 00210140 		.word	1073815808
 336 0180 00220140 		.word	1073816064
 337 0184 00000000 		.word	g_adc1_state
 338 0188 00000000 		.word	g_adc2_state
 339 018c 00000000 		.word	g_adc3_state
 340 0190 00000000 		.word	hadc1
 341 0194 00000000 		.word	g_ia_offset
 342 0198 00000000 		.word	adc1_cnt.2
 343 019c 0000C842 		.word	1120403456
 344 01a0 00000000 		.word	g_gain
 345 01a4 00000000 		.word	g_ia
 346 01a8 00000000 		.word	hadc2
 347 01ac 00000000 		.word	g_ib_offset
 348 01b0 00000000 		.word	adc2_cnt.1
 349 01b4 00000000 		.word	g_ib
 350 01b8 00000000 		.word	hadc3
 351 01bc 00000000 		.word	g_ic_offset
 352 01c0 00000000 		.word	adc3_cnd.0
 353 01c4 00000000 		.word	g_ic
 354 01c8 00080240 		.word	1073874944
 355 01cc 00000000 		.word	g_current
ARM GAS  C:\Users\Rick\AppData\Local\Temp\ccr3jOgE.s 			page 10


 356              		.cfi_endproc
 357              	.LFE240:
 359              		.section	.text.current_init,"ax",%progbits
 360              		.align	1
 361              		.global	current_init
 362              		.syntax unified
 363              		.thumb
 364              		.thumb_func
 366              	current_init:
 367              	.LFB241:
  87:Controller/Sensors/current.c **** 
  88:Controller/Sensors/current.c **** void current_init(void) {
 368              		.loc 1 88 25 view -0
 369              		.cfi_startproc
 370              		@ args = 0, pretend = 0, frame = 0
 371              		@ frame_needed = 0, uses_anonymous_args = 0
 372 0000 08B5     		push	{r3, lr}
 373              		.cfi_def_cfa_offset 8
 374              		.cfi_offset 3, -8
 375              		.cfi_offset 14, -4
  89:Controller/Sensors/current.c ****   // 计算增益(计算出电压值 除以 采样电阻值 除以 放大倍数)
  90:Controller/Sensors/current.c ****   g_gain = (ADC_VOLTAGE_REF / ADC_RESOLUTION) / (SHUNT_RESISTANCE * AMP_GAIN);
 376              		.loc 1 90 3 view .LVU100
 377              		.loc 1 90 10 is_stmt 0 view .LVU101
 378 0002 064B     		ldr	r3, .L19
 379 0004 064A     		ldr	r2, .L19+4
 380 0006 1A60     		str	r2, [r3]	@ float
  91:Controller/Sensors/current.c **** 
  92:Controller/Sensors/current.c ****   HAL_ADCEx_InjectedStart_IT(&hadc1);
 381              		.loc 1 92 3 is_stmt 1 view .LVU102
 382 0008 0648     		ldr	r0, .L19+8
 383 000a FFF7FEFF 		bl	HAL_ADCEx_InjectedStart_IT
 384              	.LVL21:
  93:Controller/Sensors/current.c ****   HAL_ADCEx_InjectedStart_IT(&hadc2);
 385              		.loc 1 93 3 view .LVU103
 386 000e 0648     		ldr	r0, .L19+12
 387 0010 FFF7FEFF 		bl	HAL_ADCEx_InjectedStart_IT
 388              	.LVL22:
  94:Controller/Sensors/current.c ****   HAL_ADCEx_InjectedStart_IT(&hadc3);
 389              		.loc 1 94 3 view .LVU104
 390 0014 0548     		ldr	r0, .L19+16
 391 0016 FFF7FEFF 		bl	HAL_ADCEx_InjectedStart_IT
 392              	.LVL23:
  95:Controller/Sensors/current.c **** }
 393              		.loc 1 95 1 is_stmt 0 view .LVU105
 394 001a 08BD     		pop	{r3, pc}
 395              	.L20:
 396              		.align	2
 397              	.L19:
 398 001c 00000000 		.word	g_gain
 399 0020 0000843B 		.word	998506496
 400 0024 00000000 		.word	hadc1
 401 0028 00000000 		.word	hadc2
 402 002c 00000000 		.word	hadc3
 403              		.cfi_endproc
 404              	.LFE241:
 406              		.section	.text.current_get,"ax",%progbits
ARM GAS  C:\Users\Rick\AppData\Local\Temp\ccr3jOgE.s 			page 11


 407              		.align	1
 408              		.global	current_get
 409              		.syntax unified
 410              		.thumb
 411              		.thumb_func
 413              	current_get:
 414              	.LVL24:
 415              	.LFB242:
  96:Controller/Sensors/current.c **** 
  97:Controller/Sensors/current.c **** int current_get(float* arr) {
 416              		.loc 1 97 29 is_stmt 1 view -0
 417              		.cfi_startproc
 418              		@ args = 0, pretend = 0, frame = 0
 419              		@ frame_needed = 0, uses_anonymous_args = 0
 420              		@ link register save eliminated.
  98:Controller/Sensors/current.c ****   if (!g_adc1_state || !g_adc2_state || !g_adc3_state) {
 421              		.loc 1 98 3 view .LVU107
 422              		.loc 1 98 7 is_stmt 0 view .LVU108
 423 0000 0E4A     		ldr	r2, .L30
 424 0002 1278     		ldrb	r2, [r2]	@ zero_extendqisi2
 425              		.loc 1 98 6 view .LVU109
 426 0004 82B1     		cbz	r2, .L23
 427 0006 0346     		mov	r3, r0
 428              		.loc 1 98 24 discriminator 1 view .LVU110
 429 0008 0D4A     		ldr	r2, .L30+4
 430 000a 1278     		ldrb	r2, [r2]	@ zero_extendqisi2
 431              		.loc 1 98 21 discriminator 1 view .LVU111
 432 000c 7AB1     		cbz	r2, .L24
 433              		.loc 1 98 41 discriminator 2 view .LVU112
 434 000e 0D4A     		ldr	r2, .L30+8
 435 0010 1278     		ldrb	r2, [r2]	@ zero_extendqisi2
 436              		.loc 1 98 38 discriminator 2 view .LVU113
 437 0012 7AB1     		cbz	r2, .L25
  97:Controller/Sensors/current.c ****   if (!g_adc1_state || !g_adc2_state || !g_adc3_state) {
 438              		.loc 1 97 29 view .LVU114
 439 0014 10B4     		push	{r4}
 440              		.cfi_def_cfa_offset 4
 441              		.cfi_offset 4, -4
  99:Controller/Sensors/current.c ****     return -1;
 100:Controller/Sensors/current.c ****   }
 101:Controller/Sensors/current.c ****   memcpy(arr, g_current, sizeof(g_current));
 442              		.loc 1 101 3 is_stmt 1 view .LVU115
 443 0016 0C4C     		ldr	r4, .L30+12
 444 0018 07CC     		ldmia	r4!, {r0, r1, r2}
 445              	.LVL25:
 446              		.loc 1 101 3 is_stmt 0 view .LVU116
 447 001a 1860     		str	r0, [r3]	@ unaligned
 448 001c 5960     		str	r1, [r3, #4]	@ unaligned
 449 001e 9A60     		str	r2, [r3, #8]	@ unaligned
 102:Controller/Sensors/current.c ****   return 0;
 450              		.loc 1 102 3 is_stmt 1 view .LVU117
 451              		.loc 1 102 10 is_stmt 0 view .LVU118
 452 0020 0020     		movs	r0, #0
 103:Controller/Sensors/current.c **** }...
 453              		.loc 1 103 1 view .LVU119
 454 0022 5DF8044B 		ldr	r4, [sp], #4
 455              		.cfi_restore 4
ARM GAS  C:\Users\Rick\AppData\Local\Temp\ccr3jOgE.s 			page 12


 456              		.cfi_def_cfa_offset 0
 457 0026 7047     		bx	lr
 458              	.LVL26:
 459              	.L23:
  99:Controller/Sensors/current.c ****     return -1;
 460              		.loc 1 99 12 view .LVU120
 461 0028 4FF0FF30 		mov	r0, #-1
 462              	.LVL27:
  99:Controller/Sensors/current.c ****     return -1;
 463              		.loc 1 99 12 view .LVU121
 464 002c 7047     		bx	lr
 465              	.LVL28:
 466              	.L24:
  99:Controller/Sensors/current.c ****     return -1;
 467              		.loc 1 99 12 view .LVU122
 468 002e 4FF0FF30 		mov	r0, #-1
 469              	.LVL29:
  99:Controller/Sensors/current.c ****     return -1;
 470              		.loc 1 99 12 view .LVU123
 471 0032 7047     		bx	lr
 472              	.LVL30:
 473              	.L25:
  99:Controller/Sensors/current.c ****     return -1;
 474              		.loc 1 99 12 view .LVU124
 475 0034 4FF0FF30 		mov	r0, #-1
 476              	.LVL31:
 477              		.loc 1 103 1 view .LVU125
 478 0038 7047     		bx	lr
 479              	.L31:
 480 003a 00BF     		.align	2
 481              	.L30:
 482 003c 00000000 		.word	g_adc1_state
 483 0040 00000000 		.word	g_adc2_state
 484 0044 00000000 		.word	g_adc3_state
 485 0048 00000000 		.word	g_current
 486              		.cfi_endproc
 487              	.LFE242:
 489              		.section	.bss.adc3_cnd.0,"aw",%nobits
 490              		.align	1
 493              	adc3_cnd.0:
 494 0000 0000     		.space	2
 495              		.section	.bss.adc2_cnt.1,"aw",%nobits
 496              		.align	1
 499              	adc2_cnt.1:
 500 0000 0000     		.space	2
 501              		.section	.bss.adc1_cnt.2,"aw",%nobits
 502              		.align	1
 505              	adc1_cnt.2:
 506 0000 0000     		.space	2
 507              		.section	.bss.g_current,"aw",%nobits
 508              		.align	2
 511              	g_current:
 512 0000 00000000 		.space	12
 512      00000000 
 512      00000000 
 513              		.section	.bss.g_adc3_state,"aw",%nobits
 516              	g_adc3_state:
ARM GAS  C:\Users\Rick\AppData\Local\Temp\ccr3jOgE.s 			page 13


 517 0000 00       		.space	1
 518              		.section	.bss.g_adc2_state,"aw",%nobits
 521              	g_adc2_state:
 522 0000 00       		.space	1
 523              		.section	.bss.g_adc1_state,"aw",%nobits
 526              	g_adc1_state:
 527 0000 00       		.space	1
 528              		.section	.bss.g_ic,"aw",%nobits
 529              		.align	2
 532              	g_ic:
 533 0000 00000000 		.space	4
 534              		.section	.bss.g_ib,"aw",%nobits
 535              		.align	2
 538              	g_ib:
 539 0000 00000000 		.space	4
 540              		.section	.bss.g_ia,"aw",%nobits
 541              		.align	2
 544              	g_ia:
 545 0000 00000000 		.space	4
 546              		.section	.bss.g_gain,"aw",%nobits
 547              		.align	2
 550              	g_gain:
 551 0000 00000000 		.space	4
 552              		.section	.bss.g_ic_offset,"aw",%nobits
 553              		.align	2
 556              	g_ic_offset:
 557 0000 00000000 		.space	4
 558              		.section	.bss.g_ib_offset,"aw",%nobits
 559              		.align	2
 562              	g_ib_offset:
 563 0000 00000000 		.space	4
 564              		.section	.bss.g_ia_offset,"aw",%nobits
 565              		.align	2
 568              	g_ia_offset:
 569 0000 00000000 		.space	4
 570              		.text
 571              	.Letext0:
 572              		.file 2 "C:/Users/Rick/AppData/Roaming/Code/User/globalStorage/bmd.stm32-for-vscode/@xpack-dev-too
 573              		.file 3 "C:/Users/Rick/AppData/Roaming/Code/User/globalStorage/bmd.stm32-for-vscode/@xpack-dev-too
 574              		.file 4 "Drivers/CMSIS/Device/ST/STM32F4xx/Include/stm32f446xx.h"
 575              		.file 5 "Drivers/CMSIS/Device/ST/STM32F4xx/Include/stm32f4xx.h"
 576              		.file 6 "Drivers/STM32F4xx_HAL_Driver/Inc/stm32f4xx_hal_def.h"
 577              		.file 7 "Drivers/STM32F4xx_HAL_Driver/Inc/stm32f4xx_hal_dma.h"
 578              		.file 8 "Drivers/STM32F4xx_HAL_Driver/Inc/stm32f4xx_hal_adc.h"
 579              		.file 9 "Core/Inc/adc.h"
 580              		.file 10 "C:/Users/Rick/AppData/Roaming/Code/User/globalStorage/bmd.stm32-for-vscode/@xpack-dev-to
 581              		.file 11 "Drivers/STM32F4xx_HAL_Driver/Inc/stm32f4xx_hal_adc_ex.h"
 582              		.file 12 "Drivers/STM32F4xx_HAL_Driver/Inc/stm32f4xx_hal_gpio.h"
ARM GAS  C:\Users\Rick\AppData\Local\Temp\ccr3jOgE.s 			page 14


DEFINED SYMBOLS
                            *ABS*:00000000 current.c
C:\Users\Rick\AppData\Local\Temp\ccr3jOgE.s:21     .text.core_callback:00000000 $t
C:\Users\Rick\AppData\Local\Temp\ccr3jOgE.s:27     .text.core_callback:00000000 core_callback
C:\Users\Rick\AppData\Local\Temp\ccr3jOgE.s:40     .text.HAL_ADCEx_InjectedConvCpltCallback:00000000 $t
C:\Users\Rick\AppData\Local\Temp\ccr3jOgE.s:46     .text.HAL_ADCEx_InjectedConvCpltCallback:00000000 HAL_ADCEx_InjectedConvCpltCallback
C:\Users\Rick\AppData\Local\Temp\ccr3jOgE.s:334    .text.HAL_ADCEx_InjectedConvCpltCallback:00000178 $d
C:\Users\Rick\AppData\Local\Temp\ccr3jOgE.s:526    .bss.g_adc1_state:00000000 g_adc1_state
C:\Users\Rick\AppData\Local\Temp\ccr3jOgE.s:521    .bss.g_adc2_state:00000000 g_adc2_state
C:\Users\Rick\AppData\Local\Temp\ccr3jOgE.s:516    .bss.g_adc3_state:00000000 g_adc3_state
C:\Users\Rick\AppData\Local\Temp\ccr3jOgE.s:568    .bss.g_ia_offset:00000000 g_ia_offset
C:\Users\Rick\AppData\Local\Temp\ccr3jOgE.s:505    .bss.adc1_cnt.2:00000000 adc1_cnt.2
C:\Users\Rick\AppData\Local\Temp\ccr3jOgE.s:550    .bss.g_gain:00000000 g_gain
C:\Users\Rick\AppData\Local\Temp\ccr3jOgE.s:544    .bss.g_ia:00000000 g_ia
C:\Users\Rick\AppData\Local\Temp\ccr3jOgE.s:562    .bss.g_ib_offset:00000000 g_ib_offset
C:\Users\Rick\AppData\Local\Temp\ccr3jOgE.s:499    .bss.adc2_cnt.1:00000000 adc2_cnt.1
C:\Users\Rick\AppData\Local\Temp\ccr3jOgE.s:538    .bss.g_ib:00000000 g_ib
C:\Users\Rick\AppData\Local\Temp\ccr3jOgE.s:556    .bss.g_ic_offset:00000000 g_ic_offset
C:\Users\Rick\AppData\Local\Temp\ccr3jOgE.s:493    .bss.adc3_cnd.0:00000000 adc3_cnd.0
C:\Users\Rick\AppData\Local\Temp\ccr3jOgE.s:532    .bss.g_ic:00000000 g_ic
C:\Users\Rick\AppData\Local\Temp\ccr3jOgE.s:511    .bss.g_current:00000000 g_current
C:\Users\Rick\AppData\Local\Temp\ccr3jOgE.s:360    .text.current_init:00000000 $t
C:\Users\Rick\AppData\Local\Temp\ccr3jOgE.s:366    .text.current_init:00000000 current_init
C:\Users\Rick\AppData\Local\Temp\ccr3jOgE.s:398    .text.current_init:0000001c $d
C:\Users\Rick\AppData\Local\Temp\ccr3jOgE.s:407    .text.current_get:00000000 $t
C:\Users\Rick\AppData\Local\Temp\ccr3jOgE.s:413    .text.current_get:00000000 current_get
C:\Users\Rick\AppData\Local\Temp\ccr3jOgE.s:482    .text.current_get:0000003c $d
C:\Users\Rick\AppData\Local\Temp\ccr3jOgE.s:490    .bss.adc3_cnd.0:00000000 $d
C:\Users\Rick\AppData\Local\Temp\ccr3jOgE.s:496    .bss.adc2_cnt.1:00000000 $d
C:\Users\Rick\AppData\Local\Temp\ccr3jOgE.s:502    .bss.adc1_cnt.2:00000000 $d
C:\Users\Rick\AppData\Local\Temp\ccr3jOgE.s:508    .bss.g_current:00000000 $d
C:\Users\Rick\AppData\Local\Temp\ccr3jOgE.s:517    .bss.g_adc3_state:00000000 $d
C:\Users\Rick\AppData\Local\Temp\ccr3jOgE.s:522    .bss.g_adc2_state:00000000 $d
C:\Users\Rick\AppData\Local\Temp\ccr3jOgE.s:527    .bss.g_adc1_state:00000000 $d
C:\Users\Rick\AppData\Local\Temp\ccr3jOgE.s:529    .bss.g_ic:00000000 $d
C:\Users\Rick\AppData\Local\Temp\ccr3jOgE.s:535    .bss.g_ib:00000000 $d
C:\Users\Rick\AppData\Local\Temp\ccr3jOgE.s:541    .bss.g_ia:00000000 $d
C:\Users\Rick\AppData\Local\Temp\ccr3jOgE.s:547    .bss.g_gain:00000000 $d
C:\Users\Rick\AppData\Local\Temp\ccr3jOgE.s:553    .bss.g_ic_offset:00000000 $d
C:\Users\Rick\AppData\Local\Temp\ccr3jOgE.s:559    .bss.g_ib_offset:00000000 $d
C:\Users\Rick\AppData\Local\Temp\ccr3jOgE.s:565    .bss.g_ia_offset:00000000 $d

UNDEFINED SYMBOLS
HAL_GPIO_TogglePin
hadc1
hadc2
hadc3
HAL_ADCEx_InjectedStart_IT
