ARM GAS  C:\Users\Rick\AppData\Local\Temp\cc6Y7PK5.s 			page 1


   1              		.cpu cortex-m4
   2              		.arch armv7e-m
   3              		.fpu fpv4-sp-d16
   4              		.eabi_attribute 27, 1
   5              		.eabi_attribute 28, 1
   6              		.eabi_attribute 20, 1
   7              		.eabi_attribute 21, 1
   8              		.eabi_attribute 23, 3
   9              		.eabi_attribute 24, 1
  10              		.eabi_attribute 25, 1
  11              		.eabi_attribute 26, 1
  12              		.eabi_attribute 30, 1
  13              		.eabi_attribute 34, 1
  14              		.eabi_attribute 18, 4
  15              		.file	"current.c"
  16              		.text
  17              	.Ltext0:
  18              		.cfi_sections	.debug_frame
  19              		.file 1 "Controller/Current/current.c"
  20              		.section	.text.HAL_ADCEx_InjectedConvCpltCallback,"ax",%progbits
  21              		.align	1
  22              		.global	HAL_ADCEx_InjectedConvCpltCallback
  23              		.syntax unified
  24              		.thumb
  25              		.thumb_func
  27              	HAL_ADCEx_InjectedConvCpltCallback:
  28              	.LVL0:
  29              	.LFB239:
   1:Controller/Current/current.c **** #include "./current.h"
   2:Controller/Current/current.c **** 
   3:Controller/Current/current.c **** #include "adc.h"
   4:Controller/Current/current.c **** #include "dev_usart.h"
   5:Controller/Current/current.c **** #include "stm32f4xx_hal_adc_ex.h"
   6:Controller/Current/current.c **** 
   7:Controller/Current/current.c **** static float g_ia_offset = 0.0f;
   8:Controller/Current/current.c **** static float g_ib_offset = 0.0f;
   9:Controller/Current/current.c **** static float g_ic_offset = 0.0f;
  10:Controller/Current/current.c **** 
  11:Controller/Current/current.c **** void HAL_ADCEx_InjectedConvCpltCallback(ADC_HandleTypeDef *hadc) {
  30              		.loc 1 11 66 view -0
  31              		.cfi_startproc
  32              		@ args = 0, pretend = 0, frame = 0
  33              		@ frame_needed = 0, uses_anonymous_args = 0
  34              		.loc 1 11 66 is_stmt 0 view .LVU1
  35 0000 08B5     		push	{r3, lr}
  36              		.cfi_def_cfa_offset 8
  37              		.cfi_offset 3, -8
  38              		.cfi_offset 14, -4
  12:Controller/Current/current.c ****   if (ADC1 == hadc->Instance) {
  39              		.loc 1 12 3 is_stmt 1 view .LVU2
  40              		.loc 1 12 19 is_stmt 0 view .LVU3
  41 0002 0268     		ldr	r2, [r0]
  42              		.loc 1 12 6 view .LVU4
  43 0004 044B     		ldr	r3, .L5
  44 0006 9A42     		cmp	r2, r3
  45 0008 00D0     		beq	.L4
  46              	.LVL1:
ARM GAS  C:\Users\Rick\AppData\Local\Temp\cc6Y7PK5.s 			page 2


  47              	.L1:
  13:Controller/Current/current.c ****     HAL_GPIO_TogglePin(GPIOC, GPIO_PIN_13);
  14:Controller/Current/current.c ****   }
  15:Controller/Current/current.c **** }
  48              		.loc 1 15 1 view .LVU5
  49 000a 08BD     		pop	{r3, pc}
  50              	.LVL2:
  51              	.L4:
  13:Controller/Current/current.c ****     HAL_GPIO_TogglePin(GPIOC, GPIO_PIN_13);
  52              		.loc 1 13 5 is_stmt 1 view .LVU6
  53 000c 4FF40051 		mov	r1, #8192
  54 0010 0248     		ldr	r0, .L5+4
  55              	.LVL3:
  13:Controller/Current/current.c ****     HAL_GPIO_TogglePin(GPIOC, GPIO_PIN_13);
  56              		.loc 1 13 5 is_stmt 0 view .LVU7
  57 0012 FFF7FEFF 		bl	HAL_GPIO_TogglePin
  58              	.LVL4:
  59              		.loc 1 15 1 view .LVU8
  60 0016 F8E7     		b	.L1
  61              	.L6:
  62              		.align	2
  63              	.L5:
  64 0018 00200140 		.word	1073815552
  65 001c 00080240 		.word	1073874944
  66              		.cfi_endproc
  67              	.LFE239:
  69              		.section	.text.current_init,"ax",%progbits
  70              		.align	1
  71              		.global	current_init
  72              		.syntax unified
  73              		.thumb
  74              		.thumb_func
  76              	current_init:
  77              	.LFB240:
  16:Controller/Current/current.c **** 
  17:Controller/Current/current.c **** void current_init(void) {
  78              		.loc 1 17 25 is_stmt 1 view -0
  79              		.cfi_startproc
  80              		@ args = 0, pretend = 0, frame = 0
  81              		@ frame_needed = 0, uses_anonymous_args = 0
  82 0000 08B5     		push	{r3, lr}
  83              		.cfi_def_cfa_offset 8
  84              		.cfi_offset 3, -8
  85              		.cfi_offset 14, -4
  18:Controller/Current/current.c ****   HAL_ADCEx_InjectedStart_IT(&hadc1);
  86              		.loc 1 18 3 view .LVU10
  87 0002 0548     		ldr	r0, .L9
  88 0004 FFF7FEFF 		bl	HAL_ADCEx_InjectedStart_IT
  89              	.LVL5:
  19:Controller/Current/current.c ****   HAL_ADCEx_InjectedStart_IT(&hadc2);
  90              		.loc 1 19 3 view .LVU11
  91 0008 0448     		ldr	r0, .L9+4
  92 000a FFF7FEFF 		bl	HAL_ADCEx_InjectedStart_IT
  93              	.LVL6:
  20:Controller/Current/current.c ****   HAL_ADCEx_InjectedStart_IT(&hadc3);
  94              		.loc 1 20 3 view .LVU12
  95 000e 0448     		ldr	r0, .L9+8
ARM GAS  C:\Users\Rick\AppData\Local\Temp\cc6Y7PK5.s 			page 3


  96 0010 FFF7FEFF 		bl	HAL_ADCEx_InjectedStart_IT
  97              	.LVL7:
  21:Controller/Current/current.c **** }...
  98              		.loc 1 21 1 is_stmt 0 view .LVU13
  99 0014 08BD     		pop	{r3, pc}
 100              	.L10:
 101 0016 00BF     		.align	2
 102              	.L9:
 103 0018 00000000 		.word	hadc1
 104 001c 00000000 		.word	hadc2
 105 0020 00000000 		.word	hadc3
 106              		.cfi_endproc
 107              	.LFE240:
 109              		.text
 110              	.Letext0:
 111              		.file 2 "C:/Users/Rick/AppData/Roaming/Code/User/globalStorage/bmd.stm32-for-vscode/@xpack-dev-too
 112              		.file 3 "C:/Users/Rick/AppData/Roaming/Code/User/globalStorage/bmd.stm32-for-vscode/@xpack-dev-too
 113              		.file 4 "Drivers/CMSIS/Device/ST/STM32F4xx/Include/stm32f446xx.h"
 114              		.file 5 "Drivers/CMSIS/Device/ST/STM32F4xx/Include/stm32f4xx.h"
 115              		.file 6 "Drivers/STM32F4xx_HAL_Driver/Inc/stm32f4xx_hal_def.h"
 116              		.file 7 "Drivers/STM32F4xx_HAL_Driver/Inc/stm32f4xx_hal_dma.h"
 117              		.file 8 "Drivers/STM32F4xx_HAL_Driver/Inc/stm32f4xx_hal_adc.h"
 118              		.file 9 "Core/Inc/adc.h"
 119              		.file 10 "Drivers/STM32F4xx_HAL_Driver/Inc/stm32f4xx_hal_adc_ex.h"
 120              		.file 11 "Drivers/STM32F4xx_HAL_Driver/Inc/stm32f4xx_hal_gpio.h"
ARM GAS  C:\Users\Rick\AppData\Local\Temp\cc6Y7PK5.s 			page 4

