ARM GAS  C:\Users\Rick\AppData\Local\Temp\cchuSICR.s 			page 1


   1              		.cpu cortex-m4
   2              		.arch armv7e-m
   3              		.fpu fpv4-sp-d16
   4              		.eabi_attribute 27, 1
   5              		.eabi_attribute 28, 1
   6              		.eabi_attribute 20, 1
   7              		.eabi_attribute 21, 1
   8              		.eabi_attribute 23, 3
   9              		.eabi_attribute 24, 1
  10              		.eabi_attribute 25, 1
  11              		.eabi_attribute 26, 1
  12              		.eabi_attribute 30, 1
  13              		.eabi_attribute 34, 1
  14              		.eabi_attribute 18, 4
  15              		.file	"dev_usart.c"
  16              		.text
  17              	.Ltext0:
  18              		.cfi_sections	.debug_frame
  19              		.file 1 "Controller/Devices/dev_usart.c"
  20              		.section	.text.dev_usart_init,"ax",%progbits
  21              		.align	1
  22              		.global	dev_usart_init
  23              		.syntax unified
  24              		.thumb
  25              		.thumb_func
  27              	dev_usart_init:
  28              	.LFB239:
   1:Controller/Devices/dev_usart.c **** #include "./dev_usart.h"
   2:Controller/Devices/dev_usart.c **** 
   3:Controller/Devices/dev_usart.c **** #include "string.h"
   4:Controller/Devices/dev_usart.c **** #include "usart.h"
   5:Controller/Devices/dev_usart.c **** 
   6:Controller/Devices/dev_usart.c **** #define TX_BUFFER_SIZE 256
   7:Controller/Devices/dev_usart.c **** #define RX_BUFFER_SIZE 256
   8:Controller/Devices/dev_usart.c **** 
   9:Controller/Devices/dev_usart.c **** extern DMA_HandleTypeDef hdma_usart3_tx;
  10:Controller/Devices/dev_usart.c **** extern DMA_HandleTypeDef hdma_usart3_rx;
  11:Controller/Devices/dev_usart.c **** 
  12:Controller/Devices/dev_usart.c **** uint8_t tx_buffer[TX_BUFFER_SIZE];
  13:Controller/Devices/dev_usart.c **** uint8_t rx_buffer[RX_BUFFER_SIZE];
  14:Controller/Devices/dev_usart.c **** 
  15:Controller/Devices/dev_usart.c **** int dev_usart_init(void) {
  29              		.loc 1 15 26 view -0
  30              		.cfi_startproc
  31              		@ args = 0, pretend = 0, frame = 0
  32              		@ frame_needed = 0, uses_anonymous_args = 0
  33 0000 08B5     		push	{r3, lr}
  34              		.cfi_def_cfa_offset 8
  35              		.cfi_offset 3, -8
  36              		.cfi_offset 14, -4
  16:Controller/Devices/dev_usart.c ****   HAL_UART_Receive_DMA(&huart3, rx_buffer, RX_BUFFER_SIZE);
  37              		.loc 1 16 3 view .LVU1
  38 0002 4FF48072 		mov	r2, #256
  39 0006 0249     		ldr	r1, .L3
  40 0008 0248     		ldr	r0, .L3+4
  41 000a FFF7FEFF 		bl	HAL_UART_Receive_DMA
  42              	.LVL0:
ARM GAS  C:\Users\Rick\AppData\Local\Temp\cchuSICR.s 			page 2


  17:Controller/Devices/dev_usart.c **** }
  43              		.loc 1 17 1 is_stmt 0 view .LVU2
  44 000e 08BD     		pop	{r3, pc}
  45              	.L4:
  46              		.align	2
  47              	.L3:
  48 0010 00000000 		.word	rx_buffer
  49 0014 00000000 		.word	huart3
  50              		.cfi_endproc
  51              	.LFE239:
  53              		.section	.text.dev_usart_write,"ax",%progbits
  54              		.align	1
  55              		.global	dev_usart_write
  56              		.syntax unified
  57              		.thumb
  58              		.thumb_func
  60              	dev_usart_write:
  61              	.LVL1:
  62              	.LFB240:
  18:Controller/Devices/dev_usart.c **** 
  19:Controller/Devices/dev_usart.c **** int dev_usart_write(const uint8_t* buf, uint16_t size) {
  63              		.loc 1 19 56 is_stmt 1 view -0
  64              		.cfi_startproc
  65              		@ args = 0, pretend = 0, frame = 0
  66              		@ frame_needed = 0, uses_anonymous_args = 0
  20:Controller/Devices/dev_usart.c ****   if (size > TX_BUFFER_SIZE) {
  67              		.loc 1 20 3 view .LVU4
  68              		.loc 1 20 6 is_stmt 0 view .LVU5
  69 0000 B1F5807F 		cmp	r1, #256
  70 0004 0DD8     		bhi	.L7
  19:Controller/Devices/dev_usart.c ****   if (size > TX_BUFFER_SIZE) {
  71              		.loc 1 19 56 view .LVU6
  72 0006 38B5     		push	{r3, r4, r5, lr}
  73              		.cfi_def_cfa_offset 16
  74              		.cfi_offset 3, -16
  75              		.cfi_offset 4, -12
  76              		.cfi_offset 5, -8
  77              		.cfi_offset 14, -4
  78 0008 0C46     		mov	r4, r1
  21:Controller/Devices/dev_usart.c ****     return -1;  // 错误：数据长度超过缓冲区限制
  22:Controller/Devices/dev_usart.c ****   }
  23:Controller/Devices/dev_usart.c ****   memcpy(tx_buffer, buf, size);
  79              		.loc 1 23 3 is_stmt 1 view .LVU7
  80 000a 074D     		ldr	r5, .L12
  81 000c 0A46     		mov	r2, r1
  82 000e 0146     		mov	r1, r0
  83              	.LVL2:
  84              		.loc 1 23 3 is_stmt 0 view .LVU8
  85 0010 2846     		mov	r0, r5
  86              	.LVL3:
  87              		.loc 1 23 3 view .LVU9
  88 0012 FFF7FEFF 		bl	memcpy
  89              	.LVL4:
  24:Controller/Devices/dev_usart.c ****   return HAL_UART_Transmit_DMA(&huart3, tx_buffer, size);
  90              		.loc 1 24 3 is_stmt 1 view .LVU10
  91              		.loc 1 24 10 is_stmt 0 view .LVU11
  92 0016 2246     		mov	r2, r4
ARM GAS  C:\Users\Rick\AppData\Local\Temp\cchuSICR.s 			page 3


  93 0018 2946     		mov	r1, r5
  94 001a 0448     		ldr	r0, .L12+4
  95 001c FFF7FEFF 		bl	HAL_UART_Transmit_DMA
  96              	.LVL5:
  25:Controller/Devices/dev_usart.c **** }
  97              		.loc 1 25 1 view .LVU12
  98 0020 38BD     		pop	{r3, r4, r5, pc}
  99              	.LVL6:
 100              	.L7:
 101              		.cfi_def_cfa_offset 0
 102              		.cfi_restore 3
 103              		.cfi_restore 4
 104              		.cfi_restore 5
 105              		.cfi_restore 14
  21:Controller/Devices/dev_usart.c ****     return -1;  // 错误：数据长度超过缓冲区限制
 106              		.loc 1 21 12 view .LVU13
 107 0022 4FF0FF30 		mov	r0, #-1
 108              	.LVL7:
 109              		.loc 1 25 1 view .LVU14
 110 0026 7047     		bx	lr
 111              	.L13:
 112              		.align	2
 113              	.L12:
 114 0028 00000000 		.word	tx_buffer
 115 002c 00000000 		.word	huart3
 116              		.cfi_endproc
 117              	.LFE240:
 119              		.section	.text.HAL_UARTEx_RxEventCallback,"ax",%progbits
 120              		.align	1
 121              		.global	HAL_UARTEx_RxEventCallback
 122              		.syntax unified
 123              		.thumb
 124              		.thumb_func
 126              	HAL_UARTEx_RxEventCallback:
 127              	.LVL8:
 128              	.LFB241:
  26:Controller/Devices/dev_usart.c **** 
  27:Controller/Devices/dev_usart.c **** void HAL_UARTEx_RxEventCallback(UART_HandleTypeDef* huart, uint16_t size) {
 129              		.loc 1 27 75 is_stmt 1 view -0
 130              		.cfi_startproc
 131              		@ args = 0, pretend = 0, frame = 0
 132              		@ frame_needed = 0, uses_anonymous_args = 0
 133              		@ link register save eliminated.
  28:Controller/Devices/dev_usart.c ****   if (huart->Instance == USART3) {
 134              		.loc 1 28 3 view .LVU16
  29:Controller/Devices/dev_usart.c ****   }
 135              		.loc 1 29 3 view .LVU17
  30:Controller/Devices/dev_usart.c **** }
 136              		.loc 1 30 1 is_stmt 0 view .LVU18
 137 0000 7047     		bx	lr
 138              		.cfi_endproc
 139              	.LFE241:
 141              		.section	.text.HAL_UART_ErrorCallback,"ax",%progbits
 142              		.align	1
 143              		.global	HAL_UART_ErrorCallback
 144              		.syntax unified
 145              		.thumb
ARM GAS  C:\Users\Rick\AppData\Local\Temp\cchuSICR.s 			page 4


 146              		.thumb_func
 148              	HAL_UART_ErrorCallback:
 149              	.LVL9:
 150              	.LFB242:
  31:Controller/Devices/dev_usart.c **** 
  32:Controller/Devices/dev_usart.c **** /// 下面错误处理函数中把奇偶校验错误以及数据溢出错误标志清除
  33:Controller/Devices/dev_usart.c **** /// 可以直接在调试时打断点查看huart->ErrorCode的值
  34:Controller/Devices/dev_usart.c **** void HAL_UART_ErrorCallback(UART_HandleTypeDef* huart) {
 151              		.loc 1 34 56 is_stmt 1 view -0
 152              		.cfi_startproc
 153              		@ args = 0, pretend = 0, frame = 8
 154              		@ frame_needed = 0, uses_anonymous_args = 0
  35:Controller/Devices/dev_usart.c ****   if (huart->Instance == USART3) {
 155              		.loc 1 35 3 view .LVU20
 156              		.loc 1 35 12 is_stmt 0 view .LVU21
 157 0000 0368     		ldr	r3, [r0]
 158              		.loc 1 35 6 view .LVU22
 159 0002 124A     		ldr	r2, .L22
 160 0004 9342     		cmp	r3, r2
 161 0006 00D0     		beq	.L21
 162 0008 7047     		bx	lr
 163              	.L21:
  34:Controller/Devices/dev_usart.c ****   if (huart->Instance == USART3) {
 164              		.loc 1 34 56 view .LVU23
 165 000a 00B5     		push	{lr}
 166              		.cfi_def_cfa_offset 4
 167              		.cfi_offset 14, -4
 168 000c 83B0     		sub	sp, sp, #12
 169              		.cfi_def_cfa_offset 16
  36:Controller/Devices/dev_usart.c ****     __HAL_UART_CLEAR_OREFLAG(huart);
 170              		.loc 1 36 5 is_stmt 1 view .LVU24
 171              	.LBB2:
 172              		.loc 1 36 5 view .LVU25
 173 000e 0022     		movs	r2, #0
 174 0010 0092     		str	r2, [sp]
 175              		.loc 1 36 5 view .LVU26
 176 0012 1968     		ldr	r1, [r3]
 177 0014 0091     		str	r1, [sp]
 178              		.loc 1 36 5 view .LVU27
 179 0016 5968     		ldr	r1, [r3, #4]
 180 0018 0091     		str	r1, [sp]
 181              		.loc 1 36 5 view .LVU28
 182 001a 0099     		ldr	r1, [sp]
 183              	.LBE2:
 184              		.loc 1 36 5 view .LVU29
  37:Controller/Devices/dev_usart.c ****     __HAL_UART_CLEAR_PEFLAG(huart);
 185              		.loc 1 37 5 view .LVU30
 186              	.LBB3:
 187              		.loc 1 37 5 view .LVU31
 188 001c 0192     		str	r2, [sp, #4]
 189              		.loc 1 37 5 view .LVU32
 190 001e 1A68     		ldr	r2, [r3]
 191 0020 0192     		str	r2, [sp, #4]
 192              		.loc 1 37 5 view .LVU33
 193 0022 5B68     		ldr	r3, [r3, #4]
 194 0024 0193     		str	r3, [sp, #4]
 195              		.loc 1 37 5 view .LVU34
ARM GAS  C:\Users\Rick\AppData\Local\Temp\cchuSICR.s 			page 5


 196 0026 019B     		ldr	r3, [sp, #4]
 197              	.LBE3:
 198              		.loc 1 37 5 view .LVU35
  38:Controller/Devices/dev_usart.c ****     huart->RxState = HAL_UART_STATE_READY;
 199              		.loc 1 38 5 view .LVU36
 200              		.loc 1 38 20 is_stmt 0 view .LVU37
 201 0028 2023     		movs	r3, #32
 202 002a 80F84230 		strb	r3, [r0, #66]
  39:Controller/Devices/dev_usart.c ****     HAL_UARTEx_ReceiveToIdle_DMA(huart, rx_buffer, RX_BUFFER_SIZE);
 203              		.loc 1 39 5 is_stmt 1 view .LVU38
 204 002e 4FF48072 		mov	r2, #256
 205 0032 0749     		ldr	r1, .L22+4
 206 0034 FFF7FEFF 		bl	HAL_UARTEx_ReceiveToIdle_DMA
 207              	.LVL10:
  40:Controller/Devices/dev_usart.c ****     __HAL_DMA_DISABLE_IT(&hdma_usart3_rx, DMA_IT_HT);
 208              		.loc 1 40 5 view .LVU39
 209 0038 064B     		ldr	r3, .L22+8
 210 003a 1A68     		ldr	r2, [r3]
 211 003c 1368     		ldr	r3, [r2]
 212 003e 23F00803 		bic	r3, r3, #8
 213 0042 1360     		str	r3, [r2]
  41:Controller/Devices/dev_usart.c ****   }
  42:Controller/Devices/dev_usart.c **** }...
 214              		.loc 1 42 1 is_stmt 0 view .LVU40
 215 0044 03B0     		add	sp, sp, #12
 216              		.cfi_def_cfa_offset 4
 217              		@ sp needed
 218 0046 5DF804FB 		ldr	pc, [sp], #4
 219              	.L23:
 220 004a 00BF     		.align	2
 221              	.L22:
 222 004c 00480040 		.word	1073760256
 223 0050 00000000 		.word	rx_buffer
 224 0054 00000000 		.word	hdma_usart3_rx
 225              		.cfi_endproc
 226              	.LFE242:
 228              		.global	rx_buffer
 229              		.section	.bss.rx_buffer,"aw",%nobits
 230              		.align	2
 233              	rx_buffer:
 234 0000 00000000 		.space	256
 234      00000000 
 234      00000000 
 234      00000000 
 234      00000000 
 235              		.global	tx_buffer
 236              		.section	.bss.tx_buffer,"aw",%nobits
 237              		.align	2
 240              	tx_buffer:
 241 0000 00000000 		.space	256
 241      00000000 
 241      00000000 
 241      00000000 
 241      00000000 
 242              		.text
 243              	.Letext0:
 244              		.file 2 "C:/Users/Rick/AppData/Roaming/Code/User/globalStorage/bmd.stm32-for-vscode/@xpack-dev-too
ARM GAS  C:\Users\Rick\AppData\Local\Temp\cchuSICR.s 			page 6


 245              		.file 3 "C:/Users/Rick/AppData/Roaming/Code/User/globalStorage/bmd.stm32-for-vscode/@xpack-dev-too
 246              		.file 4 "Drivers/CMSIS/Device/ST/STM32F4xx/Include/stm32f446xx.h"
 247              		.file 5 "Drivers/STM32F4xx_HAL_Driver/Inc/stm32f4xx_hal_def.h"
 248              		.file 6 "Drivers/STM32F4xx_HAL_Driver/Inc/stm32f4xx_hal_dma.h"
 249              		.file 7 "Drivers/STM32F4xx_HAL_Driver/Inc/stm32f4xx_hal_uart.h"
 250              		.file 8 "Core/Inc/usart.h"
 251              		.file 9 "C:/Users/Rick/AppData/Roaming/Code/User/globalStorage/bmd.stm32-for-vscode/@xpack-dev-too
 252              		.file 10 "<built-in>"
ARM GAS  C:\Users\Rick\AppData\Local\Temp\cchuSICR.s 			page 7


DEFINED SYMBOLS
                            *ABS*:00000000 dev_usart.c
C:\Users\Rick\AppData\Local\Temp\cchuSICR.s:21     .text.dev_usart_init:00000000 $t
C:\Users\Rick\AppData\Local\Temp\cchuSICR.s:27     .text.dev_usart_init:00000000 dev_usart_init
C:\Users\Rick\AppData\Local\Temp\cchuSICR.s:48     .text.dev_usart_init:00000010 $d
C:\Users\Rick\AppData\Local\Temp\cchuSICR.s:233    .bss.rx_buffer:00000000 rx_buffer
C:\Users\Rick\AppData\Local\Temp\cchuSICR.s:54     .text.dev_usart_write:00000000 $t
C:\Users\Rick\AppData\Local\Temp\cchuSICR.s:60     .text.dev_usart_write:00000000 dev_usart_write
C:\Users\Rick\AppData\Local\Temp\cchuSICR.s:114    .text.dev_usart_write:00000028 $d
C:\Users\Rick\AppData\Local\Temp\cchuSICR.s:240    .bss.tx_buffer:00000000 tx_buffer
C:\Users\Rick\AppData\Local\Temp\cchuSICR.s:120    .text.HAL_UARTEx_RxEventCallback:00000000 $t
C:\Users\Rick\AppData\Local\Temp\cchuSICR.s:126    .text.HAL_UARTEx_RxEventCallback:00000000 HAL_UARTEx_RxEventCallback
C:\Users\Rick\AppData\Local\Temp\cchuSICR.s:142    .text.HAL_UART_ErrorCallback:00000000 $t
C:\Users\Rick\AppData\Local\Temp\cchuSICR.s:148    .text.HAL_UART_ErrorCallback:00000000 HAL_UART_ErrorCallback
C:\Users\Rick\AppData\Local\Temp\cchuSICR.s:222    .text.HAL_UART_ErrorCallback:0000004c $d
C:\Users\Rick\AppData\Local\Temp\cchuSICR.s:230    .bss.rx_buffer:00000000 $d
C:\Users\Rick\AppData\Local\Temp\cchuSICR.s:237    .bss.tx_buffer:00000000 $d

UNDEFINED SYMBOLS
HAL_UART_Receive_DMA
huart3
memcpy
HAL_UART_Transmit_DMA
HAL_UARTEx_ReceiveToIdle_DMA
hdma_usart3_rx
