ARM GAS  C:\Users\Rick\AppData\Local\Temp\ccts55y7.s 			page 1


   1              		.cpu cortex-m4
   2              		.arch armv7e-m
   3              		.fpu fpv4-sp-d16
   4              		.eabi_attribute 27, 1
   5              		.eabi_attribute 28, 1
   6              		.eabi_attribute 20, 1
   7              		.eabi_attribute 21, 1
   8              		.eabi_attribute 23, 3
   9              		.eabi_attribute 24, 1
  10              		.eabi_attribute 25, 1
  11              		.eabi_attribute 26, 1
  12              		.eabi_attribute 30, 1
  13              		.eabi_attribute 34, 1
  14              		.eabi_attribute 18, 4
  15              		.file	"drv8323.c"
  16              		.text
  17              	.Ltext0:
  18              		.cfi_sections	.debug_frame
  19              		.file 1 "Controller/Drivers/drv8323/drv8323.c"
  20              		.section	.text._SPI_WRITE,"ax",%progbits
  21              		.align	1
  22              		.global	_SPI_WRITE
  23              		.syntax unified
  24              		.thumb
  25              		.thumb_func
  27              	_SPI_WRITE:
  28              	.LVL0:
  29              	.LFB239:
   1:Controller/Drivers/drv8323/drv8323.c **** #include "drv8323.h"
   2:Controller/Drivers/drv8323/drv8323.c **** 
   3:Controller/Drivers/drv8323/drv8323.c **** #include "gpio.h"
   4:Controller/Drivers/drv8323/drv8323.c **** 
   5:Controller/Drivers/drv8323/drv8323.c **** // SPI通讯NSS
   6:Controller/Drivers/drv8323/drv8323.c **** #define _NSS(x) HAL_GPIO_WritePin(DRV_SPI_NSS_GPIO_Port, DRV_SPI_NSS_Pin, x)
   7:Controller/Drivers/drv8323/drv8323.c **** 
   8:Controller/Drivers/drv8323/drv8323.c **** uint16_t _SPI_WRITE(drv8323_t* self, uint16_t data) {
  30              		.loc 1 8 53 view -0
  31              		.cfi_startproc
  32              		@ args = 0, pretend = 0, frame = 16
  33              		@ frame_needed = 0, uses_anonymous_args = 0
  34              		.loc 1 8 53 is_stmt 0 view .LVU1
  35 0000 30B5     		push	{r4, r5, lr}
  36              		.cfi_def_cfa_offset 12
  37              		.cfi_offset 4, -12
  38              		.cfi_offset 5, -8
  39              		.cfi_offset 14, -4
  40 0002 87B0     		sub	sp, sp, #28
  41              		.cfi_def_cfa_offset 40
  42 0004 0446     		mov	r4, r0
  43 0006 ADF80E10 		strh	r1, [sp, #14]	@ movhi
   9:Controller/Drivers/drv8323/drv8323.c ****   uint16_t ret;
  44              		.loc 1 9 3 is_stmt 1 view .LVU2
  10:Controller/Drivers/drv8323/drv8323.c ****   _NSS(0);
  45              		.loc 1 10 3 view .LVU3
  46 000a 0E4D     		ldr	r5, .L3
  47 000c 0022     		movs	r2, #0
  48 000e 0421     		movs	r1, #4
ARM GAS  C:\Users\Rick\AppData\Local\Temp\ccts55y7.s 			page 2


  49              	.LVL1:
  50              		.loc 1 10 3 is_stmt 0 view .LVU4
  51 0010 2846     		mov	r0, r5
  52              	.LVL2:
  53              		.loc 1 10 3 view .LVU5
  54 0012 FFF7FEFF 		bl	HAL_GPIO_WritePin
  55              	.LVL3:
  11:Controller/Drivers/drv8323/drv8323.c ****   HAL_Delay(10);
  56              		.loc 1 11 3 is_stmt 1 view .LVU6
  57 0016 0A20     		movs	r0, #10
  58 0018 FFF7FEFF 		bl	HAL_Delay
  59              	.LVL4:
  12:Controller/Drivers/drv8323/drv8323.c ****   HAL_StatusTypeDef sta = HAL_SPI_TransmitReceive(
  60              		.loc 1 12 3 view .LVU7
  61              		.loc 1 12 27 is_stmt 0 view .LVU8
  62 001c 4FF47A73 		mov	r3, #1000
  63 0020 0093     		str	r3, [sp]
  64 0022 0123     		movs	r3, #1
  65 0024 0DF11602 		add	r2, sp, #22
  66 0028 0DF10E01 		add	r1, sp, #14
  67 002c 2068     		ldr	r0, [r4]
  68 002e FFF7FEFF 		bl	HAL_SPI_TransmitReceive
  69              	.LVL5:
  13:Controller/Drivers/drv8323/drv8323.c ****       self->hspi, (uint8_t*)&data, (uint8_t*)&ret, 1, DRV8323_SPI_TIMEOUT);
  14:Controller/Drivers/drv8323/drv8323.c ****   if (HAL_OK != sta) {
  70              		.loc 1 14 3 is_stmt 1 view .LVU9
  15:Controller/Drivers/drv8323/drv8323.c ****     // warn("_SPI_WRITE FAILED: %d", sta);
  16:Controller/Drivers/drv8323/drv8323.c ****   }
  71              		.loc 1 16 3 view .LVU10
  17:Controller/Drivers/drv8323/drv8323.c ****   _NSS(1);
  72              		.loc 1 17 3 view .LVU11
  73 0032 0122     		movs	r2, #1
  74 0034 0421     		movs	r1, #4
  75 0036 2846     		mov	r0, r5
  76 0038 FFF7FEFF 		bl	HAL_GPIO_WritePin
  77              	.LVL6:
  18:Controller/Drivers/drv8323/drv8323.c ****   return ret;
  78              		.loc 1 18 3 view .LVU12
  19:Controller/Drivers/drv8323/drv8323.c **** }
  79              		.loc 1 19 1 is_stmt 0 view .LVU13
  80 003c BDF81600 		ldrh	r0, [sp, #22]
  81 0040 07B0     		add	sp, sp, #28
  82              		.cfi_def_cfa_offset 12
  83              		@ sp needed
  84 0042 30BD     		pop	{r4, r5, pc}
  85              	.LVL7:
  86              	.L4:
  87              		.loc 1 19 1 view .LVU14
  88              		.align	2
  89              	.L3:
  90 0044 000C0240 		.word	1073875968
  91              		.cfi_endproc
  92              	.LFE239:
  94              		.section	.text.drv8323_init,"ax",%progbits
  95              		.align	1
  96              		.global	drv8323_init
  97              		.syntax unified
ARM GAS  C:\Users\Rick\AppData\Local\Temp\ccts55y7.s 			page 3


  98              		.thumb
  99              		.thumb_func
 101              	drv8323_init:
 102              	.LVL8:
 103              	.LFB240:
  20:Controller/Drivers/drv8323/drv8323.c **** 
  21:Controller/Drivers/drv8323/drv8323.c **** int drv8323_init(drv8323_t* self, SPI_HandleTypeDef* spi) { self->hspi = spi; }
 104              		.loc 1 21 59 is_stmt 1 view -0
 105              		.cfi_startproc
 106              		@ args = 0, pretend = 0, frame = 0
 107              		@ frame_needed = 0, uses_anonymous_args = 0
 108              		@ link register save eliminated.
 109              		.loc 1 21 61 view .LVU16
 110              		.loc 1 21 72 is_stmt 0 view .LVU17
 111 0000 0160     		str	r1, [r0]
 112              	.LVL9:
 113              		.loc 1 21 79 view .LVU18
 114 0002 7047     		bx	lr
 115              		.cfi_endproc
 116              	.LFE240:
 118              		.section	.text.drv8323_read_fsr1,"ax",%progbits
 119              		.align	1
 120              		.global	drv8323_read_fsr1
 121              		.syntax unified
 122              		.thumb
 123              		.thumb_func
 125              	drv8323_read_fsr1:
 126              	.LVL10:
 127              	.LFB241:
  22:Controller/Drivers/drv8323/drv8323.c **** 
  23:Controller/Drivers/drv8323/drv8323.c **** uint16_t drv8323_read_fsr1(drv8323_t* self) {
 128              		.loc 1 23 45 is_stmt 1 view -0
 129              		.cfi_startproc
 130              		@ args = 0, pretend = 0, frame = 0
 131              		@ frame_needed = 0, uses_anonymous_args = 0
 132              		.loc 1 23 45 is_stmt 0 view .LVU20
 133 0000 08B5     		push	{r3, lr}
 134              		.cfi_def_cfa_offset 8
 135              		.cfi_offset 3, -8
 136              		.cfi_offset 14, -4
  24:Controller/Drivers/drv8323/drv8323.c ****   uint16_t val = (1 << 15) | (FSR1 << 11);
 137              		.loc 1 24 3 is_stmt 1 view .LVU21
 138              	.LVL11:
  25:Controller/Drivers/drv8323/drv8323.c ****   return _SPI_WRITE(self, val);
 139              		.loc 1 25 3 view .LVU22
 140              		.loc 1 25 10 is_stmt 0 view .LVU23
 141 0002 4FF40041 		mov	r1, #32768
 142 0006 FFF7FEFF 		bl	_SPI_WRITE
 143              	.LVL12:
  26:Controller/Drivers/drv8323/drv8323.c **** }
 144              		.loc 1 26 1 view .LVU24
 145 000a 08BD     		pop	{r3, pc}
 146              		.cfi_endproc
 147              	.LFE241:
 149              		.section	.text.drv8323_read_fsr2,"ax",%progbits
 150              		.align	1
 151              		.global	drv8323_read_fsr2
ARM GAS  C:\Users\Rick\AppData\Local\Temp\ccts55y7.s 			page 4


 152              		.syntax unified
 153              		.thumb
 154              		.thumb_func
 156              	drv8323_read_fsr2:
 157              	.LVL13:
 158              	.LFB242:
  27:Controller/Drivers/drv8323/drv8323.c **** 
  28:Controller/Drivers/drv8323/drv8323.c **** uint16_t drv8323_read_fsr2(drv8323_t* self) {
 159              		.loc 1 28 45 is_stmt 1 view -0
 160              		.cfi_startproc
 161              		@ args = 0, pretend = 0, frame = 0
 162              		@ frame_needed = 0, uses_anonymous_args = 0
 163              		.loc 1 28 45 is_stmt 0 view .LVU26
 164 0000 08B5     		push	{r3, lr}
 165              		.cfi_def_cfa_offset 8
 166              		.cfi_offset 3, -8
 167              		.cfi_offset 14, -4
  29:Controller/Drivers/drv8323/drv8323.c ****   uint16_t val = (1 << 15) | (FSR2 << 11);
 168              		.loc 1 29 3 is_stmt 1 view .LVU27
 169              	.LVL14:
  30:Controller/Drivers/drv8323/drv8323.c ****   return _SPI_WRITE(self, val);
 170              		.loc 1 30 3 view .LVU28
 171              		.loc 1 30 10 is_stmt 0 view .LVU29
 172 0002 4FF40841 		mov	r1, #34816
 173 0006 FFF7FEFF 		bl	_SPI_WRITE
 174              	.LVL15:
  31:Controller/Drivers/drv8323/drv8323.c **** }
 175              		.loc 1 31 1 view .LVU30
 176 000a 08BD     		pop	{r3, pc}
 177              		.cfi_endproc
 178              	.LFE242:
 180              		.section	.text.drv8323_read_register,"ax",%progbits
 181              		.align	1
 182              		.global	drv8323_read_register
 183              		.syntax unified
 184              		.thumb
 185              		.thumb_func
 187              	drv8323_read_register:
 188              	.LVL16:
 189              	.LFB243:
  32:Controller/Drivers/drv8323/drv8323.c **** 
  33:Controller/Drivers/drv8323/drv8323.c **** uint16_t drv8323_read_register(drv8323_t* self, uint16_t reg) {
 190              		.loc 1 33 63 is_stmt 1 view -0
 191              		.cfi_startproc
 192              		@ args = 0, pretend = 0, frame = 0
 193              		@ frame_needed = 0, uses_anonymous_args = 0
 194              		.loc 1 33 63 is_stmt 0 view .LVU32
 195 0000 08B5     		push	{r3, lr}
 196              		.cfi_def_cfa_offset 8
 197              		.cfi_offset 3, -8
 198              		.cfi_offset 14, -4
  34:Controller/Drivers/drv8323/drv8323.c ****   uint16_t ret = _SPI_WRITE(self, (1 << 15) | (reg << 11));
 199              		.loc 1 34 3 is_stmt 1 view .LVU33
 200              		.loc 1 34 45 is_stmt 0 view .LVU34
 201 0002 6FEA0171 		mvn	r1, r1, lsl #28
 202              	.LVL17:
 203              		.loc 1 34 45 view .LVU35
ARM GAS  C:\Users\Rick\AppData\Local\Temp\ccts55y7.s 			page 5


 204 0006 6FEA5141 		mvn	r1, r1, lsr #17
 205              		.loc 1 34 18 view .LVU36
 206 000a 89B2     		uxth	r1, r1
 207 000c FFF7FEFF 		bl	_SPI_WRITE
 208              	.LVL18:
  35:Controller/Drivers/drv8323/drv8323.c ****   return ret;
 209              		.loc 1 35 3 is_stmt 1 view .LVU37
  36:Controller/Drivers/drv8323/drv8323.c **** }
 210              		.loc 1 36 1 is_stmt 0 view .LVU38
 211 0010 08BD     		pop	{r3, pc}
 212              		.cfi_endproc
 213              	.LFE243:
 215              		.section	.text.drv8323_write_register,"ax",%progbits
 216              		.align	1
 217              		.global	drv8323_write_register
 218              		.syntax unified
 219              		.thumb
 220              		.thumb_func
 222              	drv8323_write_register:
 223              	.LVL19:
 224              	.LFB244:
  37:Controller/Drivers/drv8323/drv8323.c **** 
  38:Controller/Drivers/drv8323/drv8323.c **** void drv8323_write_register(drv8323_t* self, uint16_t reg, uint16_t val) {
 225              		.loc 1 38 74 is_stmt 1 view -0
 226              		.cfi_startproc
 227              		@ args = 0, pretend = 0, frame = 0
 228              		@ frame_needed = 0, uses_anonymous_args = 0
 229              		.loc 1 38 74 is_stmt 0 view .LVU40
 230 0000 08B5     		push	{r3, lr}
 231              		.cfi_def_cfa_offset 8
 232              		.cfi_offset 3, -8
 233              		.cfi_offset 14, -4
  39:Controller/Drivers/drv8323/drv8323.c ****   _SPI_WRITE(self, (reg << 11) | val);
 234              		.loc 1 39 3 is_stmt 1 view .LVU41
 235 0002 42EAC121 		orr	r1, r2, r1, lsl #11
 236              	.LVL20:
 237              		.loc 1 39 3 is_stmt 0 view .LVU42
 238 0006 89B2     		uxth	r1, r1
 239 0008 FFF7FEFF 		bl	_SPI_WRITE
 240              	.LVL21:
  40:Controller/Drivers/drv8323/drv8323.c **** }
 241              		.loc 1 40 1 view .LVU43
 242 000c 08BD     		pop	{r3, pc}
 243              		.cfi_endproc
 244              	.LFE244:
 246              		.section	.text.drv8323_write_dcr,"ax",%progbits
 247              		.align	1
 248              		.global	drv8323_write_dcr
 249              		.syntax unified
 250              		.thumb
 251              		.thumb_func
 253              	drv8323_write_dcr:
 254              	.LVL22:
 255              	.LFB245:
  41:Controller/Drivers/drv8323/drv8323.c **** 
  42:Controller/Drivers/drv8323/drv8323.c **** void drv8323_write_dcr(drv8323_t* self, uint16_t dis_cpuv, uint16_t dis_gdf,
  43:Controller/Drivers/drv8323/drv8323.c ****                        uint16_t otw_rep, uint16_t pwm_mode, uint16_t pwm_com,
ARM GAS  C:\Users\Rick\AppData\Local\Temp\ccts55y7.s 			page 6


  44:Controller/Drivers/drv8323/drv8323.c ****                        uint16_t pwm_dir, uint16_t coast, uint16_t brake,
  45:Controller/Drivers/drv8323/drv8323.c ****                        uint16_t clr_flt) {
 256              		.loc 1 45 42 is_stmt 1 view -0
 257              		.cfi_startproc
 258              		@ args = 24, pretend = 0, frame = 0
 259              		@ frame_needed = 0, uses_anonymous_args = 0
 260              		.loc 1 45 42 is_stmt 0 view .LVU45
 261 0000 08B5     		push	{r3, lr}
 262              		.cfi_def_cfa_offset 8
 263              		.cfi_offset 3, -8
 264              		.cfi_offset 14, -4
  46:Controller/Drivers/drv8323/drv8323.c ****   uint16_t val = (DCR << 11) | (dis_cpuv << 9) | (dis_gdf << 8) |
 265              		.loc 1 46 3 is_stmt 1 view .LVU46
 266              		.loc 1 46 30 is_stmt 0 view .LVU47
 267 0002 4902     		lsls	r1, r1, #9
 268              	.LVL23:
 269              		.loc 1 46 30 view .LVU48
 270 0004 41F48051 		orr	r1, r1, #4096
 271 0008 09B2     		sxth	r1, r1
 272              		.loc 1 46 48 view .LVU49
 273 000a 41EA0221 		orr	r1, r1, r2, lsl #8
 274 000e 09B2     		sxth	r1, r1
 275              		.loc 1 46 65 view .LVU50
 276 0010 41EAC313 		orr	r3, r1, r3, lsl #7
 277              	.LVL24:
 278              		.loc 1 46 65 view .LVU51
 279 0014 1BB2     		sxth	r3, r3
  47:Controller/Drivers/drv8323/drv8323.c ****                  (otw_rep << 7) | (pwm_mode << 5) | (pwm_com << 4) |
 280              		.loc 1 47 33 view .LVU52
 281 0016 BDF80820 		ldrh	r2, [sp, #8]
 282              	.LVL25:
 283              		.loc 1 47 33 view .LVU53
 284 001a 43EA4213 		orr	r3, r3, r2, lsl #5
 285 001e 1BB2     		sxth	r3, r3
 286              		.loc 1 47 51 view .LVU54
 287 0020 BDF80C20 		ldrh	r2, [sp, #12]
 288 0024 43EA0213 		orr	r3, r3, r2, lsl #4
 289 0028 1BB2     		sxth	r3, r3
 290              		.loc 1 47 68 view .LVU55
 291 002a BDF81020 		ldrh	r2, [sp, #16]
 292 002e 43EAC203 		orr	r3, r3, r2, lsl #3
 293 0032 1BB2     		sxth	r3, r3
  48:Controller/Drivers/drv8323/drv8323.c ****                  (pwm_dir << 3) | (coast << 2) | (brake << 1) | clr_flt;
 294              		.loc 1 48 33 view .LVU56
 295 0034 BDF81420 		ldrh	r2, [sp, #20]
 296 0038 43EA8203 		orr	r3, r3, r2, lsl #2
 297 003c 1BB2     		sxth	r3, r3
 298              		.loc 1 48 48 view .LVU57
 299 003e BDF81820 		ldrh	r2, [sp, #24]
 300 0042 43EA4203 		orr	r3, r3, r2, lsl #1
 301 0046 1BB2     		sxth	r3, r3
  46:Controller/Drivers/drv8323/drv8323.c ****   uint16_t val = (DCR << 11) | (dis_cpuv << 9) | (dis_gdf << 8) |
 302              		.loc 1 46 12 view .LVU58
 303 0048 BDF81C10 		ldrh	r1, [sp, #28]
 304 004c 1943     		orrs	r1, r1, r3
 305              	.LVL26:
  49:Controller/Drivers/drv8323/drv8323.c ****   _SPI_WRITE(self, val);
ARM GAS  C:\Users\Rick\AppData\Local\Temp\ccts55y7.s 			page 7


 306              		.loc 1 49 3 is_stmt 1 view .LVU59
 307 004e 89B2     		uxth	r1, r1
 308              		.loc 1 49 3 is_stmt 0 view .LVU60
 309 0050 FFF7FEFF 		bl	_SPI_WRITE
 310              	.LVL27:
  50:Controller/Drivers/drv8323/drv8323.c **** }
 311              		.loc 1 50 1 view .LVU61
 312 0054 08BD     		pop	{r3, pc}
 313              		.loc 1 50 1 view .LVU62
 314              		.cfi_endproc
 315              	.LFE245:
 317              		.section	.text.drv8323_write_hsr,"ax",%progbits
 318              		.align	1
 319              		.global	drv8323_write_hsr
 320              		.syntax unified
 321              		.thumb
 322              		.thumb_func
 324              	drv8323_write_hsr:
 325              	.LVL28:
 326              	.LFB246:
  51:Controller/Drivers/drv8323/drv8323.c **** 
  52:Controller/Drivers/drv8323/drv8323.c **** void drv8323_write_hsr(drv8323_t* self, uint16_t lock, uint16_t idrivep_hs,
  53:Controller/Drivers/drv8323/drv8323.c ****                        uint16_t idriven_hs) {
 327              		.loc 1 53 45 is_stmt 1 view -0
 328              		.cfi_startproc
 329              		@ args = 0, pretend = 0, frame = 0
 330              		@ frame_needed = 0, uses_anonymous_args = 0
 331              		.loc 1 53 45 is_stmt 0 view .LVU64
 332 0000 08B5     		push	{r3, lr}
 333              		.cfi_def_cfa_offset 8
 334              		.cfi_offset 3, -8
 335              		.cfi_offset 14, -4
  54:Controller/Drivers/drv8323/drv8323.c ****   uint16_t val = (HSR << 11) | (lock << 8) | (idrivep_hs << 4) | idriven_hs;
 336              		.loc 1 54 3 is_stmt 1 view .LVU65
 337              		.loc 1 54 30 is_stmt 0 view .LVU66
 338 0002 4FEA012C 		lsl	ip, r1, #8
 339 0006 4CF4C05C 		orr	ip, ip, #6144
 340 000a 0FFA8CFC 		sxth	ip, ip
 341              		.loc 1 54 44 view .LVU67
 342 000e 4CEA021C 		orr	ip, ip, r2, lsl #4
 343 0012 0FFA8CFC 		sxth	ip, ip
 344              		.loc 1 54 12 view .LVU68
 345 0016 43EA0C03 		orr	r3, r3, ip
 346              	.LVL29:
  55:Controller/Drivers/drv8323/drv8323.c ****   _SPI_WRITE(self, val);
 347              		.loc 1 55 3 is_stmt 1 view .LVU69
 348 001a 99B2     		uxth	r1, r3
 349              	.LVL30:
 350              		.loc 1 55 3 is_stmt 0 view .LVU70
 351 001c FFF7FEFF 		bl	_SPI_WRITE
 352              	.LVL31:
  56:Controller/Drivers/drv8323/drv8323.c **** }
 353              		.loc 1 56 1 view .LVU71
 354 0020 08BD     		pop	{r3, pc}
 355              		.cfi_endproc
 356              	.LFE246:
 358              		.section	.text.drv8323_write_lsr,"ax",%progbits
ARM GAS  C:\Users\Rick\AppData\Local\Temp\ccts55y7.s 			page 8


 359              		.align	1
 360              		.global	drv8323_write_lsr
 361              		.syntax unified
 362              		.thumb
 363              		.thumb_func
 365              	drv8323_write_lsr:
 366              	.LVL32:
 367              	.LFB247:
  57:Controller/Drivers/drv8323/drv8323.c **** 
  58:Controller/Drivers/drv8323/drv8323.c **** void drv8323_write_lsr(drv8323_t* self, uint16_t cbc, uint16_t tdrive,
  59:Controller/Drivers/drv8323/drv8323.c ****                        uint16_t idrivep_ls, uint16_t idriven_ls) {
 368              		.loc 1 59 66 is_stmt 1 view -0
 369              		.cfi_startproc
 370              		@ args = 4, pretend = 0, frame = 0
 371              		@ frame_needed = 0, uses_anonymous_args = 0
 372              		.loc 1 59 66 is_stmt 0 view .LVU73
 373 0000 08B5     		push	{r3, lr}
 374              		.cfi_def_cfa_offset 8
 375              		.cfi_offset 3, -8
 376              		.cfi_offset 14, -4
  60:Controller/Drivers/drv8323/drv8323.c ****   uint16_t val = (LSR << 11) | (cbc << 10) | (tdrive << 8) | (idrivep_ls << 4) |
 377              		.loc 1 60 3 is_stmt 1 view .LVU74
 378              		.loc 1 60 30 is_stmt 0 view .LVU75
 379 0002 8902     		lsls	r1, r1, #10
 380              	.LVL33:
 381              		.loc 1 60 30 view .LVU76
 382 0004 41F40051 		orr	r1, r1, #8192
 383 0008 09B2     		sxth	r1, r1
 384              		.loc 1 60 44 view .LVU77
 385 000a 41EA0221 		orr	r1, r1, r2, lsl #8
 386 000e 09B2     		sxth	r1, r1
 387              		.loc 1 60 60 view .LVU78
 388 0010 41EA0311 		orr	r1, r1, r3, lsl #4
 389 0014 09B2     		sxth	r1, r1
 390              		.loc 1 60 12 view .LVU79
 391 0016 BDF80830 		ldrh	r3, [sp, #8]
 392              	.LVL34:
 393              		.loc 1 60 12 view .LVU80
 394 001a 1943     		orrs	r1, r1, r3
 395              	.LVL35:
  61:Controller/Drivers/drv8323/drv8323.c ****                  idriven_ls;
  62:Controller/Drivers/drv8323/drv8323.c ****   _SPI_WRITE(self, val);
 396              		.loc 1 62 3 is_stmt 1 view .LVU81
 397 001c 89B2     		uxth	r1, r1
 398              		.loc 1 62 3 is_stmt 0 view .LVU82
 399 001e FFF7FEFF 		bl	_SPI_WRITE
 400              	.LVL36:
  63:Controller/Drivers/drv8323/drv8323.c **** }
 401              		.loc 1 63 1 view .LVU83
 402 0022 08BD     		pop	{r3, pc}
 403              		.loc 1 63 1 view .LVU84
 404              		.cfi_endproc
 405              	.LFE247:
 407              		.section	.text.drv8323_write_ocpcr,"ax",%progbits
 408              		.align	1
 409              		.global	drv8323_write_ocpcr
 410              		.syntax unified
ARM GAS  C:\Users\Rick\AppData\Local\Temp\ccts55y7.s 			page 9


 411              		.thumb
 412              		.thumb_func
 414              	drv8323_write_ocpcr:
 415              	.LVL37:
 416              	.LFB248:
  64:Controller/Drivers/drv8323/drv8323.c **** 
  65:Controller/Drivers/drv8323/drv8323.c **** void drv8323_write_ocpcr(drv8323_t* self, uint16_t tretry, uint16_t dead_time,
  66:Controller/Drivers/drv8323/drv8323.c ****                          uint16_t ocp_mode, uint16_t ocp_deg,
  67:Controller/Drivers/drv8323/drv8323.c ****                          uint16_t vds_lvl) {
 417              		.loc 1 67 44 is_stmt 1 view -0
 418              		.cfi_startproc
 419              		@ args = 8, pretend = 0, frame = 0
 420              		@ frame_needed = 0, uses_anonymous_args = 0
 421              		.loc 1 67 44 is_stmt 0 view .LVU86
 422 0000 08B5     		push	{r3, lr}
 423              		.cfi_def_cfa_offset 8
 424              		.cfi_offset 3, -8
 425              		.cfi_offset 14, -4
  68:Controller/Drivers/drv8323/drv8323.c ****   uint16_t val = (OCPCR << 11) | (tretry << 10) | (dead_time << 8) |
 426              		.loc 1 68 3 is_stmt 1 view .LVU87
 427              		.loc 1 68 32 is_stmt 0 view .LVU88
 428 0002 8902     		lsls	r1, r1, #10
 429              	.LVL38:
 430              		.loc 1 68 32 view .LVU89
 431 0004 41F42051 		orr	r1, r1, #10240
 432 0008 09B2     		sxth	r1, r1
 433              		.loc 1 68 49 view .LVU90
 434 000a 41EA0221 		orr	r1, r1, r2, lsl #8
 435 000e 09B2     		sxth	r1, r1
 436              		.loc 1 68 68 view .LVU91
 437 0010 41EA8313 		orr	r3, r1, r3, lsl #6
 438              	.LVL39:
 439              		.loc 1 68 68 view .LVU92
 440 0014 1BB2     		sxth	r3, r3
  69:Controller/Drivers/drv8323/drv8323.c ****                  (ocp_mode << 6) | (ocp_deg << 4) | vds_lvl;
 441              		.loc 1 69 34 view .LVU93
 442 0016 BDF80820 		ldrh	r2, [sp, #8]
 443              	.LVL40:
 444              		.loc 1 69 34 view .LVU94
 445 001a 43EA0213 		orr	r3, r3, r2, lsl #4
 446 001e 1BB2     		sxth	r3, r3
  68:Controller/Drivers/drv8323/drv8323.c ****   uint16_t val = (OCPCR << 11) | (tretry << 10) | (dead_time << 8) |
 447              		.loc 1 68 12 view .LVU95
 448 0020 BDF80C10 		ldrh	r1, [sp, #12]
 449 0024 1943     		orrs	r1, r1, r3
 450              	.LVL41:
  70:Controller/Drivers/drv8323/drv8323.c ****   _SPI_WRITE(self, val);
 451              		.loc 1 70 3 is_stmt 1 view .LVU96
 452 0026 89B2     		uxth	r1, r1
 453              		.loc 1 70 3 is_stmt 0 view .LVU97
 454 0028 FFF7FEFF 		bl	_SPI_WRITE
 455              	.LVL42:
  71:Controller/Drivers/drv8323/drv8323.c **** }
 456              		.loc 1 71 1 view .LVU98
 457 002c 08BD     		pop	{r3, pc}
 458              		.loc 1 71 1 view .LVU99
 459              		.cfi_endproc
ARM GAS  C:\Users\Rick\AppData\Local\Temp\ccts55y7.s 			page 10


 460              	.LFE248:
 462              		.section	.text.drv8323_write_csacr,"ax",%progbits
 463              		.align	1
 464              		.global	drv8323_write_csacr
 465              		.syntax unified
 466              		.thumb
 467              		.thumb_func
 469              	drv8323_write_csacr:
 470              	.LVL43:
 471              	.LFB249:
  72:Controller/Drivers/drv8323/drv8323.c **** 
  73:Controller/Drivers/drv8323/drv8323.c **** void drv8323_write_csacr(drv8323_t* self, uint16_t csa_fet, uint16_t vref_div,
  74:Controller/Drivers/drv8323/drv8323.c ****                          uint16_t ls_ref, uint16_t csa_gain, uint16_t dis_sen,
  75:Controller/Drivers/drv8323/drv8323.c ****                          uint16_t csa_cal_a, uint16_t csa_cal_b,
  76:Controller/Drivers/drv8323/drv8323.c ****                          uint16_t csa_cal_c, uint16_t sen_lvl) {
 472              		.loc 1 76 64 is_stmt 1 view -0
 473              		.cfi_startproc
 474              		@ args = 24, pretend = 0, frame = 0
 475              		@ frame_needed = 0, uses_anonymous_args = 0
 476              		.loc 1 76 64 is_stmt 0 view .LVU101
 477 0000 08B5     		push	{r3, lr}
 478              		.cfi_def_cfa_offset 8
 479              		.cfi_offset 3, -8
 480              		.cfi_offset 14, -4
  77:Controller/Drivers/drv8323/drv8323.c ****   uint16_t val = (CSACR << 11) | (csa_fet << 10) | (vref_div << 9) |
 481              		.loc 1 77 3 is_stmt 1 view .LVU102
 482              		.loc 1 77 32 is_stmt 0 view .LVU103
 483 0002 8902     		lsls	r1, r1, #10
 484              	.LVL44:
 485              		.loc 1 77 32 view .LVU104
 486 0004 41F44051 		orr	r1, r1, #12288
 487 0008 09B2     		sxth	r1, r1
 488              		.loc 1 77 50 view .LVU105
 489 000a 41EA4221 		orr	r1, r1, r2, lsl #9
 490 000e 09B2     		sxth	r1, r1
 491              		.loc 1 77 68 view .LVU106
 492 0010 41EA0323 		orr	r3, r1, r3, lsl #8
 493              	.LVL45:
 494              		.loc 1 77 68 view .LVU107
 495 0014 1BB2     		sxth	r3, r3
  78:Controller/Drivers/drv8323/drv8323.c ****                  (ls_ref << 8) | (csa_gain << 6) | (dis_sen << 5) |
 496              		.loc 1 78 32 view .LVU108
 497 0016 BDF80820 		ldrh	r2, [sp, #8]
 498              	.LVL46:
 499              		.loc 1 78 32 view .LVU109
 500 001a 43EA8213 		orr	r3, r3, r2, lsl #6
 501 001e 1BB2     		sxth	r3, r3
 502              		.loc 1 78 50 view .LVU110
 503 0020 BDF80C20 		ldrh	r2, [sp, #12]
 504 0024 43EA4213 		orr	r3, r3, r2, lsl #5
 505 0028 1BB2     		sxth	r3, r3
 506              		.loc 1 78 67 view .LVU111
 507 002a BDF81020 		ldrh	r2, [sp, #16]
 508 002e 43EA0213 		orr	r3, r3, r2, lsl #4
 509 0032 1BB2     		sxth	r3, r3
  79:Controller/Drivers/drv8323/drv8323.c ****                  (csa_cal_a << 4) | (csa_cal_b << 3) | (csa_cal_c << 2) |
 510              		.loc 1 79 35 view .LVU112
ARM GAS  C:\Users\Rick\AppData\Local\Temp\ccts55y7.s 			page 11


 511 0034 BDF81420 		ldrh	r2, [sp, #20]
 512 0038 43EAC203 		orr	r3, r3, r2, lsl #3
 513 003c 1BB2     		sxth	r3, r3
 514              		.loc 1 79 54 view .LVU113
 515 003e BDF81820 		ldrh	r2, [sp, #24]
 516 0042 43EA8203 		orr	r3, r3, r2, lsl #2
 517 0046 1BB2     		sxth	r3, r3
  77:Controller/Drivers/drv8323/drv8323.c ****   uint16_t val = (CSACR << 11) | (csa_fet << 10) | (vref_div << 9) |
 518              		.loc 1 77 12 view .LVU114
 519 0048 BDF81C10 		ldrh	r1, [sp, #28]
 520 004c 1943     		orrs	r1, r1, r3
 521              	.LVL47:
  80:Controller/Drivers/drv8323/drv8323.c ****                  sen_lvl;
  81:Controller/Drivers/drv8323/drv8323.c ****   _SPI_WRITE(self, val);
 522              		.loc 1 81 3 is_stmt 1 view .LVU115
 523 004e 89B2     		uxth	r1, r1
 524              		.loc 1 81 3 is_stmt 0 view .LVU116
 525 0050 FFF7FEFF 		bl	_SPI_WRITE
 526              	.LVL48:
  82:Controller/Drivers/drv8323/drv8323.c **** }
 527              		.loc 1 82 1 view .LVU117
 528 0054 08BD     		pop	{r3, pc}
 529              		.loc 1 82 1 view .LVU118
 530              		.cfi_endproc
 531              	.LFE249:
 533              		.section	.text.drv8323_enable_gd,"ax",%progbits
 534              		.align	1
 535              		.global	drv8323_enable_gd
 536              		.syntax unified
 537              		.thumb
 538              		.thumb_func
 540              	drv8323_enable_gd:
 541              	.LVL49:
 542              	.LFB250:
  83:Controller/Drivers/drv8323/drv8323.c **** 
  84:Controller/Drivers/drv8323/drv8323.c **** void drv8323_enable_gd(drv8323_t* self) {
 543              		.loc 1 84 41 is_stmt 1 view -0
 544              		.cfi_startproc
 545              		@ args = 0, pretend = 0, frame = 0
 546              		@ frame_needed = 0, uses_anonymous_args = 0
 547              		.loc 1 84 41 is_stmt 0 view .LVU120
 548 0000 10B5     		push	{r4, lr}
 549              		.cfi_def_cfa_offset 8
 550              		.cfi_offset 4, -8
 551              		.cfi_offset 14, -4
 552 0002 0446     		mov	r4, r0
  85:Controller/Drivers/drv8323/drv8323.c ****   uint16_t val = (drv8323_read_register(self, DCR)) & (~(0x1 << 2));
 553              		.loc 1 85 3 is_stmt 1 view .LVU121
 554              		.loc 1 85 19 is_stmt 0 view .LVU122
 555 0004 0221     		movs	r1, #2
 556 0006 FFF7FEFF 		bl	drv8323_read_register
 557              	.LVL50:
 558              		.loc 1 85 12 discriminator 1 view .LVU123
 559 000a 20F00402 		bic	r2, r0, #4
 560 000e 92B2     		uxth	r2, r2
 561              	.LVL51:
  86:Controller/Drivers/drv8323/drv8323.c ****   drv8323_write_register(self, DCR, val);
ARM GAS  C:\Users\Rick\AppData\Local\Temp\ccts55y7.s 			page 12


 562              		.loc 1 86 3 is_stmt 1 view .LVU124
 563 0010 0221     		movs	r1, #2
 564 0012 2046     		mov	r0, r4
 565 0014 FFF7FEFF 		bl	drv8323_write_register
 566              	.LVL52:
  87:Controller/Drivers/drv8323/drv8323.c **** }
 567              		.loc 1 87 1 is_stmt 0 view .LVU125
 568 0018 10BD     		pop	{r4, pc}
 569              		.loc 1 87 1 view .LVU126
 570              		.cfi_endproc
 571              	.LFE250:
 573              		.section	.text.drv8323_disable_gd,"ax",%progbits
 574              		.align	1
 575              		.global	drv8323_disable_gd
 576              		.syntax unified
 577              		.thumb
 578              		.thumb_func
 580              	drv8323_disable_gd:
 581              	.LVL53:
 582              	.LFB251:
  88:Controller/Drivers/drv8323/drv8323.c **** 
  89:Controller/Drivers/drv8323/drv8323.c **** void drv8323_disable_gd(drv8323_t* self) {
 583              		.loc 1 89 42 is_stmt 1 view -0
 584              		.cfi_startproc
 585              		@ args = 0, pretend = 0, frame = 0
 586              		@ frame_needed = 0, uses_anonymous_args = 0
 587              		.loc 1 89 42 is_stmt 0 view .LVU128
 588 0000 10B5     		push	{r4, lr}
 589              		.cfi_def_cfa_offset 8
 590              		.cfi_offset 4, -8
 591              		.cfi_offset 14, -4
 592 0002 0446     		mov	r4, r0
  90:Controller/Drivers/drv8323/drv8323.c ****   uint16_t val = (drv8323_read_register(self, DCR)) | (0x1 << 2);
 593              		.loc 1 90 3 is_stmt 1 view .LVU129
 594              		.loc 1 90 19 is_stmt 0 view .LVU130
 595 0004 0221     		movs	r1, #2
 596 0006 FFF7FEFF 		bl	drv8323_read_register
 597              	.LVL54:
 598              		.loc 1 90 12 discriminator 1 view .LVU131
 599 000a 40F00402 		orr	r2, r0, #4
 600              	.LVL55:
  91:Controller/Drivers/drv8323/drv8323.c ****   drv8323_write_register(self, DCR, val);
 601              		.loc 1 91 3 is_stmt 1 view .LVU132
 602 000e 92B2     		uxth	r2, r2
 603              		.loc 1 91 3 is_stmt 0 view .LVU133
 604 0010 0221     		movs	r1, #2
 605 0012 2046     		mov	r0, r4
 606 0014 FFF7FEFF 		bl	drv8323_write_register
 607              	.LVL56:
  92:Controller/Drivers/drv8323/drv8323.c **** }
 608              		.loc 1 92 1 view .LVU134
 609 0018 10BD     		pop	{r4, pc}
 610              		.loc 1 92 1 view .LVU135
 611              		.cfi_endproc
 612              	.LFE251:
 614              		.section	.text.drv8323_calibrate,"ax",%progbits
 615              		.align	1
ARM GAS  C:\Users\Rick\AppData\Local\Temp\ccts55y7.s 			page 13


 616              		.global	drv8323_calibrate
 617              		.syntax unified
 618              		.thumb
 619              		.thumb_func
 621              	drv8323_calibrate:
 622              	.LVL57:
 623              	.LFB252:
  93:Controller/Drivers/drv8323/drv8323.c **** 
  94:Controller/Drivers/drv8323/drv8323.c **** void drv8323_calibrate(drv8323_t* self) {
 624              		.loc 1 94 41 is_stmt 1 view -0
 625              		.cfi_startproc
 626              		@ args = 0, pretend = 0, frame = 0
 627              		@ frame_needed = 0, uses_anonymous_args = 0
 628              		.loc 1 94 41 is_stmt 0 view .LVU137
 629 0000 08B5     		push	{r3, lr}
 630              		.cfi_def_cfa_offset 8
 631              		.cfi_offset 3, -8
 632              		.cfi_offset 14, -4
  95:Controller/Drivers/drv8323/drv8323.c ****   uint16_t val = 0x1 << 4 + 0x1 << 3 + 0x1 << 2;
 633              		.loc 1 95 3 is_stmt 1 view .LVU138
 634              	.LVL58:
  96:Controller/Drivers/drv8323/drv8323.c ****   drv8323_write_register(self, CSACR, val);
 635              		.loc 1 96 3 view .LVU139
 636 0002 4FF40062 		mov	r2, #2048
 637 0006 0621     		movs	r1, #6
 638 0008 FFF7FEFF 		bl	drv8323_write_register
 639              	.LVL59:
  97:Controller/Drivers/drv8323/drv8323.c **** }
 640              		.loc 1 97 1 is_stmt 0 view .LVU140
 641 000c 08BD     		pop	{r3, pc}
 642              		.cfi_endproc
 643              	.LFE252:
 645              		.section	.text.drv8323_print_faults,"ax",%progbits
 646              		.align	1
 647              		.global	drv8323_print_faults
 648              		.syntax unified
 649              		.thumb
 650              		.thumb_func
 652              	drv8323_print_faults:
 653              	.LVL60:
 654              	.LFB253:
  98:Controller/Drivers/drv8323/drv8323.c **** 
  99:Controller/Drivers/drv8323/drv8323.c **** void drv8323_print_faults(drv8323_t* self) {
 655              		.loc 1 99 44 is_stmt 1 view -0
 656              		.cfi_startproc
 657              		@ args = 0, pretend = 0, frame = 0
 658              		@ frame_needed = 0, uses_anonymous_args = 0
 659              		@ link register save eliminated.
 100:Controller/Drivers/drv8323/drv8323.c ****   // uint16_t val1 = drv8323_read_fsr1(self);
 101:Controller/Drivers/drv8323/drv8323.c ****   // _printf("fsr1:%x", val1);
 102:Controller/Drivers/drv8323/drv8323.c ****   // HAL_Delay(10);
 103:Controller/Drivers/drv8323/drv8323.c ****   // uint16_t val2 = drv8323_read_fsr2(self);
 104:Controller/Drivers/drv8323/drv8323.c ****   // _printf("fsr2:%x", val2);
 105:Controller/Drivers/drv8323/drv8323.c ****   // HAL_Delay(10);
 106:Controller/Drivers/drv8323/drv8323.c **** 
 107:Controller/Drivers/drv8323/drv8323.c ****   // if (val1 & (1 << 10)) {
 108:Controller/Drivers/drv8323/drv8323.c ****   //   _printf("FAULT");
ARM GAS  C:\Users\Rick\AppData\Local\Temp\ccts55y7.s 			page 14


 109:Controller/Drivers/drv8323/drv8323.c ****   // }
 110:Controller/Drivers/drv8323/drv8323.c **** 
 111:Controller/Drivers/drv8323/drv8323.c ****   // if (val1 & (1 << 9)) {
 112:Controller/Drivers/drv8323/drv8323.c ****   //   _printf("VDS_OCP");
 113:Controller/Drivers/drv8323/drv8323.c ****   // }
 114:Controller/Drivers/drv8323/drv8323.c ****   // if (val1 & (1 << 8)) {
 115:Controller/Drivers/drv8323/drv8323.c ****   //   _printf("GDF");
 116:Controller/Drivers/drv8323/drv8323.c ****   // }
 117:Controller/Drivers/drv8323/drv8323.c ****   // if (val1 & (1 << 7)) {
 118:Controller/Drivers/drv8323/drv8323.c ****   //   _printf("UVLO");
 119:Controller/Drivers/drv8323/drv8323.c ****   // }
 120:Controller/Drivers/drv8323/drv8323.c ****   // if (val1 & (1 << 6)) {
 121:Controller/Drivers/drv8323/drv8323.c ****   //   _printf("OTSD");
 122:Controller/Drivers/drv8323/drv8323.c ****   // }
 123:Controller/Drivers/drv8323/drv8323.c ****   // if (val1 & (1 << 5)) {
 124:Controller/Drivers/drv8323/drv8323.c ****   //   _printf("VDS_HA");
 125:Controller/Drivers/drv8323/drv8323.c ****   // }
 126:Controller/Drivers/drv8323/drv8323.c ****   // if (val1 & (1 << 4)) {
 127:Controller/Drivers/drv8323/drv8323.c ****   //   _printf("VDS_LA");
 128:Controller/Drivers/drv8323/drv8323.c ****   // }
 129:Controller/Drivers/drv8323/drv8323.c ****   // if (val1 & (1 << 3)) {
 130:Controller/Drivers/drv8323/drv8323.c ****   //   _printf("VDS_HB");
 131:Controller/Drivers/drv8323/drv8323.c ****   // }
 132:Controller/Drivers/drv8323/drv8323.c ****   // if (val1 & (1 << 2)) {
 133:Controller/Drivers/drv8323/drv8323.c ****   //   _printf("VDS_LB");
 134:Controller/Drivers/drv8323/drv8323.c ****   // }
 135:Controller/Drivers/drv8323/drv8323.c ****   // if (val1 & (1 << 1)) {
 136:Controller/Drivers/drv8323/drv8323.c ****   //   _printf("VDS_HC");
 137:Controller/Drivers/drv8323/drv8323.c ****   // }
 138:Controller/Drivers/drv8323/drv8323.c ****   // if (val1 & (1)) {
 139:Controller/Drivers/drv8323/drv8323.c ****   //   _printf("VDS_LC");
 140:Controller/Drivers/drv8323/drv8323.c ****   // }
 141:Controller/Drivers/drv8323/drv8323.c **** 
 142:Controller/Drivers/drv8323/drv8323.c ****   // if (val2 & (1 << 10)) {
 143:Controller/Drivers/drv8323/drv8323.c ****   //   _printf("SA_OC");
 144:Controller/Drivers/drv8323/drv8323.c ****   // }
 145:Controller/Drivers/drv8323/drv8323.c ****   // if (val2 & (1 << 9)) {
 146:Controller/Drivers/drv8323/drv8323.c ****   //   _printf("SB_OC");
 147:Controller/Drivers/drv8323/drv8323.c ****   // }
 148:Controller/Drivers/drv8323/drv8323.c ****   // if (val2 & (1 << 8)) {
 149:Controller/Drivers/drv8323/drv8323.c ****   //   _printf("SC_OC");
 150:Controller/Drivers/drv8323/drv8323.c ****   // }
 151:Controller/Drivers/drv8323/drv8323.c ****   // if (val2 & (1 << 7)) {
 152:Controller/Drivers/drv8323/drv8323.c ****   //   _printf("OTW");
 153:Controller/Drivers/drv8323/drv8323.c ****   // }
 154:Controller/Drivers/drv8323/drv8323.c ****   // if (val2 & (1 << 6)) {
 155:Controller/Drivers/drv8323/drv8323.c ****   //   _printf("CPUV");
 156:Controller/Drivers/drv8323/drv8323.c ****   // }
 157:Controller/Drivers/drv8323/drv8323.c ****   // if (val2 & (1 << 5)) {
 158:Controller/Drivers/drv8323/drv8323.c ****   //   _printf("VGS_HA");
 159:Controller/Drivers/drv8323/drv8323.c ****   // }
 160:Controller/Drivers/drv8323/drv8323.c ****   // if (val2 & (1 << 4)) {
 161:Controller/Drivers/drv8323/drv8323.c ****   //   _printf("VGS_LA");
 162:Controller/Drivers/drv8323/drv8323.c ****   // }
 163:Controller/Drivers/drv8323/drv8323.c ****   // if (val2 & (1 << 3)) {
 164:Controller/Drivers/drv8323/drv8323.c ****   //   _printf("VGS_HB");
 165:Controller/Drivers/drv8323/drv8323.c ****   // }
ARM GAS  C:\Users\Rick\AppData\Local\Temp\ccts55y7.s 			page 15


 166:Controller/Drivers/drv8323/drv8323.c ****   // if (val2 & (1 << 2)) {
 167:Controller/Drivers/drv8323/drv8323.c ****   //   _printf("VGS_LB");
 168:Controller/Drivers/drv8323/drv8323.c ****   // }
 169:Controller/Drivers/drv8323/drv8323.c ****   // if (val2 & (1 << 1)) {
 170:Controller/Drivers/drv8323/drv8323.c ****   //   _printf("VGS_HC");
 171:Controller/Drivers/drv8323/drv8323.c ****   // }
 172:Controller/Drivers/drv8323/drv8323.c ****   // if (val2 & (1)) {
 173:Controller/Drivers/drv8323/drv8323.c ****   //   _printf("VGS_LC");
 174:Controller/Drivers/drv8323/drv8323.c ****   // }
 175:Controller/Drivers/drv8323/drv8323.c **** }
 660              		.loc 1 175 1 view .LVU142
 661 0000 7047     		bx	lr
 662              		.cfi_endproc
 663              	.LFE253:
 665              		.section	.text.drv8323_reg_val,"ax",%progbits
 666              		.align	1
 667              		.global	drv8323_reg_val
 668              		.syntax unified
 669              		.thumb
 670              		.thumb_func
 672              	drv8323_reg_val:
 673              	.LVL61:
 674              	.LFB254:
 176:Controller/Drivers/drv8323/drv8323.c **** 
 177:Controller/Drivers/drv8323/drv8323.c **** void drv8323_reg_val(drv8323_t* self) {
 675              		.loc 1 177 39 view -0
 676              		.cfi_startproc
 677              		@ args = 0, pretend = 0, frame = 0
 678              		@ frame_needed = 0, uses_anonymous_args = 0
 679              		@ link register save eliminated.
 178:Controller/Drivers/drv8323/drv8323.c ****   // _printf(
 179:Controller/Drivers/drv8323/drv8323.c ****   //     "FSR1:%04x FSR2:%04x DCR:%04x HSR:%04x LSR:%04x "
 180:Controller/Drivers/drv8323/drv8323.c ****   //     "OCPCR:%04x CSACR:%04x",
 181:Controller/Drivers/drv8323/drv8323.c ****   //     drv8323_read_register(self, FSR1), drv8323_read_register(self, FSR2),
 182:Controller/Drivers/drv8323/drv8323.c ****   //     drv8323_read_register(self, DCR), drv8323_read_register(self, HSR),
 183:Controller/Drivers/drv8323/drv8323.c ****   //     drv8323_read_register(self, LSR), drv8323_read_register(self, OCPCR),
 184:Controller/Drivers/drv8323/drv8323.c ****   //     drv8323_read_register(self, CSACR));
 185:Controller/Drivers/drv8323/drv8323.c **** }...
 680              		.loc 1 185 1 view .LVU144
 681 0000 7047     		bx	lr
 682              		.cfi_endproc
 683              	.LFE254:
 685              		.text
 686              	.Letext0:
 687              		.file 2 "C:/Users/Rick/AppData/Roaming/Code/User/globalStorage/bmd.stm32-for-vscode/@xpack-dev-too
 688              		.file 3 "C:/Users/Rick/AppData/Roaming/Code/User/globalStorage/bmd.stm32-for-vscode/@xpack-dev-too
 689              		.file 4 "Drivers/CMSIS/Device/ST/STM32F4xx/Include/stm32f446xx.h"
 690              		.file 5 "Drivers/STM32F4xx_HAL_Driver/Inc/stm32f4xx_hal_def.h"
 691              		.file 6 "Drivers/STM32F4xx_HAL_Driver/Inc/stm32f4xx_hal_gpio.h"
 692              		.file 7 "Drivers/STM32F4xx_HAL_Driver/Inc/stm32f4xx_hal_dma.h"
 693              		.file 8 "Drivers/STM32F4xx_HAL_Driver/Inc/stm32f4xx_hal_spi.h"
 694              		.file 9 "Controller/Drivers/drv8323/drv8323.h"
 695              		.file 10 "Drivers/STM32F4xx_HAL_Driver/Inc/stm32f4xx_hal.h"
ARM GAS  C:\Users\Rick\AppData\Local\Temp\ccts55y7.s 			page 16

