ARM GAS  C:\Users\Rick\AppData\Local\Temp\ccNMPVzP.s 			page 1


   1              		.cpu cortex-m4
   2              		.arch armv7e-m
   3              		.fpu fpv4-sp-d16
   4              		.eabi_attribute 27, 1
   5              		.eabi_attribute 28, 1
   6              		.eabi_attribute 20, 1
   7              		.eabi_attribute 21, 1
   8              		.eabi_attribute 23, 3
   9              		.eabi_attribute 24, 1
  10              		.eabi_attribute 25, 1
  11              		.eabi_attribute 26, 1
  12              		.eabi_attribute 30, 1
  13              		.eabi_attribute 34, 1
  14              		.eabi_attribute 18, 4
  15              		.file	"gpio.c"
  16              		.text
  17              	.Ltext0:
  18              		.cfi_sections	.debug_frame
  19              		.file 1 "Core/Src/gpio.c"
  20              		.section	.text.MX_GPIO_Init,"ax",%progbits
  21              		.align	1
  22              		.global	MX_GPIO_Init
  23              		.syntax unified
  24              		.thumb
  25              		.thumb_func
  27              	MX_GPIO_Init:
  28              	.LFB239:
   1:Core/Src/gpio.c **** /* USER CODE BEGIN Header */
   2:Core/Src/gpio.c **** /**
   3:Core/Src/gpio.c ****   ******************************************************************************
   4:Core/Src/gpio.c ****   * @file    gpio.c
   5:Core/Src/gpio.c ****   * @brief   This file provides code for the configuration
   6:Core/Src/gpio.c ****   *          of all used GPIO pins.
   7:Core/Src/gpio.c ****   ******************************************************************************
   8:Core/Src/gpio.c ****   * @attention
   9:Core/Src/gpio.c ****   *
  10:Core/Src/gpio.c ****   * Copyright (c) 2025 STMicroelectronics.
  11:Core/Src/gpio.c ****   * All rights reserved.
  12:Core/Src/gpio.c ****   *
  13:Core/Src/gpio.c ****   * This software is licensed under terms that can be found in the LICENSE file
  14:Core/Src/gpio.c ****   * in the root directory of this software component.
  15:Core/Src/gpio.c ****   * If no LICENSE file comes with this software, it is provided AS-IS.
  16:Core/Src/gpio.c ****   *
  17:Core/Src/gpio.c ****   ******************************************************************************
  18:Core/Src/gpio.c ****   */
  19:Core/Src/gpio.c **** /* USER CODE END Header */
  20:Core/Src/gpio.c **** 
  21:Core/Src/gpio.c **** /* Includes ------------------------------------------------------------------*/
  22:Core/Src/gpio.c **** #include "gpio.h"
  23:Core/Src/gpio.c **** 
  24:Core/Src/gpio.c **** /* USER CODE BEGIN 0 */
  25:Core/Src/gpio.c **** 
  26:Core/Src/gpio.c **** /* USER CODE END 0 */
  27:Core/Src/gpio.c **** 
  28:Core/Src/gpio.c **** /*----------------------------------------------------------------------------*/
  29:Core/Src/gpio.c **** /* Configure GPIO                                                             */
  30:Core/Src/gpio.c **** /*----------------------------------------------------------------------------*/
ARM GAS  C:\Users\Rick\AppData\Local\Temp\ccNMPVzP.s 			page 2


  31:Core/Src/gpio.c **** /* USER CODE BEGIN 1 */
  32:Core/Src/gpio.c **** 
  33:Core/Src/gpio.c **** /* USER CODE END 1 */
  34:Core/Src/gpio.c **** 
  35:Core/Src/gpio.c **** /** Configure pins as
  36:Core/Src/gpio.c ****         * Analog
  37:Core/Src/gpio.c ****         * Input
  38:Core/Src/gpio.c ****         * Output
  39:Core/Src/gpio.c ****         * EVENT_OUT
  40:Core/Src/gpio.c ****         * EXTI
  41:Core/Src/gpio.c **** */
  42:Core/Src/gpio.c **** void MX_GPIO_Init(void)
  43:Core/Src/gpio.c **** {
  29              		.loc 1 43 1 view -0
  30              		.cfi_startproc
  31              		@ args = 0, pretend = 0, frame = 40
  32              		@ frame_needed = 0, uses_anonymous_args = 0
  33 0000 2DE9F047 		push	{r4, r5, r6, r7, r8, r9, r10, lr}
  34              		.cfi_def_cfa_offset 32
  35              		.cfi_offset 4, -32
  36              		.cfi_offset 5, -28
  37              		.cfi_offset 6, -24
  38              		.cfi_offset 7, -20
  39              		.cfi_offset 8, -16
  40              		.cfi_offset 9, -12
  41              		.cfi_offset 10, -8
  42              		.cfi_offset 14, -4
  43 0004 8AB0     		sub	sp, sp, #40
  44              		.cfi_def_cfa_offset 72
  44:Core/Src/gpio.c **** 
  45:Core/Src/gpio.c ****   GPIO_InitTypeDef GPIO_InitStruct = {0};
  45              		.loc 1 45 3 view .LVU1
  46              		.loc 1 45 20 is_stmt 0 view .LVU2
  47 0006 05AD     		add	r5, sp, #20
  48 0008 0024     		movs	r4, #0
  49 000a 0594     		str	r4, [sp, #20]
  50 000c 0694     		str	r4, [sp, #24]
  51 000e 0794     		str	r4, [sp, #28]
  52 0010 0894     		str	r4, [sp, #32]
  53 0012 0994     		str	r4, [sp, #36]
  46:Core/Src/gpio.c **** 
  47:Core/Src/gpio.c ****   /* GPIO Ports Clock Enable */
  48:Core/Src/gpio.c ****   __HAL_RCC_GPIOC_CLK_ENABLE();
  54              		.loc 1 48 3 is_stmt 1 view .LVU3
  55              	.LBB2:
  56              		.loc 1 48 3 view .LVU4
  57 0014 0094     		str	r4, [sp]
  58              		.loc 1 48 3 view .LVU5
  59 0016 454B     		ldr	r3, .L3
  60 0018 1A6B     		ldr	r2, [r3, #48]
  61 001a 42F00402 		orr	r2, r2, #4
  62 001e 1A63     		str	r2, [r3, #48]
  63              		.loc 1 48 3 view .LVU6
  64 0020 1A6B     		ldr	r2, [r3, #48]
  65 0022 02F00402 		and	r2, r2, #4
  66 0026 0092     		str	r2, [sp]
  67              		.loc 1 48 3 view .LVU7
ARM GAS  C:\Users\Rick\AppData\Local\Temp\ccNMPVzP.s 			page 3


  68 0028 009A     		ldr	r2, [sp]
  69              	.LBE2:
  70              		.loc 1 48 3 view .LVU8
  49:Core/Src/gpio.c ****   __HAL_RCC_GPIOH_CLK_ENABLE();
  71              		.loc 1 49 3 view .LVU9
  72              	.LBB3:
  73              		.loc 1 49 3 view .LVU10
  74 002a 0194     		str	r4, [sp, #4]
  75              		.loc 1 49 3 view .LVU11
  76 002c 1A6B     		ldr	r2, [r3, #48]
  77 002e 42F08002 		orr	r2, r2, #128
  78 0032 1A63     		str	r2, [r3, #48]
  79              		.loc 1 49 3 view .LVU12
  80 0034 1A6B     		ldr	r2, [r3, #48]
  81 0036 02F08002 		and	r2, r2, #128
  82 003a 0192     		str	r2, [sp, #4]
  83              		.loc 1 49 3 view .LVU13
  84 003c 019A     		ldr	r2, [sp, #4]
  85              	.LBE3:
  86              		.loc 1 49 3 view .LVU14
  50:Core/Src/gpio.c ****   __HAL_RCC_GPIOA_CLK_ENABLE();
  87              		.loc 1 50 3 view .LVU15
  88              	.LBB4:
  89              		.loc 1 50 3 view .LVU16
  90 003e 0294     		str	r4, [sp, #8]
  91              		.loc 1 50 3 view .LVU17
  92 0040 1A6B     		ldr	r2, [r3, #48]
  93 0042 42F00102 		orr	r2, r2, #1
  94 0046 1A63     		str	r2, [r3, #48]
  95              		.loc 1 50 3 view .LVU18
  96 0048 1A6B     		ldr	r2, [r3, #48]
  97 004a 02F00102 		and	r2, r2, #1
  98 004e 0292     		str	r2, [sp, #8]
  99              		.loc 1 50 3 view .LVU19
 100 0050 029A     		ldr	r2, [sp, #8]
 101              	.LBE4:
 102              		.loc 1 50 3 view .LVU20
  51:Core/Src/gpio.c ****   __HAL_RCC_GPIOB_CLK_ENABLE();
 103              		.loc 1 51 3 view .LVU21
 104              	.LBB5:
 105              		.loc 1 51 3 view .LVU22
 106 0052 0394     		str	r4, [sp, #12]
 107              		.loc 1 51 3 view .LVU23
 108 0054 1A6B     		ldr	r2, [r3, #48]
 109 0056 42F00202 		orr	r2, r2, #2
 110 005a 1A63     		str	r2, [r3, #48]
 111              		.loc 1 51 3 view .LVU24
 112 005c 1A6B     		ldr	r2, [r3, #48]
 113 005e 02F00202 		and	r2, r2, #2
 114 0062 0392     		str	r2, [sp, #12]
 115              		.loc 1 51 3 view .LVU25
 116 0064 039A     		ldr	r2, [sp, #12]
 117              	.LBE5:
 118              		.loc 1 51 3 view .LVU26
  52:Core/Src/gpio.c ****   __HAL_RCC_GPIOD_CLK_ENABLE();
 119              		.loc 1 52 3 view .LVU27
 120              	.LBB6:
ARM GAS  C:\Users\Rick\AppData\Local\Temp\ccNMPVzP.s 			page 4


 121              		.loc 1 52 3 view .LVU28
 122 0066 0494     		str	r4, [sp, #16]
 123              		.loc 1 52 3 view .LVU29
 124 0068 1A6B     		ldr	r2, [r3, #48]
 125 006a 42F00802 		orr	r2, r2, #8
 126 006e 1A63     		str	r2, [r3, #48]
 127              		.loc 1 52 3 view .LVU30
 128 0070 1B6B     		ldr	r3, [r3, #48]
 129 0072 03F00803 		and	r3, r3, #8
 130 0076 0493     		str	r3, [sp, #16]
 131              		.loc 1 52 3 view .LVU31
 132 0078 049B     		ldr	r3, [sp, #16]
 133              	.LBE6:
 134              		.loc 1 52 3 view .LVU32
  53:Core/Src/gpio.c **** 
  54:Core/Src/gpio.c ****   /*Configure GPIO pin Output Level */
  55:Core/Src/gpio.c ****   HAL_GPIO_WritePin(GPIOC, GPIO_PIN_13|LED_3_Pin|LED_2_Pin|LED_1_Pin
 135              		.loc 1 55 3 view .LVU33
 136 007a 2D4F     		ldr	r7, .L3+4
 137 007c 2246     		mov	r2, r4
 138 007e 42F2CE11 		movw	r1, #8654
 139 0082 3846     		mov	r0, r7
 140 0084 FFF7FEFF 		bl	HAL_GPIO_WritePin
 141              	.LVL0:
  56:Core/Src/gpio.c ****                           |TIM1_BREAK_Pin|DRV_CAL_Pin|DRV_ENABLE_Pin, GPIO_PIN_RESET);
  57:Core/Src/gpio.c **** 
  58:Core/Src/gpio.c ****   /*Configure GPIO pin Output Level */
  59:Core/Src/gpio.c ****   HAL_GPIO_WritePin(GPIOA, GPIO_PIN_5|ENCODER_CAL_Pin, GPIO_PIN_RESET);
 142              		.loc 1 59 3 view .LVU34
 143 0088 DFF8A8A0 		ldr	r10, .L3+8
 144 008c 2246     		mov	r2, r4
 145 008e 48F22001 		movw	r1, #32800
 146 0092 5046     		mov	r0, r10
 147 0094 FFF7FEFF 		bl	HAL_GPIO_WritePin
 148              	.LVL1:
  60:Core/Src/gpio.c **** 
  61:Core/Src/gpio.c ****   /*Configure GPIO pin Output Level */
  62:Core/Src/gpio.c ****   HAL_GPIO_WritePin(GPIOB, GPIO_PIN_13|GPIO_PIN_14|GPIO_PIN_15|CAN_STB_Pin, GPIO_PIN_RESET);
 149              		.loc 1 62 3 view .LVU35
 150 0098 DFF89C80 		ldr	r8, .L3+12
 151 009c 2246     		mov	r2, r4
 152 009e 4EF22001 		movw	r1, #57376
 153 00a2 4046     		mov	r0, r8
 154 00a4 FFF7FEFF 		bl	HAL_GPIO_WritePin
 155              	.LVL2:
  63:Core/Src/gpio.c **** 
  64:Core/Src/gpio.c ****   /*Configure GPIO pin Output Level */
  65:Core/Src/gpio.c ****   HAL_GPIO_WritePin(DRV_SPI_NSS_GPIO_Port, DRV_SPI_NSS_Pin, GPIO_PIN_SET);
 156              		.loc 1 65 3 view .LVU36
 157 00a8 DFF89090 		ldr	r9, .L3+16
 158 00ac 0122     		movs	r2, #1
 159 00ae 0421     		movs	r1, #4
 160 00b0 4846     		mov	r0, r9
 161 00b2 FFF7FEFF 		bl	HAL_GPIO_WritePin
 162              	.LVL3:
  66:Core/Src/gpio.c **** 
  67:Core/Src/gpio.c ****   /*Configure GPIO pin Output Level */
ARM GAS  C:\Users\Rick\AppData\Local\Temp\ccNMPVzP.s 			page 5


  68:Core/Src/gpio.c ****   HAL_GPIO_WritePin(ENCODER_SPI_NSS_GPIO_Port, ENCODER_SPI_NSS_Pin, GPIO_PIN_SET);
 163              		.loc 1 68 3 view .LVU37
 164 00b6 0122     		movs	r2, #1
 165 00b8 0821     		movs	r1, #8
 166 00ba 4046     		mov	r0, r8
 167 00bc FFF7FEFF 		bl	HAL_GPIO_WritePin
 168              	.LVL4:
  69:Core/Src/gpio.c **** 
  70:Core/Src/gpio.c ****   /*Configure GPIO pins : PC13 LED_3_Pin LED_2_Pin LED_1_Pin
  71:Core/Src/gpio.c ****                            TIM1_BREAK_Pin DRV_CAL_Pin DRV_ENABLE_Pin */
  72:Core/Src/gpio.c ****   GPIO_InitStruct.Pin = GPIO_PIN_13|LED_3_Pin|LED_2_Pin|LED_1_Pin
 169              		.loc 1 72 3 view .LVU38
 170              		.loc 1 72 23 is_stmt 0 view .LVU39
 171 00c0 42F2CE13 		movw	r3, #8654
 172 00c4 0593     		str	r3, [sp, #20]
  73:Core/Src/gpio.c ****                           |TIM1_BREAK_Pin|DRV_CAL_Pin|DRV_ENABLE_Pin;
  74:Core/Src/gpio.c ****   GPIO_InitStruct.Mode = GPIO_MODE_OUTPUT_PP;
 173              		.loc 1 74 3 is_stmt 1 view .LVU40
 174              		.loc 1 74 24 is_stmt 0 view .LVU41
 175 00c6 0126     		movs	r6, #1
 176 00c8 0696     		str	r6, [sp, #24]
  75:Core/Src/gpio.c ****   GPIO_InitStruct.Pull = GPIO_NOPULL;
 177              		.loc 1 75 3 is_stmt 1 view .LVU42
 178              		.loc 1 75 24 is_stmt 0 view .LVU43
 179 00ca 0794     		str	r4, [sp, #28]
  76:Core/Src/gpio.c ****   GPIO_InitStruct.Speed = GPIO_SPEED_FREQ_LOW;
 180              		.loc 1 76 3 is_stmt 1 view .LVU44
 181              		.loc 1 76 25 is_stmt 0 view .LVU45
 182 00cc 0894     		str	r4, [sp, #32]
  77:Core/Src/gpio.c ****   HAL_GPIO_Init(GPIOC, &GPIO_InitStruct);
 183              		.loc 1 77 3 is_stmt 1 view .LVU46
 184 00ce 2946     		mov	r1, r5
 185 00d0 3846     		mov	r0, r7
 186 00d2 FFF7FEFF 		bl	HAL_GPIO_Init
 187              	.LVL5:
  78:Core/Src/gpio.c **** 
  79:Core/Src/gpio.c ****   /*Configure GPIO pins : PA5 ENCODER_CAL_Pin */
  80:Core/Src/gpio.c ****   GPIO_InitStruct.Pin = GPIO_PIN_5|ENCODER_CAL_Pin;
 188              		.loc 1 80 3 view .LVU47
 189              		.loc 1 80 23 is_stmt 0 view .LVU48
 190 00d6 48F22003 		movw	r3, #32800
 191 00da 0593     		str	r3, [sp, #20]
  81:Core/Src/gpio.c ****   GPIO_InitStruct.Mode = GPIO_MODE_OUTPUT_PP;
 192              		.loc 1 81 3 is_stmt 1 view .LVU49
 193              		.loc 1 81 24 is_stmt 0 view .LVU50
 194 00dc 0696     		str	r6, [sp, #24]
  82:Core/Src/gpio.c ****   GPIO_InitStruct.Pull = GPIO_NOPULL;
 195              		.loc 1 82 3 is_stmt 1 view .LVU51
 196              		.loc 1 82 24 is_stmt 0 view .LVU52
 197 00de 0794     		str	r4, [sp, #28]
  83:Core/Src/gpio.c ****   GPIO_InitStruct.Speed = GPIO_SPEED_FREQ_LOW;
 198              		.loc 1 83 3 is_stmt 1 view .LVU53
 199              		.loc 1 83 25 is_stmt 0 view .LVU54
 200 00e0 0894     		str	r4, [sp, #32]
  84:Core/Src/gpio.c ****   HAL_GPIO_Init(GPIOA, &GPIO_InitStruct);
 201              		.loc 1 84 3 is_stmt 1 view .LVU55
 202 00e2 2946     		mov	r1, r5
ARM GAS  C:\Users\Rick\AppData\Local\Temp\ccNMPVzP.s 			page 6


 203 00e4 5046     		mov	r0, r10
 204 00e6 FFF7FEFF 		bl	HAL_GPIO_Init
 205              	.LVL6:
  85:Core/Src/gpio.c **** 
  86:Core/Src/gpio.c ****   /*Configure GPIO pins : PB13 PB14 PB15 ENCODER_SPI_NSS_Pin
  87:Core/Src/gpio.c ****                            CAN_STB_Pin */
  88:Core/Src/gpio.c ****   GPIO_InitStruct.Pin = GPIO_PIN_13|GPIO_PIN_14|GPIO_PIN_15|ENCODER_SPI_NSS_Pin
 206              		.loc 1 88 3 view .LVU56
 207              		.loc 1 88 23 is_stmt 0 view .LVU57
 208 00ea 4EF22803 		movw	r3, #57384
 209 00ee 0593     		str	r3, [sp, #20]
  89:Core/Src/gpio.c ****                           |CAN_STB_Pin;
  90:Core/Src/gpio.c ****   GPIO_InitStruct.Mode = GPIO_MODE_OUTPUT_PP;
 210              		.loc 1 90 3 is_stmt 1 view .LVU58
 211              		.loc 1 90 24 is_stmt 0 view .LVU59
 212 00f0 0696     		str	r6, [sp, #24]
  91:Core/Src/gpio.c ****   GPIO_InitStruct.Pull = GPIO_NOPULL;
 213              		.loc 1 91 3 is_stmt 1 view .LVU60
 214              		.loc 1 91 24 is_stmt 0 view .LVU61
 215 00f2 0794     		str	r4, [sp, #28]
  92:Core/Src/gpio.c ****   GPIO_InitStruct.Speed = GPIO_SPEED_FREQ_LOW;
 216              		.loc 1 92 3 is_stmt 1 view .LVU62
 217              		.loc 1 92 25 is_stmt 0 view .LVU63
 218 00f4 0894     		str	r4, [sp, #32]
  93:Core/Src/gpio.c ****   HAL_GPIO_Init(GPIOB, &GPIO_InitStruct);
 219              		.loc 1 93 3 is_stmt 1 view .LVU64
 220 00f6 2946     		mov	r1, r5
 221 00f8 4046     		mov	r0, r8
 222 00fa FFF7FEFF 		bl	HAL_GPIO_Init
 223              	.LVL7:
  94:Core/Src/gpio.c **** 
  95:Core/Src/gpio.c ****   /*Configure GPIO pin : DRV_FAULT_Pin */
  96:Core/Src/gpio.c ****   GPIO_InitStruct.Pin = DRV_FAULT_Pin;
 224              		.loc 1 96 3 view .LVU65
 225              		.loc 1 96 23 is_stmt 0 view .LVU66
 226 00fe 4FF40073 		mov	r3, #512
 227 0102 0593     		str	r3, [sp, #20]
  97:Core/Src/gpio.c ****   GPIO_InitStruct.Mode = GPIO_MODE_IT_RISING;
 228              		.loc 1 97 3 is_stmt 1 view .LVU67
 229              		.loc 1 97 24 is_stmt 0 view .LVU68
 230 0104 4FF48813 		mov	r3, #1114112
 231 0108 0693     		str	r3, [sp, #24]
  98:Core/Src/gpio.c ****   GPIO_InitStruct.Pull = GPIO_NOPULL;
 232              		.loc 1 98 3 is_stmt 1 view .LVU69
 233              		.loc 1 98 24 is_stmt 0 view .LVU70
 234 010a 0794     		str	r4, [sp, #28]
  99:Core/Src/gpio.c ****   HAL_GPIO_Init(DRV_FAULT_GPIO_Port, &GPIO_InitStruct);
 235              		.loc 1 99 3 is_stmt 1 view .LVU71
 236 010c 2946     		mov	r1, r5
 237 010e 3846     		mov	r0, r7
 238 0110 FFF7FEFF 		bl	HAL_GPIO_Init
 239              	.LVL8:
 100:Core/Src/gpio.c **** 
 101:Core/Src/gpio.c ****   /*Configure GPIO pin : DRV_SPI_NSS_Pin */
 102:Core/Src/gpio.c ****   GPIO_InitStruct.Pin = DRV_SPI_NSS_Pin;
 240              		.loc 1 102 3 view .LVU72
 241              		.loc 1 102 23 is_stmt 0 view .LVU73
ARM GAS  C:\Users\Rick\AppData\Local\Temp\ccNMPVzP.s 			page 7


 242 0114 0423     		movs	r3, #4
 243 0116 0593     		str	r3, [sp, #20]
 103:Core/Src/gpio.c ****   GPIO_InitStruct.Mode = GPIO_MODE_OUTPUT_PP;
 244              		.loc 1 103 3 is_stmt 1 view .LVU74
 245              		.loc 1 103 24 is_stmt 0 view .LVU75
 246 0118 0696     		str	r6, [sp, #24]
 104:Core/Src/gpio.c ****   GPIO_InitStruct.Pull = GPIO_NOPULL;
 247              		.loc 1 104 3 is_stmt 1 view .LVU76
 248              		.loc 1 104 24 is_stmt 0 view .LVU77
 249 011a 0794     		str	r4, [sp, #28]
 105:Core/Src/gpio.c ****   GPIO_InitStruct.Speed = GPIO_SPEED_FREQ_LOW;
 250              		.loc 1 105 3 is_stmt 1 view .LVU78
 251              		.loc 1 105 25 is_stmt 0 view .LVU79
 252 011c 0894     		str	r4, [sp, #32]
 106:Core/Src/gpio.c ****   HAL_GPIO_Init(DRV_SPI_NSS_GPIO_Port, &GPIO_InitStruct);
 253              		.loc 1 106 3 is_stmt 1 view .LVU80
 254 011e 2946     		mov	r1, r5
 255 0120 4846     		mov	r0, r9
 256 0122 FFF7FEFF 		bl	HAL_GPIO_Init
 257              	.LVL9:
 107:Core/Src/gpio.c **** 
 108:Core/Src/gpio.c **** }
 258              		.loc 1 108 1 is_stmt 0 view .LVU81
 259 0126 0AB0     		add	sp, sp, #40
 260              		.cfi_def_cfa_offset 32
 261              		@ sp needed
 262 0128 BDE8F087 		pop	{r4, r5, r6, r7, r8, r9, r10, pc}
 263              	.L4:
 264              		.align	2
 265              	.L3:
 266 012c 00380240 		.word	1073887232
 267 0130 00080240 		.word	1073874944
 268 0134 00000240 		.word	1073872896
 269 0138 00040240 		.word	1073873920
 270 013c 000C0240 		.word	1073875968
 271              		.cfi_endproc
 272              	.LFE239:
 274              		.text
 275              	.Letext0:
 276              		.file 2 "C:/Users/Rick/AppData/Roaming/Code/User/globalStorage/bmd.stm32-for-vscode/@xpack-dev-too
 277              		.file 3 "C:/Users/Rick/AppData/Roaming/Code/User/globalStorage/bmd.stm32-for-vscode/@xpack-dev-too
 278              		.file 4 "Drivers/CMSIS/Device/ST/STM32F4xx/Include/stm32f446xx.h"
 279              		.file 5 "Drivers/STM32F4xx_HAL_Driver/Inc/stm32f4xx_hal_gpio.h"
ARM GAS  C:\Users\Rick\AppData\Local\Temp\ccNMPVzP.s 			page 8

