ARM GAS  C:\Users\Rick\AppData\Local\Temp\ccbZIInU.s 			page 1


   1              		.cpu cortex-m4
   2              		.arch armv7e-m
   3              		.fpu fpv4-sp-d16
   4              		.eabi_attribute 27, 1
   5              		.eabi_attribute 28, 1
   6              		.eabi_attribute 20, 1
   7              		.eabi_attribute 21, 1
   8              		.eabi_attribute 23, 3
   9              		.eabi_attribute 24, 1
  10              		.eabi_attribute 25, 1
  11              		.eabi_attribute 26, 1
  12              		.eabi_attribute 30, 1
  13              		.eabi_attribute 34, 1
  14              		.eabi_attribute 18, 4
  15              		.file	"hall.c"
  16              		.text
  17              	.Ltext0:
  18              		.cfi_sections	.debug_frame
  19              		.file 1 "Controller/Sensors/hall.c"
  20              		.section	.text.hall_init,"ax",%progbits
  21              		.align	1
  22              		.global	hall_init
  23              		.syntax unified
  24              		.thumb
  25              		.thumb_func
  27              	hall_init:
  28              	.LFB239:
   1:Controller/Sensors/hall.c **** #include "./hall.h"
   2:Controller/Sensors/hall.c **** 
   3:Controller/Sensors/hall.c **** #include "dev_usart.h"
   4:Controller/Sensors/hall.c **** #include "tim.h"
   5:Controller/Sensors/hall.c **** 
   6:Controller/Sensors/hall.c **** #define PI 3.14159265358979
   7:Controller/Sensors/hall.c **** 
   8:Controller/Sensors/hall.c **** /// 极对数
   9:Controller/Sensors/hall.c **** #define PP 4
  10:Controller/Sensors/hall.c **** 
  11:Controller/Sensors/hall.c **** static float g_phase_shift_angle = 240.0 / 360.0 * 2.0 * PI;
  12:Controller/Sensors/hall.c **** static float g_theta_delta = 0.0;
  13:Controller/Sensors/hall.c **** static float g_theta = 0.0;
  14:Controller/Sensors/hall.c **** static float g_speed = 0.0;
  15:Controller/Sensors/hall.c **** 
  16:Controller/Sensors/hall.c **** static float g_hall_value = 0.0;
  17:Controller/Sensors/hall.c **** 
  18:Controller/Sensors/hall.c **** void hall_init(void) { HAL_TIMEx_HallSensor_Start_IT(&htim3); }
  29              		.loc 1 18 22 view -0
  30              		.cfi_startproc
  31              		@ args = 0, pretend = 0, frame = 0
  32              		@ frame_needed = 0, uses_anonymous_args = 0
  33 0000 08B5     		push	{r3, lr}
  34              		.cfi_def_cfa_offset 8
  35              		.cfi_offset 3, -8
  36              		.cfi_offset 14, -4
  37              		.loc 1 18 24 view .LVU1
  38 0002 0248     		ldr	r0, .L3
  39 0004 FFF7FEFF 		bl	HAL_TIMEx_HallSensor_Start_IT
  40              	.LVL0:
ARM GAS  C:\Users\Rick\AppData\Local\Temp\ccbZIInU.s 			page 2


  41              		.loc 1 18 63 is_stmt 0 view .LVU2
  42 0008 08BD     		pop	{r3, pc}
  43              	.L4:
  44 000a 00BF     		.align	2
  45              	.L3:
  46 000c 00000000 		.word	htim3
  47              		.cfi_endproc
  48              	.LFE239:
  50              		.section	.text.HAL_TIM_IC_CaptureCallback,"ax",%progbits
  51              		.align	1
  52              		.global	HAL_TIM_IC_CaptureCallback
  53              		.syntax unified
  54              		.thumb
  55              		.thumb_func
  57              	HAL_TIM_IC_CaptureCallback:
  58              	.LVL1:
  59              	.LFB240:
  19:Controller/Sensors/hall.c **** 
  20:Controller/Sensors/hall.c **** void HAL_TIM_IC_CaptureCallback(TIM_HandleTypeDef *htim) {
  60              		.loc 1 20 58 is_stmt 1 view -0
  61              		.cfi_startproc
  62              		@ args = 0, pretend = 0, frame = 0
  63              		@ frame_needed = 0, uses_anonymous_args = 0
  64              		.loc 1 20 58 is_stmt 0 view .LVU4
  65 0000 38B5     		push	{r3, r4, r5, lr}
  66              		.cfi_def_cfa_offset 16
  67              		.cfi_offset 3, -16
  68              		.cfi_offset 4, -12
  69              		.cfi_offset 5, -8
  70              		.cfi_offset 14, -4
  21:Controller/Sensors/hall.c ****   if (TIM3 == htim->Instance) {
  71              		.loc 1 21 3 is_stmt 1 view .LVU5
  72              		.loc 1 21 19 is_stmt 0 view .LVU6
  73 0002 0268     		ldr	r2, [r0]
  74              		.loc 1 21 6 view .LVU7
  75 0004 544B     		ldr	r3, .L25+32
  76 0006 9A42     		cmp	r2, r3
  77 0008 00D0     		beq	.L23
  78              	.LVL2:
  79              	.L5:
  22:Controller/Sensors/hall.c ****     g_hall_value = HAL_TIM_ReadCapturedValue(&htim3, TIM_CHANNEL_1);
  23:Controller/Sensors/hall.c ****     g_theta_delta = (PI / 3) / (g_hall_value / 10000000) / 10000;
  24:Controller/Sensors/hall.c ****     g_speed = (PI / 3) / (g_hall_value / 10000000) * 30 / (4 * PI);
  25:Controller/Sensors/hall.c ****     uint8_t state = HAL_GPIO_ReadPin(GPIOB, GPIO_PIN_0);
  26:Controller/Sensors/hall.c ****     state |= HAL_GPIO_ReadPin(GPIOA, GPIO_PIN_7) << 1;
  27:Controller/Sensors/hall.c ****     state |= HAL_GPIO_ReadPin(GPIOA, GPIO_PIN_6) << 2;
  28:Controller/Sensors/hall.c **** 
  29:Controller/Sensors/hall.c ****     if (state == 0x05) {
  30:Controller/Sensors/hall.c ****       g_theta = 0.0 + g_phase_shift_angle;
  31:Controller/Sensors/hall.c ****     } else if (state == 0x04) {
  32:Controller/Sensors/hall.c ****       g_theta = (PI / 3.0) + g_phase_shift_angle;
  33:Controller/Sensors/hall.c ****     } else if (state == 0x06) {
  34:Controller/Sensors/hall.c ****       g_theta = (PI * 2.0 / 3.0f) + g_phase_shift_angle;
  35:Controller/Sensors/hall.c ****     } else if (state == 0x02) {
  36:Controller/Sensors/hall.c ****       g_theta = PI + g_phase_shift_angle;
  37:Controller/Sensors/hall.c ****     } else if (state == 0x03) {
  38:Controller/Sensors/hall.c ****       g_theta = (PI * 4.0f / 3.0f) + g_phase_shift_angle;
ARM GAS  C:\Users\Rick\AppData\Local\Temp\ccbZIInU.s 			page 3


  39:Controller/Sensors/hall.c ****     } else if (state == 0x01) {
  40:Controller/Sensors/hall.c ****       g_theta = (PI * 5.0 / 3.0f) + g_phase_shift_angle;
  41:Controller/Sensors/hall.c ****     }
  42:Controller/Sensors/hall.c ****     if (g_theta < 0.0f) {
  43:Controller/Sensors/hall.c ****       g_theta += 2.0f * PI;
  44:Controller/Sensors/hall.c ****     } else if (g_theta > (2.0f * PI)) {
  45:Controller/Sensors/hall.c ****       g_theta -= 2.0f * PI;
  46:Controller/Sensors/hall.c ****     }
  47:Controller/Sensors/hall.c ****   }
  48:Controller/Sensors/hall.c **** }
  80              		.loc 1 48 1 view .LVU8
  81 000a 38BD     		pop	{r3, r4, r5, pc}
  82              	.LVL3:
  83              	.L23:
  84              	.LBB2:
  22:Controller/Sensors/hall.c ****     g_hall_value = HAL_TIM_ReadCapturedValue(&htim3, TIM_CHANNEL_1);
  85              		.loc 1 22 5 is_stmt 1 view .LVU9
  22:Controller/Sensors/hall.c ****     g_hall_value = HAL_TIM_ReadCapturedValue(&htim3, TIM_CHANNEL_1);
  86              		.loc 1 22 20 is_stmt 0 view .LVU10
  87 000c 0021     		movs	r1, #0
  88 000e 5348     		ldr	r0, .L25+36
  89              	.LVL4:
  22:Controller/Sensors/hall.c ****     g_hall_value = HAL_TIM_ReadCapturedValue(&htim3, TIM_CHANNEL_1);
  90              		.loc 1 22 20 view .LVU11
  91 0010 FFF7FEFF 		bl	HAL_TIM_ReadCapturedValue
  92              	.LVL5:
  93 0014 07EE900A 		vmov	s15, r0	@ int
  22:Controller/Sensors/hall.c ****     g_hall_value = HAL_TIM_ReadCapturedValue(&htim3, TIM_CHANNEL_1);
  94              		.loc 1 22 18 discriminator 1 view .LVU12
  95 0018 F8EE677A 		vcvt.f32.u32	s15, s15
  96 001c 504B     		ldr	r3, .L25+40
  97 001e C3ED007A 		vstr.32	s15, [r3]
  23:Controller/Sensors/hall.c ****     g_speed = (PI / 3) / (g_hall_value / 10000000) * 30 / (4 * PI);
  98              		.loc 1 23 5 is_stmt 1 view .LVU13
  23:Controller/Sensors/hall.c ****     g_speed = (PI / 3) / (g_hall_value / 10000000) * 30 / (4 * PI);
  99              		.loc 1 23 46 is_stmt 0 view .LVU14
 100 0022 9FED507A 		vldr.32	s14, .L25+44
 101 0026 C7EE877A 		vdiv.f32	s15, s15, s14
 102 002a 17EE900A 		vmov	r0, s15
 103 002e FFF7FEFF 		bl	__aeabi_f2d
 104              	.LVL6:
 105 0032 0246     		mov	r2, r0
 106 0034 0B46     		mov	r3, r1
  23:Controller/Sensors/hall.c ****     g_speed = (PI / 3) / (g_hall_value / 10000000) * 30 / (4 * PI);
 107              		.loc 1 23 30 view .LVU15
 108 0036 40A1     		adr	r1, .L25
 109 0038 D1E90001 		ldrd	r0, [r1]
 110 003c FFF7FEFF 		bl	__aeabi_ddiv
 111              	.LVL7:
 112 0040 0446     		mov	r4, r0
 113 0042 0D46     		mov	r5, r1
  23:Controller/Sensors/hall.c ****     g_speed = (PI / 3) / (g_hall_value / 10000000) * 30 / (4 * PI);
 114              		.loc 1 23 58 view .LVU16
 115 0044 3EA3     		adr	r3, .L25+8
 116 0046 D3E90023 		ldrd	r2, [r3]
 117 004a FFF7FEFF 		bl	__aeabi_ddiv
 118              	.LVL8:
ARM GAS  C:\Users\Rick\AppData\Local\Temp\ccbZIInU.s 			page 4


 119 004e FFF7FEFF 		bl	__aeabi_d2f
 120              	.LVL9:
  23:Controller/Sensors/hall.c ****     g_speed = (PI / 3) / (g_hall_value / 10000000) * 30 / (4 * PI);
 121              		.loc 1 23 19 view .LVU17
 122 0052 454B     		ldr	r3, .L25+48
 123 0054 1860     		str	r0, [r3]	@ float
  24:Controller/Sensors/hall.c ****     uint8_t state = HAL_GPIO_ReadPin(GPIOB, GPIO_PIN_0);
 124              		.loc 1 24 5 is_stmt 1 view .LVU18
  24:Controller/Sensors/hall.c ****     uint8_t state = HAL_GPIO_ReadPin(GPIOB, GPIO_PIN_0);
 125              		.loc 1 24 52 is_stmt 0 view .LVU19
 126 0056 0022     		movs	r2, #0
 127 0058 444B     		ldr	r3, .L25+52
 128 005a 2046     		mov	r0, r4
 129 005c 2946     		mov	r1, r5
 130 005e FFF7FEFF 		bl	__aeabi_dmul
 131              	.LVL10:
  24:Controller/Sensors/hall.c ****     uint8_t state = HAL_GPIO_ReadPin(GPIOB, GPIO_PIN_0);
 132              		.loc 1 24 57 view .LVU20
 133 0062 39A3     		adr	r3, .L25+16
 134 0064 D3E90023 		ldrd	r2, [r3]
 135 0068 FFF7FEFF 		bl	__aeabi_ddiv
 136              	.LVL11:
 137 006c FFF7FEFF 		bl	__aeabi_d2f
 138              	.LVL12:
  24:Controller/Sensors/hall.c ****     uint8_t state = HAL_GPIO_ReadPin(GPIOB, GPIO_PIN_0);
 139              		.loc 1 24 13 view .LVU21
 140 0070 3F4B     		ldr	r3, .L25+56
 141 0072 1860     		str	r0, [r3]	@ float
  25:Controller/Sensors/hall.c ****     state |= HAL_GPIO_ReadPin(GPIOA, GPIO_PIN_7) << 1;
 142              		.loc 1 25 5 is_stmt 1 view .LVU22
  25:Controller/Sensors/hall.c ****     state |= HAL_GPIO_ReadPin(GPIOA, GPIO_PIN_7) << 1;
 143              		.loc 1 25 21 is_stmt 0 view .LVU23
 144 0074 0121     		movs	r1, #1
 145 0076 3F48     		ldr	r0, .L25+60
 146 0078 FFF7FEFF 		bl	HAL_GPIO_ReadPin
 147              	.LVL13:
 148 007c 0446     		mov	r4, r0
 149              	.LVL14:
  26:Controller/Sensors/hall.c ****     state |= HAL_GPIO_ReadPin(GPIOA, GPIO_PIN_6) << 2;
 150              		.loc 1 26 5 is_stmt 1 view .LVU24
  26:Controller/Sensors/hall.c ****     state |= HAL_GPIO_ReadPin(GPIOA, GPIO_PIN_6) << 2;
 151              		.loc 1 26 14 is_stmt 0 view .LVU25
 152 007e 3E4D     		ldr	r5, .L25+64
 153 0080 8021     		movs	r1, #128
 154 0082 2846     		mov	r0, r5
 155 0084 FFF7FEFF 		bl	HAL_GPIO_ReadPin
 156              	.LVL15:
  26:Controller/Sensors/hall.c ****     state |= HAL_GPIO_ReadPin(GPIOA, GPIO_PIN_6) << 2;
 157              		.loc 1 26 11 discriminator 1 view .LVU26
 158 0088 44EA4004 		orr	r4, r4, r0, lsl #1
 159              	.LVL16:
  26:Controller/Sensors/hall.c ****     state |= HAL_GPIO_ReadPin(GPIOA, GPIO_PIN_6) << 2;
 160              		.loc 1 26 11 discriminator 1 view .LVU27
 161 008c 64B2     		sxtb	r4, r4
 162              	.LVL17:
  27:Controller/Sensors/hall.c **** 
 163              		.loc 1 27 5 is_stmt 1 view .LVU28
ARM GAS  C:\Users\Rick\AppData\Local\Temp\ccbZIInU.s 			page 5


  27:Controller/Sensors/hall.c **** 
 164              		.loc 1 27 14 is_stmt 0 view .LVU29
 165 008e 4021     		movs	r1, #64
 166 0090 2846     		mov	r0, r5
 167 0092 FFF7FEFF 		bl	HAL_GPIO_ReadPin
 168              	.LVL18:
  27:Controller/Sensors/hall.c **** 
 169              		.loc 1 27 11 discriminator 1 view .LVU30
 170 0096 44EA8003 		orr	r3, r4, r0, lsl #2
 171 009a 5BB2     		sxtb	r3, r3
 172              	.LVL19:
  29:Controller/Sensors/hall.c ****       g_theta = 0.0 + g_phase_shift_angle;
 173              		.loc 1 29 5 is_stmt 1 view .LVU31
 174 009c 013B     		subs	r3, r3, #1
 175              	.LVL20:
  29:Controller/Sensors/hall.c ****       g_theta = 0.0 + g_phase_shift_angle;
 176              		.loc 1 29 5 is_stmt 0 view .LVU32
 177 009e 052B     		cmp	r3, #5
 178 00a0 07D8     		bhi	.L7
 179 00a2 DFE803F0 		tbb	[pc, r3]
 180              	.L9:
 181 00a6 37       		.byte	(.L14-.L9)/2
 182 00a7 2F       		.byte	(.L13-.L9)/2
 183 00a8 33       		.byte	(.L12-.L9)/2
 184 00a9 27       		.byte	(.L11-.L9)/2
 185 00aa 03       		.byte	(.L10-.L9)/2
 186 00ab 2B       		.byte	(.L8-.L9)/2
 187              		.p2align 1
 188              	.L10:
  30:Controller/Sensors/hall.c ****     } else if (state == 0x04) {
 189              		.loc 1 30 7 is_stmt 1 view .LVU33
  30:Controller/Sensors/hall.c ****     } else if (state == 0x04) {
 190              		.loc 1 30 15 is_stmt 0 view .LVU34
 191 00ac 334B     		ldr	r3, .L25+68
 192              	.LVL21:
  30:Controller/Sensors/hall.c ****     } else if (state == 0x04) {
 193              		.loc 1 30 15 view .LVU35
 194 00ae 344A     		ldr	r2, .L25+72
 195 00b0 1A60     		str	r2, [r3]	@ float
 196              	.L7:
  42:Controller/Sensors/hall.c ****       g_theta += 2.0f * PI;
 197              		.loc 1 42 5 is_stmt 1 view .LVU36
  42:Controller/Sensors/hall.c ****       g_theta += 2.0f * PI;
 198              		.loc 1 42 17 is_stmt 0 view .LVU37
 199 00b2 324B     		ldr	r3, .L25+68
 200 00b4 D3ED007A 		vldr.32	s15, [r3]
  42:Controller/Sensors/hall.c ****       g_theta += 2.0f * PI;
 201              		.loc 1 42 8 view .LVU38
 202 00b8 F5EEC07A 		vcmpe.f32	s15, #0
 203 00bc F1EE10FA 		vmrs	APSR_nzcv, FPSCR
 204 00c0 2CD4     		bmi	.L24
  44:Controller/Sensors/hall.c ****       g_theta -= 2.0f * PI;
 205              		.loc 1 44 12 is_stmt 1 view .LVU39
  44:Controller/Sensors/hall.c ****       g_theta -= 2.0f * PI;
 206              		.loc 1 44 24 is_stmt 0 view .LVU40
 207 00c2 17EE900A 		vmov	r0, s15
 208              	.LVL22:
ARM GAS  C:\Users\Rick\AppData\Local\Temp\ccbZIInU.s 			page 6


  44:Controller/Sensors/hall.c ****       g_theta -= 2.0f * PI;
 209              		.loc 1 44 24 view .LVU41
 210 00c6 FFF7FEFF 		bl	__aeabi_f2d
 211              	.LVL23:
 212 00ca 0446     		mov	r4, r0
 213 00cc 0D46     		mov	r5, r1
  44:Controller/Sensors/hall.c ****       g_theta -= 2.0f * PI;
 214              		.loc 1 44 15 view .LVU42
 215 00ce 20A3     		adr	r3, .L25+24
 216 00d0 D3E90023 		ldrd	r2, [r3]
 217 00d4 FFF7FEFF 		bl	__aeabi_dcmpgt
 218              	.LVL24:
 219 00d8 0028     		cmp	r0, #0
 220 00da 96D0     		beq	.L5
  45:Controller/Sensors/hall.c ****     }
 221              		.loc 1 45 7 is_stmt 1 view .LVU43
  45:Controller/Sensors/hall.c ****     }
 222              		.loc 1 45 15 is_stmt 0 view .LVU44
 223 00dc 1CA3     		adr	r3, .L25+24
 224 00de D3E90023 		ldrd	r2, [r3]
 225 00e2 2046     		mov	r0, r4
 226 00e4 2946     		mov	r1, r5
 227 00e6 FFF7FEFF 		bl	__aeabi_dsub
 228              	.LVL25:
 229 00ea FFF7FEFF 		bl	__aeabi_d2f
 230              	.LVL26:
 231 00ee 234B     		ldr	r3, .L25+68
 232 00f0 1860     		str	r0, [r3]	@ float
 233              	.LBE2:
 234              		.loc 1 48 1 view .LVU45
 235 00f2 8AE7     		b	.L5
 236              	.LVL27:
 237              	.L11:
 238              	.LBB3:
  32:Controller/Sensors/hall.c ****     } else if (state == 0x06) {
 239              		.loc 1 32 7 is_stmt 1 view .LVU46
  32:Controller/Sensors/hall.c ****     } else if (state == 0x06) {
 240              		.loc 1 32 15 is_stmt 0 view .LVU47
 241 00f4 214B     		ldr	r3, .L25+68
 242              	.LVL28:
  32:Controller/Sensors/hall.c ****     } else if (state == 0x06) {
 243              		.loc 1 32 15 view .LVU48
 244 00f6 234A     		ldr	r2, .L25+76
 245 00f8 1A60     		str	r2, [r3]	@ float
 246 00fa DAE7     		b	.L7
 247              	.L8:
  34:Controller/Sensors/hall.c ****     } else if (state == 0x02) {
 248              		.loc 1 34 7 is_stmt 1 view .LVU49
  34:Controller/Sensors/hall.c ****     } else if (state == 0x02) {
 249              		.loc 1 34 15 is_stmt 0 view .LVU50
 250 00fc 1F4B     		ldr	r3, .L25+68
 251 00fe 224A     		ldr	r2, .L25+80
 252 0100 1A60     		str	r2, [r3]	@ float
 253 0102 D6E7     		b	.L7
 254              	.L13:
  36:Controller/Sensors/hall.c ****     } else if (state == 0x03) {
 255              		.loc 1 36 7 is_stmt 1 view .LVU51
ARM GAS  C:\Users\Rick\AppData\Local\Temp\ccbZIInU.s 			page 7


  36:Controller/Sensors/hall.c ****     } else if (state == 0x03) {
 256              		.loc 1 36 15 is_stmt 0 view .LVU52
 257 0104 1D4B     		ldr	r3, .L25+68
 258 0106 214A     		ldr	r2, .L25+84
 259 0108 1A60     		str	r2, [r3]	@ float
 260 010a D2E7     		b	.L7
 261              	.L12:
  38:Controller/Sensors/hall.c ****     } else if (state == 0x01) {
 262              		.loc 1 38 7 is_stmt 1 view .LVU53
  38:Controller/Sensors/hall.c ****     } else if (state == 0x01) {
 263              		.loc 1 38 15 is_stmt 0 view .LVU54
 264 010c 1B4B     		ldr	r3, .L25+68
 265 010e 204A     		ldr	r2, .L25+88
 266 0110 1A60     		str	r2, [r3]	@ float
 267 0112 CEE7     		b	.L7
 268              	.L14:
  40:Controller/Sensors/hall.c ****     }
 269              		.loc 1 40 7 is_stmt 1 view .LVU55
  40:Controller/Sensors/hall.c ****     }
 270              		.loc 1 40 15 is_stmt 0 view .LVU56
 271 0114 194B     		ldr	r3, .L25+68
 272 0116 1F4A     		ldr	r2, .L25+92
 273 0118 1A60     		str	r2, [r3]	@ float
 274 011a CAE7     		b	.L7
 275              	.L24:
  43:Controller/Sensors/hall.c ****     } else if (g_theta > (2.0f * PI)) {
 276              		.loc 1 43 7 is_stmt 1 view .LVU57
  43:Controller/Sensors/hall.c ****     } else if (g_theta > (2.0f * PI)) {
 277              		.loc 1 43 15 is_stmt 0 view .LVU58
 278 011c 17EE900A 		vmov	r0, s15
 279              	.LVL29:
  43:Controller/Sensors/hall.c ****     } else if (g_theta > (2.0f * PI)) {
 280              		.loc 1 43 15 view .LVU59
 281 0120 FFF7FEFF 		bl	__aeabi_f2d
 282              	.LVL30:
 283 0124 0AA3     		adr	r3, .L25+24
 284 0126 D3E90023 		ldrd	r2, [r3]
 285 012a FFF7FEFF 		bl	__aeabi_dadd
 286              	.LVL31:
 287 012e FFF7FEFF 		bl	__aeabi_d2f
 288              	.LVL32:
 289 0132 124B     		ldr	r3, .L25+68
 290 0134 1860     		str	r0, [r3]	@ float
 291 0136 68E7     		b	.L5
 292              	.L26:
 293              		.align	3
 294              	.L25:
 295 0138 61732D38 		.word	942502753
 296 013c 52C1F03F 		.word	1072742738
 297 0140 00000000 		.word	0
 298 0144 0088C340 		.word	1086556160
 299 0148 112D4454 		.word	1413754129
 300 014c FB212940 		.word	1076437499
 301 0150 112D4454 		.word	1413754129
 302 0154 FB211940 		.word	1075388923
 303 0158 00040040 		.word	1073742848
 304 015c 00000000 		.word	htim3
ARM GAS  C:\Users\Rick\AppData\Local\Temp\ccbZIInU.s 			page 8


 305 0160 00000000 		.word	g_hall_value
 306 0164 8096184B 		.word	1259902592
 307 0168 00000000 		.word	g_theta_delta
 308 016c 00003E40 		.word	1077805056
 309 0170 00000000 		.word	g_speed
 310 0174 00040240 		.word	1073873920
 311 0178 00000240 		.word	1073872896
 312 017c 00000000 		.word	g_theta
 313 0180 920A8640 		.word	1082526354
 314 0184 368DA740 		.word	1084722486
 315 0188 DB0FC940 		.word	1086918619
 316 018c 7F92EA40 		.word	1089114751
 317 0190 920A0641 		.word	1090914962
 318 0194 E4CB1641 		.word	1092013028
 319              	.LBE3:
 320              		.cfi_endproc
 321              	.LFE240:
 323              		.section	.text.hall_step,"ax",%progbits
 324              		.align	1
 325              		.global	hall_step
 326              		.syntax unified
 327              		.thumb
 328              		.thumb_func
 330              	hall_step:
 331              	.LFB241:
  49:Controller/Sensors/hall.c **** 
  50:Controller/Sensors/hall.c **** void hall_step(void) {
 332              		.loc 1 50 22 is_stmt 1 view -0
 333              		.cfi_startproc
 334              		@ args = 0, pretend = 0, frame = 0
 335              		@ frame_needed = 0, uses_anonymous_args = 0
 336 0000 38B5     		push	{r3, r4, r5, lr}
 337              		.cfi_def_cfa_offset 16
 338              		.cfi_offset 3, -16
 339              		.cfi_offset 4, -12
 340              		.cfi_offset 5, -8
 341              		.cfi_offset 14, -4
  51:Controller/Sensors/hall.c ****   g_theta = g_theta + g_theta_delta;
 342              		.loc 1 51 3 view .LVU61
 343              		.loc 1 51 21 is_stmt 0 view .LVU62
 344 0002 1D4B     		ldr	r3, .L37+8
 345 0004 D3ED007A 		vldr.32	s15, [r3]
 346 0008 1C4A     		ldr	r2, .L37+12
 347 000a 92ED007A 		vldr.32	s14, [r2]
 348 000e 77EE877A 		vadd.f32	s15, s15, s14
 349              		.loc 1 51 11 view .LVU63
 350 0012 C3ED007A 		vstr.32	s15, [r3]
  52:Controller/Sensors/hall.c ****   if (g_theta < 0.0f) {
 351              		.loc 1 52 3 is_stmt 1 view .LVU64
 352              		.loc 1 52 6 is_stmt 0 view .LVU65
 353 0016 F5EEC07A 		vcmpe.f32	s15, #0
 354 001a F1EE10FA 		vmrs	APSR_nzcv, FPSCR
 355 001e 17D4     		bmi	.L36
  53:Controller/Sensors/hall.c ****     g_theta += 2.0f * PI;
  54:Controller/Sensors/hall.c ****   } else if (g_theta > (2.0f * PI)) {
 356              		.loc 1 54 10 is_stmt 1 view .LVU66
 357              		.loc 1 54 22 is_stmt 0 view .LVU67
ARM GAS  C:\Users\Rick\AppData\Local\Temp\ccbZIInU.s 			page 9


 358 0020 17EE900A 		vmov	r0, s15
 359 0024 FFF7FEFF 		bl	__aeabi_f2d
 360              	.LVL33:
 361 0028 0446     		mov	r4, r0
 362 002a 0D46     		mov	r5, r1
 363              		.loc 1 54 13 view .LVU68
 364 002c 10A3     		adr	r3, .L37
 365 002e D3E90023 		ldrd	r2, [r3]
 366 0032 FFF7FEFF 		bl	__aeabi_dcmpgt
 367              	.LVL34:
 368 0036 C0B1     		cbz	r0, .L27
  55:Controller/Sensors/hall.c ****     g_theta -= 2.0 * PI;
 369              		.loc 1 55 5 is_stmt 1 view .LVU69
 370              		.loc 1 55 13 is_stmt 0 view .LVU70
 371 0038 0DA3     		adr	r3, .L37
 372 003a D3E90023 		ldrd	r2, [r3]
 373 003e 2046     		mov	r0, r4
 374 0040 2946     		mov	r1, r5
 375 0042 FFF7FEFF 		bl	__aeabi_dsub
 376              	.LVL35:
 377 0046 FFF7FEFF 		bl	__aeabi_d2f
 378              	.LVL36:
 379 004a 0B4B     		ldr	r3, .L37+8
 380 004c 1860     		str	r0, [r3]	@ float
  56:Controller/Sensors/hall.c ****   }
  57:Controller/Sensors/hall.c **** }
 381              		.loc 1 57 1 view .LVU71
 382 004e 0CE0     		b	.L27
 383              	.L36:
  53:Controller/Sensors/hall.c ****   } else if (g_theta > (2.0f * PI)) {
 384              		.loc 1 53 5 is_stmt 1 view .LVU72
  53:Controller/Sensors/hall.c ****   } else if (g_theta > (2.0f * PI)) {
 385              		.loc 1 53 13 is_stmt 0 view .LVU73
 386 0050 17EE900A 		vmov	r0, s15
 387 0054 FFF7FEFF 		bl	__aeabi_f2d
 388              	.LVL37:
 389 0058 05A3     		adr	r3, .L37
 390 005a D3E90023 		ldrd	r2, [r3]
 391 005e FFF7FEFF 		bl	__aeabi_dadd
 392              	.LVL38:
 393 0062 FFF7FEFF 		bl	__aeabi_d2f
 394              	.LVL39:
 395 0066 044B     		ldr	r3, .L37+8
 396 0068 1860     		str	r0, [r3]	@ float
 397              	.L27:
 398              		.loc 1 57 1 view .LVU74
 399 006a 38BD     		pop	{r3, r4, r5, pc}
 400              	.L38:
 401 006c AFF30080 		.align	3
 402              	.L37:
 403 0070 112D4454 		.word	1413754129
 404 0074 FB211940 		.word	1075388923
 405 0078 00000000 		.word	g_theta
 406 007c 00000000 		.word	g_theta_delta
 407              		.cfi_endproc
 408              	.LFE241:
 410              		.section	.text.hall_get_theta,"ax",%progbits
ARM GAS  C:\Users\Rick\AppData\Local\Temp\ccbZIInU.s 			page 10


 411              		.align	1
 412              		.global	hall_get_theta
 413              		.syntax unified
 414              		.thumb
 415              		.thumb_func
 417              	hall_get_theta:
 418              	.LFB242:
  58:Controller/Sensors/hall.c **** 
  59:Controller/Sensors/hall.c **** float hall_get_theta(void) { return g_theta; }
 419              		.loc 1 59 28 is_stmt 1 view -0
 420              		.cfi_startproc
 421              		@ args = 0, pretend = 0, frame = 0
 422              		@ frame_needed = 0, uses_anonymous_args = 0
 423              		@ link register save eliminated.
 424              		.loc 1 59 30 view .LVU76
 425              		.loc 1 59 46 is_stmt 0 view .LVU77
 426 0000 014B     		ldr	r3, .L40
 427 0002 93ED000A 		vldr.32	s0, [r3]
 428 0006 7047     		bx	lr
 429              	.L41:
 430              		.align	2
 431              	.L40:
 432 0008 00000000 		.word	g_theta
 433              		.cfi_endproc
 434              	.LFE242:
 436              		.section	.text.hall_get_speed,"ax",%progbits
 437              		.align	1
 438              		.global	hall_get_speed
 439              		.syntax unified
 440              		.thumb
 441              		.thumb_func
 443              	hall_get_speed:
 444              	.LFB243:
  60:Controller/Sensors/hall.c **** float hall_get_speed(void) { return g_speed; }...
 445              		.loc 1 60 28 is_stmt 1 view -0
 446              		.cfi_startproc
 447              		@ args = 0, pretend = 0, frame = 0
 448              		@ frame_needed = 0, uses_anonymous_args = 0
 449              		@ link register save eliminated.
 450              		.loc 1 60 30 view .LVU79
 451              		.loc 1 60 46 is_stmt 0 view .LVU80
 452 0000 014B     		ldr	r3, .L43
 453 0002 93ED000A 		vldr.32	s0, [r3]
 454 0006 7047     		bx	lr
 455              	.L44:
 456              		.align	2
 457              	.L43:
 458 0008 00000000 		.word	g_speed
 459              		.cfi_endproc
 460              	.LFE243:
 462              		.section	.bss.g_hall_value,"aw",%nobits
 463              		.align	2
 466              	g_hall_value:
 467 0000 00000000 		.space	4
 468              		.section	.bss.g_speed,"aw",%nobits
 469              		.align	2
 472              	g_speed:
ARM GAS  C:\Users\Rick\AppData\Local\Temp\ccbZIInU.s 			page 11


 473 0000 00000000 		.space	4
 474              		.section	.bss.g_theta,"aw",%nobits
 475              		.align	2
 478              	g_theta:
 479 0000 00000000 		.space	4
 480              		.section	.bss.g_theta_delta,"aw",%nobits
 481              		.align	2
 484              	g_theta_delta:
 485 0000 00000000 		.space	4
 486              		.text
 487              	.Letext0:
 488              		.file 2 "C:/Users/Rick/AppData/Roaming/Code/User/globalStorage/bmd.stm32-for-vscode/@xpack-dev-too
 489              		.file 3 "C:/Users/Rick/AppData/Roaming/Code/User/globalStorage/bmd.stm32-for-vscode/@xpack-dev-too
 490              		.file 4 "Drivers/CMSIS/Device/ST/STM32F4xx/Include/stm32f446xx.h"
 491              		.file 5 "Drivers/STM32F4xx_HAL_Driver/Inc/stm32f4xx_hal_def.h"
 492              		.file 6 "Drivers/STM32F4xx_HAL_Driver/Inc/stm32f4xx_hal_gpio.h"
 493              		.file 7 "Drivers/STM32F4xx_HAL_Driver/Inc/stm32f4xx_hal_dma.h"
 494              		.file 8 "Drivers/STM32F4xx_HAL_Driver/Inc/stm32f4xx_hal_tim.h"
 495              		.file 9 "Drivers/STM32F4xx_HAL_Driver/Inc/stm32f4xx_hal_tim_ex.h"
 496              		.file 10 "Core/Inc/tim.h"
ARM GAS  C:\Users\Rick\AppData\Local\Temp\ccbZIInU.s 			page 12

