ARM GAS  C:\Users\Rick\AppData\Local\Temp\ccwBYO6Z.s 			page 1


   1              		.cpu cortex-m4
   2              		.arch armv7e-m
   3              		.fpu fpv4-sp-d16
   4              		.eabi_attribute 27, 1
   5              		.eabi_attribute 28, 1
   6              		.eabi_attribute 20, 1
   7              		.eabi_attribute 21, 1
   8              		.eabi_attribute 23, 3
   9              		.eabi_attribute 24, 1
  10              		.eabi_attribute 25, 1
  11              		.eabi_attribute 26, 1
  12              		.eabi_attribute 30, 1
  13              		.eabi_attribute 34, 1
  14              		.eabi_attribute 18, 4
  15              		.file	"pwm.c"
  16              		.text
  17              	.Ltext0:
  18              		.cfi_sections	.debug_frame
  19              		.file 1 "Controller/PWM/pwm.c"
  20              		.section	.text.pwm_start,"ax",%progbits
  21              		.align	1
  22              		.global	pwm_start
  23              		.syntax unified
  24              		.thumb
  25              		.thumb_func
  27              	pwm_start:
  28              	.LFB239:
   1:Controller/PWM/pwm.c **** #include "./pwm.h"
   2:Controller/PWM/pwm.c **** 
   3:Controller/PWM/pwm.c **** void pwm_start(void) {
  29              		.loc 1 3 22 view -0
  30              		.cfi_startproc
  31              		@ args = 0, pretend = 0, frame = 0
  32              		@ frame_needed = 0, uses_anonymous_args = 0
  33 0000 10B5     		push	{r4, lr}
  34              		.cfi_def_cfa_offset 8
  35              		.cfi_offset 4, -8
  36              		.cfi_offset 14, -4
   4:Controller/PWM/pwm.c ****   TIM1->ARR = 8000 - 1;
  37              		.loc 1 4 3 view .LVU1
  38              		.loc 1 4 13 is_stmt 0 view .LVU2
  39 0002 174B     		ldr	r3, .L3
  40 0004 41F63F72 		movw	r2, #7999
  41 0008 DA62     		str	r2, [r3, #44]
   5:Controller/PWM/pwm.c ****   TIM1->CCR4 = 8000 - 2;
  42              		.loc 1 5 3 is_stmt 1 view .LVU3
  43              		.loc 1 5 14 is_stmt 0 view .LVU4
  44 000a 41F63E72 		movw	r2, #7998
  45 000e 1A64     		str	r2, [r3, #64]
   6:Controller/PWM/pwm.c **** 
   7:Controller/PWM/pwm.c ****   TIM1->CCR1 = 6000;
  46              		.loc 1 7 3 is_stmt 1 view .LVU5
  47              		.loc 1 7 14 is_stmt 0 view .LVU6
  48 0010 41F27072 		movw	r2, #6000
  49 0014 5A63     		str	r2, [r3, #52]
   8:Controller/PWM/pwm.c ****   TIM1->CCR2 = 4000;
  50              		.loc 1 8 3 is_stmt 1 view .LVU7
ARM GAS  C:\Users\Rick\AppData\Local\Temp\ccwBYO6Z.s 			page 2


  51              		.loc 1 8 14 is_stmt 0 view .LVU8
  52 0016 4FF47A62 		mov	r2, #4000
  53 001a 9A63     		str	r2, [r3, #56]
   9:Controller/PWM/pwm.c ****   TIM1->CCR3 = 2000;
  54              		.loc 1 9 3 is_stmt 1 view .LVU9
  55              		.loc 1 9 14 is_stmt 0 view .LVU10
  56 001c 4FF4FA62 		mov	r2, #2000
  57 0020 DA63     		str	r2, [r3, #60]
  10:Controller/PWM/pwm.c **** 
  11:Controller/PWM/pwm.c ****   HAL_TIM_PWM_Start(&htim1, TIM_CHANNEL_1);
  58              		.loc 1 11 3 is_stmt 1 view .LVU11
  59 0022 104C     		ldr	r4, .L3+4
  60 0024 0021     		movs	r1, #0
  61 0026 2046     		mov	r0, r4
  62 0028 FFF7FEFF 		bl	HAL_TIM_PWM_Start
  63              	.LVL0:
  12:Controller/PWM/pwm.c ****   HAL_TIM_PWM_Start(&htim1, TIM_CHANNEL_2);
  64              		.loc 1 12 3 view .LVU12
  65 002c 0421     		movs	r1, #4
  66 002e 2046     		mov	r0, r4
  67 0030 FFF7FEFF 		bl	HAL_TIM_PWM_Start
  68              	.LVL1:
  13:Controller/PWM/pwm.c ****   HAL_TIM_PWM_Start(&htim1, TIM_CHANNEL_3);
  69              		.loc 1 13 3 view .LVU13
  70 0034 0821     		movs	r1, #8
  71 0036 2046     		mov	r0, r4
  72 0038 FFF7FEFF 		bl	HAL_TIM_PWM_Start
  73              	.LVL2:
  14:Controller/PWM/pwm.c ****   HAL_TIMEx_PWMN_Start(&htim1, TIM_CHANNEL_1);
  74              		.loc 1 14 3 view .LVU14
  75 003c 0021     		movs	r1, #0
  76 003e 2046     		mov	r0, r4
  77 0040 FFF7FEFF 		bl	HAL_TIMEx_PWMN_Start
  78              	.LVL3:
  15:Controller/PWM/pwm.c ****   HAL_TIMEx_PWMN_Start(&htim1, TIM_CHANNEL_2);
  79              		.loc 1 15 3 view .LVU15
  80 0044 0421     		movs	r1, #4
  81 0046 2046     		mov	r0, r4
  82 0048 FFF7FEFF 		bl	HAL_TIMEx_PWMN_Start
  83              	.LVL4:
  16:Controller/PWM/pwm.c ****   HAL_TIMEx_PWMN_Start(&htim1, TIM_CHANNEL_3);
  84              		.loc 1 16 3 view .LVU16
  85 004c 0821     		movs	r1, #8
  86 004e 2046     		mov	r0, r4
  87 0050 FFF7FEFF 		bl	HAL_TIMEx_PWMN_Start
  88              	.LVL5:
  17:Controller/PWM/pwm.c **** 
  18:Controller/PWM/pwm.c ****   HAL_TIM_PWM_Start(&htim1, TIM_CHANNEL_4);
  89              		.loc 1 18 3 view .LVU17
  90 0054 0C21     		movs	r1, #12
  91 0056 2046     		mov	r0, r4
  92 0058 FFF7FEFF 		bl	HAL_TIM_PWM_Start
  93              	.LVL6:
  19:Controller/PWM/pwm.c **** }
  94              		.loc 1 19 1 is_stmt 0 view .LVU18
  95 005c 10BD     		pop	{r4, pc}
  96              	.L4:
ARM GAS  C:\Users\Rick\AppData\Local\Temp\ccwBYO6Z.s 			page 3


  97 005e 00BF     		.align	2
  98              	.L3:
  99 0060 00000140 		.word	1073807360
 100 0064 00000000 		.word	htim1
 101              		.cfi_endproc
 102              	.LFE239:
 104              		.section	.text.pwm_stop,"ax",%progbits
 105              		.align	1
 106              		.global	pwm_stop
 107              		.syntax unified
 108              		.thumb
 109              		.thumb_func
 111              	pwm_stop:
 112              	.LFB240:
  20:Controller/PWM/pwm.c **** 
  21:Controller/PWM/pwm.c **** void pwm_stop(void) {
 113              		.loc 1 21 21 is_stmt 1 view -0
 114              		.cfi_startproc
 115              		@ args = 0, pretend = 0, frame = 0
 116              		@ frame_needed = 0, uses_anonymous_args = 0
 117 0000 10B5     		push	{r4, lr}
 118              		.cfi_def_cfa_offset 8
 119              		.cfi_offset 4, -8
 120              		.cfi_offset 14, -4
  22:Controller/PWM/pwm.c ****   HAL_TIM_PWM_Stop(&htim1, TIM_CHANNEL_1);
 121              		.loc 1 22 3 view .LVU20
 122 0002 0D4C     		ldr	r4, .L7
 123 0004 0021     		movs	r1, #0
 124 0006 2046     		mov	r0, r4
 125 0008 FFF7FEFF 		bl	HAL_TIM_PWM_Stop
 126              	.LVL7:
  23:Controller/PWM/pwm.c ****   HAL_TIM_PWM_Stop(&htim1, TIM_CHANNEL_2);
 127              		.loc 1 23 3 view .LVU21
 128 000c 0421     		movs	r1, #4
 129 000e 2046     		mov	r0, r4
 130 0010 FFF7FEFF 		bl	HAL_TIM_PWM_Stop
 131              	.LVL8:
  24:Controller/PWM/pwm.c ****   HAL_TIM_PWM_Stop(&htim1, TIM_CHANNEL_3);
 132              		.loc 1 24 3 view .LVU22
 133 0014 0821     		movs	r1, #8
 134 0016 2046     		mov	r0, r4
 135 0018 FFF7FEFF 		bl	HAL_TIM_PWM_Stop
 136              	.LVL9:
  25:Controller/PWM/pwm.c ****   HAL_TIMEx_PWMN_Stop(&htim1, TIM_CHANNEL_1);
 137              		.loc 1 25 3 view .LVU23
 138 001c 0021     		movs	r1, #0
 139 001e 2046     		mov	r0, r4
 140 0020 FFF7FEFF 		bl	HAL_TIMEx_PWMN_Stop
 141              	.LVL10:
  26:Controller/PWM/pwm.c ****   HAL_TIMEx_PWMN_Stop(&htim1, TIM_CHANNEL_2);
 142              		.loc 1 26 3 view .LVU24
 143 0024 0421     		movs	r1, #4
 144 0026 2046     		mov	r0, r4
 145 0028 FFF7FEFF 		bl	HAL_TIMEx_PWMN_Stop
 146              	.LVL11:
  27:Controller/PWM/pwm.c ****   HAL_TIMEx_PWMN_Stop(&htim1, TIM_CHANNEL_3);
 147              		.loc 1 27 3 view .LVU25
ARM GAS  C:\Users\Rick\AppData\Local\Temp\ccwBYO6Z.s 			page 4


 148 002c 0821     		movs	r1, #8
 149 002e 2046     		mov	r0, r4
 150 0030 FFF7FEFF 		bl	HAL_TIMEx_PWMN_Stop
 151              	.LVL12:
  28:Controller/PWM/pwm.c **** }...
 152              		.loc 1 28 1 is_stmt 0 view .LVU26
 153 0034 10BD     		pop	{r4, pc}
 154              	.L8:
 155 0036 00BF     		.align	2
 156              	.L7:
 157 0038 00000000 		.word	htim1
 158              		.cfi_endproc
 159              	.LFE240:
 161              		.text
 162              	.Letext0:
 163              		.file 2 "C:/Users/Rick/AppData/Roaming/Code/User/globalStorage/bmd.stm32-for-vscode/@xpack-dev-too
 164              		.file 3 "C:/Users/Rick/AppData/Roaming/Code/User/globalStorage/bmd.stm32-for-vscode/@xpack-dev-too
 165              		.file 4 "Drivers/CMSIS/Device/ST/STM32F4xx/Include/stm32f446xx.h"
 166              		.file 5 "Drivers/STM32F4xx_HAL_Driver/Inc/stm32f4xx_hal_def.h"
 167              		.file 6 "Drivers/STM32F4xx_HAL_Driver/Inc/stm32f4xx_hal_dma.h"
 168              		.file 7 "Drivers/STM32F4xx_HAL_Driver/Inc/stm32f4xx_hal_tim.h"
 169              		.file 8 "Drivers/STM32F4xx_HAL_Driver/Inc/stm32f4xx_hal_tim_ex.h"
 170              		.file 9 "Core/Inc/tim.h"
ARM GAS  C:\Users\Rick\AppData\Local\Temp\ccwBYO6Z.s 			page 5

