ARM GAS  C:\Users\Rick\AppData\Local\Temp\ccJtffM9.s 			page 1


   1              		.cpu cortex-m4
   2              		.arch armv7e-m
   3              		.fpu fpv4-sp-d16
   4              		.eabi_attribute 27, 1
   5              		.eabi_attribute 28, 1
   6              		.eabi_attribute 20, 1
   7              		.eabi_attribute 21, 1
   8              		.eabi_attribute 23, 3
   9              		.eabi_attribute 24, 1
  10              		.eabi_attribute 25, 1
  11              		.eabi_attribute 26, 1
  12              		.eabi_attribute 30, 1
  13              		.eabi_attribute 34, 1
  14              		.eabi_attribute 18, 4
  15              		.file	"spi.c"
  16              		.text
  17              	.Ltext0:
  18              		.cfi_sections	.debug_frame
  19              		.file 1 "Core/Src/spi.c"
  20              		.section	.text.MX_SPI3_Init,"ax",%progbits
  21              		.align	1
  22              		.global	MX_SPI3_Init
  23              		.syntax unified
  24              		.thumb
  25              		.thumb_func
  27              	MX_SPI3_Init:
  28              	.LFB239:
   1:Core/Src/spi.c **** /* USER CODE BEGIN Header */
   2:Core/Src/spi.c **** /**
   3:Core/Src/spi.c ****   ******************************************************************************
   4:Core/Src/spi.c ****   * @file    spi.c
   5:Core/Src/spi.c ****   * @brief   This file provides code for the configuration
   6:Core/Src/spi.c ****   *          of the SPI instances.
   7:Core/Src/spi.c ****   ******************************************************************************
   8:Core/Src/spi.c ****   * @attention
   9:Core/Src/spi.c ****   *
  10:Core/Src/spi.c ****   * Copyright (c) 2025 STMicroelectronics.
  11:Core/Src/spi.c ****   * All rights reserved.
  12:Core/Src/spi.c ****   *
  13:Core/Src/spi.c ****   * This software is licensed under terms that can be found in the LICENSE file
  14:Core/Src/spi.c ****   * in the root directory of this software component.
  15:Core/Src/spi.c ****   * If no LICENSE file comes with this software, it is provided AS-IS.
  16:Core/Src/spi.c ****   *
  17:Core/Src/spi.c ****   ******************************************************************************
  18:Core/Src/spi.c ****   */
  19:Core/Src/spi.c **** /* USER CODE END Header */
  20:Core/Src/spi.c **** /* Includes ------------------------------------------------------------------*/
  21:Core/Src/spi.c **** #include "spi.h"
  22:Core/Src/spi.c **** 
  23:Core/Src/spi.c **** /* USER CODE BEGIN 0 */
  24:Core/Src/spi.c **** 
  25:Core/Src/spi.c **** /* USER CODE END 0 */
  26:Core/Src/spi.c **** 
  27:Core/Src/spi.c **** SPI_HandleTypeDef hspi3;
  28:Core/Src/spi.c **** 
  29:Core/Src/spi.c **** /* SPI3 init function */
  30:Core/Src/spi.c **** void MX_SPI3_Init(void)
ARM GAS  C:\Users\Rick\AppData\Local\Temp\ccJtffM9.s 			page 2


  31:Core/Src/spi.c **** {
  29              		.loc 1 31 1 view -0
  30              		.cfi_startproc
  31              		@ args = 0, pretend = 0, frame = 0
  32              		@ frame_needed = 0, uses_anonymous_args = 0
  33 0000 08B5     		push	{r3, lr}
  34              		.cfi_def_cfa_offset 8
  35              		.cfi_offset 3, -8
  36              		.cfi_offset 14, -4
  32:Core/Src/spi.c **** 
  33:Core/Src/spi.c ****   /* USER CODE BEGIN SPI3_Init 0 */
  34:Core/Src/spi.c **** 
  35:Core/Src/spi.c ****   /* USER CODE END SPI3_Init 0 */
  36:Core/Src/spi.c **** 
  37:Core/Src/spi.c ****   /* USER CODE BEGIN SPI3_Init 1 */
  38:Core/Src/spi.c **** 
  39:Core/Src/spi.c ****   /* USER CODE END SPI3_Init 1 */
  40:Core/Src/spi.c ****   hspi3.Instance = SPI3;
  37              		.loc 1 40 3 view .LVU1
  38              		.loc 1 40 18 is_stmt 0 view .LVU2
  39 0002 0F48     		ldr	r0, .L5
  40 0004 0F4B     		ldr	r3, .L5+4
  41 0006 0360     		str	r3, [r0]
  41:Core/Src/spi.c ****   hspi3.Init.Mode = SPI_MODE_MASTER;
  42              		.loc 1 41 3 is_stmt 1 view .LVU3
  43              		.loc 1 41 19 is_stmt 0 view .LVU4
  44 0008 4FF48273 		mov	r3, #260
  45 000c 4360     		str	r3, [r0, #4]
  42:Core/Src/spi.c ****   hspi3.Init.Direction = SPI_DIRECTION_2LINES;
  46              		.loc 1 42 3 is_stmt 1 view .LVU5
  47              		.loc 1 42 24 is_stmt 0 view .LVU6
  48 000e 0023     		movs	r3, #0
  49 0010 8360     		str	r3, [r0, #8]
  43:Core/Src/spi.c ****   hspi3.Init.DataSize = SPI_DATASIZE_16BIT;
  50              		.loc 1 43 3 is_stmt 1 view .LVU7
  51              		.loc 1 43 23 is_stmt 0 view .LVU8
  52 0012 4FF40062 		mov	r2, #2048
  53 0016 C260     		str	r2, [r0, #12]
  44:Core/Src/spi.c ****   hspi3.Init.CLKPolarity = SPI_POLARITY_LOW;
  54              		.loc 1 44 3 is_stmt 1 view .LVU9
  55              		.loc 1 44 26 is_stmt 0 view .LVU10
  56 0018 0361     		str	r3, [r0, #16]
  45:Core/Src/spi.c ****   hspi3.Init.CLKPhase = SPI_PHASE_2EDGE;
  57              		.loc 1 45 3 is_stmt 1 view .LVU11
  58              		.loc 1 45 23 is_stmt 0 view .LVU12
  59 001a 0122     		movs	r2, #1
  60 001c 4261     		str	r2, [r0, #20]
  46:Core/Src/spi.c ****   hspi3.Init.NSS = SPI_NSS_SOFT;
  61              		.loc 1 46 3 is_stmt 1 view .LVU13
  62              		.loc 1 46 18 is_stmt 0 view .LVU14
  63 001e 4FF40072 		mov	r2, #512
  64 0022 8261     		str	r2, [r0, #24]
  47:Core/Src/spi.c ****   hspi3.Init.BaudRatePrescaler = SPI_BAUDRATEPRESCALER_16;
  65              		.loc 1 47 3 is_stmt 1 view .LVU15
  66              		.loc 1 47 32 is_stmt 0 view .LVU16
  67 0024 1822     		movs	r2, #24
  68 0026 C261     		str	r2, [r0, #28]
ARM GAS  C:\Users\Rick\AppData\Local\Temp\ccJtffM9.s 			page 3


  48:Core/Src/spi.c ****   hspi3.Init.FirstBit = SPI_FIRSTBIT_MSB;
  69              		.loc 1 48 3 is_stmt 1 view .LVU17
  70              		.loc 1 48 23 is_stmt 0 view .LVU18
  71 0028 0362     		str	r3, [r0, #32]
  49:Core/Src/spi.c ****   hspi3.Init.TIMode = SPI_TIMODE_DISABLE;
  72              		.loc 1 49 3 is_stmt 1 view .LVU19
  73              		.loc 1 49 21 is_stmt 0 view .LVU20
  74 002a 4362     		str	r3, [r0, #36]
  50:Core/Src/spi.c ****   hspi3.Init.CRCCalculation = SPI_CRCCALCULATION_DISABLE;
  75              		.loc 1 50 3 is_stmt 1 view .LVU21
  76              		.loc 1 50 29 is_stmt 0 view .LVU22
  77 002c 8362     		str	r3, [r0, #40]
  51:Core/Src/spi.c ****   hspi3.Init.CRCPolynomial = 10;
  78              		.loc 1 51 3 is_stmt 1 view .LVU23
  79              		.loc 1 51 28 is_stmt 0 view .LVU24
  80 002e 0A23     		movs	r3, #10
  81 0030 C362     		str	r3, [r0, #44]
  52:Core/Src/spi.c ****   if (HAL_SPI_Init(&hspi3) != HAL_OK)
  82              		.loc 1 52 3 is_stmt 1 view .LVU25
  83              		.loc 1 52 7 is_stmt 0 view .LVU26
  84 0032 FFF7FEFF 		bl	HAL_SPI_Init
  85              	.LVL0:
  86              		.loc 1 52 6 discriminator 1 view .LVU27
  87 0036 00B9     		cbnz	r0, .L4
  88              	.L1:
  53:Core/Src/spi.c ****   {
  54:Core/Src/spi.c ****     Error_Handler();
  55:Core/Src/spi.c ****   }
  56:Core/Src/spi.c ****   /* USER CODE BEGIN SPI3_Init 2 */
  57:Core/Src/spi.c **** 
  58:Core/Src/spi.c ****   /* USER CODE END SPI3_Init 2 */
  59:Core/Src/spi.c **** 
  60:Core/Src/spi.c **** }
  89              		.loc 1 60 1 view .LVU28
  90 0038 08BD     		pop	{r3, pc}
  91              	.L4:
  54:Core/Src/spi.c ****   }
  92              		.loc 1 54 5 is_stmt 1 view .LVU29
  93 003a FFF7FEFF 		bl	Error_Handler
  94              	.LVL1:
  95              		.loc 1 60 1 is_stmt 0 view .LVU30
  96 003e FBE7     		b	.L1
  97              	.L6:
  98              		.align	2
  99              	.L5:
 100 0040 00000000 		.word	hspi3
 101 0044 003C0040 		.word	1073757184
 102              		.cfi_endproc
 103              	.LFE239:
 105              		.section	.text.HAL_SPI_MspInit,"ax",%progbits
 106              		.align	1
 107              		.global	HAL_SPI_MspInit
 108              		.syntax unified
 109              		.thumb
 110              		.thumb_func
 112              	HAL_SPI_MspInit:
 113              	.LVL2:
ARM GAS  C:\Users\Rick\AppData\Local\Temp\ccJtffM9.s 			page 4


 114              	.LFB240:
  61:Core/Src/spi.c **** 
  62:Core/Src/spi.c **** void HAL_SPI_MspInit(SPI_HandleTypeDef* spiHandle)
  63:Core/Src/spi.c **** {
 115              		.loc 1 63 1 is_stmt 1 view -0
 116              		.cfi_startproc
 117              		@ args = 0, pretend = 0, frame = 32
 118              		@ frame_needed = 0, uses_anonymous_args = 0
 119              		.loc 1 63 1 is_stmt 0 view .LVU32
 120 0000 00B5     		push	{lr}
 121              		.cfi_def_cfa_offset 4
 122              		.cfi_offset 14, -4
 123 0002 89B0     		sub	sp, sp, #36
 124              		.cfi_def_cfa_offset 40
  64:Core/Src/spi.c **** 
  65:Core/Src/spi.c ****   GPIO_InitTypeDef GPIO_InitStruct = {0};
 125              		.loc 1 65 3 is_stmt 1 view .LVU33
 126              		.loc 1 65 20 is_stmt 0 view .LVU34
 127 0004 0023     		movs	r3, #0
 128 0006 0393     		str	r3, [sp, #12]
 129 0008 0493     		str	r3, [sp, #16]
 130 000a 0593     		str	r3, [sp, #20]
 131 000c 0693     		str	r3, [sp, #24]
 132 000e 0793     		str	r3, [sp, #28]
  66:Core/Src/spi.c ****   if(spiHandle->Instance==SPI3)
 133              		.loc 1 66 3 is_stmt 1 view .LVU35
 134              		.loc 1 66 15 is_stmt 0 view .LVU36
 135 0010 0268     		ldr	r2, [r0]
 136              		.loc 1 66 5 view .LVU37
 137 0012 154B     		ldr	r3, .L11
 138 0014 9A42     		cmp	r2, r3
 139 0016 02D0     		beq	.L10
 140              	.LVL3:
 141              	.L7:
  67:Core/Src/spi.c ****   {
  68:Core/Src/spi.c ****   /* USER CODE BEGIN SPI3_MspInit 0 */
  69:Core/Src/spi.c **** 
  70:Core/Src/spi.c ****   /* USER CODE END SPI3_MspInit 0 */
  71:Core/Src/spi.c ****     /* SPI3 clock enable */
  72:Core/Src/spi.c ****     __HAL_RCC_SPI3_CLK_ENABLE();
  73:Core/Src/spi.c **** 
  74:Core/Src/spi.c ****     __HAL_RCC_GPIOC_CLK_ENABLE();
  75:Core/Src/spi.c ****     /**SPI3 GPIO Configuration
  76:Core/Src/spi.c ****     PC10     ------> SPI3_SCK
  77:Core/Src/spi.c ****     PC11     ------> SPI3_MISO
  78:Core/Src/spi.c ****     PC12     ------> SPI3_MOSI
  79:Core/Src/spi.c ****     */
  80:Core/Src/spi.c ****     GPIO_InitStruct.Pin = GPIO_PIN_10|GPIO_PIN_11|GPIO_PIN_12;
  81:Core/Src/spi.c ****     GPIO_InitStruct.Mode = GPIO_MODE_AF_PP;
  82:Core/Src/spi.c ****     GPIO_InitStruct.Pull = GPIO_NOPULL;
  83:Core/Src/spi.c ****     GPIO_InitStruct.Speed = GPIO_SPEED_FREQ_VERY_HIGH;
  84:Core/Src/spi.c ****     GPIO_InitStruct.Alternate = GPIO_AF6_SPI3;
  85:Core/Src/spi.c ****     HAL_GPIO_Init(GPIOC, &GPIO_InitStruct);
  86:Core/Src/spi.c **** 
  87:Core/Src/spi.c ****   /* USER CODE BEGIN SPI3_MspInit 1 */
  88:Core/Src/spi.c **** 
  89:Core/Src/spi.c ****   /* USER CODE END SPI3_MspInit 1 */
ARM GAS  C:\Users\Rick\AppData\Local\Temp\ccJtffM9.s 			page 5


  90:Core/Src/spi.c ****   }
  91:Core/Src/spi.c **** }
 142              		.loc 1 91 1 view .LVU38
 143 0018 09B0     		add	sp, sp, #36
 144              		.cfi_remember_state
 145              		.cfi_def_cfa_offset 4
 146              		@ sp needed
 147 001a 5DF804FB 		ldr	pc, [sp], #4
 148              	.LVL4:
 149              	.L10:
 150              		.cfi_restore_state
  72:Core/Src/spi.c **** 
 151              		.loc 1 72 5 is_stmt 1 view .LVU39
 152              	.LBB2:
  72:Core/Src/spi.c **** 
 153              		.loc 1 72 5 view .LVU40
 154 001e 0021     		movs	r1, #0
 155 0020 0191     		str	r1, [sp, #4]
  72:Core/Src/spi.c **** 
 156              		.loc 1 72 5 view .LVU41
 157 0022 03F5FE33 		add	r3, r3, #130048
 158 0026 1A6C     		ldr	r2, [r3, #64]
 159 0028 42F40042 		orr	r2, r2, #32768
 160 002c 1A64     		str	r2, [r3, #64]
  72:Core/Src/spi.c **** 
 161              		.loc 1 72 5 view .LVU42
 162 002e 1A6C     		ldr	r2, [r3, #64]
 163 0030 02F40042 		and	r2, r2, #32768
 164 0034 0192     		str	r2, [sp, #4]
  72:Core/Src/spi.c **** 
 165              		.loc 1 72 5 view .LVU43
 166 0036 019A     		ldr	r2, [sp, #4]
 167              	.LBE2:
  72:Core/Src/spi.c **** 
 168              		.loc 1 72 5 view .LVU44
  74:Core/Src/spi.c ****     /**SPI3 GPIO Configuration
 169              		.loc 1 74 5 view .LVU45
 170              	.LBB3:
  74:Core/Src/spi.c ****     /**SPI3 GPIO Configuration
 171              		.loc 1 74 5 view .LVU46
 172 0038 0291     		str	r1, [sp, #8]
  74:Core/Src/spi.c ****     /**SPI3 GPIO Configuration
 173              		.loc 1 74 5 view .LVU47
 174 003a 1A6B     		ldr	r2, [r3, #48]
 175 003c 42F00402 		orr	r2, r2, #4
 176 0040 1A63     		str	r2, [r3, #48]
  74:Core/Src/spi.c ****     /**SPI3 GPIO Configuration
 177              		.loc 1 74 5 view .LVU48
 178 0042 1B6B     		ldr	r3, [r3, #48]
 179 0044 03F00403 		and	r3, r3, #4
 180 0048 0293     		str	r3, [sp, #8]
  74:Core/Src/spi.c ****     /**SPI3 GPIO Configuration
 181              		.loc 1 74 5 view .LVU49
 182 004a 029B     		ldr	r3, [sp, #8]
 183              	.LBE3:
  74:Core/Src/spi.c ****     /**SPI3 GPIO Configuration
 184              		.loc 1 74 5 view .LVU50
ARM GAS  C:\Users\Rick\AppData\Local\Temp\ccJtffM9.s 			page 6


  80:Core/Src/spi.c ****     GPIO_InitStruct.Mode = GPIO_MODE_AF_PP;
 185              		.loc 1 80 5 view .LVU51
  80:Core/Src/spi.c ****     GPIO_InitStruct.Mode = GPIO_MODE_AF_PP;
 186              		.loc 1 80 25 is_stmt 0 view .LVU52
 187 004c 4FF4E053 		mov	r3, #7168
 188 0050 0393     		str	r3, [sp, #12]
  81:Core/Src/spi.c ****     GPIO_InitStruct.Pull = GPIO_NOPULL;
 189              		.loc 1 81 5 is_stmt 1 view .LVU53
  81:Core/Src/spi.c ****     GPIO_InitStruct.Pull = GPIO_NOPULL;
 190              		.loc 1 81 26 is_stmt 0 view .LVU54
 191 0052 0223     		movs	r3, #2
 192 0054 0493     		str	r3, [sp, #16]
  82:Core/Src/spi.c ****     GPIO_InitStruct.Speed = GPIO_SPEED_FREQ_VERY_HIGH;
 193              		.loc 1 82 5 is_stmt 1 view .LVU55
  83:Core/Src/spi.c ****     GPIO_InitStruct.Alternate = GPIO_AF6_SPI3;
 194              		.loc 1 83 5 view .LVU56
  83:Core/Src/spi.c ****     GPIO_InitStruct.Alternate = GPIO_AF6_SPI3;
 195              		.loc 1 83 27 is_stmt 0 view .LVU57
 196 0056 0323     		movs	r3, #3
 197 0058 0693     		str	r3, [sp, #24]
  84:Core/Src/spi.c ****     HAL_GPIO_Init(GPIOC, &GPIO_InitStruct);
 198              		.loc 1 84 5 is_stmt 1 view .LVU58
  84:Core/Src/spi.c ****     HAL_GPIO_Init(GPIOC, &GPIO_InitStruct);
 199              		.loc 1 84 31 is_stmt 0 view .LVU59
 200 005a 0623     		movs	r3, #6
 201 005c 0793     		str	r3, [sp, #28]
  85:Core/Src/spi.c **** 
 202              		.loc 1 85 5 is_stmt 1 view .LVU60
 203 005e 03A9     		add	r1, sp, #12
 204 0060 0248     		ldr	r0, .L11+4
 205              	.LVL5:
  85:Core/Src/spi.c **** 
 206              		.loc 1 85 5 is_stmt 0 view .LVU61
 207 0062 FFF7FEFF 		bl	HAL_GPIO_Init
 208              	.LVL6:
 209              		.loc 1 91 1 view .LVU62
 210 0066 D7E7     		b	.L7
 211              	.L12:
 212              		.align	2
 213              	.L11:
 214 0068 003C0040 		.word	1073757184
 215 006c 00080240 		.word	1073874944
 216              		.cfi_endproc
 217              	.LFE240:
 219              		.section	.text.HAL_SPI_MspDeInit,"ax",%progbits
 220              		.align	1
 221              		.global	HAL_SPI_MspDeInit
 222              		.syntax unified
 223              		.thumb
 224              		.thumb_func
 226              	HAL_SPI_MspDeInit:
 227              	.LVL7:
 228              	.LFB241:
  92:Core/Src/spi.c **** 
  93:Core/Src/spi.c **** void HAL_SPI_MspDeInit(SPI_HandleTypeDef* spiHandle)
  94:Core/Src/spi.c **** {
 229              		.loc 1 94 1 is_stmt 1 view -0
ARM GAS  C:\Users\Rick\AppData\Local\Temp\ccJtffM9.s 			page 7


 230              		.cfi_startproc
 231              		@ args = 0, pretend = 0, frame = 0
 232              		@ frame_needed = 0, uses_anonymous_args = 0
 233              		.loc 1 94 1 is_stmt 0 view .LVU64
 234 0000 08B5     		push	{r3, lr}
 235              		.cfi_def_cfa_offset 8
 236              		.cfi_offset 3, -8
 237              		.cfi_offset 14, -4
  95:Core/Src/spi.c **** 
  96:Core/Src/spi.c ****   if(spiHandle->Instance==SPI3)
 238              		.loc 1 96 3 is_stmt 1 view .LVU65
 239              		.loc 1 96 15 is_stmt 0 view .LVU66
 240 0002 0268     		ldr	r2, [r0]
 241              		.loc 1 96 5 view .LVU67
 242 0004 074B     		ldr	r3, .L17
 243 0006 9A42     		cmp	r2, r3
 244 0008 00D0     		beq	.L16
 245              	.LVL8:
 246              	.L13:
  97:Core/Src/spi.c ****   {
  98:Core/Src/spi.c ****   /* USER CODE BEGIN SPI3_MspDeInit 0 */
  99:Core/Src/spi.c **** 
 100:Core/Src/spi.c ****   /* USER CODE END SPI3_MspDeInit 0 */
 101:Core/Src/spi.c ****     /* Peripheral clock disable */
 102:Core/Src/spi.c ****     __HAL_RCC_SPI3_CLK_DISABLE();
 103:Core/Src/spi.c **** 
 104:Core/Src/spi.c ****     /**SPI3 GPIO Configuration
 105:Core/Src/spi.c ****     PC10     ------> SPI3_SCK
 106:Core/Src/spi.c ****     PC11     ------> SPI3_MISO
 107:Core/Src/spi.c ****     PC12     ------> SPI3_MOSI
 108:Core/Src/spi.c ****     */
 109:Core/Src/spi.c ****     HAL_GPIO_DeInit(GPIOC, GPIO_PIN_10|GPIO_PIN_11|GPIO_PIN_12);
 110:Core/Src/spi.c **** 
 111:Core/Src/spi.c ****   /* USER CODE BEGIN SPI3_MspDeInit 1 */
 112:Core/Src/spi.c **** 
 113:Core/Src/spi.c ****   /* USER CODE END SPI3_MspDeInit 1 */
 114:Core/Src/spi.c ****   }
 115:Core/Src/spi.c **** }
 247              		.loc 1 115 1 view .LVU68
 248 000a 08BD     		pop	{r3, pc}
 249              	.LVL9:
 250              	.L16:
 102:Core/Src/spi.c **** 
 251              		.loc 1 102 5 is_stmt 1 view .LVU69
 252 000c 064A     		ldr	r2, .L17+4
 253 000e 136C     		ldr	r3, [r2, #64]
 254 0010 23F40043 		bic	r3, r3, #32768
 255 0014 1364     		str	r3, [r2, #64]
 109:Core/Src/spi.c **** 
 256              		.loc 1 109 5 view .LVU70
 257 0016 4FF4E051 		mov	r1, #7168
 258 001a 0448     		ldr	r0, .L17+8
 259              	.LVL10:
 109:Core/Src/spi.c **** 
 260              		.loc 1 109 5 is_stmt 0 view .LVU71
 261 001c FFF7FEFF 		bl	HAL_GPIO_DeInit
 262              	.LVL11:
ARM GAS  C:\Users\Rick\AppData\Local\Temp\ccJtffM9.s 			page 8


 263              		.loc 1 115 1 view .LVU72
 264 0020 F3E7     		b	.L13
 265              	.L18:
 266 0022 00BF     		.align	2
 267              	.L17:
 268 0024 003C0040 		.word	1073757184
 269 0028 00380240 		.word	1073887232
 270 002c 00080240 		.word	1073874944
 271              		.cfi_endproc
 272              	.LFE241:
 274              		.global	hspi3
 275              		.section	.bss.hspi3,"aw",%nobits
 276              		.align	2
 279              	hspi3:
 280 0000 00000000 		.space	88
 280      00000000 
 280      00000000 
 280      00000000 
 280      00000000 
 281              		.text
 282              	.Letext0:
 283              		.file 2 "C:/Users/Rick/AppData/Roaming/Code/User/globalStorage/bmd.stm32-for-vscode/@xpack-dev-too
 284              		.file 3 "C:/Users/Rick/AppData/Roaming/Code/User/globalStorage/bmd.stm32-for-vscode/@xpack-dev-too
 285              		.file 4 "Drivers/CMSIS/Device/ST/STM32F4xx/Include/stm32f446xx.h"
 286              		.file 5 "Drivers/STM32F4xx_HAL_Driver/Inc/stm32f4xx_hal_def.h"
 287              		.file 6 "Drivers/STM32F4xx_HAL_Driver/Inc/stm32f4xx_hal_gpio.h"
 288              		.file 7 "Drivers/STM32F4xx_HAL_Driver/Inc/stm32f4xx_hal_dma.h"
 289              		.file 8 "Drivers/STM32F4xx_HAL_Driver/Inc/stm32f4xx_hal_spi.h"
 290              		.file 9 "Core/Inc/spi.h"
 291              		.file 10 "Core/Inc/main.h"
ARM GAS  C:\Users\Rick\AppData\Local\Temp\ccJtffM9.s 			page 9

