ARM GAS  C:\Users\Rick\AppData\Local\Temp\ccqNNt2e.s 			page 1


   1              		.cpu cortex-m4
   2              		.arch armv7e-m
   3              		.fpu fpv4-sp-d16
   4              		.eabi_attribute 27, 1
   5              		.eabi_attribute 28, 1
   6              		.eabi_attribute 20, 1
   7              		.eabi_attribute 21, 1
   8              		.eabi_attribute 23, 3
   9              		.eabi_attribute 24, 1
  10              		.eabi_attribute 25, 1
  11              		.eabi_attribute 26, 1
  12              		.eabi_attribute 30, 1
  13              		.eabi_attribute 34, 1
  14              		.eabi_attribute 18, 4
  15              		.file	"stm32f4xx_hal_timebase_tim.c"
  16              		.text
  17              	.Ltext0:
  18              		.cfi_sections	.debug_frame
  19              		.file 1 "Core/Src/stm32f4xx_hal_timebase_tim.c"
  20              		.section	.text.HAL_InitTick,"ax",%progbits
  21              		.align	1
  22              		.global	HAL_InitTick
  23              		.syntax unified
  24              		.thumb
  25              		.thumb_func
  27              	HAL_InitTick:
  28              	.LVL0:
  29              	.LFB239:
   1:Core/Src/stm32f4xx_hal_timebase_tim.c **** /* USER CODE BEGIN Header */
   2:Core/Src/stm32f4xx_hal_timebase_tim.c **** /**
   3:Core/Src/stm32f4xx_hal_timebase_tim.c ****   ******************************************************************************
   4:Core/Src/stm32f4xx_hal_timebase_tim.c ****   * @file    stm32f4xx_hal_timebase_tim.c
   5:Core/Src/stm32f4xx_hal_timebase_tim.c ****   * @brief   HAL time base based on the hardware TIM.
   6:Core/Src/stm32f4xx_hal_timebase_tim.c ****   ******************************************************************************
   7:Core/Src/stm32f4xx_hal_timebase_tim.c ****   * @attention
   8:Core/Src/stm32f4xx_hal_timebase_tim.c ****   *
   9:Core/Src/stm32f4xx_hal_timebase_tim.c ****   * Copyright (c) 2025 STMicroelectronics.
  10:Core/Src/stm32f4xx_hal_timebase_tim.c ****   * All rights reserved.
  11:Core/Src/stm32f4xx_hal_timebase_tim.c ****   *
  12:Core/Src/stm32f4xx_hal_timebase_tim.c ****   * This software is licensed under terms that can be found in the LICENSE file
  13:Core/Src/stm32f4xx_hal_timebase_tim.c ****   * in the root directory of this software component.
  14:Core/Src/stm32f4xx_hal_timebase_tim.c ****   * If no LICENSE file comes with this software, it is provided AS-IS.
  15:Core/Src/stm32f4xx_hal_timebase_tim.c ****   *
  16:Core/Src/stm32f4xx_hal_timebase_tim.c ****   ******************************************************************************
  17:Core/Src/stm32f4xx_hal_timebase_tim.c ****   */
  18:Core/Src/stm32f4xx_hal_timebase_tim.c **** /* USER CODE END Header */
  19:Core/Src/stm32f4xx_hal_timebase_tim.c **** 
  20:Core/Src/stm32f4xx_hal_timebase_tim.c **** /* Includes ------------------------------------------------------------------*/
  21:Core/Src/stm32f4xx_hal_timebase_tim.c **** #include "stm32f4xx_hal.h"
  22:Core/Src/stm32f4xx_hal_timebase_tim.c **** #include "stm32f4xx_hal_tim.h"
  23:Core/Src/stm32f4xx_hal_timebase_tim.c **** 
  24:Core/Src/stm32f4xx_hal_timebase_tim.c **** /* Private typedef -----------------------------------------------------------*/
  25:Core/Src/stm32f4xx_hal_timebase_tim.c **** /* Private define ------------------------------------------------------------*/
  26:Core/Src/stm32f4xx_hal_timebase_tim.c **** /* Private macro -------------------------------------------------------------*/
  27:Core/Src/stm32f4xx_hal_timebase_tim.c **** /* Private variables ---------------------------------------------------------*/
  28:Core/Src/stm32f4xx_hal_timebase_tim.c **** TIM_HandleTypeDef        htim6;
  29:Core/Src/stm32f4xx_hal_timebase_tim.c **** /* Private function prototypes -----------------------------------------------*/
ARM GAS  C:\Users\Rick\AppData\Local\Temp\ccqNNt2e.s 			page 2


  30:Core/Src/stm32f4xx_hal_timebase_tim.c **** /* Private functions ---------------------------------------------------------*/
  31:Core/Src/stm32f4xx_hal_timebase_tim.c **** 
  32:Core/Src/stm32f4xx_hal_timebase_tim.c **** /**
  33:Core/Src/stm32f4xx_hal_timebase_tim.c ****   * @brief  This function configures the TIM6 as a time base source.
  34:Core/Src/stm32f4xx_hal_timebase_tim.c ****   *         The time source is configured  to have 1ms time base with a dedicated
  35:Core/Src/stm32f4xx_hal_timebase_tim.c ****   *         Tick interrupt priority.
  36:Core/Src/stm32f4xx_hal_timebase_tim.c ****   * @note   This function is called  automatically at the beginning of program after
  37:Core/Src/stm32f4xx_hal_timebase_tim.c ****   *         reset by HAL_Init() or at any time when clock is configured, by HAL_RCC_ClockConfig().
  38:Core/Src/stm32f4xx_hal_timebase_tim.c ****   * @param  TickPriority: Tick interrupt priority.
  39:Core/Src/stm32f4xx_hal_timebase_tim.c ****   * @retval HAL status
  40:Core/Src/stm32f4xx_hal_timebase_tim.c ****   */
  41:Core/Src/stm32f4xx_hal_timebase_tim.c **** HAL_StatusTypeDef HAL_InitTick(uint32_t TickPriority)
  42:Core/Src/stm32f4xx_hal_timebase_tim.c **** {
  30              		.loc 1 42 1 view -0
  31              		.cfi_startproc
  32              		@ args = 0, pretend = 0, frame = 32
  33              		@ frame_needed = 0, uses_anonymous_args = 0
  34              		.loc 1 42 1 is_stmt 0 view .LVU1
  35 0000 30B5     		push	{r4, r5, lr}
  36              		.cfi_def_cfa_offset 12
  37              		.cfi_offset 4, -12
  38              		.cfi_offset 5, -8
  39              		.cfi_offset 14, -4
  40 0002 89B0     		sub	sp, sp, #36
  41              		.cfi_def_cfa_offset 48
  42 0004 0446     		mov	r4, r0
  43:Core/Src/stm32f4xx_hal_timebase_tim.c ****   RCC_ClkInitTypeDef    clkconfig;
  43              		.loc 1 43 3 is_stmt 1 view .LVU2
  44:Core/Src/stm32f4xx_hal_timebase_tim.c ****   uint32_t              uwTimclock, uwAPB1Prescaler = 0U;
  44              		.loc 1 44 3 view .LVU3
  45              	.LVL1:
  45:Core/Src/stm32f4xx_hal_timebase_tim.c **** 
  46:Core/Src/stm32f4xx_hal_timebase_tim.c ****   uint32_t              uwPrescalerValue = 0U;
  46              		.loc 1 46 3 view .LVU4
  47:Core/Src/stm32f4xx_hal_timebase_tim.c ****   uint32_t              pFLatency;
  47              		.loc 1 47 3 view .LVU5
  48:Core/Src/stm32f4xx_hal_timebase_tim.c **** 
  49:Core/Src/stm32f4xx_hal_timebase_tim.c ****   HAL_StatusTypeDef     status;
  48              		.loc 1 49 3 view .LVU6
  50:Core/Src/stm32f4xx_hal_timebase_tim.c **** 
  51:Core/Src/stm32f4xx_hal_timebase_tim.c ****   /* Enable TIM6 clock */
  52:Core/Src/stm32f4xx_hal_timebase_tim.c ****   __HAL_RCC_TIM6_CLK_ENABLE();
  49              		.loc 1 52 3 view .LVU7
  50              	.LBB2:
  51              		.loc 1 52 3 view .LVU8
  52 0006 0023     		movs	r3, #0
  53 0008 0193     		str	r3, [sp, #4]
  54              		.loc 1 52 3 view .LVU9
  55 000a 214B     		ldr	r3, .L9
  56 000c 1A6C     		ldr	r2, [r3, #64]
  57 000e 42F01002 		orr	r2, r2, #16
  58 0012 1A64     		str	r2, [r3, #64]
  59              		.loc 1 52 3 view .LVU10
  60 0014 1B6C     		ldr	r3, [r3, #64]
  61 0016 03F01003 		and	r3, r3, #16
  62 001a 0193     		str	r3, [sp, #4]
  63              		.loc 1 52 3 view .LVU11
ARM GAS  C:\Users\Rick\AppData\Local\Temp\ccqNNt2e.s 			page 3


  64 001c 019B     		ldr	r3, [sp, #4]
  65              	.LBE2:
  66              		.loc 1 52 3 view .LVU12
  53:Core/Src/stm32f4xx_hal_timebase_tim.c **** 
  54:Core/Src/stm32f4xx_hal_timebase_tim.c ****   /* Get clock configuration */
  55:Core/Src/stm32f4xx_hal_timebase_tim.c ****   HAL_RCC_GetClockConfig(&clkconfig, &pFLatency);
  67              		.loc 1 55 3 view .LVU13
  68 001e 02A9     		add	r1, sp, #8
  69 0020 03A8     		add	r0, sp, #12
  70              	.LVL2:
  71              		.loc 1 55 3 is_stmt 0 view .LVU14
  72 0022 FFF7FEFF 		bl	HAL_RCC_GetClockConfig
  73              	.LVL3:
  56:Core/Src/stm32f4xx_hal_timebase_tim.c **** 
  57:Core/Src/stm32f4xx_hal_timebase_tim.c ****   /* Get APB1 prescaler */
  58:Core/Src/stm32f4xx_hal_timebase_tim.c ****   uwAPB1Prescaler = clkconfig.APB1CLKDivider;
  74              		.loc 1 58 3 is_stmt 1 view .LVU15
  75              		.loc 1 58 19 is_stmt 0 view .LVU16
  76 0026 069B     		ldr	r3, [sp, #24]
  77              	.LVL4:
  59:Core/Src/stm32f4xx_hal_timebase_tim.c ****   /* Compute TIM6 clock */
  60:Core/Src/stm32f4xx_hal_timebase_tim.c ****   if (uwAPB1Prescaler == RCC_HCLK_DIV1)
  78              		.loc 1 60 3 is_stmt 1 view .LVU17
  79              		.loc 1 60 6 is_stmt 0 view .LVU18
  80 0028 CBB9     		cbnz	r3, .L2
  61:Core/Src/stm32f4xx_hal_timebase_tim.c ****   {
  62:Core/Src/stm32f4xx_hal_timebase_tim.c ****     uwTimclock = HAL_RCC_GetPCLK1Freq();
  81              		.loc 1 62 5 is_stmt 1 view .LVU19
  82              		.loc 1 62 18 is_stmt 0 view .LVU20
  83 002a FFF7FEFF 		bl	HAL_RCC_GetPCLK1Freq
  84              	.LVL5:
  85              		.loc 1 62 18 view .LVU21
  86 002e 0346     		mov	r3, r0
  87              	.LVL6:
  88              	.L3:
  63:Core/Src/stm32f4xx_hal_timebase_tim.c ****   }
  64:Core/Src/stm32f4xx_hal_timebase_tim.c ****   else
  65:Core/Src/stm32f4xx_hal_timebase_tim.c ****   {
  66:Core/Src/stm32f4xx_hal_timebase_tim.c ****     uwTimclock = 2UL * HAL_RCC_GetPCLK1Freq();
  67:Core/Src/stm32f4xx_hal_timebase_tim.c ****   }
  68:Core/Src/stm32f4xx_hal_timebase_tim.c **** 
  69:Core/Src/stm32f4xx_hal_timebase_tim.c ****   /* Compute the prescaler value to have TIM6 counter clock equal to 1MHz */
  70:Core/Src/stm32f4xx_hal_timebase_tim.c ****   uwPrescalerValue = (uint32_t) ((uwTimclock / 1000000U) - 1U);
  89              		.loc 1 70 3 is_stmt 1 view .LVU22
  90              		.loc 1 70 46 is_stmt 0 view .LVU23
  91 0030 184A     		ldr	r2, .L9+4
  92 0032 A2FB0323 		umull	r2, r3, r2, r3
  93              	.LVL7:
  94              		.loc 1 70 46 view .LVU24
  95 0036 9B0C     		lsrs	r3, r3, #18
  96              		.loc 1 70 20 view .LVU25
  97 0038 013B     		subs	r3, r3, #1
  98              	.LVL8:
  71:Core/Src/stm32f4xx_hal_timebase_tim.c **** 
  72:Core/Src/stm32f4xx_hal_timebase_tim.c ****   /* Initialize TIM6 */
  73:Core/Src/stm32f4xx_hal_timebase_tim.c ****   htim6.Instance = TIM6;
  99              		.loc 1 73 3 is_stmt 1 view .LVU26
ARM GAS  C:\Users\Rick\AppData\Local\Temp\ccqNNt2e.s 			page 4


 100              		.loc 1 73 18 is_stmt 0 view .LVU27
 101 003a 1748     		ldr	r0, .L9+8
 102 003c 174A     		ldr	r2, .L9+12
 103 003e 0260     		str	r2, [r0]
  74:Core/Src/stm32f4xx_hal_timebase_tim.c **** 
  75:Core/Src/stm32f4xx_hal_timebase_tim.c ****   /* Initialize TIMx peripheral as follow:
  76:Core/Src/stm32f4xx_hal_timebase_tim.c ****    * Period = [(TIM6CLK/1000) - 1]. to have a (1/1000) s time base.
  77:Core/Src/stm32f4xx_hal_timebase_tim.c ****    * Prescaler = (uwTimclock/1000000 - 1) to have a 1MHz counter clock.
  78:Core/Src/stm32f4xx_hal_timebase_tim.c ****    * ClockDivision = 0
  79:Core/Src/stm32f4xx_hal_timebase_tim.c ****    * Counter direction = Up
  80:Core/Src/stm32f4xx_hal_timebase_tim.c ****    */
  81:Core/Src/stm32f4xx_hal_timebase_tim.c ****   htim6.Init.Period = (1000000U / 1000U) - 1U;
 104              		.loc 1 81 3 is_stmt 1 view .LVU28
 105              		.loc 1 81 21 is_stmt 0 view .LVU29
 106 0040 40F2E732 		movw	r2, #999
 107 0044 C260     		str	r2, [r0, #12]
  82:Core/Src/stm32f4xx_hal_timebase_tim.c ****   htim6.Init.Prescaler = uwPrescalerValue;
 108              		.loc 1 82 3 is_stmt 1 view .LVU30
 109              		.loc 1 82 24 is_stmt 0 view .LVU31
 110 0046 4360     		str	r3, [r0, #4]
  83:Core/Src/stm32f4xx_hal_timebase_tim.c ****   htim6.Init.ClockDivision = 0;
 111              		.loc 1 83 3 is_stmt 1 view .LVU32
 112              		.loc 1 83 28 is_stmt 0 view .LVU33
 113 0048 0023     		movs	r3, #0
 114              	.LVL9:
 115              		.loc 1 83 28 view .LVU34
 116 004a 0361     		str	r3, [r0, #16]
  84:Core/Src/stm32f4xx_hal_timebase_tim.c ****   htim6.Init.CounterMode = TIM_COUNTERMODE_UP;
 117              		.loc 1 84 3 is_stmt 1 view .LVU35
 118              		.loc 1 84 26 is_stmt 0 view .LVU36
 119 004c 8360     		str	r3, [r0, #8]
  85:Core/Src/stm32f4xx_hal_timebase_tim.c ****   htim6.Init.AutoReloadPreload = TIM_AUTORELOAD_PRELOAD_DISABLE;
 120              		.loc 1 85 3 is_stmt 1 view .LVU37
 121              		.loc 1 85 32 is_stmt 0 view .LVU38
 122 004e 8361     		str	r3, [r0, #24]
  86:Core/Src/stm32f4xx_hal_timebase_tim.c **** 
  87:Core/Src/stm32f4xx_hal_timebase_tim.c ****   status = HAL_TIM_Base_Init(&htim6);
 123              		.loc 1 87 3 is_stmt 1 view .LVU39
 124              		.loc 1 87 12 is_stmt 0 view .LVU40
 125 0050 FFF7FEFF 		bl	HAL_TIM_Base_Init
 126              	.LVL10:
  88:Core/Src/stm32f4xx_hal_timebase_tim.c ****   if (status == HAL_OK)
 127              		.loc 1 88 3 is_stmt 1 view .LVU41
 128              		.loc 1 88 6 is_stmt 0 view .LVU42
 129 0054 0546     		mov	r5, r0
 130 0056 30B1     		cbz	r0, .L7
 131              	.LVL11:
 132              	.L4:
  89:Core/Src/stm32f4xx_hal_timebase_tim.c ****   {
  90:Core/Src/stm32f4xx_hal_timebase_tim.c ****     /* Start the TIM time Base generation in interrupt mode */
  91:Core/Src/stm32f4xx_hal_timebase_tim.c ****     status = HAL_TIM_Base_Start_IT(&htim6);
  92:Core/Src/stm32f4xx_hal_timebase_tim.c ****     if (status == HAL_OK)
  93:Core/Src/stm32f4xx_hal_timebase_tim.c ****     {
  94:Core/Src/stm32f4xx_hal_timebase_tim.c ****     /* Enable the TIM6 global Interrupt */
  95:Core/Src/stm32f4xx_hal_timebase_tim.c ****         HAL_NVIC_EnableIRQ(TIM6_DAC_IRQn);
  96:Core/Src/stm32f4xx_hal_timebase_tim.c ****       /* Configure the SysTick IRQ priority */
  97:Core/Src/stm32f4xx_hal_timebase_tim.c ****       if (TickPriority < (1UL << __NVIC_PRIO_BITS))
ARM GAS  C:\Users\Rick\AppData\Local\Temp\ccqNNt2e.s 			page 5


  98:Core/Src/stm32f4xx_hal_timebase_tim.c ****       {
  99:Core/Src/stm32f4xx_hal_timebase_tim.c ****         /* Configure the TIM IRQ priority */
 100:Core/Src/stm32f4xx_hal_timebase_tim.c ****         HAL_NVIC_SetPriority(TIM6_DAC_IRQn, TickPriority, 0U);
 101:Core/Src/stm32f4xx_hal_timebase_tim.c ****         uwTickPrio = TickPriority;
 102:Core/Src/stm32f4xx_hal_timebase_tim.c ****       }
 103:Core/Src/stm32f4xx_hal_timebase_tim.c ****       else
 104:Core/Src/stm32f4xx_hal_timebase_tim.c ****       {
 105:Core/Src/stm32f4xx_hal_timebase_tim.c ****         status = HAL_ERROR;
 106:Core/Src/stm32f4xx_hal_timebase_tim.c ****       }
 107:Core/Src/stm32f4xx_hal_timebase_tim.c ****     }
 108:Core/Src/stm32f4xx_hal_timebase_tim.c ****   }
 109:Core/Src/stm32f4xx_hal_timebase_tim.c **** 
 110:Core/Src/stm32f4xx_hal_timebase_tim.c ****  /* Return function status */
 111:Core/Src/stm32f4xx_hal_timebase_tim.c ****   return status;
 133              		.loc 1 111 3 is_stmt 1 view .LVU43
 112:Core/Src/stm32f4xx_hal_timebase_tim.c **** }
 134              		.loc 1 112 1 is_stmt 0 view .LVU44
 135 0058 2846     		mov	r0, r5
 136 005a 09B0     		add	sp, sp, #36
 137              		.cfi_remember_state
 138              		.cfi_def_cfa_offset 12
 139              		@ sp needed
 140 005c 30BD     		pop	{r4, r5, pc}
 141              	.LVL12:
 142              	.L2:
 143              		.cfi_restore_state
  66:Core/Src/stm32f4xx_hal_timebase_tim.c ****   }
 144              		.loc 1 66 5 is_stmt 1 view .LVU45
  66:Core/Src/stm32f4xx_hal_timebase_tim.c ****   }
 145              		.loc 1 66 24 is_stmt 0 view .LVU46
 146 005e FFF7FEFF 		bl	HAL_RCC_GetPCLK1Freq
 147              	.LVL13:
  66:Core/Src/stm32f4xx_hal_timebase_tim.c ****   }
 148              		.loc 1 66 16 discriminator 1 view .LVU47
 149 0062 4300     		lsls	r3, r0, #1
 150 0064 E4E7     		b	.L3
 151              	.LVL14:
 152              	.L7:
  91:Core/Src/stm32f4xx_hal_timebase_tim.c ****     if (status == HAL_OK)
 153              		.loc 1 91 5 is_stmt 1 view .LVU48
  91:Core/Src/stm32f4xx_hal_timebase_tim.c ****     if (status == HAL_OK)
 154              		.loc 1 91 14 is_stmt 0 view .LVU49
 155 0066 0C48     		ldr	r0, .L9+8
 156              	.LVL15:
  91:Core/Src/stm32f4xx_hal_timebase_tim.c ****     if (status == HAL_OK)
 157              		.loc 1 91 14 view .LVU50
 158 0068 FFF7FEFF 		bl	HAL_TIM_Base_Start_IT
 159              	.LVL16:
  92:Core/Src/stm32f4xx_hal_timebase_tim.c ****     {
 160              		.loc 1 92 5 is_stmt 1 view .LVU51
  92:Core/Src/stm32f4xx_hal_timebase_tim.c ****     {
 161              		.loc 1 92 8 is_stmt 0 view .LVU52
 162 006c 0546     		mov	r5, r0
 163 006e 0028     		cmp	r0, #0
 164 0070 F2D1     		bne	.L4
  95:Core/Src/stm32f4xx_hal_timebase_tim.c ****       /* Configure the SysTick IRQ priority */
 165              		.loc 1 95 9 is_stmt 1 view .LVU53
ARM GAS  C:\Users\Rick\AppData\Local\Temp\ccqNNt2e.s 			page 6


 166 0072 3620     		movs	r0, #54
 167              	.LVL17:
  95:Core/Src/stm32f4xx_hal_timebase_tim.c ****       /* Configure the SysTick IRQ priority */
 168              		.loc 1 95 9 is_stmt 0 view .LVU54
 169 0074 FFF7FEFF 		bl	HAL_NVIC_EnableIRQ
 170              	.LVL18:
  97:Core/Src/stm32f4xx_hal_timebase_tim.c ****       {
 171              		.loc 1 97 7 is_stmt 1 view .LVU55
  97:Core/Src/stm32f4xx_hal_timebase_tim.c ****       {
 172              		.loc 1 97 10 is_stmt 0 view .LVU56
 173 0078 0F2C     		cmp	r4, #15
 174 007a 01D9     		bls	.L8
 105:Core/Src/stm32f4xx_hal_timebase_tim.c ****       }
 175              		.loc 1 105 16 view .LVU57
 176 007c 0125     		movs	r5, #1
 177              	.LVL19:
 105:Core/Src/stm32f4xx_hal_timebase_tim.c ****       }
 178              		.loc 1 105 16 view .LVU58
 179 007e EBE7     		b	.L4
 180              	.LVL20:
 181              	.L8:
 100:Core/Src/stm32f4xx_hal_timebase_tim.c ****         uwTickPrio = TickPriority;
 182              		.loc 1 100 9 is_stmt 1 view .LVU59
 183 0080 0022     		movs	r2, #0
 184 0082 2146     		mov	r1, r4
 185 0084 3620     		movs	r0, #54
 186 0086 FFF7FEFF 		bl	HAL_NVIC_SetPriority
 187              	.LVL21:
 101:Core/Src/stm32f4xx_hal_timebase_tim.c ****       }
 188              		.loc 1 101 9 view .LVU60
 101:Core/Src/stm32f4xx_hal_timebase_tim.c ****       }
 189              		.loc 1 101 20 is_stmt 0 view .LVU61
 190 008a 054B     		ldr	r3, .L9+16
 191 008c 1C60     		str	r4, [r3]
 192 008e E3E7     		b	.L4
 193              	.L10:
 194              		.align	2
 195              	.L9:
 196 0090 00380240 		.word	1073887232
 197 0094 83DE1B43 		.word	1125899907
 198 0098 00000000 		.word	htim6
 199 009c 00100040 		.word	1073745920
 200 00a0 00000000 		.word	uwTickPrio
 201              		.cfi_endproc
 202              	.LFE239:
 204              		.section	.text.HAL_SuspendTick,"ax",%progbits
 205              		.align	1
 206              		.global	HAL_SuspendTick
 207              		.syntax unified
 208              		.thumb
 209              		.thumb_func
 211              	HAL_SuspendTick:
 212              	.LFB240:
 113:Core/Src/stm32f4xx_hal_timebase_tim.c **** 
 114:Core/Src/stm32f4xx_hal_timebase_tim.c **** /**
 115:Core/Src/stm32f4xx_hal_timebase_tim.c ****   * @brief  Suspend Tick increment.
 116:Core/Src/stm32f4xx_hal_timebase_tim.c ****   * @note   Disable the tick increment by disabling TIM6 update interrupt.
ARM GAS  C:\Users\Rick\AppData\Local\Temp\ccqNNt2e.s 			page 7


 117:Core/Src/stm32f4xx_hal_timebase_tim.c ****   * @param  None
 118:Core/Src/stm32f4xx_hal_timebase_tim.c ****   * @retval None
 119:Core/Src/stm32f4xx_hal_timebase_tim.c ****   */
 120:Core/Src/stm32f4xx_hal_timebase_tim.c **** void HAL_SuspendTick(void)
 121:Core/Src/stm32f4xx_hal_timebase_tim.c **** {
 213              		.loc 1 121 1 is_stmt 1 view -0
 214              		.cfi_startproc
 215              		@ args = 0, pretend = 0, frame = 0
 216              		@ frame_needed = 0, uses_anonymous_args = 0
 217              		@ link register save eliminated.
 122:Core/Src/stm32f4xx_hal_timebase_tim.c ****   /* Disable TIM6 update Interrupt */
 123:Core/Src/stm32f4xx_hal_timebase_tim.c ****   __HAL_TIM_DISABLE_IT(&htim6, TIM_IT_UPDATE);
 218              		.loc 1 123 3 view .LVU63
 219 0000 034B     		ldr	r3, .L12
 220 0002 1A68     		ldr	r2, [r3]
 221 0004 D368     		ldr	r3, [r2, #12]
 222 0006 23F00103 		bic	r3, r3, #1
 223 000a D360     		str	r3, [r2, #12]
 124:Core/Src/stm32f4xx_hal_timebase_tim.c **** }
 224              		.loc 1 124 1 is_stmt 0 view .LVU64
 225 000c 7047     		bx	lr
 226              	.L13:
 227 000e 00BF     		.align	2
 228              	.L12:
 229 0010 00000000 		.word	htim6
 230              		.cfi_endproc
 231              	.LFE240:
 233              		.section	.text.HAL_ResumeTick,"ax",%progbits
 234              		.align	1
 235              		.global	HAL_ResumeTick
 236              		.syntax unified
 237              		.thumb
 238              		.thumb_func
 240              	HAL_ResumeTick:
 241              	.LFB241:
 125:Core/Src/stm32f4xx_hal_timebase_tim.c **** 
 126:Core/Src/stm32f4xx_hal_timebase_tim.c **** /**
 127:Core/Src/stm32f4xx_hal_timebase_tim.c ****   * @brief  Resume Tick increment.
 128:Core/Src/stm32f4xx_hal_timebase_tim.c ****   * @note   Enable the tick increment by Enabling TIM6 update interrupt.
 129:Core/Src/stm32f4xx_hal_timebase_tim.c ****   * @param  None
 130:Core/Src/stm32f4xx_hal_timebase_tim.c ****   * @retval None
 131:Core/Src/stm32f4xx_hal_timebase_tim.c ****   */
 132:Core/Src/stm32f4xx_hal_timebase_tim.c **** void HAL_ResumeTick(void)
 133:Core/Src/stm32f4xx_hal_timebase_tim.c **** {
 242              		.loc 1 133 1 is_stmt 1 view -0
 243              		.cfi_startproc
 244              		@ args = 0, pretend = 0, frame = 0
 245              		@ frame_needed = 0, uses_anonymous_args = 0
 246              		@ link register save eliminated.
 134:Core/Src/stm32f4xx_hal_timebase_tim.c ****   /* Enable TIM6 Update interrupt */
 135:Core/Src/stm32f4xx_hal_timebase_tim.c ****   __HAL_TIM_ENABLE_IT(&htim6, TIM_IT_UPDATE);
 247              		.loc 1 135 3 view .LVU66
 248 0000 034B     		ldr	r3, .L15
 249 0002 1A68     		ldr	r2, [r3]
 250 0004 D368     		ldr	r3, [r2, #12]
 251 0006 43F00103 		orr	r3, r3, #1
 252 000a D360     		str	r3, [r2, #12]
ARM GAS  C:\Users\Rick\AppData\Local\Temp\ccqNNt2e.s 			page 8


 136:Core/Src/stm32f4xx_hal_timebase_tim.c **** }
 253              		.loc 1 136 1 is_stmt 0 view .LVU67
 254 000c 7047     		bx	lr
 255              	.L16:
 256 000e 00BF     		.align	2
 257              	.L15:
 258 0010 00000000 		.word	htim6
 259              		.cfi_endproc
 260              	.LFE241:
 262              		.global	htim6
 263              		.section	.bss.htim6,"aw",%nobits
 264              		.align	2
 267              	htim6:
 268 0000 00000000 		.space	72
 268      00000000 
 268      00000000 
 268      00000000 
 268      00000000 
 269              		.text
 270              	.Letext0:
 271              		.file 2 "Drivers/CMSIS/Device/ST/STM32F4xx/Include/stm32f446xx.h"
 272              		.file 3 "C:/Users/Rick/AppData/Roaming/Code/User/globalStorage/bmd.stm32-for-vscode/@xpack-dev-too
 273              		.file 4 "C:/Users/Rick/AppData/Roaming/Code/User/globalStorage/bmd.stm32-for-vscode/@xpack-dev-too
 274              		.file 5 "Drivers/STM32F4xx_HAL_Driver/Inc/stm32f4xx_hal_def.h"
 275              		.file 6 "Drivers/STM32F4xx_HAL_Driver/Inc/stm32f4xx_hal_rcc.h"
 276              		.file 7 "Drivers/STM32F4xx_HAL_Driver/Inc/stm32f4xx_hal_dma.h"
 277              		.file 8 "Drivers/STM32F4xx_HAL_Driver/Inc/stm32f4xx_hal_tim.h"
 278              		.file 9 "Drivers/STM32F4xx_HAL_Driver/Inc/stm32f4xx_hal.h"
 279              		.file 10 "Drivers/STM32F4xx_HAL_Driver/Inc/stm32f4xx_hal_cortex.h"
ARM GAS  C:\Users\Rick\AppData\Local\Temp\ccqNNt2e.s 			page 9

