ARM GAS  C:\Users\Rick\AppData\Local\Temp\cc49JZd8.s 			page 1


   1              		.cpu cortex-m4
   2              		.arch armv7e-m
   3              		.fpu fpv4-sp-d16
   4              		.eabi_attribute 27, 1
   5              		.eabi_attribute 28, 1
   6              		.eabi_attribute 20, 1
   7              		.eabi_attribute 21, 1
   8              		.eabi_attribute 23, 3
   9              		.eabi_attribute 24, 1
  10              		.eabi_attribute 25, 1
  11              		.eabi_attribute 26, 1
  12              		.eabi_attribute 30, 1
  13              		.eabi_attribute 34, 1
  14              		.eabi_attribute 18, 4
  15              		.file	"stm32f4xx_hal_gpio.c"
  16              		.text
  17              	.Ltext0:
  18              		.cfi_sections	.debug_frame
  19              		.file 1 "Drivers/STM32F4xx_HAL_Driver/Src/stm32f4xx_hal_gpio.c"
  20              		.section	.text.HAL_GPIO_Init,"ax",%progbits
  21              		.align	1
  22              		.global	HAL_GPIO_Init
  23              		.syntax unified
  24              		.thumb
  25              		.thumb_func
  27              	HAL_GPIO_Init:
  28              	.LVL0:
  29              	.LFB239:
   1:Drivers/STM32F4xx_HAL_Driver/Src/stm32f4xx_hal_gpio.c **** /**
   2:Drivers/STM32F4xx_HAL_Driver/Src/stm32f4xx_hal_gpio.c ****   ******************************************************************************
   3:Drivers/STM32F4xx_HAL_Driver/Src/stm32f4xx_hal_gpio.c ****   * @file    stm32f4xx_hal_gpio.c
   4:Drivers/STM32F4xx_HAL_Driver/Src/stm32f4xx_hal_gpio.c ****   * @author  MCD Application Team
   5:Drivers/STM32F4xx_HAL_Driver/Src/stm32f4xx_hal_gpio.c ****   * @brief   GPIO HAL module driver.
   6:Drivers/STM32F4xx_HAL_Driver/Src/stm32f4xx_hal_gpio.c ****   *          This file provides firmware functions to manage the following 
   7:Drivers/STM32F4xx_HAL_Driver/Src/stm32f4xx_hal_gpio.c ****   *          functionalities of the General Purpose Input/Output (GPIO) peripheral:
   8:Drivers/STM32F4xx_HAL_Driver/Src/stm32f4xx_hal_gpio.c ****   *           + Initialization and de-initialization functions
   9:Drivers/STM32F4xx_HAL_Driver/Src/stm32f4xx_hal_gpio.c ****   *           + IO operation functions
  10:Drivers/STM32F4xx_HAL_Driver/Src/stm32f4xx_hal_gpio.c ****   *
  11:Drivers/STM32F4xx_HAL_Driver/Src/stm32f4xx_hal_gpio.c ****   ******************************************************************************
  12:Drivers/STM32F4xx_HAL_Driver/Src/stm32f4xx_hal_gpio.c ****   * @attention
  13:Drivers/STM32F4xx_HAL_Driver/Src/stm32f4xx_hal_gpio.c ****   *
  14:Drivers/STM32F4xx_HAL_Driver/Src/stm32f4xx_hal_gpio.c ****   * Copyright (c) 2017 STMicroelectronics.
  15:Drivers/STM32F4xx_HAL_Driver/Src/stm32f4xx_hal_gpio.c ****   * All rights reserved.
  16:Drivers/STM32F4xx_HAL_Driver/Src/stm32f4xx_hal_gpio.c ****   *
  17:Drivers/STM32F4xx_HAL_Driver/Src/stm32f4xx_hal_gpio.c ****   * This software is licensed under terms that can be found in the LICENSE file
  18:Drivers/STM32F4xx_HAL_Driver/Src/stm32f4xx_hal_gpio.c ****   * in the root directory of this software component.
  19:Drivers/STM32F4xx_HAL_Driver/Src/stm32f4xx_hal_gpio.c ****   * If no LICENSE file comes with this software, it is provided AS-IS.
  20:Drivers/STM32F4xx_HAL_Driver/Src/stm32f4xx_hal_gpio.c ****   *
  21:Drivers/STM32F4xx_HAL_Driver/Src/stm32f4xx_hal_gpio.c ****   ******************************************************************************
  22:Drivers/STM32F4xx_HAL_Driver/Src/stm32f4xx_hal_gpio.c ****   @verbatim
  23:Drivers/STM32F4xx_HAL_Driver/Src/stm32f4xx_hal_gpio.c ****   ==============================================================================
  24:Drivers/STM32F4xx_HAL_Driver/Src/stm32f4xx_hal_gpio.c ****                     ##### GPIO Peripheral features #####
  25:Drivers/STM32F4xx_HAL_Driver/Src/stm32f4xx_hal_gpio.c ****   ==============================================================================
  26:Drivers/STM32F4xx_HAL_Driver/Src/stm32f4xx_hal_gpio.c ****   [..] 
  27:Drivers/STM32F4xx_HAL_Driver/Src/stm32f4xx_hal_gpio.c ****   Subject to the specific hardware characteristics of each I/O port listed in the datasheet, each
  28:Drivers/STM32F4xx_HAL_Driver/Src/stm32f4xx_hal_gpio.c ****   port bit of the General Purpose IO (GPIO) Ports, can be individually configured by software
  29:Drivers/STM32F4xx_HAL_Driver/Src/stm32f4xx_hal_gpio.c ****   in several modes:
ARM GAS  C:\Users\Rick\AppData\Local\Temp\cc49JZd8.s 			page 2


  30:Drivers/STM32F4xx_HAL_Driver/Src/stm32f4xx_hal_gpio.c ****   (+) Input mode 
  31:Drivers/STM32F4xx_HAL_Driver/Src/stm32f4xx_hal_gpio.c ****   (+) Analog mode
  32:Drivers/STM32F4xx_HAL_Driver/Src/stm32f4xx_hal_gpio.c ****   (+) Output mode
  33:Drivers/STM32F4xx_HAL_Driver/Src/stm32f4xx_hal_gpio.c ****   (+) Alternate function mode
  34:Drivers/STM32F4xx_HAL_Driver/Src/stm32f4xx_hal_gpio.c ****   (+) External interrupt/event lines
  35:Drivers/STM32F4xx_HAL_Driver/Src/stm32f4xx_hal_gpio.c **** 
  36:Drivers/STM32F4xx_HAL_Driver/Src/stm32f4xx_hal_gpio.c ****   [..]  
  37:Drivers/STM32F4xx_HAL_Driver/Src/stm32f4xx_hal_gpio.c ****   During and just after reset, the alternate functions and external interrupt  
  38:Drivers/STM32F4xx_HAL_Driver/Src/stm32f4xx_hal_gpio.c ****   lines are not active and the I/O ports are configured in input floating mode.
  39:Drivers/STM32F4xx_HAL_Driver/Src/stm32f4xx_hal_gpio.c ****   
  40:Drivers/STM32F4xx_HAL_Driver/Src/stm32f4xx_hal_gpio.c ****   [..]   
  41:Drivers/STM32F4xx_HAL_Driver/Src/stm32f4xx_hal_gpio.c ****   All GPIO pins have weak internal pull-up and pull-down resistors, which can be 
  42:Drivers/STM32F4xx_HAL_Driver/Src/stm32f4xx_hal_gpio.c ****   activated or not.
  43:Drivers/STM32F4xx_HAL_Driver/Src/stm32f4xx_hal_gpio.c **** 
  44:Drivers/STM32F4xx_HAL_Driver/Src/stm32f4xx_hal_gpio.c ****   [..]
  45:Drivers/STM32F4xx_HAL_Driver/Src/stm32f4xx_hal_gpio.c ****   In Output or Alternate mode, each IO can be configured on open-drain or push-pull
  46:Drivers/STM32F4xx_HAL_Driver/Src/stm32f4xx_hal_gpio.c ****   type and the IO speed can be selected depending on the VDD value.
  47:Drivers/STM32F4xx_HAL_Driver/Src/stm32f4xx_hal_gpio.c **** 
  48:Drivers/STM32F4xx_HAL_Driver/Src/stm32f4xx_hal_gpio.c ****   [..]  
  49:Drivers/STM32F4xx_HAL_Driver/Src/stm32f4xx_hal_gpio.c ****   All ports have external interrupt/event capability. To use external interrupt 
  50:Drivers/STM32F4xx_HAL_Driver/Src/stm32f4xx_hal_gpio.c ****   lines, the port must be configured in input mode. All available GPIO pins are 
  51:Drivers/STM32F4xx_HAL_Driver/Src/stm32f4xx_hal_gpio.c ****   connected to the 16 external interrupt/event lines from EXTI0 to EXTI15.
  52:Drivers/STM32F4xx_HAL_Driver/Src/stm32f4xx_hal_gpio.c ****   
  53:Drivers/STM32F4xx_HAL_Driver/Src/stm32f4xx_hal_gpio.c ****   [..]
  54:Drivers/STM32F4xx_HAL_Driver/Src/stm32f4xx_hal_gpio.c ****   The external interrupt/event controller consists of up to 23 edge detectors 
  55:Drivers/STM32F4xx_HAL_Driver/Src/stm32f4xx_hal_gpio.c ****   (16 lines are connected to GPIO) for generating event/interrupt requests (each 
  56:Drivers/STM32F4xx_HAL_Driver/Src/stm32f4xx_hal_gpio.c ****   input line can be independently configured to select the type (interrupt or event) 
  57:Drivers/STM32F4xx_HAL_Driver/Src/stm32f4xx_hal_gpio.c ****   and the corresponding trigger event (rising or falling or both). Each line can 
  58:Drivers/STM32F4xx_HAL_Driver/Src/stm32f4xx_hal_gpio.c ****   also be masked independently. 
  59:Drivers/STM32F4xx_HAL_Driver/Src/stm32f4xx_hal_gpio.c **** 
  60:Drivers/STM32F4xx_HAL_Driver/Src/stm32f4xx_hal_gpio.c ****                      ##### How to use this driver #####
  61:Drivers/STM32F4xx_HAL_Driver/Src/stm32f4xx_hal_gpio.c ****   ==============================================================================  
  62:Drivers/STM32F4xx_HAL_Driver/Src/stm32f4xx_hal_gpio.c ****   [..]
  63:Drivers/STM32F4xx_HAL_Driver/Src/stm32f4xx_hal_gpio.c ****     (#) Enable the GPIO AHB clock using the following function: __HAL_RCC_GPIOx_CLK_ENABLE(). 
  64:Drivers/STM32F4xx_HAL_Driver/Src/stm32f4xx_hal_gpio.c **** 
  65:Drivers/STM32F4xx_HAL_Driver/Src/stm32f4xx_hal_gpio.c ****     (#) Configure the GPIO pin(s) using HAL_GPIO_Init().
  66:Drivers/STM32F4xx_HAL_Driver/Src/stm32f4xx_hal_gpio.c ****         (++) Configure the IO mode using "Mode" member from GPIO_InitTypeDef structure
  67:Drivers/STM32F4xx_HAL_Driver/Src/stm32f4xx_hal_gpio.c ****         (++) Activate Pull-up, Pull-down resistor using "Pull" member from GPIO_InitTypeDef 
  68:Drivers/STM32F4xx_HAL_Driver/Src/stm32f4xx_hal_gpio.c ****              structure.
  69:Drivers/STM32F4xx_HAL_Driver/Src/stm32f4xx_hal_gpio.c ****         (++) In case of Output or alternate function mode selection: the speed is 
  70:Drivers/STM32F4xx_HAL_Driver/Src/stm32f4xx_hal_gpio.c ****              configured through "Speed" member from GPIO_InitTypeDef structure.
  71:Drivers/STM32F4xx_HAL_Driver/Src/stm32f4xx_hal_gpio.c ****         (++) In alternate mode is selection, the alternate function connected to the IO
  72:Drivers/STM32F4xx_HAL_Driver/Src/stm32f4xx_hal_gpio.c ****              is configured through "Alternate" member from GPIO_InitTypeDef structure.
  73:Drivers/STM32F4xx_HAL_Driver/Src/stm32f4xx_hal_gpio.c ****         (++) Analog mode is required when a pin is to be used as ADC channel 
  74:Drivers/STM32F4xx_HAL_Driver/Src/stm32f4xx_hal_gpio.c ****              or DAC output.
  75:Drivers/STM32F4xx_HAL_Driver/Src/stm32f4xx_hal_gpio.c ****         (++) In case of external interrupt/event selection the "Mode" member from 
  76:Drivers/STM32F4xx_HAL_Driver/Src/stm32f4xx_hal_gpio.c ****              GPIO_InitTypeDef structure select the type (interrupt or event) and 
  77:Drivers/STM32F4xx_HAL_Driver/Src/stm32f4xx_hal_gpio.c ****              the corresponding trigger event (rising or falling or both).
  78:Drivers/STM32F4xx_HAL_Driver/Src/stm32f4xx_hal_gpio.c **** 
  79:Drivers/STM32F4xx_HAL_Driver/Src/stm32f4xx_hal_gpio.c ****     (#) In case of external interrupt/event mode selection, configure NVIC IRQ priority 
  80:Drivers/STM32F4xx_HAL_Driver/Src/stm32f4xx_hal_gpio.c ****         mapped to the EXTI line using HAL_NVIC_SetPriority() and enable it using
  81:Drivers/STM32F4xx_HAL_Driver/Src/stm32f4xx_hal_gpio.c ****         HAL_NVIC_EnableIRQ().
  82:Drivers/STM32F4xx_HAL_Driver/Src/stm32f4xx_hal_gpio.c ****          
  83:Drivers/STM32F4xx_HAL_Driver/Src/stm32f4xx_hal_gpio.c ****     (#) To get the level of a pin configured in input mode use HAL_GPIO_ReadPin().
  84:Drivers/STM32F4xx_HAL_Driver/Src/stm32f4xx_hal_gpio.c ****             
  85:Drivers/STM32F4xx_HAL_Driver/Src/stm32f4xx_hal_gpio.c ****     (#) To set/reset the level of a pin configured in output mode use 
  86:Drivers/STM32F4xx_HAL_Driver/Src/stm32f4xx_hal_gpio.c ****         HAL_GPIO_WritePin()/HAL_GPIO_TogglePin().
ARM GAS  C:\Users\Rick\AppData\Local\Temp\cc49JZd8.s 			page 3


  87:Drivers/STM32F4xx_HAL_Driver/Src/stm32f4xx_hal_gpio.c ****     
  88:Drivers/STM32F4xx_HAL_Driver/Src/stm32f4xx_hal_gpio.c ****     (#) To lock pin configuration until next reset use HAL_GPIO_LockPin().
  89:Drivers/STM32F4xx_HAL_Driver/Src/stm32f4xx_hal_gpio.c **** 
  90:Drivers/STM32F4xx_HAL_Driver/Src/stm32f4xx_hal_gpio.c ****                  
  91:Drivers/STM32F4xx_HAL_Driver/Src/stm32f4xx_hal_gpio.c ****     (#) During and just after reset, the alternate functions are not 
  92:Drivers/STM32F4xx_HAL_Driver/Src/stm32f4xx_hal_gpio.c ****         active and the GPIO pins are configured in input floating mode (except JTAG
  93:Drivers/STM32F4xx_HAL_Driver/Src/stm32f4xx_hal_gpio.c ****         pins).
  94:Drivers/STM32F4xx_HAL_Driver/Src/stm32f4xx_hal_gpio.c ****   
  95:Drivers/STM32F4xx_HAL_Driver/Src/stm32f4xx_hal_gpio.c ****     (#) The LSE oscillator pins OSC32_IN and OSC32_OUT can be used as general purpose 
  96:Drivers/STM32F4xx_HAL_Driver/Src/stm32f4xx_hal_gpio.c ****         (PC14 and PC15, respectively) when the LSE oscillator is off. The LSE has 
  97:Drivers/STM32F4xx_HAL_Driver/Src/stm32f4xx_hal_gpio.c ****         priority over the GPIO function.
  98:Drivers/STM32F4xx_HAL_Driver/Src/stm32f4xx_hal_gpio.c ****   
  99:Drivers/STM32F4xx_HAL_Driver/Src/stm32f4xx_hal_gpio.c ****     (#) The HSE oscillator pins OSC_IN/OSC_OUT can be used as 
 100:Drivers/STM32F4xx_HAL_Driver/Src/stm32f4xx_hal_gpio.c ****         general purpose PH0 and PH1, respectively, when the HSE oscillator is off. 
 101:Drivers/STM32F4xx_HAL_Driver/Src/stm32f4xx_hal_gpio.c ****         The HSE has priority over the GPIO function.
 102:Drivers/STM32F4xx_HAL_Driver/Src/stm32f4xx_hal_gpio.c ****   
 103:Drivers/STM32F4xx_HAL_Driver/Src/stm32f4xx_hal_gpio.c ****   @endverbatim
 104:Drivers/STM32F4xx_HAL_Driver/Src/stm32f4xx_hal_gpio.c ****   ******************************************************************************
 105:Drivers/STM32F4xx_HAL_Driver/Src/stm32f4xx_hal_gpio.c ****   */ 
 106:Drivers/STM32F4xx_HAL_Driver/Src/stm32f4xx_hal_gpio.c **** 
 107:Drivers/STM32F4xx_HAL_Driver/Src/stm32f4xx_hal_gpio.c **** /* Includes ------------------------------------------------------------------*/
 108:Drivers/STM32F4xx_HAL_Driver/Src/stm32f4xx_hal_gpio.c **** #include "stm32f4xx_hal.h"
 109:Drivers/STM32F4xx_HAL_Driver/Src/stm32f4xx_hal_gpio.c **** 
 110:Drivers/STM32F4xx_HAL_Driver/Src/stm32f4xx_hal_gpio.c **** /** @addtogroup STM32F4xx_HAL_Driver
 111:Drivers/STM32F4xx_HAL_Driver/Src/stm32f4xx_hal_gpio.c ****   * @{
 112:Drivers/STM32F4xx_HAL_Driver/Src/stm32f4xx_hal_gpio.c ****   */
 113:Drivers/STM32F4xx_HAL_Driver/Src/stm32f4xx_hal_gpio.c **** 
 114:Drivers/STM32F4xx_HAL_Driver/Src/stm32f4xx_hal_gpio.c **** /** @defgroup GPIO GPIO
 115:Drivers/STM32F4xx_HAL_Driver/Src/stm32f4xx_hal_gpio.c ****   * @brief GPIO HAL module driver
 116:Drivers/STM32F4xx_HAL_Driver/Src/stm32f4xx_hal_gpio.c ****   * @{
 117:Drivers/STM32F4xx_HAL_Driver/Src/stm32f4xx_hal_gpio.c ****   */
 118:Drivers/STM32F4xx_HAL_Driver/Src/stm32f4xx_hal_gpio.c **** 
 119:Drivers/STM32F4xx_HAL_Driver/Src/stm32f4xx_hal_gpio.c **** #ifdef HAL_GPIO_MODULE_ENABLED
 120:Drivers/STM32F4xx_HAL_Driver/Src/stm32f4xx_hal_gpio.c **** 
 121:Drivers/STM32F4xx_HAL_Driver/Src/stm32f4xx_hal_gpio.c **** /* Private typedef -----------------------------------------------------------*/
 122:Drivers/STM32F4xx_HAL_Driver/Src/stm32f4xx_hal_gpio.c **** /* Private define ------------------------------------------------------------*/
 123:Drivers/STM32F4xx_HAL_Driver/Src/stm32f4xx_hal_gpio.c **** /** @addtogroup GPIO_Private_Constants GPIO Private Constants
 124:Drivers/STM32F4xx_HAL_Driver/Src/stm32f4xx_hal_gpio.c ****   * @{
 125:Drivers/STM32F4xx_HAL_Driver/Src/stm32f4xx_hal_gpio.c ****   */
 126:Drivers/STM32F4xx_HAL_Driver/Src/stm32f4xx_hal_gpio.c **** 
 127:Drivers/STM32F4xx_HAL_Driver/Src/stm32f4xx_hal_gpio.c **** #define GPIO_NUMBER           16U
 128:Drivers/STM32F4xx_HAL_Driver/Src/stm32f4xx_hal_gpio.c **** /**
 129:Drivers/STM32F4xx_HAL_Driver/Src/stm32f4xx_hal_gpio.c ****   * @}
 130:Drivers/STM32F4xx_HAL_Driver/Src/stm32f4xx_hal_gpio.c ****   */
 131:Drivers/STM32F4xx_HAL_Driver/Src/stm32f4xx_hal_gpio.c **** /* Private macro -------------------------------------------------------------*/
 132:Drivers/STM32F4xx_HAL_Driver/Src/stm32f4xx_hal_gpio.c **** /* Private variables ---------------------------------------------------------*/
 133:Drivers/STM32F4xx_HAL_Driver/Src/stm32f4xx_hal_gpio.c **** /* Private function prototypes -----------------------------------------------*/
 134:Drivers/STM32F4xx_HAL_Driver/Src/stm32f4xx_hal_gpio.c **** /* Private functions ---------------------------------------------------------*/
 135:Drivers/STM32F4xx_HAL_Driver/Src/stm32f4xx_hal_gpio.c **** /* Exported functions --------------------------------------------------------*/
 136:Drivers/STM32F4xx_HAL_Driver/Src/stm32f4xx_hal_gpio.c **** /** @defgroup GPIO_Exported_Functions GPIO Exported Functions
 137:Drivers/STM32F4xx_HAL_Driver/Src/stm32f4xx_hal_gpio.c ****   * @{
 138:Drivers/STM32F4xx_HAL_Driver/Src/stm32f4xx_hal_gpio.c ****   */
 139:Drivers/STM32F4xx_HAL_Driver/Src/stm32f4xx_hal_gpio.c **** 
 140:Drivers/STM32F4xx_HAL_Driver/Src/stm32f4xx_hal_gpio.c **** /** @defgroup GPIO_Exported_Functions_Group1 Initialization and de-initialization functions
 141:Drivers/STM32F4xx_HAL_Driver/Src/stm32f4xx_hal_gpio.c ****   *  @brief    Initialization and Configuration functions
 142:Drivers/STM32F4xx_HAL_Driver/Src/stm32f4xx_hal_gpio.c ****   *
 143:Drivers/STM32F4xx_HAL_Driver/Src/stm32f4xx_hal_gpio.c **** @verbatim    
ARM GAS  C:\Users\Rick\AppData\Local\Temp\cc49JZd8.s 			page 4


 144:Drivers/STM32F4xx_HAL_Driver/Src/stm32f4xx_hal_gpio.c ****  ===============================================================================
 145:Drivers/STM32F4xx_HAL_Driver/Src/stm32f4xx_hal_gpio.c ****               ##### Initialization and de-initialization functions #####
 146:Drivers/STM32F4xx_HAL_Driver/Src/stm32f4xx_hal_gpio.c ****  ===============================================================================
 147:Drivers/STM32F4xx_HAL_Driver/Src/stm32f4xx_hal_gpio.c ****   [..]
 148:Drivers/STM32F4xx_HAL_Driver/Src/stm32f4xx_hal_gpio.c ****     This section provides functions allowing to initialize and de-initialize the GPIOs
 149:Drivers/STM32F4xx_HAL_Driver/Src/stm32f4xx_hal_gpio.c ****     to be ready for use.
 150:Drivers/STM32F4xx_HAL_Driver/Src/stm32f4xx_hal_gpio.c ****  
 151:Drivers/STM32F4xx_HAL_Driver/Src/stm32f4xx_hal_gpio.c **** @endverbatim
 152:Drivers/STM32F4xx_HAL_Driver/Src/stm32f4xx_hal_gpio.c ****   * @{
 153:Drivers/STM32F4xx_HAL_Driver/Src/stm32f4xx_hal_gpio.c ****   */
 154:Drivers/STM32F4xx_HAL_Driver/Src/stm32f4xx_hal_gpio.c **** 
 155:Drivers/STM32F4xx_HAL_Driver/Src/stm32f4xx_hal_gpio.c **** 
 156:Drivers/STM32F4xx_HAL_Driver/Src/stm32f4xx_hal_gpio.c **** /**
 157:Drivers/STM32F4xx_HAL_Driver/Src/stm32f4xx_hal_gpio.c ****   * @brief  Initializes the GPIOx peripheral according to the specified parameters in the GPIO_Init
 158:Drivers/STM32F4xx_HAL_Driver/Src/stm32f4xx_hal_gpio.c ****   * @param  GPIOx where x can be (A..K) to select the GPIO peripheral for STM32F429X device or
 159:Drivers/STM32F4xx_HAL_Driver/Src/stm32f4xx_hal_gpio.c ****   *                      x can be (A..I) to select the GPIO peripheral for STM32F40XX and STM32F427
 160:Drivers/STM32F4xx_HAL_Driver/Src/stm32f4xx_hal_gpio.c ****   * @param  GPIO_Init pointer to a GPIO_InitTypeDef structure that contains
 161:Drivers/STM32F4xx_HAL_Driver/Src/stm32f4xx_hal_gpio.c ****   *         the configuration information for the specified GPIO peripheral.
 162:Drivers/STM32F4xx_HAL_Driver/Src/stm32f4xx_hal_gpio.c ****   * @retval None
 163:Drivers/STM32F4xx_HAL_Driver/Src/stm32f4xx_hal_gpio.c ****   */
 164:Drivers/STM32F4xx_HAL_Driver/Src/stm32f4xx_hal_gpio.c **** void HAL_GPIO_Init(GPIO_TypeDef  *GPIOx, GPIO_InitTypeDef *GPIO_Init)
 165:Drivers/STM32F4xx_HAL_Driver/Src/stm32f4xx_hal_gpio.c **** {
  30              		.loc 1 165 1 view -0
  31              		.cfi_startproc
  32              		@ args = 0, pretend = 0, frame = 8
  33              		@ frame_needed = 0, uses_anonymous_args = 0
 166:Drivers/STM32F4xx_HAL_Driver/Src/stm32f4xx_hal_gpio.c ****   uint32_t position;
  34              		.loc 1 166 3 view .LVU1
 167:Drivers/STM32F4xx_HAL_Driver/Src/stm32f4xx_hal_gpio.c ****   uint32_t ioposition = 0x00U;
  35              		.loc 1 167 3 view .LVU2
 168:Drivers/STM32F4xx_HAL_Driver/Src/stm32f4xx_hal_gpio.c ****   uint32_t iocurrent = 0x00U;
  36              		.loc 1 168 3 view .LVU3
 169:Drivers/STM32F4xx_HAL_Driver/Src/stm32f4xx_hal_gpio.c ****   uint32_t temp = 0x00U;
  37              		.loc 1 169 3 view .LVU4
 170:Drivers/STM32F4xx_HAL_Driver/Src/stm32f4xx_hal_gpio.c **** 
 171:Drivers/STM32F4xx_HAL_Driver/Src/stm32f4xx_hal_gpio.c ****   /* Check the parameters */
 172:Drivers/STM32F4xx_HAL_Driver/Src/stm32f4xx_hal_gpio.c ****   assert_param(IS_GPIO_ALL_INSTANCE(GPIOx));
  38              		.loc 1 172 3 view .LVU5
 173:Drivers/STM32F4xx_HAL_Driver/Src/stm32f4xx_hal_gpio.c ****   assert_param(IS_GPIO_PIN(GPIO_Init->Pin));
  39              		.loc 1 173 3 view .LVU6
 174:Drivers/STM32F4xx_HAL_Driver/Src/stm32f4xx_hal_gpio.c ****   assert_param(IS_GPIO_MODE(GPIO_Init->Mode));
  40              		.loc 1 174 3 view .LVU7
 175:Drivers/STM32F4xx_HAL_Driver/Src/stm32f4xx_hal_gpio.c **** 
 176:Drivers/STM32F4xx_HAL_Driver/Src/stm32f4xx_hal_gpio.c ****   /* Configure the port pins */
 177:Drivers/STM32F4xx_HAL_Driver/Src/stm32f4xx_hal_gpio.c ****   for(position = 0U; position < GPIO_NUMBER; position++)
  41              		.loc 1 177 3 view .LVU8
  42              		.loc 1 177 16 is_stmt 0 view .LVU9
  43 0000 0023     		movs	r3, #0
  44              	.LVL1:
  45              		.loc 1 177 31 is_stmt 1 discriminator 1 view .LVU10
  46 0002 0F2B     		cmp	r3, #15
  47 0004 00F2E380 		bhi	.L23
 165:Drivers/STM32F4xx_HAL_Driver/Src/stm32f4xx_hal_gpio.c ****   uint32_t position;
  48              		.loc 1 165 1 is_stmt 0 view .LVU11
  49 0008 70B5     		push	{r4, r5, r6, lr}
  50              		.cfi_def_cfa_offset 16
  51              		.cfi_offset 4, -16
ARM GAS  C:\Users\Rick\AppData\Local\Temp\cc49JZd8.s 			page 5


  52              		.cfi_offset 5, -12
  53              		.cfi_offset 6, -8
  54              		.cfi_offset 14, -4
  55 000a 82B0     		sub	sp, sp, #8
  56              		.cfi_def_cfa_offset 24
  57 000c 65E0     		b	.L12
  58              	.LVL2:
  59              	.L25:
 178:Drivers/STM32F4xx_HAL_Driver/Src/stm32f4xx_hal_gpio.c ****   {
 179:Drivers/STM32F4xx_HAL_Driver/Src/stm32f4xx_hal_gpio.c ****     /* Get the IO position */
 180:Drivers/STM32F4xx_HAL_Driver/Src/stm32f4xx_hal_gpio.c ****     ioposition = 0x01U << position;
 181:Drivers/STM32F4xx_HAL_Driver/Src/stm32f4xx_hal_gpio.c ****     /* Get the current IO position */
 182:Drivers/STM32F4xx_HAL_Driver/Src/stm32f4xx_hal_gpio.c ****     iocurrent = (uint32_t)(GPIO_Init->Pin) & ioposition;
 183:Drivers/STM32F4xx_HAL_Driver/Src/stm32f4xx_hal_gpio.c **** 
 184:Drivers/STM32F4xx_HAL_Driver/Src/stm32f4xx_hal_gpio.c ****     if(iocurrent == ioposition)
 185:Drivers/STM32F4xx_HAL_Driver/Src/stm32f4xx_hal_gpio.c ****     {
 186:Drivers/STM32F4xx_HAL_Driver/Src/stm32f4xx_hal_gpio.c ****       /*--------------------- GPIO Mode Configuration ------------------------*/
 187:Drivers/STM32F4xx_HAL_Driver/Src/stm32f4xx_hal_gpio.c ****       /* In case of Output or Alternate function mode selection */
 188:Drivers/STM32F4xx_HAL_Driver/Src/stm32f4xx_hal_gpio.c ****       if(((GPIO_Init->Mode & GPIO_MODE) == MODE_OUTPUT) || \
 189:Drivers/STM32F4xx_HAL_Driver/Src/stm32f4xx_hal_gpio.c ****           (GPIO_Init->Mode & GPIO_MODE) == MODE_AF)
 190:Drivers/STM32F4xx_HAL_Driver/Src/stm32f4xx_hal_gpio.c ****       {
 191:Drivers/STM32F4xx_HAL_Driver/Src/stm32f4xx_hal_gpio.c ****         /* Check the Speed parameter */
 192:Drivers/STM32F4xx_HAL_Driver/Src/stm32f4xx_hal_gpio.c ****         assert_param(IS_GPIO_SPEED(GPIO_Init->Speed));
  60              		.loc 1 192 9 is_stmt 1 view .LVU12
 193:Drivers/STM32F4xx_HAL_Driver/Src/stm32f4xx_hal_gpio.c ****         /* Configure the IO Speed */
 194:Drivers/STM32F4xx_HAL_Driver/Src/stm32f4xx_hal_gpio.c ****         temp = GPIOx->OSPEEDR; 
  61              		.loc 1 194 9 view .LVU13
  62              		.loc 1 194 14 is_stmt 0 view .LVU14
  63 000e 8568     		ldr	r5, [r0, #8]
  64              	.LVL3:
 195:Drivers/STM32F4xx_HAL_Driver/Src/stm32f4xx_hal_gpio.c ****         temp &= ~(GPIO_OSPEEDER_OSPEEDR0 << (position * 2U));
  65              		.loc 1 195 9 is_stmt 1 view .LVU15
  66              		.loc 1 195 55 is_stmt 0 view .LVU16
  67 0010 4FEA430E 		lsl	lr, r3, #1
  68              		.loc 1 195 42 view .LVU17
  69 0014 0324     		movs	r4, #3
  70 0016 04FA0EF4 		lsl	r4, r4, lr
  71              		.loc 1 195 14 view .LVU18
  72 001a 25EA0405 		bic	r5, r5, r4
  73              	.LVL4:
 196:Drivers/STM32F4xx_HAL_Driver/Src/stm32f4xx_hal_gpio.c ****         temp |= (GPIO_Init->Speed << (position * 2U));
  74              		.loc 1 196 9 is_stmt 1 view .LVU19
  75              		.loc 1 196 27 is_stmt 0 view .LVU20
  76 001e CC68     		ldr	r4, [r1, #12]
  77              		.loc 1 196 35 view .LVU21
  78 0020 04FA0EF4 		lsl	r4, r4, lr
  79              		.loc 1 196 14 view .LVU22
  80 0024 2C43     		orrs	r4, r4, r5
  81              	.LVL5:
 197:Drivers/STM32F4xx_HAL_Driver/Src/stm32f4xx_hal_gpio.c ****         GPIOx->OSPEEDR = temp;
  82              		.loc 1 197 9 is_stmt 1 view .LVU23
  83              		.loc 1 197 24 is_stmt 0 view .LVU24
  84 0026 8460     		str	r4, [r0, #8]
 198:Drivers/STM32F4xx_HAL_Driver/Src/stm32f4xx_hal_gpio.c **** 
 199:Drivers/STM32F4xx_HAL_Driver/Src/stm32f4xx_hal_gpio.c ****         /* Configure the IO Output Type */
 200:Drivers/STM32F4xx_HAL_Driver/Src/stm32f4xx_hal_gpio.c ****         temp = GPIOx->OTYPER;
  85              		.loc 1 200 9 is_stmt 1 view .LVU25
ARM GAS  C:\Users\Rick\AppData\Local\Temp\cc49JZd8.s 			page 6


  86              		.loc 1 200 14 is_stmt 0 view .LVU26
  87 0028 4468     		ldr	r4, [r0, #4]
  88              	.LVL6:
 201:Drivers/STM32F4xx_HAL_Driver/Src/stm32f4xx_hal_gpio.c ****         temp &= ~(GPIO_OTYPER_OT_0 << position) ;
  89              		.loc 1 201 9 is_stmt 1 view .LVU27
  90              		.loc 1 201 14 is_stmt 0 view .LVU28
  91 002a 24EA0204 		bic	r4, r4, r2
  92              	.LVL7:
 202:Drivers/STM32F4xx_HAL_Driver/Src/stm32f4xx_hal_gpio.c ****         temp |= (((GPIO_Init->Mode & OUTPUT_TYPE) >> OUTPUT_TYPE_Pos) << position);
  93              		.loc 1 202 9 is_stmt 1 view .LVU29
  94              		.loc 1 202 29 is_stmt 0 view .LVU30
  95 002e 4A68     		ldr	r2, [r1, #4]
  96              	.LVL8:
  97              		.loc 1 202 51 view .LVU31
  98 0030 C2F30012 		ubfx	r2, r2, #4, #1
  99              		.loc 1 202 71 view .LVU32
 100 0034 9A40     		lsls	r2, r2, r3
 101              		.loc 1 202 14 view .LVU33
 102 0036 2243     		orrs	r2, r2, r4
 103              	.LVL9:
 203:Drivers/STM32F4xx_HAL_Driver/Src/stm32f4xx_hal_gpio.c ****         GPIOx->OTYPER = temp;
 104              		.loc 1 203 9 is_stmt 1 view .LVU34
 105              		.loc 1 203 23 is_stmt 0 view .LVU35
 106 0038 4260     		str	r2, [r0, #4]
 107 003a 5CE0     		b	.L4
 108              	.LVL10:
 109              	.L26:
 204:Drivers/STM32F4xx_HAL_Driver/Src/stm32f4xx_hal_gpio.c ****        }
 205:Drivers/STM32F4xx_HAL_Driver/Src/stm32f4xx_hal_gpio.c **** 
 206:Drivers/STM32F4xx_HAL_Driver/Src/stm32f4xx_hal_gpio.c ****       if((GPIO_Init->Mode & GPIO_MODE) != MODE_ANALOG)
 207:Drivers/STM32F4xx_HAL_Driver/Src/stm32f4xx_hal_gpio.c ****       {
 208:Drivers/STM32F4xx_HAL_Driver/Src/stm32f4xx_hal_gpio.c ****         /* Check the parameters */
 209:Drivers/STM32F4xx_HAL_Driver/Src/stm32f4xx_hal_gpio.c ****         assert_param(IS_GPIO_PULL(GPIO_Init->Pull));
 210:Drivers/STM32F4xx_HAL_Driver/Src/stm32f4xx_hal_gpio.c ****         
 211:Drivers/STM32F4xx_HAL_Driver/Src/stm32f4xx_hal_gpio.c ****         /* Activate the Pull-up or Pull down resistor for the current IO */
 212:Drivers/STM32F4xx_HAL_Driver/Src/stm32f4xx_hal_gpio.c ****         temp = GPIOx->PUPDR;
 213:Drivers/STM32F4xx_HAL_Driver/Src/stm32f4xx_hal_gpio.c ****         temp &= ~(GPIO_PUPDR_PUPDR0 << (position * 2U));
 214:Drivers/STM32F4xx_HAL_Driver/Src/stm32f4xx_hal_gpio.c ****         temp |= ((GPIO_Init->Pull) << (position * 2U));
 215:Drivers/STM32F4xx_HAL_Driver/Src/stm32f4xx_hal_gpio.c ****         GPIOx->PUPDR = temp;
 216:Drivers/STM32F4xx_HAL_Driver/Src/stm32f4xx_hal_gpio.c ****       }
 217:Drivers/STM32F4xx_HAL_Driver/Src/stm32f4xx_hal_gpio.c **** 
 218:Drivers/STM32F4xx_HAL_Driver/Src/stm32f4xx_hal_gpio.c ****       /* In case of Alternate function mode selection */
 219:Drivers/STM32F4xx_HAL_Driver/Src/stm32f4xx_hal_gpio.c ****       if((GPIO_Init->Mode & GPIO_MODE) == MODE_AF)
 220:Drivers/STM32F4xx_HAL_Driver/Src/stm32f4xx_hal_gpio.c ****       {
 221:Drivers/STM32F4xx_HAL_Driver/Src/stm32f4xx_hal_gpio.c ****         /* Check the Alternate function parameter */
 222:Drivers/STM32F4xx_HAL_Driver/Src/stm32f4xx_hal_gpio.c ****         assert_param(IS_GPIO_AF(GPIO_Init->Alternate));
 110              		.loc 1 222 9 is_stmt 1 view .LVU36
 223:Drivers/STM32F4xx_HAL_Driver/Src/stm32f4xx_hal_gpio.c ****         /* Configure Alternate function mapped with the current IO */
 224:Drivers/STM32F4xx_HAL_Driver/Src/stm32f4xx_hal_gpio.c ****         temp = GPIOx->AFR[position >> 3U];
 111              		.loc 1 224 9 view .LVU37
 112              		.loc 1 224 36 is_stmt 0 view .LVU38
 113 003c DC08     		lsrs	r4, r3, #3
 114              		.loc 1 224 14 view .LVU39
 115 003e 0834     		adds	r4, r4, #8
 116 0040 50F82420 		ldr	r2, [r0, r4, lsl #2]
 117              	.LVL11:
 225:Drivers/STM32F4xx_HAL_Driver/Src/stm32f4xx_hal_gpio.c ****         temp &= ~(0xFU << ((uint32_t)(position & 0x07U) * 4U)) ;
ARM GAS  C:\Users\Rick\AppData\Local\Temp\cc49JZd8.s 			page 7


 118              		.loc 1 225 9 is_stmt 1 view .LVU40
 119              		.loc 1 225 28 is_stmt 0 view .LVU41
 120 0044 03F00705 		and	r5, r3, #7
 121              		.loc 1 225 57 view .LVU42
 122 0048 AD00     		lsls	r5, r5, #2
 123              		.loc 1 225 24 view .LVU43
 124 004a 4FF00F0E 		mov	lr, #15
 125 004e 0EFA05FE 		lsl	lr, lr, r5
 126              		.loc 1 225 14 view .LVU44
 127 0052 22EA0E0E 		bic	lr, r2, lr
 128              	.LVL12:
 226:Drivers/STM32F4xx_HAL_Driver/Src/stm32f4xx_hal_gpio.c ****         temp |= ((uint32_t)(GPIO_Init->Alternate) << (((uint32_t)position & 0x07U) * 4U));
 129              		.loc 1 226 9 is_stmt 1 view .LVU45
 130              		.loc 1 226 38 is_stmt 0 view .LVU46
 131 0056 0A69     		ldr	r2, [r1, #16]
 132              		.loc 1 226 51 view .LVU47
 133 0058 AA40     		lsls	r2, r2, r5
 134              		.loc 1 226 14 view .LVU48
 135 005a 42EA0E02 		orr	r2, r2, lr
 136              	.LVL13:
 227:Drivers/STM32F4xx_HAL_Driver/Src/stm32f4xx_hal_gpio.c ****         GPIOx->AFR[position >> 3U] = temp;
 137              		.loc 1 227 9 is_stmt 1 view .LVU49
 138              		.loc 1 227 36 is_stmt 0 view .LVU50
 139 005e 40F82420 		str	r2, [r0, r4, lsl #2]
 140 0062 5CE0     		b	.L6
 141              	.LVL14:
 142              	.L27:
 228:Drivers/STM32F4xx_HAL_Driver/Src/stm32f4xx_hal_gpio.c ****       }
 229:Drivers/STM32F4xx_HAL_Driver/Src/stm32f4xx_hal_gpio.c **** 
 230:Drivers/STM32F4xx_HAL_Driver/Src/stm32f4xx_hal_gpio.c ****       /* Configure IO Direction mode (Input, Output, Alternate or Analog) */
 231:Drivers/STM32F4xx_HAL_Driver/Src/stm32f4xx_hal_gpio.c ****       temp = GPIOx->MODER;
 232:Drivers/STM32F4xx_HAL_Driver/Src/stm32f4xx_hal_gpio.c ****       temp &= ~(GPIO_MODER_MODER0 << (position * 2U));
 233:Drivers/STM32F4xx_HAL_Driver/Src/stm32f4xx_hal_gpio.c ****       temp |= ((GPIO_Init->Mode & GPIO_MODE) << (position * 2U));
 234:Drivers/STM32F4xx_HAL_Driver/Src/stm32f4xx_hal_gpio.c ****       GPIOx->MODER = temp;
 235:Drivers/STM32F4xx_HAL_Driver/Src/stm32f4xx_hal_gpio.c **** 
 236:Drivers/STM32F4xx_HAL_Driver/Src/stm32f4xx_hal_gpio.c ****       /*--------------------- EXTI Mode Configuration ------------------------*/
 237:Drivers/STM32F4xx_HAL_Driver/Src/stm32f4xx_hal_gpio.c ****       /* Configure the External Interrupt or event for the current IO */
 238:Drivers/STM32F4xx_HAL_Driver/Src/stm32f4xx_hal_gpio.c ****       if((GPIO_Init->Mode & EXTI_MODE) != 0x00U)
 239:Drivers/STM32F4xx_HAL_Driver/Src/stm32f4xx_hal_gpio.c ****       {
 240:Drivers/STM32F4xx_HAL_Driver/Src/stm32f4xx_hal_gpio.c ****         /* Enable SYSCFG Clock */
 241:Drivers/STM32F4xx_HAL_Driver/Src/stm32f4xx_hal_gpio.c ****         __HAL_RCC_SYSCFG_CLK_ENABLE();
 242:Drivers/STM32F4xx_HAL_Driver/Src/stm32f4xx_hal_gpio.c **** 
 243:Drivers/STM32F4xx_HAL_Driver/Src/stm32f4xx_hal_gpio.c ****         temp = SYSCFG->EXTICR[position >> 2U];
 244:Drivers/STM32F4xx_HAL_Driver/Src/stm32f4xx_hal_gpio.c ****         temp &= ~(0x0FU << (4U * (position & 0x03U)));
 245:Drivers/STM32F4xx_HAL_Driver/Src/stm32f4xx_hal_gpio.c ****         temp |= ((uint32_t)(GPIO_GET_INDEX(GPIOx)) << (4U * (position & 0x03U)));
 143              		.loc 1 245 29 discriminator 13 view .LVU51
 144 0064 0622     		movs	r2, #6
 145 0066 00E0     		b	.L7
 146              	.L13:
 147              		.loc 1 245 18 discriminator 2 view .LVU52
 148 0068 0022     		movs	r2, #0
 149              	.L7:
 150              		.loc 1 245 52 discriminator 28 view .LVU53
 151 006a 02FA0EF2 		lsl	r2, r2, lr
 152              		.loc 1 245 14 discriminator 28 view .LVU54
 153 006e 2A43     		orrs	r2, r2, r5
 154              	.LVL15:
ARM GAS  C:\Users\Rick\AppData\Local\Temp\cc49JZd8.s 			page 8


 246:Drivers/STM32F4xx_HAL_Driver/Src/stm32f4xx_hal_gpio.c ****         SYSCFG->EXTICR[position >> 2U] = temp;
 155              		.loc 1 246 9 is_stmt 1 view .LVU55
 156              		.loc 1 246 40 is_stmt 0 view .LVU56
 157 0070 0234     		adds	r4, r4, #2
 158 0072 574D     		ldr	r5, .L28
 159 0074 45F82420 		str	r2, [r5, r4, lsl #2]
 247:Drivers/STM32F4xx_HAL_Driver/Src/stm32f4xx_hal_gpio.c **** 
 248:Drivers/STM32F4xx_HAL_Driver/Src/stm32f4xx_hal_gpio.c ****         /* Clear Rising Falling edge configuration */
 249:Drivers/STM32F4xx_HAL_Driver/Src/stm32f4xx_hal_gpio.c ****         temp = EXTI->RTSR;
 160              		.loc 1 249 9 is_stmt 1 view .LVU57
 161              		.loc 1 249 14 is_stmt 0 view .LVU58
 162 0078 564A     		ldr	r2, .L28+4
 163              	.LVL16:
 164              		.loc 1 249 14 view .LVU59
 165 007a 9468     		ldr	r4, [r2, #8]
 166              	.LVL17:
 250:Drivers/STM32F4xx_HAL_Driver/Src/stm32f4xx_hal_gpio.c ****         temp &= ~((uint32_t)iocurrent);
 167              		.loc 1 250 9 is_stmt 1 view .LVU60
 168              		.loc 1 250 17 is_stmt 0 view .LVU61
 169 007c 6FEA0C02 		mvn	r2, ip
 170              		.loc 1 250 14 view .LVU62
 171 0080 24EA0C05 		bic	r5, r4, ip
 172              	.LVL18:
 251:Drivers/STM32F4xx_HAL_Driver/Src/stm32f4xx_hal_gpio.c ****         if((GPIO_Init->Mode & TRIGGER_RISING) != 0x00U)
 173              		.loc 1 251 9 is_stmt 1 view .LVU63
 174              		.loc 1 251 11 is_stmt 0 view .LVU64
 175 0084 4E68     		ldr	r6, [r1, #4]
 176 0086 16F4801F 		tst	r6, #1048576
 177 008a 01D0     		beq	.L8
 252:Drivers/STM32F4xx_HAL_Driver/Src/stm32f4xx_hal_gpio.c ****         {
 253:Drivers/STM32F4xx_HAL_Driver/Src/stm32f4xx_hal_gpio.c ****           temp |= iocurrent;
 178              		.loc 1 253 11 is_stmt 1 view .LVU65
 179              		.loc 1 253 16 is_stmt 0 view .LVU66
 180 008c 4CEA0405 		orr	r5, ip, r4
 181              	.LVL19:
 182              	.L8:
 254:Drivers/STM32F4xx_HAL_Driver/Src/stm32f4xx_hal_gpio.c ****         }
 255:Drivers/STM32F4xx_HAL_Driver/Src/stm32f4xx_hal_gpio.c ****         EXTI->RTSR = temp;
 183              		.loc 1 255 9 is_stmt 1 view .LVU67
 184              		.loc 1 255 20 is_stmt 0 view .LVU68
 185 0090 504C     		ldr	r4, .L28+4
 186 0092 A560     		str	r5, [r4, #8]
 256:Drivers/STM32F4xx_HAL_Driver/Src/stm32f4xx_hal_gpio.c **** 
 257:Drivers/STM32F4xx_HAL_Driver/Src/stm32f4xx_hal_gpio.c ****         temp = EXTI->FTSR;
 187              		.loc 1 257 9 is_stmt 1 view .LVU69
 188              		.loc 1 257 14 is_stmt 0 view .LVU70
 189 0094 E468     		ldr	r4, [r4, #12]
 190              	.LVL20:
 258:Drivers/STM32F4xx_HAL_Driver/Src/stm32f4xx_hal_gpio.c ****         temp &= ~((uint32_t)iocurrent);
 191              		.loc 1 258 9 is_stmt 1 view .LVU71
 192              		.loc 1 258 14 is_stmt 0 view .LVU72
 193 0096 02EA0405 		and	r5, r2, r4
 194              	.LVL21:
 259:Drivers/STM32F4xx_HAL_Driver/Src/stm32f4xx_hal_gpio.c ****         if((GPIO_Init->Mode & TRIGGER_FALLING) != 0x00U)
 195              		.loc 1 259 9 is_stmt 1 view .LVU73
 196              		.loc 1 259 11 is_stmt 0 view .LVU74
 197 009a 4E68     		ldr	r6, [r1, #4]
ARM GAS  C:\Users\Rick\AppData\Local\Temp\cc49JZd8.s 			page 9


 198 009c 16F4001F 		tst	r6, #2097152
 199 00a0 01D0     		beq	.L9
 260:Drivers/STM32F4xx_HAL_Driver/Src/stm32f4xx_hal_gpio.c ****         {
 261:Drivers/STM32F4xx_HAL_Driver/Src/stm32f4xx_hal_gpio.c ****           temp |= iocurrent;
 200              		.loc 1 261 11 is_stmt 1 view .LVU75
 201              		.loc 1 261 16 is_stmt 0 view .LVU76
 202 00a2 4CEA0405 		orr	r5, ip, r4
 203              	.LVL22:
 204              	.L9:
 262:Drivers/STM32F4xx_HAL_Driver/Src/stm32f4xx_hal_gpio.c ****         }
 263:Drivers/STM32F4xx_HAL_Driver/Src/stm32f4xx_hal_gpio.c ****         EXTI->FTSR = temp;
 205              		.loc 1 263 9 is_stmt 1 view .LVU77
 206              		.loc 1 263 20 is_stmt 0 view .LVU78
 207 00a6 4B4C     		ldr	r4, .L28+4
 208 00a8 E560     		str	r5, [r4, #12]
 264:Drivers/STM32F4xx_HAL_Driver/Src/stm32f4xx_hal_gpio.c **** 
 265:Drivers/STM32F4xx_HAL_Driver/Src/stm32f4xx_hal_gpio.c ****         temp = EXTI->EMR;
 209              		.loc 1 265 9 is_stmt 1 view .LVU79
 210              		.loc 1 265 14 is_stmt 0 view .LVU80
 211 00aa 6468     		ldr	r4, [r4, #4]
 212              	.LVL23:
 266:Drivers/STM32F4xx_HAL_Driver/Src/stm32f4xx_hal_gpio.c ****         temp &= ~((uint32_t)iocurrent);
 213              		.loc 1 266 9 is_stmt 1 view .LVU81
 214              		.loc 1 266 14 is_stmt 0 view .LVU82
 215 00ac 02EA0405 		and	r5, r2, r4
 216              	.LVL24:
 267:Drivers/STM32F4xx_HAL_Driver/Src/stm32f4xx_hal_gpio.c ****         if((GPIO_Init->Mode & EXTI_EVT) != 0x00U)
 217              		.loc 1 267 9 is_stmt 1 view .LVU83
 218              		.loc 1 267 11 is_stmt 0 view .LVU84
 219 00b0 4E68     		ldr	r6, [r1, #4]
 220 00b2 16F4003F 		tst	r6, #131072
 221 00b6 01D0     		beq	.L10
 268:Drivers/STM32F4xx_HAL_Driver/Src/stm32f4xx_hal_gpio.c ****         {
 269:Drivers/STM32F4xx_HAL_Driver/Src/stm32f4xx_hal_gpio.c ****           temp |= iocurrent;
 222              		.loc 1 269 11 is_stmt 1 view .LVU85
 223              		.loc 1 269 16 is_stmt 0 view .LVU86
 224 00b8 4CEA0405 		orr	r5, ip, r4
 225              	.LVL25:
 226              	.L10:
 270:Drivers/STM32F4xx_HAL_Driver/Src/stm32f4xx_hal_gpio.c ****         }
 271:Drivers/STM32F4xx_HAL_Driver/Src/stm32f4xx_hal_gpio.c ****         EXTI->EMR = temp;
 227              		.loc 1 271 9 is_stmt 1 view .LVU87
 228              		.loc 1 271 19 is_stmt 0 view .LVU88
 229 00bc 454C     		ldr	r4, .L28+4
 230 00be 6560     		str	r5, [r4, #4]
 272:Drivers/STM32F4xx_HAL_Driver/Src/stm32f4xx_hal_gpio.c **** 
 273:Drivers/STM32F4xx_HAL_Driver/Src/stm32f4xx_hal_gpio.c ****         /* Clear EXTI line configuration */
 274:Drivers/STM32F4xx_HAL_Driver/Src/stm32f4xx_hal_gpio.c ****         temp = EXTI->IMR;
 231              		.loc 1 274 9 is_stmt 1 view .LVU89
 232              		.loc 1 274 14 is_stmt 0 view .LVU90
 233 00c0 2468     		ldr	r4, [r4]
 234              	.LVL26:
 275:Drivers/STM32F4xx_HAL_Driver/Src/stm32f4xx_hal_gpio.c ****         temp &= ~((uint32_t)iocurrent);
 235              		.loc 1 275 9 is_stmt 1 view .LVU91
 236              		.loc 1 275 14 is_stmt 0 view .LVU92
 237 00c2 2240     		ands	r2, r2, r4
 238              	.LVL27:
ARM GAS  C:\Users\Rick\AppData\Local\Temp\cc49JZd8.s 			page 10


 276:Drivers/STM32F4xx_HAL_Driver/Src/stm32f4xx_hal_gpio.c ****         if((GPIO_Init->Mode & EXTI_IT) != 0x00U)
 239              		.loc 1 276 9 is_stmt 1 view .LVU93
 240              		.loc 1 276 22 is_stmt 0 view .LVU94
 241 00c4 4D68     		ldr	r5, [r1, #4]
 242              		.loc 1 276 11 view .LVU95
 243 00c6 15F4803F 		tst	r5, #65536
 244 00ca 01D0     		beq	.L11
 277:Drivers/STM32F4xx_HAL_Driver/Src/stm32f4xx_hal_gpio.c ****         {
 278:Drivers/STM32F4xx_HAL_Driver/Src/stm32f4xx_hal_gpio.c ****           temp |= iocurrent;
 245              		.loc 1 278 11 is_stmt 1 view .LVU96
 246              		.loc 1 278 16 is_stmt 0 view .LVU97
 247 00cc 4CEA0402 		orr	r2, ip, r4
 248              	.LVL28:
 249              	.L11:
 279:Drivers/STM32F4xx_HAL_Driver/Src/stm32f4xx_hal_gpio.c ****         }
 280:Drivers/STM32F4xx_HAL_Driver/Src/stm32f4xx_hal_gpio.c ****         EXTI->IMR = temp;
 250              		.loc 1 280 9 is_stmt 1 view .LVU98
 251              		.loc 1 280 19 is_stmt 0 view .LVU99
 252 00d0 404C     		ldr	r4, .L28+4
 253 00d2 2260     		str	r2, [r4]
 254              	.LVL29:
 255              	.L3:
 177:Drivers/STM32F4xx_HAL_Driver/Src/stm32f4xx_hal_gpio.c ****   {
 256              		.loc 1 177 54 is_stmt 1 discriminator 2 view .LVU100
 257 00d4 0133     		adds	r3, r3, #1
 258              	.LVL30:
 177:Drivers/STM32F4xx_HAL_Driver/Src/stm32f4xx_hal_gpio.c ****   {
 259              		.loc 1 177 31 discriminator 1 view .LVU101
 260 00d6 0F2B     		cmp	r3, #15
 261 00d8 77D8     		bhi	.L24
 262              	.LVL31:
 263              	.L12:
 180:Drivers/STM32F4xx_HAL_Driver/Src/stm32f4xx_hal_gpio.c ****     /* Get the current IO position */
 264              		.loc 1 180 5 view .LVU102
 180:Drivers/STM32F4xx_HAL_Driver/Src/stm32f4xx_hal_gpio.c ****     /* Get the current IO position */
 265              		.loc 1 180 16 is_stmt 0 view .LVU103
 266 00da 0122     		movs	r2, #1
 267 00dc 9A40     		lsls	r2, r2, r3
 268              	.LVL32:
 182:Drivers/STM32F4xx_HAL_Driver/Src/stm32f4xx_hal_gpio.c **** 
 269              		.loc 1 182 5 is_stmt 1 view .LVU104
 182:Drivers/STM32F4xx_HAL_Driver/Src/stm32f4xx_hal_gpio.c **** 
 270              		.loc 1 182 37 is_stmt 0 view .LVU105
 271 00de 0C68     		ldr	r4, [r1]
 182:Drivers/STM32F4xx_HAL_Driver/Src/stm32f4xx_hal_gpio.c **** 
 272              		.loc 1 182 15 view .LVU106
 273 00e0 04EA020C 		and	ip, r4, r2
 274              	.LVL33:
 184:Drivers/STM32F4xx_HAL_Driver/Src/stm32f4xx_hal_gpio.c ****     {
 275              		.loc 1 184 5 is_stmt 1 view .LVU107
 184:Drivers/STM32F4xx_HAL_Driver/Src/stm32f4xx_hal_gpio.c ****     {
 276              		.loc 1 184 7 is_stmt 0 view .LVU108
 277 00e4 32EA0404 		bics	r4, r2, r4
 278 00e8 F4D1     		bne	.L3
 188:Drivers/STM32F4xx_HAL_Driver/Src/stm32f4xx_hal_gpio.c ****           (GPIO_Init->Mode & GPIO_MODE) == MODE_AF)
 279              		.loc 1 188 7 is_stmt 1 view .LVU109
 188:Drivers/STM32F4xx_HAL_Driver/Src/stm32f4xx_hal_gpio.c ****           (GPIO_Init->Mode & GPIO_MODE) == MODE_AF)
ARM GAS  C:\Users\Rick\AppData\Local\Temp\cc49JZd8.s 			page 11


 280              		.loc 1 188 21 is_stmt 0 view .LVU110
 281 00ea 4C68     		ldr	r4, [r1, #4]
 188:Drivers/STM32F4xx_HAL_Driver/Src/stm32f4xx_hal_gpio.c ****           (GPIO_Init->Mode & GPIO_MODE) == MODE_AF)
 282              		.loc 1 188 28 view .LVU111
 283 00ec 04F00304 		and	r4, r4, #3
 188:Drivers/STM32F4xx_HAL_Driver/Src/stm32f4xx_hal_gpio.c ****           (GPIO_Init->Mode & GPIO_MODE) == MODE_AF)
 284              		.loc 1 188 57 view .LVU112
 285 00f0 013C     		subs	r4, r4, #1
 188:Drivers/STM32F4xx_HAL_Driver/Src/stm32f4xx_hal_gpio.c ****           (GPIO_Init->Mode & GPIO_MODE) == MODE_AF)
 286              		.loc 1 188 9 view .LVU113
 287 00f2 012C     		cmp	r4, #1
 288 00f4 8BD9     		bls	.L25
 289              	.LVL34:
 290              	.L4:
 206:Drivers/STM32F4xx_HAL_Driver/Src/stm32f4xx_hal_gpio.c ****       {
 291              		.loc 1 206 7 is_stmt 1 view .LVU114
 206:Drivers/STM32F4xx_HAL_Driver/Src/stm32f4xx_hal_gpio.c ****       {
 292              		.loc 1 206 20 is_stmt 0 view .LVU115
 293 00f6 4A68     		ldr	r2, [r1, #4]
 206:Drivers/STM32F4xx_HAL_Driver/Src/stm32f4xx_hal_gpio.c ****       {
 294              		.loc 1 206 27 view .LVU116
 295 00f8 02F00302 		and	r2, r2, #3
 206:Drivers/STM32F4xx_HAL_Driver/Src/stm32f4xx_hal_gpio.c ****       {
 296              		.loc 1 206 9 view .LVU117
 297 00fc 032A     		cmp	r2, #3
 298 00fe 09D0     		beq	.L5
 209:Drivers/STM32F4xx_HAL_Driver/Src/stm32f4xx_hal_gpio.c ****         
 299              		.loc 1 209 9 is_stmt 1 view .LVU118
 212:Drivers/STM32F4xx_HAL_Driver/Src/stm32f4xx_hal_gpio.c ****         temp &= ~(GPIO_PUPDR_PUPDR0 << (position * 2U));
 300              		.loc 1 212 9 view .LVU119
 212:Drivers/STM32F4xx_HAL_Driver/Src/stm32f4xx_hal_gpio.c ****         temp &= ~(GPIO_PUPDR_PUPDR0 << (position * 2U));
 301              		.loc 1 212 14 is_stmt 0 view .LVU120
 302 0100 C468     		ldr	r4, [r0, #12]
 303              	.LVL35:
 213:Drivers/STM32F4xx_HAL_Driver/Src/stm32f4xx_hal_gpio.c ****         temp |= ((GPIO_Init->Pull) << (position * 2U));
 304              		.loc 1 213 9 is_stmt 1 view .LVU121
 213:Drivers/STM32F4xx_HAL_Driver/Src/stm32f4xx_hal_gpio.c ****         temp |= ((GPIO_Init->Pull) << (position * 2U));
 305              		.loc 1 213 50 is_stmt 0 view .LVU122
 306 0102 5D00     		lsls	r5, r3, #1
 213:Drivers/STM32F4xx_HAL_Driver/Src/stm32f4xx_hal_gpio.c ****         temp |= ((GPIO_Init->Pull) << (position * 2U));
 307              		.loc 1 213 37 view .LVU123
 308 0104 0322     		movs	r2, #3
 309 0106 AA40     		lsls	r2, r2, r5
 213:Drivers/STM32F4xx_HAL_Driver/Src/stm32f4xx_hal_gpio.c ****         temp |= ((GPIO_Init->Pull) << (position * 2U));
 310              		.loc 1 213 14 view .LVU124
 311 0108 24EA0204 		bic	r4, r4, r2
 312              	.LVL36:
 214:Drivers/STM32F4xx_HAL_Driver/Src/stm32f4xx_hal_gpio.c ****         GPIOx->PUPDR = temp;
 313              		.loc 1 214 9 is_stmt 1 view .LVU125
 214:Drivers/STM32F4xx_HAL_Driver/Src/stm32f4xx_hal_gpio.c ****         GPIOx->PUPDR = temp;
 314              		.loc 1 214 28 is_stmt 0 view .LVU126
 315 010c 8A68     		ldr	r2, [r1, #8]
 214:Drivers/STM32F4xx_HAL_Driver/Src/stm32f4xx_hal_gpio.c ****         GPIOx->PUPDR = temp;
 316              		.loc 1 214 36 view .LVU127
 317 010e AA40     		lsls	r2, r2, r5
 214:Drivers/STM32F4xx_HAL_Driver/Src/stm32f4xx_hal_gpio.c ****         GPIOx->PUPDR = temp;
 318              		.loc 1 214 14 view .LVU128
ARM GAS  C:\Users\Rick\AppData\Local\Temp\cc49JZd8.s 			page 12


 319 0110 2243     		orrs	r2, r2, r4
 320              	.LVL37:
 215:Drivers/STM32F4xx_HAL_Driver/Src/stm32f4xx_hal_gpio.c ****       }
 321              		.loc 1 215 9 is_stmt 1 view .LVU129
 215:Drivers/STM32F4xx_HAL_Driver/Src/stm32f4xx_hal_gpio.c ****       }
 322              		.loc 1 215 22 is_stmt 0 view .LVU130
 323 0112 C260     		str	r2, [r0, #12]
 324              	.LVL38:
 325              	.L5:
 219:Drivers/STM32F4xx_HAL_Driver/Src/stm32f4xx_hal_gpio.c ****       {
 326              		.loc 1 219 7 is_stmt 1 view .LVU131
 219:Drivers/STM32F4xx_HAL_Driver/Src/stm32f4xx_hal_gpio.c ****       {
 327              		.loc 1 219 20 is_stmt 0 view .LVU132
 328 0114 4A68     		ldr	r2, [r1, #4]
 219:Drivers/STM32F4xx_HAL_Driver/Src/stm32f4xx_hal_gpio.c ****       {
 329              		.loc 1 219 27 view .LVU133
 330 0116 02F00302 		and	r2, r2, #3
 219:Drivers/STM32F4xx_HAL_Driver/Src/stm32f4xx_hal_gpio.c ****       {
 331              		.loc 1 219 9 view .LVU134
 332 011a 022A     		cmp	r2, #2
 333 011c 8ED0     		beq	.L26
 334              	.L6:
 231:Drivers/STM32F4xx_HAL_Driver/Src/stm32f4xx_hal_gpio.c ****       temp &= ~(GPIO_MODER_MODER0 << (position * 2U));
 335              		.loc 1 231 7 is_stmt 1 view .LVU135
 231:Drivers/STM32F4xx_HAL_Driver/Src/stm32f4xx_hal_gpio.c ****       temp &= ~(GPIO_MODER_MODER0 << (position * 2U));
 336              		.loc 1 231 12 is_stmt 0 view .LVU136
 337 011e 0468     		ldr	r4, [r0]
 338              	.LVL39:
 232:Drivers/STM32F4xx_HAL_Driver/Src/stm32f4xx_hal_gpio.c ****       temp |= ((GPIO_Init->Mode & GPIO_MODE) << (position * 2U));
 339              		.loc 1 232 7 is_stmt 1 view .LVU137
 232:Drivers/STM32F4xx_HAL_Driver/Src/stm32f4xx_hal_gpio.c ****       temp |= ((GPIO_Init->Mode & GPIO_MODE) << (position * 2U));
 340              		.loc 1 232 48 is_stmt 0 view .LVU138
 341 0120 4FEA430E 		lsl	lr, r3, #1
 232:Drivers/STM32F4xx_HAL_Driver/Src/stm32f4xx_hal_gpio.c ****       temp |= ((GPIO_Init->Mode & GPIO_MODE) << (position * 2U));
 342              		.loc 1 232 35 view .LVU139
 343 0124 0322     		movs	r2, #3
 344 0126 02FA0EF2 		lsl	r2, r2, lr
 232:Drivers/STM32F4xx_HAL_Driver/Src/stm32f4xx_hal_gpio.c ****       temp |= ((GPIO_Init->Mode & GPIO_MODE) << (position * 2U));
 345              		.loc 1 232 12 view .LVU140
 346 012a 24EA0204 		bic	r4, r4, r2
 347              	.LVL40:
 233:Drivers/STM32F4xx_HAL_Driver/Src/stm32f4xx_hal_gpio.c ****       GPIOx->MODER = temp;
 348              		.loc 1 233 7 is_stmt 1 view .LVU141
 233:Drivers/STM32F4xx_HAL_Driver/Src/stm32f4xx_hal_gpio.c ****       GPIOx->MODER = temp;
 349              		.loc 1 233 26 is_stmt 0 view .LVU142
 350 012e 4A68     		ldr	r2, [r1, #4]
 233:Drivers/STM32F4xx_HAL_Driver/Src/stm32f4xx_hal_gpio.c ****       GPIOx->MODER = temp;
 351              		.loc 1 233 33 view .LVU143
 352 0130 02F00302 		and	r2, r2, #3
 233:Drivers/STM32F4xx_HAL_Driver/Src/stm32f4xx_hal_gpio.c ****       GPIOx->MODER = temp;
 353              		.loc 1 233 46 view .LVU144
 354 0134 02FA0EF2 		lsl	r2, r2, lr
 233:Drivers/STM32F4xx_HAL_Driver/Src/stm32f4xx_hal_gpio.c ****       GPIOx->MODER = temp;
 355              		.loc 1 233 12 view .LVU145
 356 0138 2243     		orrs	r2, r2, r4
 357              	.LVL41:
 234:Drivers/STM32F4xx_HAL_Driver/Src/stm32f4xx_hal_gpio.c **** 
ARM GAS  C:\Users\Rick\AppData\Local\Temp\cc49JZd8.s 			page 13


 358              		.loc 1 234 7 is_stmt 1 view .LVU146
 234:Drivers/STM32F4xx_HAL_Driver/Src/stm32f4xx_hal_gpio.c **** 
 359              		.loc 1 234 20 is_stmt 0 view .LVU147
 360 013a 0260     		str	r2, [r0]
 238:Drivers/STM32F4xx_HAL_Driver/Src/stm32f4xx_hal_gpio.c ****       {
 361              		.loc 1 238 7 is_stmt 1 view .LVU148
 238:Drivers/STM32F4xx_HAL_Driver/Src/stm32f4xx_hal_gpio.c ****       {
 362              		.loc 1 238 20 is_stmt 0 view .LVU149
 363 013c 4A68     		ldr	r2, [r1, #4]
 364              	.LVL42:
 238:Drivers/STM32F4xx_HAL_Driver/Src/stm32f4xx_hal_gpio.c ****       {
 365              		.loc 1 238 9 view .LVU150
 366 013e 12F4403F 		tst	r2, #196608
 367 0142 C7D0     		beq	.L3
 241:Drivers/STM32F4xx_HAL_Driver/Src/stm32f4xx_hal_gpio.c **** 
 368              		.loc 1 241 9 is_stmt 1 view .LVU151
 369              	.LBB2:
 241:Drivers/STM32F4xx_HAL_Driver/Src/stm32f4xx_hal_gpio.c **** 
 370              		.loc 1 241 9 view .LVU152
 371 0144 0022     		movs	r2, #0
 372 0146 0192     		str	r2, [sp, #4]
 373              	.LVL43:
 241:Drivers/STM32F4xx_HAL_Driver/Src/stm32f4xx_hal_gpio.c **** 
 374              		.loc 1 241 9 view .LVU153
 375 0148 234A     		ldr	r2, .L28+8
 376 014a 546C     		ldr	r4, [r2, #68]
 377 014c 44F48044 		orr	r4, r4, #16384
 378 0150 5464     		str	r4, [r2, #68]
 241:Drivers/STM32F4xx_HAL_Driver/Src/stm32f4xx_hal_gpio.c **** 
 379              		.loc 1 241 9 view .LVU154
 380 0152 526C     		ldr	r2, [r2, #68]
 381 0154 02F48042 		and	r2, r2, #16384
 382 0158 0192     		str	r2, [sp, #4]
 241:Drivers/STM32F4xx_HAL_Driver/Src/stm32f4xx_hal_gpio.c **** 
 383              		.loc 1 241 9 view .LVU155
 384 015a 019A     		ldr	r2, [sp, #4]
 385              	.LBE2:
 241:Drivers/STM32F4xx_HAL_Driver/Src/stm32f4xx_hal_gpio.c **** 
 386              		.loc 1 241 9 view .LVU156
 243:Drivers/STM32F4xx_HAL_Driver/Src/stm32f4xx_hal_gpio.c ****         temp &= ~(0x0FU << (4U * (position & 0x03U)));
 387              		.loc 1 243 9 view .LVU157
 243:Drivers/STM32F4xx_HAL_Driver/Src/stm32f4xx_hal_gpio.c ****         temp &= ~(0x0FU << (4U * (position & 0x03U)));
 388              		.loc 1 243 40 is_stmt 0 view .LVU158
 389 015c 9C08     		lsrs	r4, r3, #2
 243:Drivers/STM32F4xx_HAL_Driver/Src/stm32f4xx_hal_gpio.c ****         temp &= ~(0x0FU << (4U * (position & 0x03U)));
 390              		.loc 1 243 14 view .LVU159
 391 015e A51C     		adds	r5, r4, #2
 392 0160 1B4A     		ldr	r2, .L28
 393 0162 52F82550 		ldr	r5, [r2, r5, lsl #2]
 394              	.LVL44:
 244:Drivers/STM32F4xx_HAL_Driver/Src/stm32f4xx_hal_gpio.c ****         temp |= ((uint32_t)(GPIO_GET_INDEX(GPIOx)) << (4U * (position & 0x03U)));
 395              		.loc 1 244 9 is_stmt 1 view .LVU160
 244:Drivers/STM32F4xx_HAL_Driver/Src/stm32f4xx_hal_gpio.c ****         temp |= ((uint32_t)(GPIO_GET_INDEX(GPIOx)) << (4U * (position & 0x03U)));
 396              		.loc 1 244 44 is_stmt 0 view .LVU161
 397 0166 03F0030E 		and	lr, r3, #3
 244:Drivers/STM32F4xx_HAL_Driver/Src/stm32f4xx_hal_gpio.c ****         temp |= ((uint32_t)(GPIO_GET_INDEX(GPIOx)) << (4U * (position & 0x03U)));
 398              		.loc 1 244 32 view .LVU162
ARM GAS  C:\Users\Rick\AppData\Local\Temp\cc49JZd8.s 			page 14


 399 016a 4FEA8E0E 		lsl	lr, lr, #2
 244:Drivers/STM32F4xx_HAL_Driver/Src/stm32f4xx_hal_gpio.c ****         temp |= ((uint32_t)(GPIO_GET_INDEX(GPIOx)) << (4U * (position & 0x03U)));
 400              		.loc 1 244 25 view .LVU163
 401 016e 0F22     		movs	r2, #15
 402 0170 02FA0EF2 		lsl	r2, r2, lr
 244:Drivers/STM32F4xx_HAL_Driver/Src/stm32f4xx_hal_gpio.c ****         temp |= ((uint32_t)(GPIO_GET_INDEX(GPIOx)) << (4U * (position & 0x03U)));
 403              		.loc 1 244 14 view .LVU164
 404 0174 25EA0205 		bic	r5, r5, r2
 405              	.LVL45:
 245:Drivers/STM32F4xx_HAL_Driver/Src/stm32f4xx_hal_gpio.c ****         SYSCFG->EXTICR[position >> 2U] = temp;
 406              		.loc 1 245 9 is_stmt 1 view .LVU165
 245:Drivers/STM32F4xx_HAL_Driver/Src/stm32f4xx_hal_gpio.c ****         SYSCFG->EXTICR[position >> 2U] = temp;
 407              		.loc 1 245 18 is_stmt 0 view .LVU166
 408 0178 184A     		ldr	r2, .L28+12
 409 017a 9042     		cmp	r0, r2
 410 017c 3FF474AF 		beq	.L13
 245:Drivers/STM32F4xx_HAL_Driver/Src/stm32f4xx_hal_gpio.c ****         SYSCFG->EXTICR[position >> 2U] = temp;
 411              		.loc 1 245 29 discriminator 1 view .LVU167
 412 0180 02F58062 		add	r2, r2, #1024
 413 0184 9042     		cmp	r0, r2
 414 0186 16D0     		beq	.L14
 245:Drivers/STM32F4xx_HAL_Driver/Src/stm32f4xx_hal_gpio.c ****         SYSCFG->EXTICR[position >> 2U] = temp;
 415              		.loc 1 245 29 discriminator 3 view .LVU168
 416 0188 02F58062 		add	r2, r2, #1024
 417 018c 9042     		cmp	r0, r2
 418 018e 14D0     		beq	.L15
 245:Drivers/STM32F4xx_HAL_Driver/Src/stm32f4xx_hal_gpio.c ****         SYSCFG->EXTICR[position >> 2U] = temp;
 419              		.loc 1 245 29 discriminator 5 view .LVU169
 420 0190 02F58062 		add	r2, r2, #1024
 421 0194 9042     		cmp	r0, r2
 422 0196 12D0     		beq	.L16
 245:Drivers/STM32F4xx_HAL_Driver/Src/stm32f4xx_hal_gpio.c ****         SYSCFG->EXTICR[position >> 2U] = temp;
 423              		.loc 1 245 29 discriminator 7 view .LVU170
 424 0198 02F58062 		add	r2, r2, #1024
 425 019c 9042     		cmp	r0, r2
 426 019e 10D0     		beq	.L17
 245:Drivers/STM32F4xx_HAL_Driver/Src/stm32f4xx_hal_gpio.c ****         SYSCFG->EXTICR[position >> 2U] = temp;
 427              		.loc 1 245 29 discriminator 9 view .LVU171
 428 01a0 02F58062 		add	r2, r2, #1024
 429 01a4 9042     		cmp	r0, r2
 430 01a6 0ED0     		beq	.L18
 245:Drivers/STM32F4xx_HAL_Driver/Src/stm32f4xx_hal_gpio.c ****         SYSCFG->EXTICR[position >> 2U] = temp;
 431              		.loc 1 245 29 discriminator 11 view .LVU172
 432 01a8 02F58062 		add	r2, r2, #1024
 433 01ac 9042     		cmp	r0, r2
 434 01ae 3FF459AF 		beq	.L27
 245:Drivers/STM32F4xx_HAL_Driver/Src/stm32f4xx_hal_gpio.c ****         SYSCFG->EXTICR[position >> 2U] = temp;
 435              		.loc 1 245 29 discriminator 14 view .LVU173
 436 01b2 0722     		movs	r2, #7
 437 01b4 59E7     		b	.L7
 438              	.L14:
 245:Drivers/STM32F4xx_HAL_Driver/Src/stm32f4xx_hal_gpio.c ****         SYSCFG->EXTICR[position >> 2U] = temp;
 439              		.loc 1 245 29 discriminator 4 view .LVU174
 440 01b6 0122     		movs	r2, #1
 441              	.LVL46:
 245:Drivers/STM32F4xx_HAL_Driver/Src/stm32f4xx_hal_gpio.c ****         SYSCFG->EXTICR[position >> 2U] = temp;
 442              		.loc 1 245 29 discriminator 4 view .LVU175
ARM GAS  C:\Users\Rick\AppData\Local\Temp\cc49JZd8.s 			page 15


 443 01b8 57E7     		b	.L7
 444              	.LVL47:
 445              	.L15:
 245:Drivers/STM32F4xx_HAL_Driver/Src/stm32f4xx_hal_gpio.c ****         SYSCFG->EXTICR[position >> 2U] = temp;
 446              		.loc 1 245 29 discriminator 6 view .LVU176
 447 01ba 0222     		movs	r2, #2
 448 01bc 55E7     		b	.L7
 449              	.L16:
 245:Drivers/STM32F4xx_HAL_Driver/Src/stm32f4xx_hal_gpio.c ****         SYSCFG->EXTICR[position >> 2U] = temp;
 450              		.loc 1 245 29 discriminator 8 view .LVU177
 451 01be 0322     		movs	r2, #3
 452 01c0 53E7     		b	.L7
 453              	.L17:
 245:Drivers/STM32F4xx_HAL_Driver/Src/stm32f4xx_hal_gpio.c ****         SYSCFG->EXTICR[position >> 2U] = temp;
 454              		.loc 1 245 29 discriminator 10 view .LVU178
 455 01c2 0422     		movs	r2, #4
 456 01c4 51E7     		b	.L7
 457              	.L18:
 245:Drivers/STM32F4xx_HAL_Driver/Src/stm32f4xx_hal_gpio.c ****         SYSCFG->EXTICR[position >> 2U] = temp;
 458              		.loc 1 245 29 discriminator 12 view .LVU179
 459 01c6 0522     		movs	r2, #5
 460 01c8 4FE7     		b	.L7
 461              	.LVL48:
 462              	.L24:
 281:Drivers/STM32F4xx_HAL_Driver/Src/stm32f4xx_hal_gpio.c ****       }
 282:Drivers/STM32F4xx_HAL_Driver/Src/stm32f4xx_hal_gpio.c ****     }
 283:Drivers/STM32F4xx_HAL_Driver/Src/stm32f4xx_hal_gpio.c ****   }
 284:Drivers/STM32F4xx_HAL_Driver/Src/stm32f4xx_hal_gpio.c **** }
 463              		.loc 1 284 1 view .LVU180
 464 01ca 02B0     		add	sp, sp, #8
 465              		.cfi_def_cfa_offset 16
 466              		@ sp needed
 467 01cc 70BD     		pop	{r4, r5, r6, pc}
 468              	.LVL49:
 469              	.L23:
 470              		.cfi_def_cfa_offset 0
 471              		.cfi_restore 4
 472              		.cfi_restore 5
 473              		.cfi_restore 6
 474              		.cfi_restore 14
 475              		.loc 1 284 1 view .LVU181
 476 01ce 7047     		bx	lr
 477              	.L29:
 478              		.align	2
 479              	.L28:
 480 01d0 00380140 		.word	1073821696
 481 01d4 003C0140 		.word	1073822720
 482 01d8 00380240 		.word	1073887232
 483 01dc 00000240 		.word	1073872896
 484              		.cfi_endproc
 485              	.LFE239:
 487              		.section	.text.HAL_GPIO_DeInit,"ax",%progbits
 488              		.align	1
 489              		.global	HAL_GPIO_DeInit
 490              		.syntax unified
 491              		.thumb
 492              		.thumb_func
ARM GAS  C:\Users\Rick\AppData\Local\Temp\cc49JZd8.s 			page 16


 494              	HAL_GPIO_DeInit:
 495              	.LVL50:
 496              	.LFB240:
 285:Drivers/STM32F4xx_HAL_Driver/Src/stm32f4xx_hal_gpio.c **** 
 286:Drivers/STM32F4xx_HAL_Driver/Src/stm32f4xx_hal_gpio.c **** /**
 287:Drivers/STM32F4xx_HAL_Driver/Src/stm32f4xx_hal_gpio.c ****   * @brief  De-initializes the GPIOx peripheral registers to their default reset values.
 288:Drivers/STM32F4xx_HAL_Driver/Src/stm32f4xx_hal_gpio.c ****   * @param  GPIOx where x can be (A..K) to select the GPIO peripheral for STM32F429X device or
 289:Drivers/STM32F4xx_HAL_Driver/Src/stm32f4xx_hal_gpio.c ****   *                      x can be (A..I) to select the GPIO peripheral for STM32F40XX and STM32F427
 290:Drivers/STM32F4xx_HAL_Driver/Src/stm32f4xx_hal_gpio.c ****   * @param  GPIO_Pin specifies the port bit to be written.
 291:Drivers/STM32F4xx_HAL_Driver/Src/stm32f4xx_hal_gpio.c ****   *          This parameter can be one of GPIO_PIN_x where x can be (0..15).
 292:Drivers/STM32F4xx_HAL_Driver/Src/stm32f4xx_hal_gpio.c ****   * @retval None
 293:Drivers/STM32F4xx_HAL_Driver/Src/stm32f4xx_hal_gpio.c ****   */
 294:Drivers/STM32F4xx_HAL_Driver/Src/stm32f4xx_hal_gpio.c **** void HAL_GPIO_DeInit(GPIO_TypeDef  *GPIOx, uint32_t GPIO_Pin)
 295:Drivers/STM32F4xx_HAL_Driver/Src/stm32f4xx_hal_gpio.c **** {
 497              		.loc 1 295 1 is_stmt 1 view -0
 498              		.cfi_startproc
 499              		@ args = 0, pretend = 0, frame = 0
 500              		@ frame_needed = 0, uses_anonymous_args = 0
 296:Drivers/STM32F4xx_HAL_Driver/Src/stm32f4xx_hal_gpio.c ****   uint32_t position;
 501              		.loc 1 296 3 view .LVU183
 297:Drivers/STM32F4xx_HAL_Driver/Src/stm32f4xx_hal_gpio.c ****   uint32_t ioposition = 0x00U;
 502              		.loc 1 297 3 view .LVU184
 298:Drivers/STM32F4xx_HAL_Driver/Src/stm32f4xx_hal_gpio.c ****   uint32_t iocurrent = 0x00U;
 503              		.loc 1 298 3 view .LVU185
 299:Drivers/STM32F4xx_HAL_Driver/Src/stm32f4xx_hal_gpio.c ****   uint32_t tmp = 0x00U;
 504              		.loc 1 299 3 view .LVU186
 300:Drivers/STM32F4xx_HAL_Driver/Src/stm32f4xx_hal_gpio.c **** 
 301:Drivers/STM32F4xx_HAL_Driver/Src/stm32f4xx_hal_gpio.c ****   /* Check the parameters */
 302:Drivers/STM32F4xx_HAL_Driver/Src/stm32f4xx_hal_gpio.c ****   assert_param(IS_GPIO_ALL_INSTANCE(GPIOx));
 505              		.loc 1 302 3 view .LVU187
 303:Drivers/STM32F4xx_HAL_Driver/Src/stm32f4xx_hal_gpio.c ****   
 304:Drivers/STM32F4xx_HAL_Driver/Src/stm32f4xx_hal_gpio.c ****   /* Configure the port pins */
 305:Drivers/STM32F4xx_HAL_Driver/Src/stm32f4xx_hal_gpio.c ****   for(position = 0U; position < GPIO_NUMBER; position++)
 506              		.loc 1 305 3 view .LVU188
 507              		.loc 1 305 16 is_stmt 0 view .LVU189
 508 0000 0023     		movs	r3, #0
 509              	.LVL51:
 510              		.loc 1 305 31 is_stmt 1 discriminator 1 view .LVU190
 511 0002 0F2B     		cmp	r3, #15
 512 0004 00F28980 		bhi	.L46
 295:Drivers/STM32F4xx_HAL_Driver/Src/stm32f4xx_hal_gpio.c ****   uint32_t position;
 513              		.loc 1 295 1 is_stmt 0 view .LVU191
 514 0008 F0B5     		push	{r4, r5, r6, r7, lr}
 515              		.cfi_def_cfa_offset 20
 516              		.cfi_offset 4, -20
 517              		.cfi_offset 5, -16
 518              		.cfi_offset 6, -12
 519              		.cfi_offset 7, -8
 520              		.cfi_offset 14, -4
 521 000a 2DE0     		b	.L35
 522              	.LVL52:
 523              	.L49:
 306:Drivers/STM32F4xx_HAL_Driver/Src/stm32f4xx_hal_gpio.c ****   {
 307:Drivers/STM32F4xx_HAL_Driver/Src/stm32f4xx_hal_gpio.c ****     /* Get the IO position */
 308:Drivers/STM32F4xx_HAL_Driver/Src/stm32f4xx_hal_gpio.c ****     ioposition = 0x01U << position;
 309:Drivers/STM32F4xx_HAL_Driver/Src/stm32f4xx_hal_gpio.c ****     /* Get the current IO position */
 310:Drivers/STM32F4xx_HAL_Driver/Src/stm32f4xx_hal_gpio.c ****     iocurrent = (GPIO_Pin) & ioposition;
ARM GAS  C:\Users\Rick\AppData\Local\Temp\cc49JZd8.s 			page 17


 311:Drivers/STM32F4xx_HAL_Driver/Src/stm32f4xx_hal_gpio.c **** 
 312:Drivers/STM32F4xx_HAL_Driver/Src/stm32f4xx_hal_gpio.c ****     if(iocurrent == ioposition)
 313:Drivers/STM32F4xx_HAL_Driver/Src/stm32f4xx_hal_gpio.c ****     {
 314:Drivers/STM32F4xx_HAL_Driver/Src/stm32f4xx_hal_gpio.c ****       /*------------------------- EXTI Mode Configuration --------------------*/
 315:Drivers/STM32F4xx_HAL_Driver/Src/stm32f4xx_hal_gpio.c ****       tmp = SYSCFG->EXTICR[position >> 2U];
 316:Drivers/STM32F4xx_HAL_Driver/Src/stm32f4xx_hal_gpio.c ****       tmp &= (0x0FU << (4U * (position & 0x03U)));
 317:Drivers/STM32F4xx_HAL_Driver/Src/stm32f4xx_hal_gpio.c ****       if(tmp == ((uint32_t)(GPIO_GET_INDEX(GPIOx)) << (4U * (position & 0x03U))))
 524              		.loc 1 317 29 discriminator 13 view .LVU192
 525 000c 0625     		movs	r5, #6
 526 000e 00E0     		b	.L33
 527              	.L36:
 528              		.loc 1 317 18 discriminator 2 view .LVU193
 529 0010 0025     		movs	r5, #0
 530              	.L33:
 531              		.loc 1 317 52 discriminator 28 view .LVU194
 532 0012 05FA0CF5 		lsl	r5, r5, ip
 533              		.loc 1 317 9 discriminator 28 view .LVU195
 534 0016 A542     		cmp	r5, r4
 535 0018 63D0     		beq	.L47
 536              	.LVL53:
 537              	.L34:
 318:Drivers/STM32F4xx_HAL_Driver/Src/stm32f4xx_hal_gpio.c ****       {
 319:Drivers/STM32F4xx_HAL_Driver/Src/stm32f4xx_hal_gpio.c ****         /* Clear EXTI line configuration */
 320:Drivers/STM32F4xx_HAL_Driver/Src/stm32f4xx_hal_gpio.c ****         EXTI->IMR &= ~((uint32_t)iocurrent);
 321:Drivers/STM32F4xx_HAL_Driver/Src/stm32f4xx_hal_gpio.c ****         EXTI->EMR &= ~((uint32_t)iocurrent);
 322:Drivers/STM32F4xx_HAL_Driver/Src/stm32f4xx_hal_gpio.c ****         
 323:Drivers/STM32F4xx_HAL_Driver/Src/stm32f4xx_hal_gpio.c ****         /* Clear Rising Falling edge configuration */
 324:Drivers/STM32F4xx_HAL_Driver/Src/stm32f4xx_hal_gpio.c ****         EXTI->FTSR &= ~((uint32_t)iocurrent);
 325:Drivers/STM32F4xx_HAL_Driver/Src/stm32f4xx_hal_gpio.c ****         EXTI->RTSR &= ~((uint32_t)iocurrent);
 326:Drivers/STM32F4xx_HAL_Driver/Src/stm32f4xx_hal_gpio.c **** 
 327:Drivers/STM32F4xx_HAL_Driver/Src/stm32f4xx_hal_gpio.c ****         /* Configure the External Interrupt or event for the current IO */
 328:Drivers/STM32F4xx_HAL_Driver/Src/stm32f4xx_hal_gpio.c ****         tmp = 0x0FU << (4U * (position & 0x03U));
 329:Drivers/STM32F4xx_HAL_Driver/Src/stm32f4xx_hal_gpio.c ****         SYSCFG->EXTICR[position >> 2U] &= ~tmp;
 330:Drivers/STM32F4xx_HAL_Driver/Src/stm32f4xx_hal_gpio.c ****       }
 331:Drivers/STM32F4xx_HAL_Driver/Src/stm32f4xx_hal_gpio.c **** 
 332:Drivers/STM32F4xx_HAL_Driver/Src/stm32f4xx_hal_gpio.c ****       /*------------------------- GPIO Mode Configuration --------------------*/
 333:Drivers/STM32F4xx_HAL_Driver/Src/stm32f4xx_hal_gpio.c ****       /* Configure IO Direction in Input Floating Mode */
 334:Drivers/STM32F4xx_HAL_Driver/Src/stm32f4xx_hal_gpio.c ****       GPIOx->MODER &= ~(GPIO_MODER_MODER0 << (position * 2U));
 538              		.loc 1 334 7 is_stmt 1 view .LVU196
 539              		.loc 1 334 12 is_stmt 0 view .LVU197
 540 001a 0468     		ldr	r4, [r0]
 541              		.loc 1 334 56 view .LVU198
 542 001c 5D00     		lsls	r5, r3, #1
 543              		.loc 1 334 43 view .LVU199
 544 001e 4FF0030C 		mov	ip, #3
 545 0022 0CFA05FC 		lsl	ip, ip, r5
 546              		.loc 1 334 20 view .LVU200
 547 0026 24EA0C04 		bic	r4, r4, ip
 548 002a 0460     		str	r4, [r0]
 335:Drivers/STM32F4xx_HAL_Driver/Src/stm32f4xx_hal_gpio.c **** 
 336:Drivers/STM32F4xx_HAL_Driver/Src/stm32f4xx_hal_gpio.c ****       /* Configure the default Alternate Function in current IO */
 337:Drivers/STM32F4xx_HAL_Driver/Src/stm32f4xx_hal_gpio.c ****       GPIOx->AFR[position >> 3U] &= ~(0xFU << ((uint32_t)(position & 0x07U) * 4U)) ;
 549              		.loc 1 337 7 is_stmt 1 view .LVU201
 550              		.loc 1 337 17 is_stmt 0 view .LVU202
 551 002c 4FEAD30E 		lsr	lr, r3, #3
 552 0030 0EF1080E 		add	lr, lr, #8
 553 0034 50F82E40 		ldr	r4, [r0, lr, lsl #2]
ARM GAS  C:\Users\Rick\AppData\Local\Temp\cc49JZd8.s 			page 18


 554              		.loc 1 337 48 view .LVU203
 555 0038 03F00706 		and	r6, r3, #7
 556              		.loc 1 337 77 view .LVU204
 557 003c B600     		lsls	r6, r6, #2
 558              		.loc 1 337 44 view .LVU205
 559 003e 0F25     		movs	r5, #15
 560 0040 B540     		lsls	r5, r5, r6
 561              		.loc 1 337 34 view .LVU206
 562 0042 24EA0504 		bic	r4, r4, r5
 563 0046 40F82E40 		str	r4, [r0, lr, lsl #2]
 338:Drivers/STM32F4xx_HAL_Driver/Src/stm32f4xx_hal_gpio.c **** 
 339:Drivers/STM32F4xx_HAL_Driver/Src/stm32f4xx_hal_gpio.c ****       /* Deactivate the Pull-up and Pull-down resistor for the current IO */
 340:Drivers/STM32F4xx_HAL_Driver/Src/stm32f4xx_hal_gpio.c ****       GPIOx->PUPDR &= ~(GPIO_PUPDR_PUPDR0 << (position * 2U));
 564              		.loc 1 340 7 is_stmt 1 view .LVU207
 565              		.loc 1 340 12 is_stmt 0 view .LVU208
 566 004a C468     		ldr	r4, [r0, #12]
 567              		.loc 1 340 20 view .LVU209
 568 004c 24EA0C04 		bic	r4, r4, ip
 569 0050 C460     		str	r4, [r0, #12]
 341:Drivers/STM32F4xx_HAL_Driver/Src/stm32f4xx_hal_gpio.c **** 
 342:Drivers/STM32F4xx_HAL_Driver/Src/stm32f4xx_hal_gpio.c ****       /* Configure the default value IO Output Type */
 343:Drivers/STM32F4xx_HAL_Driver/Src/stm32f4xx_hal_gpio.c ****       GPIOx->OTYPER  &= ~(GPIO_OTYPER_OT_0 << position) ;
 570              		.loc 1 343 7 is_stmt 1 view .LVU210
 571              		.loc 1 343 12 is_stmt 0 view .LVU211
 572 0052 4468     		ldr	r4, [r0, #4]
 573              		.loc 1 343 22 view .LVU212
 574 0054 24EA0202 		bic	r2, r4, r2
 575              	.LVL54:
 576              		.loc 1 343 22 view .LVU213
 577 0058 4260     		str	r2, [r0, #4]
 344:Drivers/STM32F4xx_HAL_Driver/Src/stm32f4xx_hal_gpio.c **** 
 345:Drivers/STM32F4xx_HAL_Driver/Src/stm32f4xx_hal_gpio.c ****       /* Configure the default value for IO Speed */
 346:Drivers/STM32F4xx_HAL_Driver/Src/stm32f4xx_hal_gpio.c ****       GPIOx->OSPEEDR &= ~(GPIO_OSPEEDER_OSPEEDR0 << (position * 2U));
 578              		.loc 1 346 7 is_stmt 1 view .LVU214
 579              		.loc 1 346 12 is_stmt 0 view .LVU215
 580 005a 8268     		ldr	r2, [r0, #8]
 581              		.loc 1 346 22 view .LVU216
 582 005c 22EA0C02 		bic	r2, r2, ip
 583 0060 8260     		str	r2, [r0, #8]
 584              	.L32:
 305:Drivers/STM32F4xx_HAL_Driver/Src/stm32f4xx_hal_gpio.c ****   {
 585              		.loc 1 305 54 is_stmt 1 discriminator 2 view .LVU217
 586 0062 0133     		adds	r3, r3, #1
 587              	.LVL55:
 305:Drivers/STM32F4xx_HAL_Driver/Src/stm32f4xx_hal_gpio.c ****   {
 588              		.loc 1 305 31 discriminator 1 view .LVU218
 589 0064 0F2B     		cmp	r3, #15
 590 0066 57D8     		bhi	.L48
 591              	.LVL56:
 592              	.L35:
 308:Drivers/STM32F4xx_HAL_Driver/Src/stm32f4xx_hal_gpio.c ****     /* Get the current IO position */
 593              		.loc 1 308 5 view .LVU219
 308:Drivers/STM32F4xx_HAL_Driver/Src/stm32f4xx_hal_gpio.c ****     /* Get the current IO position */
 594              		.loc 1 308 16 is_stmt 0 view .LVU220
 595 0068 0122     		movs	r2, #1
 596 006a 9A40     		lsls	r2, r2, r3
 597              	.LVL57:
ARM GAS  C:\Users\Rick\AppData\Local\Temp\cc49JZd8.s 			page 19


 310:Drivers/STM32F4xx_HAL_Driver/Src/stm32f4xx_hal_gpio.c **** 
 598              		.loc 1 310 5 is_stmt 1 view .LVU221
 310:Drivers/STM32F4xx_HAL_Driver/Src/stm32f4xx_hal_gpio.c **** 
 599              		.loc 1 310 15 is_stmt 0 view .LVU222
 600 006c 02EA0106 		and	r6, r2, r1
 601              	.LVL58:
 312:Drivers/STM32F4xx_HAL_Driver/Src/stm32f4xx_hal_gpio.c ****     {
 602              		.loc 1 312 5 is_stmt 1 view .LVU223
 312:Drivers/STM32F4xx_HAL_Driver/Src/stm32f4xx_hal_gpio.c ****     {
 603              		.loc 1 312 7 is_stmt 0 view .LVU224
 604 0070 32EA0104 		bics	r4, r2, r1
 605 0074 F5D1     		bne	.L32
 315:Drivers/STM32F4xx_HAL_Driver/Src/stm32f4xx_hal_gpio.c ****       tmp &= (0x0FU << (4U * (position & 0x03U)));
 606              		.loc 1 315 7 is_stmt 1 view .LVU225
 315:Drivers/STM32F4xx_HAL_Driver/Src/stm32f4xx_hal_gpio.c ****       tmp &= (0x0FU << (4U * (position & 0x03U)));
 607              		.loc 1 315 37 is_stmt 0 view .LVU226
 608 0076 4FEA930E 		lsr	lr, r3, #2
 315:Drivers/STM32F4xx_HAL_Driver/Src/stm32f4xx_hal_gpio.c ****       tmp &= (0x0FU << (4U * (position & 0x03U)));
 609              		.loc 1 315 11 view .LVU227
 610 007a 0EF10205 		add	r5, lr, #2
 611 007e 274C     		ldr	r4, .L50
 612 0080 54F82540 		ldr	r4, [r4, r5, lsl #2]
 613              	.LVL59:
 316:Drivers/STM32F4xx_HAL_Driver/Src/stm32f4xx_hal_gpio.c ****       if(tmp == ((uint32_t)(GPIO_GET_INDEX(GPIOx)) << (4U * (position & 0x03U))))
 614              		.loc 1 316 7 is_stmt 1 view .LVU228
 316:Drivers/STM32F4xx_HAL_Driver/Src/stm32f4xx_hal_gpio.c ****       if(tmp == ((uint32_t)(GPIO_GET_INDEX(GPIOx)) << (4U * (position & 0x03U))))
 615              		.loc 1 316 40 is_stmt 0 view .LVU229
 616 0084 03F0030C 		and	ip, r3, #3
 316:Drivers/STM32F4xx_HAL_Driver/Src/stm32f4xx_hal_gpio.c ****       if(tmp == ((uint32_t)(GPIO_GET_INDEX(GPIOx)) << (4U * (position & 0x03U))))
 617              		.loc 1 316 28 view .LVU230
 618 0088 4FEA8C0C 		lsl	ip, ip, #2
 316:Drivers/STM32F4xx_HAL_Driver/Src/stm32f4xx_hal_gpio.c ****       if(tmp == ((uint32_t)(GPIO_GET_INDEX(GPIOx)) << (4U * (position & 0x03U))))
 619              		.loc 1 316 21 view .LVU231
 620 008c 0F25     		movs	r5, #15
 621 008e 05FA0CF7 		lsl	r7, r5, ip
 316:Drivers/STM32F4xx_HAL_Driver/Src/stm32f4xx_hal_gpio.c ****       if(tmp == ((uint32_t)(GPIO_GET_INDEX(GPIOx)) << (4U * (position & 0x03U))))
 622              		.loc 1 316 11 view .LVU232
 623 0092 3C40     		ands	r4, r4, r7
 624              	.LVL60:
 317:Drivers/STM32F4xx_HAL_Driver/Src/stm32f4xx_hal_gpio.c ****       {
 625              		.loc 1 317 7 is_stmt 1 view .LVU233
 317:Drivers/STM32F4xx_HAL_Driver/Src/stm32f4xx_hal_gpio.c ****       {
 626              		.loc 1 317 18 is_stmt 0 view .LVU234
 627 0094 224D     		ldr	r5, .L50+4
 628 0096 A842     		cmp	r0, r5
 629 0098 BAD0     		beq	.L36
 317:Drivers/STM32F4xx_HAL_Driver/Src/stm32f4xx_hal_gpio.c ****       {
 630              		.loc 1 317 29 discriminator 1 view .LVU235
 631 009a 05F58065 		add	r5, r5, #1024
 632 009e A842     		cmp	r0, r5
 633 00a0 15D0     		beq	.L37
 317:Drivers/STM32F4xx_HAL_Driver/Src/stm32f4xx_hal_gpio.c ****       {
 634              		.loc 1 317 29 discriminator 3 view .LVU236
 635 00a2 05F58065 		add	r5, r5, #1024
 636 00a6 A842     		cmp	r0, r5
 637 00a8 13D0     		beq	.L38
 317:Drivers/STM32F4xx_HAL_Driver/Src/stm32f4xx_hal_gpio.c ****       {
ARM GAS  C:\Users\Rick\AppData\Local\Temp\cc49JZd8.s 			page 20


 638              		.loc 1 317 29 discriminator 5 view .LVU237
 639 00aa 05F58065 		add	r5, r5, #1024
 640 00ae A842     		cmp	r0, r5
 641 00b0 11D0     		beq	.L39
 317:Drivers/STM32F4xx_HAL_Driver/Src/stm32f4xx_hal_gpio.c ****       {
 642              		.loc 1 317 29 discriminator 7 view .LVU238
 643 00b2 05F58065 		add	r5, r5, #1024
 644 00b6 A842     		cmp	r0, r5
 645 00b8 0FD0     		beq	.L40
 317:Drivers/STM32F4xx_HAL_Driver/Src/stm32f4xx_hal_gpio.c ****       {
 646              		.loc 1 317 29 discriminator 9 view .LVU239
 647 00ba 05F58065 		add	r5, r5, #1024
 648 00be A842     		cmp	r0, r5
 649 00c0 0DD0     		beq	.L41
 317:Drivers/STM32F4xx_HAL_Driver/Src/stm32f4xx_hal_gpio.c ****       {
 650              		.loc 1 317 29 discriminator 11 view .LVU240
 651 00c2 05F58065 		add	r5, r5, #1024
 652 00c6 A842     		cmp	r0, r5
 653 00c8 A0D0     		beq	.L49
 317:Drivers/STM32F4xx_HAL_Driver/Src/stm32f4xx_hal_gpio.c ****       {
 654              		.loc 1 317 29 discriminator 14 view .LVU241
 655 00ca 0725     		movs	r5, #7
 656 00cc A1E7     		b	.L33
 657              	.L37:
 317:Drivers/STM32F4xx_HAL_Driver/Src/stm32f4xx_hal_gpio.c ****       {
 658              		.loc 1 317 29 discriminator 4 view .LVU242
 659 00ce 0125     		movs	r5, #1
 660 00d0 9FE7     		b	.L33
 661              	.L38:
 317:Drivers/STM32F4xx_HAL_Driver/Src/stm32f4xx_hal_gpio.c ****       {
 662              		.loc 1 317 29 discriminator 6 view .LVU243
 663 00d2 0225     		movs	r5, #2
 664 00d4 9DE7     		b	.L33
 665              	.L39:
 317:Drivers/STM32F4xx_HAL_Driver/Src/stm32f4xx_hal_gpio.c ****       {
 666              		.loc 1 317 29 discriminator 8 view .LVU244
 667 00d6 0325     		movs	r5, #3
 668 00d8 9BE7     		b	.L33
 669              	.L40:
 317:Drivers/STM32F4xx_HAL_Driver/Src/stm32f4xx_hal_gpio.c ****       {
 670              		.loc 1 317 29 discriminator 10 view .LVU245
 671 00da 0425     		movs	r5, #4
 672 00dc 99E7     		b	.L33
 673              	.L41:
 317:Drivers/STM32F4xx_HAL_Driver/Src/stm32f4xx_hal_gpio.c ****       {
 674              		.loc 1 317 29 discriminator 12 view .LVU246
 675 00de 0525     		movs	r5, #5
 676 00e0 97E7     		b	.L33
 677              	.L47:
 320:Drivers/STM32F4xx_HAL_Driver/Src/stm32f4xx_hal_gpio.c ****         EXTI->EMR &= ~((uint32_t)iocurrent);
 678              		.loc 1 320 9 is_stmt 1 view .LVU247
 320:Drivers/STM32F4xx_HAL_Driver/Src/stm32f4xx_hal_gpio.c ****         EXTI->EMR &= ~((uint32_t)iocurrent);
 679              		.loc 1 320 13 is_stmt 0 view .LVU248
 680 00e2 104C     		ldr	r4, .L50+8
 681              	.LVL61:
 320:Drivers/STM32F4xx_HAL_Driver/Src/stm32f4xx_hal_gpio.c ****         EXTI->EMR &= ~((uint32_t)iocurrent);
 682              		.loc 1 320 13 view .LVU249
ARM GAS  C:\Users\Rick\AppData\Local\Temp\cc49JZd8.s 			page 21


 683 00e4 2568     		ldr	r5, [r4]
 320:Drivers/STM32F4xx_HAL_Driver/Src/stm32f4xx_hal_gpio.c ****         EXTI->EMR &= ~((uint32_t)iocurrent);
 684              		.loc 1 320 19 view .LVU250
 685 00e6 25EA0605 		bic	r5, r5, r6
 686 00ea 2560     		str	r5, [r4]
 321:Drivers/STM32F4xx_HAL_Driver/Src/stm32f4xx_hal_gpio.c ****         
 687              		.loc 1 321 9 is_stmt 1 view .LVU251
 321:Drivers/STM32F4xx_HAL_Driver/Src/stm32f4xx_hal_gpio.c ****         
 688              		.loc 1 321 13 is_stmt 0 view .LVU252
 689 00ec 6568     		ldr	r5, [r4, #4]
 321:Drivers/STM32F4xx_HAL_Driver/Src/stm32f4xx_hal_gpio.c ****         
 690              		.loc 1 321 19 view .LVU253
 691 00ee 25EA0605 		bic	r5, r5, r6
 692 00f2 6560     		str	r5, [r4, #4]
 324:Drivers/STM32F4xx_HAL_Driver/Src/stm32f4xx_hal_gpio.c ****         EXTI->RTSR &= ~((uint32_t)iocurrent);
 693              		.loc 1 324 9 is_stmt 1 view .LVU254
 324:Drivers/STM32F4xx_HAL_Driver/Src/stm32f4xx_hal_gpio.c ****         EXTI->RTSR &= ~((uint32_t)iocurrent);
 694              		.loc 1 324 13 is_stmt 0 view .LVU255
 695 00f4 E568     		ldr	r5, [r4, #12]
 324:Drivers/STM32F4xx_HAL_Driver/Src/stm32f4xx_hal_gpio.c ****         EXTI->RTSR &= ~((uint32_t)iocurrent);
 696              		.loc 1 324 20 view .LVU256
 697 00f6 25EA0605 		bic	r5, r5, r6
 698 00fa E560     		str	r5, [r4, #12]
 325:Drivers/STM32F4xx_HAL_Driver/Src/stm32f4xx_hal_gpio.c **** 
 699              		.loc 1 325 9 is_stmt 1 view .LVU257
 325:Drivers/STM32F4xx_HAL_Driver/Src/stm32f4xx_hal_gpio.c **** 
 700              		.loc 1 325 13 is_stmt 0 view .LVU258
 701 00fc A568     		ldr	r5, [r4, #8]
 325:Drivers/STM32F4xx_HAL_Driver/Src/stm32f4xx_hal_gpio.c **** 
 702              		.loc 1 325 20 view .LVU259
 703 00fe 25EA0605 		bic	r5, r5, r6
 704 0102 A560     		str	r5, [r4, #8]
 328:Drivers/STM32F4xx_HAL_Driver/Src/stm32f4xx_hal_gpio.c ****         SYSCFG->EXTICR[position >> 2U] &= ~tmp;
 705              		.loc 1 328 9 is_stmt 1 view .LVU260
 706              	.LVL62:
 329:Drivers/STM32F4xx_HAL_Driver/Src/stm32f4xx_hal_gpio.c ****       }
 707              		.loc 1 329 9 view .LVU261
 329:Drivers/STM32F4xx_HAL_Driver/Src/stm32f4xx_hal_gpio.c ****       }
 708              		.loc 1 329 23 is_stmt 0 view .LVU262
 709 0104 054E     		ldr	r6, .L50
 710              	.LVL63:
 329:Drivers/STM32F4xx_HAL_Driver/Src/stm32f4xx_hal_gpio.c ****       }
 711              		.loc 1 329 23 view .LVU263
 712 0106 0EF10204 		add	r4, lr, #2
 713 010a 56F82450 		ldr	r5, [r6, r4, lsl #2]
 329:Drivers/STM32F4xx_HAL_Driver/Src/stm32f4xx_hal_gpio.c ****       }
 714              		.loc 1 329 40 view .LVU264
 715 010e 25EA0705 		bic	r5, r5, r7
 716 0112 46F82450 		str	r5, [r6, r4, lsl #2]
 717 0116 80E7     		b	.L34
 718              	.LVL64:
 719              	.L48:
 347:Drivers/STM32F4xx_HAL_Driver/Src/stm32f4xx_hal_gpio.c ****     }
 348:Drivers/STM32F4xx_HAL_Driver/Src/stm32f4xx_hal_gpio.c ****   }
 349:Drivers/STM32F4xx_HAL_Driver/Src/stm32f4xx_hal_gpio.c **** }
 720              		.loc 1 349 1 view .LVU265
 721 0118 F0BD     		pop	{r4, r5, r6, r7, pc}
ARM GAS  C:\Users\Rick\AppData\Local\Temp\cc49JZd8.s 			page 22


 722              	.LVL65:
 723              	.L46:
 724              		.cfi_def_cfa_offset 0
 725              		.cfi_restore 4
 726              		.cfi_restore 5
 727              		.cfi_restore 6
 728              		.cfi_restore 7
 729              		.cfi_restore 14
 730              		.loc 1 349 1 view .LVU266
 731 011a 7047     		bx	lr
 732              	.L51:
 733              		.align	2
 734              	.L50:
 735 011c 00380140 		.word	1073821696
 736 0120 00000240 		.word	1073872896
 737 0124 003C0140 		.word	1073822720
 738              		.cfi_endproc
 739              	.LFE240:
 741              		.section	.text.HAL_GPIO_ReadPin,"ax",%progbits
 742              		.align	1
 743              		.global	HAL_GPIO_ReadPin
 744              		.syntax unified
 745              		.thumb
 746              		.thumb_func
 748              	HAL_GPIO_ReadPin:
 749              	.LVL66:
 750              	.LFB241:
 350:Drivers/STM32F4xx_HAL_Driver/Src/stm32f4xx_hal_gpio.c **** 
 351:Drivers/STM32F4xx_HAL_Driver/Src/stm32f4xx_hal_gpio.c **** /**
 352:Drivers/STM32F4xx_HAL_Driver/Src/stm32f4xx_hal_gpio.c ****   * @}
 353:Drivers/STM32F4xx_HAL_Driver/Src/stm32f4xx_hal_gpio.c ****   */
 354:Drivers/STM32F4xx_HAL_Driver/Src/stm32f4xx_hal_gpio.c **** 
 355:Drivers/STM32F4xx_HAL_Driver/Src/stm32f4xx_hal_gpio.c **** /** @defgroup GPIO_Exported_Functions_Group2 IO operation functions 
 356:Drivers/STM32F4xx_HAL_Driver/Src/stm32f4xx_hal_gpio.c ****   *  @brief   GPIO Read and Write
 357:Drivers/STM32F4xx_HAL_Driver/Src/stm32f4xx_hal_gpio.c ****   *
 358:Drivers/STM32F4xx_HAL_Driver/Src/stm32f4xx_hal_gpio.c **** @verbatim
 359:Drivers/STM32F4xx_HAL_Driver/Src/stm32f4xx_hal_gpio.c ****  ===============================================================================
 360:Drivers/STM32F4xx_HAL_Driver/Src/stm32f4xx_hal_gpio.c ****                        ##### IO operation functions #####
 361:Drivers/STM32F4xx_HAL_Driver/Src/stm32f4xx_hal_gpio.c ****  ===============================================================================
 362:Drivers/STM32F4xx_HAL_Driver/Src/stm32f4xx_hal_gpio.c **** 
 363:Drivers/STM32F4xx_HAL_Driver/Src/stm32f4xx_hal_gpio.c **** @endverbatim
 364:Drivers/STM32F4xx_HAL_Driver/Src/stm32f4xx_hal_gpio.c ****   * @{
 365:Drivers/STM32F4xx_HAL_Driver/Src/stm32f4xx_hal_gpio.c ****   */
 366:Drivers/STM32F4xx_HAL_Driver/Src/stm32f4xx_hal_gpio.c **** 
 367:Drivers/STM32F4xx_HAL_Driver/Src/stm32f4xx_hal_gpio.c **** /**
 368:Drivers/STM32F4xx_HAL_Driver/Src/stm32f4xx_hal_gpio.c ****   * @brief  Reads the specified input port pin.
 369:Drivers/STM32F4xx_HAL_Driver/Src/stm32f4xx_hal_gpio.c ****   * @param  GPIOx where x can be (A..K) to select the GPIO peripheral for STM32F429X device or
 370:Drivers/STM32F4xx_HAL_Driver/Src/stm32f4xx_hal_gpio.c ****   *                      x can be (A..I) to select the GPIO peripheral for STM32F40XX and STM32F427
 371:Drivers/STM32F4xx_HAL_Driver/Src/stm32f4xx_hal_gpio.c ****   * @param  GPIO_Pin specifies the port bit to read.
 372:Drivers/STM32F4xx_HAL_Driver/Src/stm32f4xx_hal_gpio.c ****   *         This parameter can be GPIO_PIN_x where x can be (0..15).
 373:Drivers/STM32F4xx_HAL_Driver/Src/stm32f4xx_hal_gpio.c ****   * @retval The input port pin value.
 374:Drivers/STM32F4xx_HAL_Driver/Src/stm32f4xx_hal_gpio.c ****   */
 375:Drivers/STM32F4xx_HAL_Driver/Src/stm32f4xx_hal_gpio.c **** GPIO_PinState HAL_GPIO_ReadPin(GPIO_TypeDef* GPIOx, uint16_t GPIO_Pin)
 376:Drivers/STM32F4xx_HAL_Driver/Src/stm32f4xx_hal_gpio.c **** {
 751              		.loc 1 376 1 is_stmt 1 view -0
 752              		.cfi_startproc
 753              		@ args = 0, pretend = 0, frame = 0
ARM GAS  C:\Users\Rick\AppData\Local\Temp\cc49JZd8.s 			page 23


 754              		@ frame_needed = 0, uses_anonymous_args = 0
 755              		@ link register save eliminated.
 377:Drivers/STM32F4xx_HAL_Driver/Src/stm32f4xx_hal_gpio.c ****   GPIO_PinState bitstatus;
 756              		.loc 1 377 3 view .LVU268
 378:Drivers/STM32F4xx_HAL_Driver/Src/stm32f4xx_hal_gpio.c **** 
 379:Drivers/STM32F4xx_HAL_Driver/Src/stm32f4xx_hal_gpio.c ****   /* Check the parameters */
 380:Drivers/STM32F4xx_HAL_Driver/Src/stm32f4xx_hal_gpio.c ****   assert_param(IS_GPIO_PIN(GPIO_Pin));
 757              		.loc 1 380 3 view .LVU269
 381:Drivers/STM32F4xx_HAL_Driver/Src/stm32f4xx_hal_gpio.c **** 
 382:Drivers/STM32F4xx_HAL_Driver/Src/stm32f4xx_hal_gpio.c ****   if((GPIOx->IDR & GPIO_Pin) != (uint32_t)GPIO_PIN_RESET)
 758              		.loc 1 382 3 view .LVU270
 759              		.loc 1 382 12 is_stmt 0 view .LVU271
 760 0000 0369     		ldr	r3, [r0, #16]
 761              		.loc 1 382 5 view .LVU272
 762 0002 1942     		tst	r1, r3
 763 0004 01D0     		beq	.L54
 383:Drivers/STM32F4xx_HAL_Driver/Src/stm32f4xx_hal_gpio.c ****   {
 384:Drivers/STM32F4xx_HAL_Driver/Src/stm32f4xx_hal_gpio.c ****     bitstatus = GPIO_PIN_SET;
 764              		.loc 1 384 15 view .LVU273
 765 0006 0120     		movs	r0, #1
 766              	.LVL67:
 767              		.loc 1 384 15 view .LVU274
 768 0008 7047     		bx	lr
 769              	.LVL68:
 770              	.L54:
 385:Drivers/STM32F4xx_HAL_Driver/Src/stm32f4xx_hal_gpio.c ****   }
 386:Drivers/STM32F4xx_HAL_Driver/Src/stm32f4xx_hal_gpio.c ****   else
 387:Drivers/STM32F4xx_HAL_Driver/Src/stm32f4xx_hal_gpio.c ****   {
 388:Drivers/STM32F4xx_HAL_Driver/Src/stm32f4xx_hal_gpio.c ****     bitstatus = GPIO_PIN_RESET;
 771              		.loc 1 388 15 view .LVU275
 772 000a 0020     		movs	r0, #0
 773              	.LVL69:
 389:Drivers/STM32F4xx_HAL_Driver/Src/stm32f4xx_hal_gpio.c ****   }
 390:Drivers/STM32F4xx_HAL_Driver/Src/stm32f4xx_hal_gpio.c ****   return bitstatus;
 774              		.loc 1 390 3 is_stmt 1 view .LVU276
 391:Drivers/STM32F4xx_HAL_Driver/Src/stm32f4xx_hal_gpio.c **** }
 775              		.loc 1 391 1 is_stmt 0 view .LVU277
 776 000c 7047     		bx	lr
 777              		.cfi_endproc
 778              	.LFE241:
 780              		.section	.text.HAL_GPIO_WritePin,"ax",%progbits
 781              		.align	1
 782              		.global	HAL_GPIO_WritePin
 783              		.syntax unified
 784              		.thumb
 785              		.thumb_func
 787              	HAL_GPIO_WritePin:
 788              	.LVL70:
 789              	.LFB242:
 392:Drivers/STM32F4xx_HAL_Driver/Src/stm32f4xx_hal_gpio.c **** 
 393:Drivers/STM32F4xx_HAL_Driver/Src/stm32f4xx_hal_gpio.c **** /**
 394:Drivers/STM32F4xx_HAL_Driver/Src/stm32f4xx_hal_gpio.c ****   * @brief  Sets or clears the selected data port bit.
 395:Drivers/STM32F4xx_HAL_Driver/Src/stm32f4xx_hal_gpio.c ****   *
 396:Drivers/STM32F4xx_HAL_Driver/Src/stm32f4xx_hal_gpio.c ****   * @note   This function uses GPIOx_BSRR register to allow atomic read/modify
 397:Drivers/STM32F4xx_HAL_Driver/Src/stm32f4xx_hal_gpio.c ****   *         accesses. In this way, there is no risk of an IRQ occurring between
 398:Drivers/STM32F4xx_HAL_Driver/Src/stm32f4xx_hal_gpio.c ****   *         the read and the modify access.
 399:Drivers/STM32F4xx_HAL_Driver/Src/stm32f4xx_hal_gpio.c ****   *
ARM GAS  C:\Users\Rick\AppData\Local\Temp\cc49JZd8.s 			page 24


 400:Drivers/STM32F4xx_HAL_Driver/Src/stm32f4xx_hal_gpio.c ****   * @param  GPIOx where x can be (A..K) to select the GPIO peripheral for STM32F429X device or
 401:Drivers/STM32F4xx_HAL_Driver/Src/stm32f4xx_hal_gpio.c ****   *                      x can be (A..I) to select the GPIO peripheral for STM32F40XX and STM32F427
 402:Drivers/STM32F4xx_HAL_Driver/Src/stm32f4xx_hal_gpio.c ****   * @param  GPIO_Pin specifies the port bit to be written.
 403:Drivers/STM32F4xx_HAL_Driver/Src/stm32f4xx_hal_gpio.c ****   *          This parameter can be one of GPIO_PIN_x where x can be (0..15).
 404:Drivers/STM32F4xx_HAL_Driver/Src/stm32f4xx_hal_gpio.c ****   * @param  PinState specifies the value to be written to the selected bit.
 405:Drivers/STM32F4xx_HAL_Driver/Src/stm32f4xx_hal_gpio.c ****   *          This parameter can be one of the GPIO_PinState enum values:
 406:Drivers/STM32F4xx_HAL_Driver/Src/stm32f4xx_hal_gpio.c ****   *            @arg GPIO_PIN_RESET: to clear the port pin
 407:Drivers/STM32F4xx_HAL_Driver/Src/stm32f4xx_hal_gpio.c ****   *            @arg GPIO_PIN_SET: to set the port pin
 408:Drivers/STM32F4xx_HAL_Driver/Src/stm32f4xx_hal_gpio.c ****   * @retval None
 409:Drivers/STM32F4xx_HAL_Driver/Src/stm32f4xx_hal_gpio.c ****   */
 410:Drivers/STM32F4xx_HAL_Driver/Src/stm32f4xx_hal_gpio.c **** void HAL_GPIO_WritePin(GPIO_TypeDef* GPIOx, uint16_t GPIO_Pin, GPIO_PinState PinState)
 411:Drivers/STM32F4xx_HAL_Driver/Src/stm32f4xx_hal_gpio.c **** {
 790              		.loc 1 411 1 is_stmt 1 view -0
 791              		.cfi_startproc
 792              		@ args = 0, pretend = 0, frame = 0
 793              		@ frame_needed = 0, uses_anonymous_args = 0
 794              		@ link register save eliminated.
 412:Drivers/STM32F4xx_HAL_Driver/Src/stm32f4xx_hal_gpio.c ****   /* Check the parameters */
 413:Drivers/STM32F4xx_HAL_Driver/Src/stm32f4xx_hal_gpio.c ****   assert_param(IS_GPIO_PIN(GPIO_Pin));
 795              		.loc 1 413 3 view .LVU279
 414:Drivers/STM32F4xx_HAL_Driver/Src/stm32f4xx_hal_gpio.c ****   assert_param(IS_GPIO_PIN_ACTION(PinState));
 796              		.loc 1 414 3 view .LVU280
 415:Drivers/STM32F4xx_HAL_Driver/Src/stm32f4xx_hal_gpio.c **** 
 416:Drivers/STM32F4xx_HAL_Driver/Src/stm32f4xx_hal_gpio.c ****   if(PinState != GPIO_PIN_RESET)
 797              		.loc 1 416 3 view .LVU281
 798              		.loc 1 416 5 is_stmt 0 view .LVU282
 799 0000 0AB1     		cbz	r2, .L56
 417:Drivers/STM32F4xx_HAL_Driver/Src/stm32f4xx_hal_gpio.c ****   {
 418:Drivers/STM32F4xx_HAL_Driver/Src/stm32f4xx_hal_gpio.c ****     GPIOx->BSRR = GPIO_Pin;
 800              		.loc 1 418 5 is_stmt 1 view .LVU283
 801              		.loc 1 418 17 is_stmt 0 view .LVU284
 802 0002 8161     		str	r1, [r0, #24]
 803 0004 7047     		bx	lr
 804              	.L56:
 419:Drivers/STM32F4xx_HAL_Driver/Src/stm32f4xx_hal_gpio.c ****   }
 420:Drivers/STM32F4xx_HAL_Driver/Src/stm32f4xx_hal_gpio.c ****   else
 421:Drivers/STM32F4xx_HAL_Driver/Src/stm32f4xx_hal_gpio.c ****   {
 422:Drivers/STM32F4xx_HAL_Driver/Src/stm32f4xx_hal_gpio.c ****     GPIOx->BSRR = (uint32_t)GPIO_Pin << 16U;
 805              		.loc 1 422 5 is_stmt 1 view .LVU285
 806              		.loc 1 422 38 is_stmt 0 view .LVU286
 807 0006 0904     		lsls	r1, r1, #16
 808              	.LVL71:
 809              		.loc 1 422 17 view .LVU287
 810 0008 8161     		str	r1, [r0, #24]
 423:Drivers/STM32F4xx_HAL_Driver/Src/stm32f4xx_hal_gpio.c ****   }
 424:Drivers/STM32F4xx_HAL_Driver/Src/stm32f4xx_hal_gpio.c **** }
 811              		.loc 1 424 1 view .LVU288
 812 000a 7047     		bx	lr
 813              		.cfi_endproc
 814              	.LFE242:
 816              		.section	.text.HAL_GPIO_TogglePin,"ax",%progbits
 817              		.align	1
 818              		.global	HAL_GPIO_TogglePin
 819              		.syntax unified
 820              		.thumb
 821              		.thumb_func
 823              	HAL_GPIO_TogglePin:
ARM GAS  C:\Users\Rick\AppData\Local\Temp\cc49JZd8.s 			page 25


 824              	.LVL72:
 825              	.LFB243:
 425:Drivers/STM32F4xx_HAL_Driver/Src/stm32f4xx_hal_gpio.c **** 
 426:Drivers/STM32F4xx_HAL_Driver/Src/stm32f4xx_hal_gpio.c **** /**
 427:Drivers/STM32F4xx_HAL_Driver/Src/stm32f4xx_hal_gpio.c ****   * @brief  Toggles the specified GPIO pins.
 428:Drivers/STM32F4xx_HAL_Driver/Src/stm32f4xx_hal_gpio.c ****   * @param  GPIOx Where x can be (A..K) to select the GPIO peripheral for STM32F429X device or
 429:Drivers/STM32F4xx_HAL_Driver/Src/stm32f4xx_hal_gpio.c ****   *                      x can be (A..I) to select the GPIO peripheral for STM32F40XX and STM32F427
 430:Drivers/STM32F4xx_HAL_Driver/Src/stm32f4xx_hal_gpio.c ****   * @param  GPIO_Pin Specifies the pins to be toggled.
 431:Drivers/STM32F4xx_HAL_Driver/Src/stm32f4xx_hal_gpio.c ****   * @retval None
 432:Drivers/STM32F4xx_HAL_Driver/Src/stm32f4xx_hal_gpio.c ****   */
 433:Drivers/STM32F4xx_HAL_Driver/Src/stm32f4xx_hal_gpio.c **** void HAL_GPIO_TogglePin(GPIO_TypeDef* GPIOx, uint16_t GPIO_Pin)
 434:Drivers/STM32F4xx_HAL_Driver/Src/stm32f4xx_hal_gpio.c **** {
 826              		.loc 1 434 1 is_stmt 1 view -0
 827              		.cfi_startproc
 828              		@ args = 0, pretend = 0, frame = 0
 829              		@ frame_needed = 0, uses_anonymous_args = 0
 830              		@ link register save eliminated.
 435:Drivers/STM32F4xx_HAL_Driver/Src/stm32f4xx_hal_gpio.c ****   uint32_t odr;
 831              		.loc 1 435 3 view .LVU290
 436:Drivers/STM32F4xx_HAL_Driver/Src/stm32f4xx_hal_gpio.c **** 
 437:Drivers/STM32F4xx_HAL_Driver/Src/stm32f4xx_hal_gpio.c ****   /* Check the parameters */
 438:Drivers/STM32F4xx_HAL_Driver/Src/stm32f4xx_hal_gpio.c ****   assert_param(IS_GPIO_PIN(GPIO_Pin));
 832              		.loc 1 438 3 view .LVU291
 439:Drivers/STM32F4xx_HAL_Driver/Src/stm32f4xx_hal_gpio.c **** 
 440:Drivers/STM32F4xx_HAL_Driver/Src/stm32f4xx_hal_gpio.c ****   /* get current Output Data Register value */
 441:Drivers/STM32F4xx_HAL_Driver/Src/stm32f4xx_hal_gpio.c ****   odr = GPIOx->ODR;
 833              		.loc 1 441 3 view .LVU292
 834              		.loc 1 441 7 is_stmt 0 view .LVU293
 835 0000 4369     		ldr	r3, [r0, #20]
 836              	.LVL73:
 442:Drivers/STM32F4xx_HAL_Driver/Src/stm32f4xx_hal_gpio.c **** 
 443:Drivers/STM32F4xx_HAL_Driver/Src/stm32f4xx_hal_gpio.c ****   /* Set selected pins that were at low level, and reset ones that were high */
 444:Drivers/STM32F4xx_HAL_Driver/Src/stm32f4xx_hal_gpio.c ****   GPIOx->BSRR = ((odr & GPIO_Pin) << GPIO_NUMBER) | (~odr & GPIO_Pin);
 837              		.loc 1 444 3 is_stmt 1 view .LVU294
 838              		.loc 1 444 23 is_stmt 0 view .LVU295
 839 0002 01EA0302 		and	r2, r1, r3
 840              		.loc 1 444 59 view .LVU296
 841 0006 21EA0301 		bic	r1, r1, r3
 842              	.LVL74:
 843              		.loc 1 444 51 view .LVU297
 844 000a 41EA0241 		orr	r1, r1, r2, lsl #16
 845              		.loc 1 444 15 view .LVU298
 846 000e 8161     		str	r1, [r0, #24]
 445:Drivers/STM32F4xx_HAL_Driver/Src/stm32f4xx_hal_gpio.c **** }
 847              		.loc 1 445 1 view .LVU299
 848 0010 7047     		bx	lr
 849              		.cfi_endproc
 850              	.LFE243:
 852              		.section	.text.HAL_GPIO_LockPin,"ax",%progbits
 853              		.align	1
 854              		.global	HAL_GPIO_LockPin
 855              		.syntax unified
 856              		.thumb
 857              		.thumb_func
 859              	HAL_GPIO_LockPin:
 860              	.LVL75:
 861              	.LFB244:
ARM GAS  C:\Users\Rick\AppData\Local\Temp\cc49JZd8.s 			page 26


 446:Drivers/STM32F4xx_HAL_Driver/Src/stm32f4xx_hal_gpio.c **** 
 447:Drivers/STM32F4xx_HAL_Driver/Src/stm32f4xx_hal_gpio.c **** /**
 448:Drivers/STM32F4xx_HAL_Driver/Src/stm32f4xx_hal_gpio.c ****   * @brief  Locks GPIO Pins configuration registers.
 449:Drivers/STM32F4xx_HAL_Driver/Src/stm32f4xx_hal_gpio.c ****   * @note   The locked registers are GPIOx_MODER, GPIOx_OTYPER, GPIOx_OSPEEDR,
 450:Drivers/STM32F4xx_HAL_Driver/Src/stm32f4xx_hal_gpio.c ****   *         GPIOx_PUPDR, GPIOx_AFRL and GPIOx_AFRH.
 451:Drivers/STM32F4xx_HAL_Driver/Src/stm32f4xx_hal_gpio.c ****   * @note   The configuration of the locked GPIO pins can no longer be modified
 452:Drivers/STM32F4xx_HAL_Driver/Src/stm32f4xx_hal_gpio.c ****   *         until the next reset.
 453:Drivers/STM32F4xx_HAL_Driver/Src/stm32f4xx_hal_gpio.c ****   * @param  GPIOx where x can be (A..F) to select the GPIO peripheral for STM32F4 family
 454:Drivers/STM32F4xx_HAL_Driver/Src/stm32f4xx_hal_gpio.c ****   * @param  GPIO_Pin specifies the port bit to be locked.
 455:Drivers/STM32F4xx_HAL_Driver/Src/stm32f4xx_hal_gpio.c ****   *         This parameter can be any combination of GPIO_PIN_x where x can be (0..15).
 456:Drivers/STM32F4xx_HAL_Driver/Src/stm32f4xx_hal_gpio.c ****   * @retval None
 457:Drivers/STM32F4xx_HAL_Driver/Src/stm32f4xx_hal_gpio.c ****   */
 458:Drivers/STM32F4xx_HAL_Driver/Src/stm32f4xx_hal_gpio.c **** HAL_StatusTypeDef HAL_GPIO_LockPin(GPIO_TypeDef* GPIOx, uint16_t GPIO_Pin)
 459:Drivers/STM32F4xx_HAL_Driver/Src/stm32f4xx_hal_gpio.c **** {
 862              		.loc 1 459 1 is_stmt 1 view -0
 863              		.cfi_startproc
 864              		@ args = 0, pretend = 0, frame = 8
 865              		@ frame_needed = 0, uses_anonymous_args = 0
 866              		@ link register save eliminated.
 867              		.loc 1 459 1 is_stmt 0 view .LVU301
 868 0000 82B0     		sub	sp, sp, #8
 869              		.cfi_def_cfa_offset 8
 460:Drivers/STM32F4xx_HAL_Driver/Src/stm32f4xx_hal_gpio.c ****   __IO uint32_t tmp = GPIO_LCKR_LCKK;
 870              		.loc 1 460 3 is_stmt 1 view .LVU302
 871              		.loc 1 460 17 is_stmt 0 view .LVU303
 872 0002 4FF48033 		mov	r3, #65536
 873 0006 0193     		str	r3, [sp, #4]
 461:Drivers/STM32F4xx_HAL_Driver/Src/stm32f4xx_hal_gpio.c **** 
 462:Drivers/STM32F4xx_HAL_Driver/Src/stm32f4xx_hal_gpio.c ****   /* Check the parameters */
 463:Drivers/STM32F4xx_HAL_Driver/Src/stm32f4xx_hal_gpio.c ****   assert_param(IS_GPIO_PIN(GPIO_Pin));
 874              		.loc 1 463 3 is_stmt 1 view .LVU304
 464:Drivers/STM32F4xx_HAL_Driver/Src/stm32f4xx_hal_gpio.c **** 
 465:Drivers/STM32F4xx_HAL_Driver/Src/stm32f4xx_hal_gpio.c ****   /* Apply lock key write sequence */
 466:Drivers/STM32F4xx_HAL_Driver/Src/stm32f4xx_hal_gpio.c ****   tmp |= GPIO_Pin;
 875              		.loc 1 466 3 view .LVU305
 876              		.loc 1 466 7 is_stmt 0 view .LVU306
 877 0008 019B     		ldr	r3, [sp, #4]
 878 000a 0B43     		orrs	r3, r3, r1
 879 000c 0193     		str	r3, [sp, #4]
 467:Drivers/STM32F4xx_HAL_Driver/Src/stm32f4xx_hal_gpio.c ****   /* Set LCKx bit(s): LCKK='1' + LCK[15-0] */
 468:Drivers/STM32F4xx_HAL_Driver/Src/stm32f4xx_hal_gpio.c ****   GPIOx->LCKR = tmp;
 880              		.loc 1 468 3 is_stmt 1 view .LVU307
 881              		.loc 1 468 15 is_stmt 0 view .LVU308
 882 000e 019B     		ldr	r3, [sp, #4]
 883 0010 C361     		str	r3, [r0, #28]
 469:Drivers/STM32F4xx_HAL_Driver/Src/stm32f4xx_hal_gpio.c ****   /* Reset LCKx bit(s): LCKK='0' + LCK[15-0] */
 470:Drivers/STM32F4xx_HAL_Driver/Src/stm32f4xx_hal_gpio.c ****   GPIOx->LCKR = GPIO_Pin;
 884              		.loc 1 470 3 is_stmt 1 view .LVU309
 885              		.loc 1 470 15 is_stmt 0 view .LVU310
 886 0012 C161     		str	r1, [r0, #28]
 471:Drivers/STM32F4xx_HAL_Driver/Src/stm32f4xx_hal_gpio.c ****   /* Set LCKx bit(s): LCKK='1' + LCK[15-0] */
 472:Drivers/STM32F4xx_HAL_Driver/Src/stm32f4xx_hal_gpio.c ****   GPIOx->LCKR = tmp;
 887              		.loc 1 472 3 is_stmt 1 view .LVU311
 888              		.loc 1 472 15 is_stmt 0 view .LVU312
 889 0014 019B     		ldr	r3, [sp, #4]
 890 0016 C361     		str	r3, [r0, #28]
 473:Drivers/STM32F4xx_HAL_Driver/Src/stm32f4xx_hal_gpio.c ****   /* Read LCKR register. This read is mandatory to complete key lock sequence */
ARM GAS  C:\Users\Rick\AppData\Local\Temp\cc49JZd8.s 			page 27


 474:Drivers/STM32F4xx_HAL_Driver/Src/stm32f4xx_hal_gpio.c ****   tmp = GPIOx->LCKR;
 891              		.loc 1 474 3 is_stmt 1 view .LVU313
 892              		.loc 1 474 14 is_stmt 0 view .LVU314
 893 0018 C369     		ldr	r3, [r0, #28]
 894              		.loc 1 474 7 view .LVU315
 895 001a 0193     		str	r3, [sp, #4]
 475:Drivers/STM32F4xx_HAL_Driver/Src/stm32f4xx_hal_gpio.c **** 
 476:Drivers/STM32F4xx_HAL_Driver/Src/stm32f4xx_hal_gpio.c ****   /* Read again in order to confirm lock is active */
 477:Drivers/STM32F4xx_HAL_Driver/Src/stm32f4xx_hal_gpio.c ****  if((GPIOx->LCKR & GPIO_LCKR_LCKK) != RESET)
 896              		.loc 1 477 2 is_stmt 1 view .LVU316
 897              		.loc 1 477 11 is_stmt 0 view .LVU317
 898 001c C369     		ldr	r3, [r0, #28]
 899              		.loc 1 477 4 view .LVU318
 900 001e 13F4803F 		tst	r3, #65536
 901 0022 02D0     		beq	.L61
 478:Drivers/STM32F4xx_HAL_Driver/Src/stm32f4xx_hal_gpio.c ****   {
 479:Drivers/STM32F4xx_HAL_Driver/Src/stm32f4xx_hal_gpio.c ****     return HAL_OK;
 902              		.loc 1 479 12 view .LVU319
 903 0024 0020     		movs	r0, #0
 904              	.LVL76:
 905              	.L60:
 480:Drivers/STM32F4xx_HAL_Driver/Src/stm32f4xx_hal_gpio.c ****   }
 481:Drivers/STM32F4xx_HAL_Driver/Src/stm32f4xx_hal_gpio.c ****   else
 482:Drivers/STM32F4xx_HAL_Driver/Src/stm32f4xx_hal_gpio.c ****   {
 483:Drivers/STM32F4xx_HAL_Driver/Src/stm32f4xx_hal_gpio.c ****     return HAL_ERROR;
 484:Drivers/STM32F4xx_HAL_Driver/Src/stm32f4xx_hal_gpio.c ****   }
 485:Drivers/STM32F4xx_HAL_Driver/Src/stm32f4xx_hal_gpio.c **** }
 906              		.loc 1 485 1 view .LVU320
 907 0026 02B0     		add	sp, sp, #8
 908              		.cfi_remember_state
 909              		.cfi_def_cfa_offset 0
 910              		@ sp needed
 911 0028 7047     		bx	lr
 912              	.LVL77:
 913              	.L61:
 914              		.cfi_restore_state
 483:Drivers/STM32F4xx_HAL_Driver/Src/stm32f4xx_hal_gpio.c ****   }
 915              		.loc 1 483 12 view .LVU321
 916 002a 0120     		movs	r0, #1
 917              	.LVL78:
 483:Drivers/STM32F4xx_HAL_Driver/Src/stm32f4xx_hal_gpio.c ****   }
 918              		.loc 1 483 12 view .LVU322
 919 002c FBE7     		b	.L60
 920              		.cfi_endproc
 921              	.LFE244:
 923              		.section	.text.HAL_GPIO_EXTI_Callback,"ax",%progbits
 924              		.align	1
 925              		.weak	HAL_GPIO_EXTI_Callback
 926              		.syntax unified
 927              		.thumb
 928              		.thumb_func
 930              	HAL_GPIO_EXTI_Callback:
 931              	.LVL79:
 932              	.LFB246:
 486:Drivers/STM32F4xx_HAL_Driver/Src/stm32f4xx_hal_gpio.c **** 
 487:Drivers/STM32F4xx_HAL_Driver/Src/stm32f4xx_hal_gpio.c **** /**
 488:Drivers/STM32F4xx_HAL_Driver/Src/stm32f4xx_hal_gpio.c ****   * @brief  This function handles EXTI interrupt request.
ARM GAS  C:\Users\Rick\AppData\Local\Temp\cc49JZd8.s 			page 28


 489:Drivers/STM32F4xx_HAL_Driver/Src/stm32f4xx_hal_gpio.c ****   * @param  GPIO_Pin Specifies the pins connected EXTI line
 490:Drivers/STM32F4xx_HAL_Driver/Src/stm32f4xx_hal_gpio.c ****   * @retval None
 491:Drivers/STM32F4xx_HAL_Driver/Src/stm32f4xx_hal_gpio.c ****   */
 492:Drivers/STM32F4xx_HAL_Driver/Src/stm32f4xx_hal_gpio.c **** void HAL_GPIO_EXTI_IRQHandler(uint16_t GPIO_Pin)
 493:Drivers/STM32F4xx_HAL_Driver/Src/stm32f4xx_hal_gpio.c **** {
 494:Drivers/STM32F4xx_HAL_Driver/Src/stm32f4xx_hal_gpio.c ****   /* EXTI line interrupt detected */
 495:Drivers/STM32F4xx_HAL_Driver/Src/stm32f4xx_hal_gpio.c ****   if(__HAL_GPIO_EXTI_GET_IT(GPIO_Pin) != RESET)
 496:Drivers/STM32F4xx_HAL_Driver/Src/stm32f4xx_hal_gpio.c ****   {
 497:Drivers/STM32F4xx_HAL_Driver/Src/stm32f4xx_hal_gpio.c ****     __HAL_GPIO_EXTI_CLEAR_IT(GPIO_Pin);
 498:Drivers/STM32F4xx_HAL_Driver/Src/stm32f4xx_hal_gpio.c ****     HAL_GPIO_EXTI_Callback(GPIO_Pin);
 499:Drivers/STM32F4xx_HAL_Driver/Src/stm32f4xx_hal_gpio.c ****   }
 500:Drivers/STM32F4xx_HAL_Driver/Src/stm32f4xx_hal_gpio.c **** }
 501:Drivers/STM32F4xx_HAL_Driver/Src/stm32f4xx_hal_gpio.c **** 
 502:Drivers/STM32F4xx_HAL_Driver/Src/stm32f4xx_hal_gpio.c **** /**
 503:Drivers/STM32F4xx_HAL_Driver/Src/stm32f4xx_hal_gpio.c ****   * @brief  EXTI line detection callbacks.
 504:Drivers/STM32F4xx_HAL_Driver/Src/stm32f4xx_hal_gpio.c ****   * @param  GPIO_Pin Specifies the pins connected EXTI line
 505:Drivers/STM32F4xx_HAL_Driver/Src/stm32f4xx_hal_gpio.c ****   * @retval None
 506:Drivers/STM32F4xx_HAL_Driver/Src/stm32f4xx_hal_gpio.c ****   */
 507:Drivers/STM32F4xx_HAL_Driver/Src/stm32f4xx_hal_gpio.c **** __weak void HAL_GPIO_EXTI_Callback(uint16_t GPIO_Pin)
 508:Drivers/STM32F4xx_HAL_Driver/Src/stm32f4xx_hal_gpio.c **** {
 933              		.loc 1 508 1 is_stmt 1 view -0
 934              		.cfi_startproc
 935              		@ args = 0, pretend = 0, frame = 0
 936              		@ frame_needed = 0, uses_anonymous_args = 0
 937              		@ link register save eliminated.
 509:Drivers/STM32F4xx_HAL_Driver/Src/stm32f4xx_hal_gpio.c ****   /* Prevent unused argument(s) compilation warning */
 510:Drivers/STM32F4xx_HAL_Driver/Src/stm32f4xx_hal_gpio.c ****   UNUSED(GPIO_Pin);
 938              		.loc 1 510 3 view .LVU324
 511:Drivers/STM32F4xx_HAL_Driver/Src/stm32f4xx_hal_gpio.c ****   /* NOTE: This function Should not be modified, when the callback is needed,
 512:Drivers/STM32F4xx_HAL_Driver/Src/stm32f4xx_hal_gpio.c ****            the HAL_GPIO_EXTI_Callback could be implemented in the user file
 513:Drivers/STM32F4xx_HAL_Driver/Src/stm32f4xx_hal_gpio.c ****    */
 514:Drivers/STM32F4xx_HAL_Driver/Src/stm32f4xx_hal_gpio.c **** }
 939              		.loc 1 514 1 is_stmt 0 view .LVU325
 940 0000 7047     		bx	lr
 941              		.cfi_endproc
 942              	.LFE246:
 944              		.section	.text.HAL_GPIO_EXTI_IRQHandler,"ax",%progbits
 945              		.align	1
 946              		.global	HAL_GPIO_EXTI_IRQHandler
 947              		.syntax unified
 948              		.thumb
 949              		.thumb_func
 951              	HAL_GPIO_EXTI_IRQHandler:
 952              	.LVL80:
 953              	.LFB245:
 493:Drivers/STM32F4xx_HAL_Driver/Src/stm32f4xx_hal_gpio.c ****   /* EXTI line interrupt detected */
 954              		.loc 1 493 1 is_stmt 1 view -0
 955              		.cfi_startproc
 956              		@ args = 0, pretend = 0, frame = 0
 957              		@ frame_needed = 0, uses_anonymous_args = 0
 493:Drivers/STM32F4xx_HAL_Driver/Src/stm32f4xx_hal_gpio.c ****   /* EXTI line interrupt detected */
 958              		.loc 1 493 1 is_stmt 0 view .LVU327
 959 0000 08B5     		push	{r3, lr}
 960              		.cfi_def_cfa_offset 8
 961              		.cfi_offset 3, -8
 962              		.cfi_offset 14, -4
 495:Drivers/STM32F4xx_HAL_Driver/Src/stm32f4xx_hal_gpio.c ****   {
ARM GAS  C:\Users\Rick\AppData\Local\Temp\cc49JZd8.s 			page 29


 963              		.loc 1 495 3 is_stmt 1 view .LVU328
 495:Drivers/STM32F4xx_HAL_Driver/Src/stm32f4xx_hal_gpio.c ****   {
 964              		.loc 1 495 6 is_stmt 0 view .LVU329
 965 0002 054B     		ldr	r3, .L68
 966 0004 5B69     		ldr	r3, [r3, #20]
 495:Drivers/STM32F4xx_HAL_Driver/Src/stm32f4xx_hal_gpio.c ****   {
 967              		.loc 1 495 5 view .LVU330
 968 0006 0342     		tst	r3, r0
 969 0008 00D1     		bne	.L67
 970              	.LVL81:
 971              	.L64:
 500:Drivers/STM32F4xx_HAL_Driver/Src/stm32f4xx_hal_gpio.c **** 
 972              		.loc 1 500 1 view .LVU331
 973 000a 08BD     		pop	{r3, pc}
 974              	.LVL82:
 975              	.L67:
 497:Drivers/STM32F4xx_HAL_Driver/Src/stm32f4xx_hal_gpio.c ****     HAL_GPIO_EXTI_Callback(GPIO_Pin);
 976              		.loc 1 497 5 is_stmt 1 view .LVU332
 977 000c 024B     		ldr	r3, .L68
 978 000e 5861     		str	r0, [r3, #20]
 498:Drivers/STM32F4xx_HAL_Driver/Src/stm32f4xx_hal_gpio.c ****   }
 979              		.loc 1 498 5 view .LVU333
 980 0010 FFF7FEFF 		bl	HAL_GPIO_EXTI_Callback
 981              	.LVL83:
 500:Drivers/STM32F4xx_HAL_Driver/Src/stm32f4xx_hal_gpio.c **** 
 982              		.loc 1 500 1 is_stmt 0 view .LVU334
 983 0014 F9E7     		b	.L64
 984              	.L69:
 985 0016 00BF     		.align	2
 986              	.L68:
 987 0018 003C0140 		.word	1073822720
 988              		.cfi_endproc
 989              	.LFE245:
 991              		.text
 992              	.Letext0:
 993              		.file 2 "C:/Users/Rick/AppData/Roaming/Code/User/globalStorage/bmd.stm32-for-vscode/@xpack-dev-too
 994              		.file 3 "C:/Users/Rick/AppData/Roaming/Code/User/globalStorage/bmd.stm32-for-vscode/@xpack-dev-too
 995              		.file 4 "Drivers/CMSIS/Device/ST/STM32F4xx/Include/stm32f446xx.h"
 996              		.file 5 "Drivers/CMSIS/Device/ST/STM32F4xx/Include/stm32f4xx.h"
 997              		.file 6 "Drivers/STM32F4xx_HAL_Driver/Inc/stm32f4xx_hal_def.h"
 998              		.file 7 "Drivers/STM32F4xx_HAL_Driver/Inc/stm32f4xx_hal_gpio.h"
ARM GAS  C:\Users\Rick\AppData\Local\Temp\cc49JZd8.s 			page 30

