ARM GAS  C:\Users\Rick\AppData\Local\Temp\cck9vz6U.s 			page 1


   1              		.cpu cortex-m4
   2              		.arch armv7e-m
   3              		.fpu fpv4-sp-d16
   4              		.eabi_attribute 27, 1
   5              		.eabi_attribute 28, 1
   6              		.eabi_attribute 20, 1
   7              		.eabi_attribute 21, 1
   8              		.eabi_attribute 23, 3
   9              		.eabi_attribute 24, 1
  10              		.eabi_attribute 25, 1
  11              		.eabi_attribute 26, 1
  12              		.eabi_attribute 30, 1
  13              		.eabi_attribute 34, 1
  14              		.eabi_attribute 18, 4
  15              		.file	"stm32f4xx_hal_can.c"
  16              		.text
  17              	.Ltext0:
  18              		.cfi_sections	.debug_frame
  19              		.file 1 "Drivers/STM32F4xx_HAL_Driver/Src/stm32f4xx_hal_can.c"
  20              		.section	.text.HAL_CAN_MspInit,"ax",%progbits
  21              		.align	1
  22              		.weak	HAL_CAN_MspInit
  23              		.syntax unified
  24              		.thumb
  25              		.thumb_func
  27              	HAL_CAN_MspInit:
  28              	.LVL0:
  29              	.LFB241:
   1:Drivers/STM32F4xx_HAL_Driver/Src/stm32f4xx_hal_can.c **** /**
   2:Drivers/STM32F4xx_HAL_Driver/Src/stm32f4xx_hal_can.c ****   ******************************************************************************
   3:Drivers/STM32F4xx_HAL_Driver/Src/stm32f4xx_hal_can.c ****   * @file    stm32f4xx_hal_can.c
   4:Drivers/STM32F4xx_HAL_Driver/Src/stm32f4xx_hal_can.c ****   * @author  MCD Application Team
   5:Drivers/STM32F4xx_HAL_Driver/Src/stm32f4xx_hal_can.c ****   * @brief   CAN HAL module driver.
   6:Drivers/STM32F4xx_HAL_Driver/Src/stm32f4xx_hal_can.c ****   *          This file provides firmware functions to manage the following
   7:Drivers/STM32F4xx_HAL_Driver/Src/stm32f4xx_hal_can.c ****   *          functionalities of the Controller Area Network (CAN) peripheral:
   8:Drivers/STM32F4xx_HAL_Driver/Src/stm32f4xx_hal_can.c ****   *           + Initialization and de-initialization functions
   9:Drivers/STM32F4xx_HAL_Driver/Src/stm32f4xx_hal_can.c ****   *           + Configuration functions
  10:Drivers/STM32F4xx_HAL_Driver/Src/stm32f4xx_hal_can.c ****   *           + Control functions
  11:Drivers/STM32F4xx_HAL_Driver/Src/stm32f4xx_hal_can.c ****   *           + Interrupts management
  12:Drivers/STM32F4xx_HAL_Driver/Src/stm32f4xx_hal_can.c ****   *           + Callbacks functions
  13:Drivers/STM32F4xx_HAL_Driver/Src/stm32f4xx_hal_can.c ****   *           + Peripheral State and Error functions
  14:Drivers/STM32F4xx_HAL_Driver/Src/stm32f4xx_hal_can.c ****   *
  15:Drivers/STM32F4xx_HAL_Driver/Src/stm32f4xx_hal_can.c ****   ******************************************************************************
  16:Drivers/STM32F4xx_HAL_Driver/Src/stm32f4xx_hal_can.c ****   * @attention
  17:Drivers/STM32F4xx_HAL_Driver/Src/stm32f4xx_hal_can.c ****   *
  18:Drivers/STM32F4xx_HAL_Driver/Src/stm32f4xx_hal_can.c ****   * Copyright (c) 2016 STMicroelectronics.
  19:Drivers/STM32F4xx_HAL_Driver/Src/stm32f4xx_hal_can.c ****   * All rights reserved.
  20:Drivers/STM32F4xx_HAL_Driver/Src/stm32f4xx_hal_can.c ****   *
  21:Drivers/STM32F4xx_HAL_Driver/Src/stm32f4xx_hal_can.c ****   * This software is licensed under terms that can be found in the LICENSE file
  22:Drivers/STM32F4xx_HAL_Driver/Src/stm32f4xx_hal_can.c ****   * in the root directory of this software component.
  23:Drivers/STM32F4xx_HAL_Driver/Src/stm32f4xx_hal_can.c ****   * If no LICENSE file comes with this software, it is provided AS-IS.
  24:Drivers/STM32F4xx_HAL_Driver/Src/stm32f4xx_hal_can.c ****   *
  25:Drivers/STM32F4xx_HAL_Driver/Src/stm32f4xx_hal_can.c ****   ******************************************************************************
  26:Drivers/STM32F4xx_HAL_Driver/Src/stm32f4xx_hal_can.c ****   @verbatim
  27:Drivers/STM32F4xx_HAL_Driver/Src/stm32f4xx_hal_can.c ****   ==============================================================================
  28:Drivers/STM32F4xx_HAL_Driver/Src/stm32f4xx_hal_can.c ****                         ##### How to use this driver #####
  29:Drivers/STM32F4xx_HAL_Driver/Src/stm32f4xx_hal_can.c ****   ==============================================================================
ARM GAS  C:\Users\Rick\AppData\Local\Temp\cck9vz6U.s 			page 2


  30:Drivers/STM32F4xx_HAL_Driver/Src/stm32f4xx_hal_can.c ****     [..]
  31:Drivers/STM32F4xx_HAL_Driver/Src/stm32f4xx_hal_can.c ****       (#) Initialize the CAN low level resources by implementing the
  32:Drivers/STM32F4xx_HAL_Driver/Src/stm32f4xx_hal_can.c ****           HAL_CAN_MspInit():
  33:Drivers/STM32F4xx_HAL_Driver/Src/stm32f4xx_hal_can.c ****          (++) Enable the CAN interface clock using __HAL_RCC_CANx_CLK_ENABLE()
  34:Drivers/STM32F4xx_HAL_Driver/Src/stm32f4xx_hal_can.c ****          (++) Configure CAN pins
  35:Drivers/STM32F4xx_HAL_Driver/Src/stm32f4xx_hal_can.c ****              (+++) Enable the clock for the CAN GPIOs
  36:Drivers/STM32F4xx_HAL_Driver/Src/stm32f4xx_hal_can.c ****              (+++) Configure CAN pins as alternate function
  37:Drivers/STM32F4xx_HAL_Driver/Src/stm32f4xx_hal_can.c ****          (++) In case of using interrupts (e.g. HAL_CAN_ActivateNotification())
  38:Drivers/STM32F4xx_HAL_Driver/Src/stm32f4xx_hal_can.c ****              (+++) Configure the CAN interrupt priority using
  39:Drivers/STM32F4xx_HAL_Driver/Src/stm32f4xx_hal_can.c ****                    HAL_NVIC_SetPriority()
  40:Drivers/STM32F4xx_HAL_Driver/Src/stm32f4xx_hal_can.c ****              (+++) Enable the CAN IRQ handler using HAL_NVIC_EnableIRQ()
  41:Drivers/STM32F4xx_HAL_Driver/Src/stm32f4xx_hal_can.c ****              (+++) In CAN IRQ handler, call HAL_CAN_IRQHandler()
  42:Drivers/STM32F4xx_HAL_Driver/Src/stm32f4xx_hal_can.c **** 
  43:Drivers/STM32F4xx_HAL_Driver/Src/stm32f4xx_hal_can.c ****       (#) Initialize the CAN peripheral using HAL_CAN_Init() function. This
  44:Drivers/STM32F4xx_HAL_Driver/Src/stm32f4xx_hal_can.c ****           function resorts to HAL_CAN_MspInit() for low-level initialization.
  45:Drivers/STM32F4xx_HAL_Driver/Src/stm32f4xx_hal_can.c **** 
  46:Drivers/STM32F4xx_HAL_Driver/Src/stm32f4xx_hal_can.c ****       (#) Configure the reception filters using the following configuration
  47:Drivers/STM32F4xx_HAL_Driver/Src/stm32f4xx_hal_can.c ****           functions:
  48:Drivers/STM32F4xx_HAL_Driver/Src/stm32f4xx_hal_can.c ****             (++) HAL_CAN_ConfigFilter()
  49:Drivers/STM32F4xx_HAL_Driver/Src/stm32f4xx_hal_can.c **** 
  50:Drivers/STM32F4xx_HAL_Driver/Src/stm32f4xx_hal_can.c ****       (#) Start the CAN module using HAL_CAN_Start() function. At this level
  51:Drivers/STM32F4xx_HAL_Driver/Src/stm32f4xx_hal_can.c ****           the node is active on the bus: it receive messages, and can send
  52:Drivers/STM32F4xx_HAL_Driver/Src/stm32f4xx_hal_can.c ****           messages.
  53:Drivers/STM32F4xx_HAL_Driver/Src/stm32f4xx_hal_can.c **** 
  54:Drivers/STM32F4xx_HAL_Driver/Src/stm32f4xx_hal_can.c ****       (#) To manage messages transmission, the following Tx control functions
  55:Drivers/STM32F4xx_HAL_Driver/Src/stm32f4xx_hal_can.c ****           can be used:
  56:Drivers/STM32F4xx_HAL_Driver/Src/stm32f4xx_hal_can.c ****             (++) HAL_CAN_AddTxMessage() to request transmission of a new
  57:Drivers/STM32F4xx_HAL_Driver/Src/stm32f4xx_hal_can.c ****                  message.
  58:Drivers/STM32F4xx_HAL_Driver/Src/stm32f4xx_hal_can.c ****             (++) HAL_CAN_AbortTxRequest() to abort transmission of a pending
  59:Drivers/STM32F4xx_HAL_Driver/Src/stm32f4xx_hal_can.c ****                  message.
  60:Drivers/STM32F4xx_HAL_Driver/Src/stm32f4xx_hal_can.c ****             (++) HAL_CAN_GetTxMailboxesFreeLevel() to get the number of free Tx
  61:Drivers/STM32F4xx_HAL_Driver/Src/stm32f4xx_hal_can.c ****                  mailboxes.
  62:Drivers/STM32F4xx_HAL_Driver/Src/stm32f4xx_hal_can.c ****             (++) HAL_CAN_IsTxMessagePending() to check if a message is pending
  63:Drivers/STM32F4xx_HAL_Driver/Src/stm32f4xx_hal_can.c ****                  in a Tx mailbox.
  64:Drivers/STM32F4xx_HAL_Driver/Src/stm32f4xx_hal_can.c ****             (++) HAL_CAN_GetTxTimestamp() to get the timestamp of Tx message
  65:Drivers/STM32F4xx_HAL_Driver/Src/stm32f4xx_hal_can.c ****                  sent, if time triggered communication mode is enabled.
  66:Drivers/STM32F4xx_HAL_Driver/Src/stm32f4xx_hal_can.c **** 
  67:Drivers/STM32F4xx_HAL_Driver/Src/stm32f4xx_hal_can.c ****       (#) When a message is received into the CAN Rx FIFOs, it can be retrieved
  68:Drivers/STM32F4xx_HAL_Driver/Src/stm32f4xx_hal_can.c ****           using the HAL_CAN_GetRxMessage() function. The function
  69:Drivers/STM32F4xx_HAL_Driver/Src/stm32f4xx_hal_can.c ****           HAL_CAN_GetRxFifoFillLevel() allows to know how many Rx message are
  70:Drivers/STM32F4xx_HAL_Driver/Src/stm32f4xx_hal_can.c ****           stored in the Rx Fifo.
  71:Drivers/STM32F4xx_HAL_Driver/Src/stm32f4xx_hal_can.c **** 
  72:Drivers/STM32F4xx_HAL_Driver/Src/stm32f4xx_hal_can.c ****       (#) Calling the HAL_CAN_Stop() function stops the CAN module.
  73:Drivers/STM32F4xx_HAL_Driver/Src/stm32f4xx_hal_can.c **** 
  74:Drivers/STM32F4xx_HAL_Driver/Src/stm32f4xx_hal_can.c ****       (#) The deinitialization is achieved with HAL_CAN_DeInit() function.
  75:Drivers/STM32F4xx_HAL_Driver/Src/stm32f4xx_hal_can.c **** 
  76:Drivers/STM32F4xx_HAL_Driver/Src/stm32f4xx_hal_can.c **** 
  77:Drivers/STM32F4xx_HAL_Driver/Src/stm32f4xx_hal_can.c ****       *** Polling mode operation ***
  78:Drivers/STM32F4xx_HAL_Driver/Src/stm32f4xx_hal_can.c ****       ==============================
  79:Drivers/STM32F4xx_HAL_Driver/Src/stm32f4xx_hal_can.c ****     [..]
  80:Drivers/STM32F4xx_HAL_Driver/Src/stm32f4xx_hal_can.c ****       (#) Reception:
  81:Drivers/STM32F4xx_HAL_Driver/Src/stm32f4xx_hal_can.c ****             (++) Monitor reception of message using HAL_CAN_GetRxFifoFillLevel()
  82:Drivers/STM32F4xx_HAL_Driver/Src/stm32f4xx_hal_can.c ****                  until at least one message is received.
  83:Drivers/STM32F4xx_HAL_Driver/Src/stm32f4xx_hal_can.c ****             (++) Then get the message using HAL_CAN_GetRxMessage().
  84:Drivers/STM32F4xx_HAL_Driver/Src/stm32f4xx_hal_can.c **** 
  85:Drivers/STM32F4xx_HAL_Driver/Src/stm32f4xx_hal_can.c ****       (#) Transmission:
  86:Drivers/STM32F4xx_HAL_Driver/Src/stm32f4xx_hal_can.c ****             (++) Monitor the Tx mailboxes availability until at least one Tx
ARM GAS  C:\Users\Rick\AppData\Local\Temp\cck9vz6U.s 			page 3


  87:Drivers/STM32F4xx_HAL_Driver/Src/stm32f4xx_hal_can.c ****                  mailbox is free, using HAL_CAN_GetTxMailboxesFreeLevel().
  88:Drivers/STM32F4xx_HAL_Driver/Src/stm32f4xx_hal_can.c ****             (++) Then request transmission of a message using
  89:Drivers/STM32F4xx_HAL_Driver/Src/stm32f4xx_hal_can.c ****                  HAL_CAN_AddTxMessage().
  90:Drivers/STM32F4xx_HAL_Driver/Src/stm32f4xx_hal_can.c **** 
  91:Drivers/STM32F4xx_HAL_Driver/Src/stm32f4xx_hal_can.c **** 
  92:Drivers/STM32F4xx_HAL_Driver/Src/stm32f4xx_hal_can.c ****       *** Interrupt mode operation ***
  93:Drivers/STM32F4xx_HAL_Driver/Src/stm32f4xx_hal_can.c ****       ================================
  94:Drivers/STM32F4xx_HAL_Driver/Src/stm32f4xx_hal_can.c ****     [..]
  95:Drivers/STM32F4xx_HAL_Driver/Src/stm32f4xx_hal_can.c ****       (#) Notifications are activated using HAL_CAN_ActivateNotification()
  96:Drivers/STM32F4xx_HAL_Driver/Src/stm32f4xx_hal_can.c ****           function. Then, the process can be controlled through the
  97:Drivers/STM32F4xx_HAL_Driver/Src/stm32f4xx_hal_can.c ****           available user callbacks: HAL_CAN_xxxCallback(), using same APIs
  98:Drivers/STM32F4xx_HAL_Driver/Src/stm32f4xx_hal_can.c ****           HAL_CAN_GetRxMessage() and HAL_CAN_AddTxMessage().
  99:Drivers/STM32F4xx_HAL_Driver/Src/stm32f4xx_hal_can.c **** 
 100:Drivers/STM32F4xx_HAL_Driver/Src/stm32f4xx_hal_can.c ****       (#) Notifications can be deactivated using
 101:Drivers/STM32F4xx_HAL_Driver/Src/stm32f4xx_hal_can.c ****           HAL_CAN_DeactivateNotification() function.
 102:Drivers/STM32F4xx_HAL_Driver/Src/stm32f4xx_hal_can.c **** 
 103:Drivers/STM32F4xx_HAL_Driver/Src/stm32f4xx_hal_can.c ****       (#) Special care should be taken for CAN_IT_RX_FIFO0_MSG_PENDING and
 104:Drivers/STM32F4xx_HAL_Driver/Src/stm32f4xx_hal_can.c ****           CAN_IT_RX_FIFO1_MSG_PENDING notifications. These notifications trig
 105:Drivers/STM32F4xx_HAL_Driver/Src/stm32f4xx_hal_can.c ****           the callbacks HAL_CAN_RxFIFO0MsgPendingCallback() and
 106:Drivers/STM32F4xx_HAL_Driver/Src/stm32f4xx_hal_can.c ****           HAL_CAN_RxFIFO1MsgPendingCallback(). User has two possible options
 107:Drivers/STM32F4xx_HAL_Driver/Src/stm32f4xx_hal_can.c ****           here.
 108:Drivers/STM32F4xx_HAL_Driver/Src/stm32f4xx_hal_can.c ****             (++) Directly get the Rx message in the callback, using
 109:Drivers/STM32F4xx_HAL_Driver/Src/stm32f4xx_hal_can.c ****                  HAL_CAN_GetRxMessage().
 110:Drivers/STM32F4xx_HAL_Driver/Src/stm32f4xx_hal_can.c ****             (++) Or deactivate the notification in the callback without
 111:Drivers/STM32F4xx_HAL_Driver/Src/stm32f4xx_hal_can.c ****                  getting the Rx message. The Rx message can then be got later
 112:Drivers/STM32F4xx_HAL_Driver/Src/stm32f4xx_hal_can.c ****                  using HAL_CAN_GetRxMessage(). Once the Rx message have been
 113:Drivers/STM32F4xx_HAL_Driver/Src/stm32f4xx_hal_can.c ****                  read, the notification can be activated again.
 114:Drivers/STM32F4xx_HAL_Driver/Src/stm32f4xx_hal_can.c **** 
 115:Drivers/STM32F4xx_HAL_Driver/Src/stm32f4xx_hal_can.c **** 
 116:Drivers/STM32F4xx_HAL_Driver/Src/stm32f4xx_hal_can.c ****       *** Sleep mode ***
 117:Drivers/STM32F4xx_HAL_Driver/Src/stm32f4xx_hal_can.c ****       ==================
 118:Drivers/STM32F4xx_HAL_Driver/Src/stm32f4xx_hal_can.c ****     [..]
 119:Drivers/STM32F4xx_HAL_Driver/Src/stm32f4xx_hal_can.c ****       (#) The CAN peripheral can be put in sleep mode (low power), using
 120:Drivers/STM32F4xx_HAL_Driver/Src/stm32f4xx_hal_can.c ****           HAL_CAN_RequestSleep(). The sleep mode will be entered as soon as the
 121:Drivers/STM32F4xx_HAL_Driver/Src/stm32f4xx_hal_can.c ****           current CAN activity (transmission or reception of a CAN frame) will
 122:Drivers/STM32F4xx_HAL_Driver/Src/stm32f4xx_hal_can.c ****           be completed.
 123:Drivers/STM32F4xx_HAL_Driver/Src/stm32f4xx_hal_can.c **** 
 124:Drivers/STM32F4xx_HAL_Driver/Src/stm32f4xx_hal_can.c ****       (#) A notification can be activated to be informed when the sleep mode
 125:Drivers/STM32F4xx_HAL_Driver/Src/stm32f4xx_hal_can.c ****           will be entered.
 126:Drivers/STM32F4xx_HAL_Driver/Src/stm32f4xx_hal_can.c **** 
 127:Drivers/STM32F4xx_HAL_Driver/Src/stm32f4xx_hal_can.c ****       (#) It can be checked if the sleep mode is entered using
 128:Drivers/STM32F4xx_HAL_Driver/Src/stm32f4xx_hal_can.c ****           HAL_CAN_IsSleepActive().
 129:Drivers/STM32F4xx_HAL_Driver/Src/stm32f4xx_hal_can.c ****           Note that the CAN state (accessible from the API HAL_CAN_GetState())
 130:Drivers/STM32F4xx_HAL_Driver/Src/stm32f4xx_hal_can.c ****           is HAL_CAN_STATE_SLEEP_PENDING as soon as the sleep mode request is
 131:Drivers/STM32F4xx_HAL_Driver/Src/stm32f4xx_hal_can.c ****           submitted (the sleep mode is not yet entered), and become
 132:Drivers/STM32F4xx_HAL_Driver/Src/stm32f4xx_hal_can.c ****           HAL_CAN_STATE_SLEEP_ACTIVE when the sleep mode is effective.
 133:Drivers/STM32F4xx_HAL_Driver/Src/stm32f4xx_hal_can.c **** 
 134:Drivers/STM32F4xx_HAL_Driver/Src/stm32f4xx_hal_can.c ****       (#) The wake-up from sleep mode can be triggered by two ways:
 135:Drivers/STM32F4xx_HAL_Driver/Src/stm32f4xx_hal_can.c ****             (++) Using HAL_CAN_WakeUp(). When returning from this function,
 136:Drivers/STM32F4xx_HAL_Driver/Src/stm32f4xx_hal_can.c ****                  the sleep mode is exited (if return status is HAL_OK).
 137:Drivers/STM32F4xx_HAL_Driver/Src/stm32f4xx_hal_can.c ****             (++) When a start of Rx CAN frame is detected by the CAN peripheral,
 138:Drivers/STM32F4xx_HAL_Driver/Src/stm32f4xx_hal_can.c ****                  if automatic wake up mode is enabled.
 139:Drivers/STM32F4xx_HAL_Driver/Src/stm32f4xx_hal_can.c **** 
 140:Drivers/STM32F4xx_HAL_Driver/Src/stm32f4xx_hal_can.c ****   *** Callback registration ***
 141:Drivers/STM32F4xx_HAL_Driver/Src/stm32f4xx_hal_can.c ****   =============================================
 142:Drivers/STM32F4xx_HAL_Driver/Src/stm32f4xx_hal_can.c **** 
 143:Drivers/STM32F4xx_HAL_Driver/Src/stm32f4xx_hal_can.c ****   The compilation define  USE_HAL_CAN_REGISTER_CALLBACKS when set to 1
ARM GAS  C:\Users\Rick\AppData\Local\Temp\cck9vz6U.s 			page 4


 144:Drivers/STM32F4xx_HAL_Driver/Src/stm32f4xx_hal_can.c ****   allows the user to configure dynamically the driver callbacks.
 145:Drivers/STM32F4xx_HAL_Driver/Src/stm32f4xx_hal_can.c ****   Use Function HAL_CAN_RegisterCallback() to register an interrupt callback.
 146:Drivers/STM32F4xx_HAL_Driver/Src/stm32f4xx_hal_can.c **** 
 147:Drivers/STM32F4xx_HAL_Driver/Src/stm32f4xx_hal_can.c ****   Function HAL_CAN_RegisterCallback() allows to register following callbacks:
 148:Drivers/STM32F4xx_HAL_Driver/Src/stm32f4xx_hal_can.c ****     (+) TxMailbox0CompleteCallback   : Tx Mailbox 0 Complete Callback.
 149:Drivers/STM32F4xx_HAL_Driver/Src/stm32f4xx_hal_can.c ****     (+) TxMailbox1CompleteCallback   : Tx Mailbox 1 Complete Callback.
 150:Drivers/STM32F4xx_HAL_Driver/Src/stm32f4xx_hal_can.c ****     (+) TxMailbox2CompleteCallback   : Tx Mailbox 2 Complete Callback.
 151:Drivers/STM32F4xx_HAL_Driver/Src/stm32f4xx_hal_can.c ****     (+) TxMailbox0AbortCallback      : Tx Mailbox 0 Abort Callback.
 152:Drivers/STM32F4xx_HAL_Driver/Src/stm32f4xx_hal_can.c ****     (+) TxMailbox1AbortCallback      : Tx Mailbox 1 Abort Callback.
 153:Drivers/STM32F4xx_HAL_Driver/Src/stm32f4xx_hal_can.c ****     (+) TxMailbox2AbortCallback      : Tx Mailbox 2 Abort Callback.
 154:Drivers/STM32F4xx_HAL_Driver/Src/stm32f4xx_hal_can.c ****     (+) RxFifo0MsgPendingCallback    : Rx Fifo 0 Message Pending Callback.
 155:Drivers/STM32F4xx_HAL_Driver/Src/stm32f4xx_hal_can.c ****     (+) RxFifo0FullCallback          : Rx Fifo 0 Full Callback.
 156:Drivers/STM32F4xx_HAL_Driver/Src/stm32f4xx_hal_can.c ****     (+) RxFifo1MsgPendingCallback    : Rx Fifo 1 Message Pending Callback.
 157:Drivers/STM32F4xx_HAL_Driver/Src/stm32f4xx_hal_can.c ****     (+) RxFifo1FullCallback          : Rx Fifo 1 Full Callback.
 158:Drivers/STM32F4xx_HAL_Driver/Src/stm32f4xx_hal_can.c ****     (+) SleepCallback                : Sleep Callback.
 159:Drivers/STM32F4xx_HAL_Driver/Src/stm32f4xx_hal_can.c ****     (+) WakeUpFromRxMsgCallback      : Wake Up From Rx Message Callback.
 160:Drivers/STM32F4xx_HAL_Driver/Src/stm32f4xx_hal_can.c ****     (+) ErrorCallback                : Error Callback.
 161:Drivers/STM32F4xx_HAL_Driver/Src/stm32f4xx_hal_can.c ****     (+) MspInitCallback              : CAN MspInit.
 162:Drivers/STM32F4xx_HAL_Driver/Src/stm32f4xx_hal_can.c ****     (+) MspDeInitCallback            : CAN MspDeInit.
 163:Drivers/STM32F4xx_HAL_Driver/Src/stm32f4xx_hal_can.c ****   This function takes as parameters the HAL peripheral handle, the Callback ID
 164:Drivers/STM32F4xx_HAL_Driver/Src/stm32f4xx_hal_can.c ****   and a pointer to the user callback function.
 165:Drivers/STM32F4xx_HAL_Driver/Src/stm32f4xx_hal_can.c **** 
 166:Drivers/STM32F4xx_HAL_Driver/Src/stm32f4xx_hal_can.c ****   Use function HAL_CAN_UnRegisterCallback() to reset a callback to the default
 167:Drivers/STM32F4xx_HAL_Driver/Src/stm32f4xx_hal_can.c ****   weak function.
 168:Drivers/STM32F4xx_HAL_Driver/Src/stm32f4xx_hal_can.c ****   HAL_CAN_UnRegisterCallback takes as parameters the HAL peripheral handle,
 169:Drivers/STM32F4xx_HAL_Driver/Src/stm32f4xx_hal_can.c ****   and the Callback ID.
 170:Drivers/STM32F4xx_HAL_Driver/Src/stm32f4xx_hal_can.c ****   This function allows to reset following callbacks:
 171:Drivers/STM32F4xx_HAL_Driver/Src/stm32f4xx_hal_can.c ****     (+) TxMailbox0CompleteCallback   : Tx Mailbox 0 Complete Callback.
 172:Drivers/STM32F4xx_HAL_Driver/Src/stm32f4xx_hal_can.c ****     (+) TxMailbox1CompleteCallback   : Tx Mailbox 1 Complete Callback.
 173:Drivers/STM32F4xx_HAL_Driver/Src/stm32f4xx_hal_can.c ****     (+) TxMailbox2CompleteCallback   : Tx Mailbox 2 Complete Callback.
 174:Drivers/STM32F4xx_HAL_Driver/Src/stm32f4xx_hal_can.c ****     (+) TxMailbox0AbortCallback      : Tx Mailbox 0 Abort Callback.
 175:Drivers/STM32F4xx_HAL_Driver/Src/stm32f4xx_hal_can.c ****     (+) TxMailbox1AbortCallback      : Tx Mailbox 1 Abort Callback.
 176:Drivers/STM32F4xx_HAL_Driver/Src/stm32f4xx_hal_can.c ****     (+) TxMailbox2AbortCallback      : Tx Mailbox 2 Abort Callback.
 177:Drivers/STM32F4xx_HAL_Driver/Src/stm32f4xx_hal_can.c ****     (+) RxFifo0MsgPendingCallback    : Rx Fifo 0 Message Pending Callback.
 178:Drivers/STM32F4xx_HAL_Driver/Src/stm32f4xx_hal_can.c ****     (+) RxFifo0FullCallback          : Rx Fifo 0 Full Callback.
 179:Drivers/STM32F4xx_HAL_Driver/Src/stm32f4xx_hal_can.c ****     (+) RxFifo1MsgPendingCallback    : Rx Fifo 1 Message Pending Callback.
 180:Drivers/STM32F4xx_HAL_Driver/Src/stm32f4xx_hal_can.c ****     (+) RxFifo1FullCallback          : Rx Fifo 1 Full Callback.
 181:Drivers/STM32F4xx_HAL_Driver/Src/stm32f4xx_hal_can.c ****     (+) SleepCallback                : Sleep Callback.
 182:Drivers/STM32F4xx_HAL_Driver/Src/stm32f4xx_hal_can.c ****     (+) WakeUpFromRxMsgCallback      : Wake Up From Rx Message Callback.
 183:Drivers/STM32F4xx_HAL_Driver/Src/stm32f4xx_hal_can.c ****     (+) ErrorCallback                : Error Callback.
 184:Drivers/STM32F4xx_HAL_Driver/Src/stm32f4xx_hal_can.c ****     (+) MspInitCallback              : CAN MspInit.
 185:Drivers/STM32F4xx_HAL_Driver/Src/stm32f4xx_hal_can.c ****     (+) MspDeInitCallback            : CAN MspDeInit.
 186:Drivers/STM32F4xx_HAL_Driver/Src/stm32f4xx_hal_can.c **** 
 187:Drivers/STM32F4xx_HAL_Driver/Src/stm32f4xx_hal_can.c ****   By default, after the HAL_CAN_Init() and when the state is HAL_CAN_STATE_RESET,
 188:Drivers/STM32F4xx_HAL_Driver/Src/stm32f4xx_hal_can.c ****   all callbacks are set to the corresponding weak functions:
 189:Drivers/STM32F4xx_HAL_Driver/Src/stm32f4xx_hal_can.c ****   example HAL_CAN_ErrorCallback().
 190:Drivers/STM32F4xx_HAL_Driver/Src/stm32f4xx_hal_can.c ****   Exception done for MspInit and MspDeInit functions that are
 191:Drivers/STM32F4xx_HAL_Driver/Src/stm32f4xx_hal_can.c ****   reset to the legacy weak function in the HAL_CAN_Init()/ HAL_CAN_DeInit() only when
 192:Drivers/STM32F4xx_HAL_Driver/Src/stm32f4xx_hal_can.c ****   these callbacks are null (not registered beforehand).
 193:Drivers/STM32F4xx_HAL_Driver/Src/stm32f4xx_hal_can.c ****   if not, MspInit or MspDeInit are not null, the HAL_CAN_Init()/ HAL_CAN_DeInit()
 194:Drivers/STM32F4xx_HAL_Driver/Src/stm32f4xx_hal_can.c ****   keep and use the user MspInit/MspDeInit callbacks (registered beforehand)
 195:Drivers/STM32F4xx_HAL_Driver/Src/stm32f4xx_hal_can.c **** 
 196:Drivers/STM32F4xx_HAL_Driver/Src/stm32f4xx_hal_can.c ****   Callbacks can be registered/unregistered in HAL_CAN_STATE_READY state only.
 197:Drivers/STM32F4xx_HAL_Driver/Src/stm32f4xx_hal_can.c ****   Exception done MspInit/MspDeInit that can be registered/unregistered
 198:Drivers/STM32F4xx_HAL_Driver/Src/stm32f4xx_hal_can.c ****   in HAL_CAN_STATE_READY or HAL_CAN_STATE_RESET state,
 199:Drivers/STM32F4xx_HAL_Driver/Src/stm32f4xx_hal_can.c ****   thus registered (user) MspInit/DeInit callbacks can be used during the Init/DeInit.
 200:Drivers/STM32F4xx_HAL_Driver/Src/stm32f4xx_hal_can.c ****   In that case first register the MspInit/MspDeInit user callbacks
ARM GAS  C:\Users\Rick\AppData\Local\Temp\cck9vz6U.s 			page 5


 201:Drivers/STM32F4xx_HAL_Driver/Src/stm32f4xx_hal_can.c ****   using HAL_CAN_RegisterCallback() before calling HAL_CAN_DeInit()
 202:Drivers/STM32F4xx_HAL_Driver/Src/stm32f4xx_hal_can.c ****   or HAL_CAN_Init() function.
 203:Drivers/STM32F4xx_HAL_Driver/Src/stm32f4xx_hal_can.c **** 
 204:Drivers/STM32F4xx_HAL_Driver/Src/stm32f4xx_hal_can.c ****   When The compilation define USE_HAL_CAN_REGISTER_CALLBACKS is set to 0 or
 205:Drivers/STM32F4xx_HAL_Driver/Src/stm32f4xx_hal_can.c ****   not defined, the callback registration feature is not available and all callbacks
 206:Drivers/STM32F4xx_HAL_Driver/Src/stm32f4xx_hal_can.c ****   are set to the corresponding weak functions.
 207:Drivers/STM32F4xx_HAL_Driver/Src/stm32f4xx_hal_can.c **** 
 208:Drivers/STM32F4xx_HAL_Driver/Src/stm32f4xx_hal_can.c ****   @endverbatim
 209:Drivers/STM32F4xx_HAL_Driver/Src/stm32f4xx_hal_can.c ****   ******************************************************************************
 210:Drivers/STM32F4xx_HAL_Driver/Src/stm32f4xx_hal_can.c ****   */
 211:Drivers/STM32F4xx_HAL_Driver/Src/stm32f4xx_hal_can.c **** 
 212:Drivers/STM32F4xx_HAL_Driver/Src/stm32f4xx_hal_can.c **** /* Includes ------------------------------------------------------------------*/
 213:Drivers/STM32F4xx_HAL_Driver/Src/stm32f4xx_hal_can.c **** #include "stm32f4xx_hal.h"
 214:Drivers/STM32F4xx_HAL_Driver/Src/stm32f4xx_hal_can.c **** 
 215:Drivers/STM32F4xx_HAL_Driver/Src/stm32f4xx_hal_can.c **** /** @addtogroup STM32F4xx_HAL_Driver
 216:Drivers/STM32F4xx_HAL_Driver/Src/stm32f4xx_hal_can.c ****   * @{
 217:Drivers/STM32F4xx_HAL_Driver/Src/stm32f4xx_hal_can.c ****   */
 218:Drivers/STM32F4xx_HAL_Driver/Src/stm32f4xx_hal_can.c **** 
 219:Drivers/STM32F4xx_HAL_Driver/Src/stm32f4xx_hal_can.c **** #if defined(CAN1)
 220:Drivers/STM32F4xx_HAL_Driver/Src/stm32f4xx_hal_can.c **** 
 221:Drivers/STM32F4xx_HAL_Driver/Src/stm32f4xx_hal_can.c **** /** @defgroup CAN CAN
 222:Drivers/STM32F4xx_HAL_Driver/Src/stm32f4xx_hal_can.c ****   * @brief CAN driver modules
 223:Drivers/STM32F4xx_HAL_Driver/Src/stm32f4xx_hal_can.c ****   * @{
 224:Drivers/STM32F4xx_HAL_Driver/Src/stm32f4xx_hal_can.c ****   */
 225:Drivers/STM32F4xx_HAL_Driver/Src/stm32f4xx_hal_can.c **** 
 226:Drivers/STM32F4xx_HAL_Driver/Src/stm32f4xx_hal_can.c **** #ifdef HAL_CAN_MODULE_ENABLED
 227:Drivers/STM32F4xx_HAL_Driver/Src/stm32f4xx_hal_can.c **** 
 228:Drivers/STM32F4xx_HAL_Driver/Src/stm32f4xx_hal_can.c **** #ifdef HAL_CAN_LEGACY_MODULE_ENABLED
 229:Drivers/STM32F4xx_HAL_Driver/Src/stm32f4xx_hal_can.c **** #error "The CAN driver cannot be used with its legacy, Please enable only one CAN module at once"
 230:Drivers/STM32F4xx_HAL_Driver/Src/stm32f4xx_hal_can.c **** #endif /* HAL_CAN_LEGACY_MODULE_ENABLED */
 231:Drivers/STM32F4xx_HAL_Driver/Src/stm32f4xx_hal_can.c **** 
 232:Drivers/STM32F4xx_HAL_Driver/Src/stm32f4xx_hal_can.c **** /* Private typedef -----------------------------------------------------------*/
 233:Drivers/STM32F4xx_HAL_Driver/Src/stm32f4xx_hal_can.c **** /* Private define ------------------------------------------------------------*/
 234:Drivers/STM32F4xx_HAL_Driver/Src/stm32f4xx_hal_can.c **** /** @defgroup CAN_Private_Constants CAN Private Constants
 235:Drivers/STM32F4xx_HAL_Driver/Src/stm32f4xx_hal_can.c ****   * @{
 236:Drivers/STM32F4xx_HAL_Driver/Src/stm32f4xx_hal_can.c ****   */
 237:Drivers/STM32F4xx_HAL_Driver/Src/stm32f4xx_hal_can.c **** #define CAN_TIMEOUT_VALUE 10U
 238:Drivers/STM32F4xx_HAL_Driver/Src/stm32f4xx_hal_can.c **** #define CAN_WAKEUP_TIMEOUT_COUNTER 1000000U
 239:Drivers/STM32F4xx_HAL_Driver/Src/stm32f4xx_hal_can.c **** /**
 240:Drivers/STM32F4xx_HAL_Driver/Src/stm32f4xx_hal_can.c ****   * @}
 241:Drivers/STM32F4xx_HAL_Driver/Src/stm32f4xx_hal_can.c ****   */
 242:Drivers/STM32F4xx_HAL_Driver/Src/stm32f4xx_hal_can.c **** /* Private macro -------------------------------------------------------------*/
 243:Drivers/STM32F4xx_HAL_Driver/Src/stm32f4xx_hal_can.c **** /* Private variables ---------------------------------------------------------*/
 244:Drivers/STM32F4xx_HAL_Driver/Src/stm32f4xx_hal_can.c **** /* Private function prototypes -----------------------------------------------*/
 245:Drivers/STM32F4xx_HAL_Driver/Src/stm32f4xx_hal_can.c **** /* Exported functions --------------------------------------------------------*/
 246:Drivers/STM32F4xx_HAL_Driver/Src/stm32f4xx_hal_can.c **** 
 247:Drivers/STM32F4xx_HAL_Driver/Src/stm32f4xx_hal_can.c **** /** @defgroup CAN_Exported_Functions CAN Exported Functions
 248:Drivers/STM32F4xx_HAL_Driver/Src/stm32f4xx_hal_can.c ****   * @{
 249:Drivers/STM32F4xx_HAL_Driver/Src/stm32f4xx_hal_can.c ****   */
 250:Drivers/STM32F4xx_HAL_Driver/Src/stm32f4xx_hal_can.c **** 
 251:Drivers/STM32F4xx_HAL_Driver/Src/stm32f4xx_hal_can.c **** /** @defgroup CAN_Exported_Functions_Group1 Initialization and de-initialization functions
 252:Drivers/STM32F4xx_HAL_Driver/Src/stm32f4xx_hal_can.c ****   * @brief    Initialization and Configuration functions
 253:Drivers/STM32F4xx_HAL_Driver/Src/stm32f4xx_hal_can.c ****   *
 254:Drivers/STM32F4xx_HAL_Driver/Src/stm32f4xx_hal_can.c **** @verbatim
 255:Drivers/STM32F4xx_HAL_Driver/Src/stm32f4xx_hal_can.c ****   ==============================================================================
 256:Drivers/STM32F4xx_HAL_Driver/Src/stm32f4xx_hal_can.c ****               ##### Initialization and de-initialization functions #####
 257:Drivers/STM32F4xx_HAL_Driver/Src/stm32f4xx_hal_can.c ****   ==============================================================================
ARM GAS  C:\Users\Rick\AppData\Local\Temp\cck9vz6U.s 			page 6


 258:Drivers/STM32F4xx_HAL_Driver/Src/stm32f4xx_hal_can.c ****     [..]  This section provides functions allowing to:
 259:Drivers/STM32F4xx_HAL_Driver/Src/stm32f4xx_hal_can.c ****       (+) HAL_CAN_Init                       : Initialize and configure the CAN.
 260:Drivers/STM32F4xx_HAL_Driver/Src/stm32f4xx_hal_can.c ****       (+) HAL_CAN_DeInit                     : De-initialize the CAN.
 261:Drivers/STM32F4xx_HAL_Driver/Src/stm32f4xx_hal_can.c ****       (+) HAL_CAN_MspInit                    : Initialize the CAN MSP.
 262:Drivers/STM32F4xx_HAL_Driver/Src/stm32f4xx_hal_can.c ****       (+) HAL_CAN_MspDeInit                  : DeInitialize the CAN MSP.
 263:Drivers/STM32F4xx_HAL_Driver/Src/stm32f4xx_hal_can.c **** 
 264:Drivers/STM32F4xx_HAL_Driver/Src/stm32f4xx_hal_can.c **** @endverbatim
 265:Drivers/STM32F4xx_HAL_Driver/Src/stm32f4xx_hal_can.c ****   * @{
 266:Drivers/STM32F4xx_HAL_Driver/Src/stm32f4xx_hal_can.c ****   */
 267:Drivers/STM32F4xx_HAL_Driver/Src/stm32f4xx_hal_can.c **** 
 268:Drivers/STM32F4xx_HAL_Driver/Src/stm32f4xx_hal_can.c **** /**
 269:Drivers/STM32F4xx_HAL_Driver/Src/stm32f4xx_hal_can.c ****   * @brief  Initializes the CAN peripheral according to the specified
 270:Drivers/STM32F4xx_HAL_Driver/Src/stm32f4xx_hal_can.c ****   *         parameters in the CAN_InitStruct.
 271:Drivers/STM32F4xx_HAL_Driver/Src/stm32f4xx_hal_can.c ****   * @param  hcan pointer to a CAN_HandleTypeDef structure that contains
 272:Drivers/STM32F4xx_HAL_Driver/Src/stm32f4xx_hal_can.c ****   *         the configuration information for the specified CAN.
 273:Drivers/STM32F4xx_HAL_Driver/Src/stm32f4xx_hal_can.c ****   * @retval HAL status
 274:Drivers/STM32F4xx_HAL_Driver/Src/stm32f4xx_hal_can.c ****   */
 275:Drivers/STM32F4xx_HAL_Driver/Src/stm32f4xx_hal_can.c **** HAL_StatusTypeDef HAL_CAN_Init(CAN_HandleTypeDef *hcan)
 276:Drivers/STM32F4xx_HAL_Driver/Src/stm32f4xx_hal_can.c **** {
 277:Drivers/STM32F4xx_HAL_Driver/Src/stm32f4xx_hal_can.c ****   uint32_t tickstart;
 278:Drivers/STM32F4xx_HAL_Driver/Src/stm32f4xx_hal_can.c **** 
 279:Drivers/STM32F4xx_HAL_Driver/Src/stm32f4xx_hal_can.c ****   /* Check CAN handle */
 280:Drivers/STM32F4xx_HAL_Driver/Src/stm32f4xx_hal_can.c ****   if (hcan == NULL)
 281:Drivers/STM32F4xx_HAL_Driver/Src/stm32f4xx_hal_can.c ****   {
 282:Drivers/STM32F4xx_HAL_Driver/Src/stm32f4xx_hal_can.c ****     return HAL_ERROR;
 283:Drivers/STM32F4xx_HAL_Driver/Src/stm32f4xx_hal_can.c ****   }
 284:Drivers/STM32F4xx_HAL_Driver/Src/stm32f4xx_hal_can.c **** 
 285:Drivers/STM32F4xx_HAL_Driver/Src/stm32f4xx_hal_can.c ****   /* Check the parameters */
 286:Drivers/STM32F4xx_HAL_Driver/Src/stm32f4xx_hal_can.c ****   assert_param(IS_CAN_ALL_INSTANCE(hcan->Instance));
 287:Drivers/STM32F4xx_HAL_Driver/Src/stm32f4xx_hal_can.c ****   assert_param(IS_FUNCTIONAL_STATE(hcan->Init.TimeTriggeredMode));
 288:Drivers/STM32F4xx_HAL_Driver/Src/stm32f4xx_hal_can.c ****   assert_param(IS_FUNCTIONAL_STATE(hcan->Init.AutoBusOff));
 289:Drivers/STM32F4xx_HAL_Driver/Src/stm32f4xx_hal_can.c ****   assert_param(IS_FUNCTIONAL_STATE(hcan->Init.AutoWakeUp));
 290:Drivers/STM32F4xx_HAL_Driver/Src/stm32f4xx_hal_can.c ****   assert_param(IS_FUNCTIONAL_STATE(hcan->Init.AutoRetransmission));
 291:Drivers/STM32F4xx_HAL_Driver/Src/stm32f4xx_hal_can.c ****   assert_param(IS_FUNCTIONAL_STATE(hcan->Init.ReceiveFifoLocked));
 292:Drivers/STM32F4xx_HAL_Driver/Src/stm32f4xx_hal_can.c ****   assert_param(IS_FUNCTIONAL_STATE(hcan->Init.TransmitFifoPriority));
 293:Drivers/STM32F4xx_HAL_Driver/Src/stm32f4xx_hal_can.c ****   assert_param(IS_CAN_MODE(hcan->Init.Mode));
 294:Drivers/STM32F4xx_HAL_Driver/Src/stm32f4xx_hal_can.c ****   assert_param(IS_CAN_SJW(hcan->Init.SyncJumpWidth));
 295:Drivers/STM32F4xx_HAL_Driver/Src/stm32f4xx_hal_can.c ****   assert_param(IS_CAN_BS1(hcan->Init.TimeSeg1));
 296:Drivers/STM32F4xx_HAL_Driver/Src/stm32f4xx_hal_can.c ****   assert_param(IS_CAN_BS2(hcan->Init.TimeSeg2));
 297:Drivers/STM32F4xx_HAL_Driver/Src/stm32f4xx_hal_can.c ****   assert_param(IS_CAN_PRESCALER(hcan->Init.Prescaler));
 298:Drivers/STM32F4xx_HAL_Driver/Src/stm32f4xx_hal_can.c **** 
 299:Drivers/STM32F4xx_HAL_Driver/Src/stm32f4xx_hal_can.c **** #if USE_HAL_CAN_REGISTER_CALLBACKS == 1
 300:Drivers/STM32F4xx_HAL_Driver/Src/stm32f4xx_hal_can.c ****   if (hcan->State == HAL_CAN_STATE_RESET)
 301:Drivers/STM32F4xx_HAL_Driver/Src/stm32f4xx_hal_can.c ****   {
 302:Drivers/STM32F4xx_HAL_Driver/Src/stm32f4xx_hal_can.c ****     /* Reset callbacks to legacy functions */
 303:Drivers/STM32F4xx_HAL_Driver/Src/stm32f4xx_hal_can.c ****     hcan->RxFifo0MsgPendingCallback  =  HAL_CAN_RxFifo0MsgPendingCallback;  /* Legacy weak RxFifo0M
 304:Drivers/STM32F4xx_HAL_Driver/Src/stm32f4xx_hal_can.c ****     hcan->RxFifo0FullCallback        =  HAL_CAN_RxFifo0FullCallback;        /* Legacy weak RxFifo0F
 305:Drivers/STM32F4xx_HAL_Driver/Src/stm32f4xx_hal_can.c ****     hcan->RxFifo1MsgPendingCallback  =  HAL_CAN_RxFifo1MsgPendingCallback;  /* Legacy weak RxFifo1M
 306:Drivers/STM32F4xx_HAL_Driver/Src/stm32f4xx_hal_can.c ****     hcan->RxFifo1FullCallback        =  HAL_CAN_RxFifo1FullCallback;        /* Legacy weak RxFifo1F
 307:Drivers/STM32F4xx_HAL_Driver/Src/stm32f4xx_hal_can.c ****     hcan->TxMailbox0CompleteCallback =  HAL_CAN_TxMailbox0CompleteCallback; /* Legacy weak TxMailbo
 308:Drivers/STM32F4xx_HAL_Driver/Src/stm32f4xx_hal_can.c ****     hcan->TxMailbox1CompleteCallback =  HAL_CAN_TxMailbox1CompleteCallback; /* Legacy weak TxMailbo
 309:Drivers/STM32F4xx_HAL_Driver/Src/stm32f4xx_hal_can.c ****     hcan->TxMailbox2CompleteCallback =  HAL_CAN_TxMailbox2CompleteCallback; /* Legacy weak TxMailbo
 310:Drivers/STM32F4xx_HAL_Driver/Src/stm32f4xx_hal_can.c ****     hcan->TxMailbox0AbortCallback    =  HAL_CAN_TxMailbox0AbortCallback;    /* Legacy weak TxMailbo
 311:Drivers/STM32F4xx_HAL_Driver/Src/stm32f4xx_hal_can.c ****     hcan->TxMailbox1AbortCallback    =  HAL_CAN_TxMailbox1AbortCallback;    /* Legacy weak TxMailbo
 312:Drivers/STM32F4xx_HAL_Driver/Src/stm32f4xx_hal_can.c ****     hcan->TxMailbox2AbortCallback    =  HAL_CAN_TxMailbox2AbortCallback;    /* Legacy weak TxMailbo
 313:Drivers/STM32F4xx_HAL_Driver/Src/stm32f4xx_hal_can.c ****     hcan->SleepCallback              =  HAL_CAN_SleepCallback;              /* Legacy weak SleepCal
 314:Drivers/STM32F4xx_HAL_Driver/Src/stm32f4xx_hal_can.c ****     hcan->WakeUpFromRxMsgCallback    =  HAL_CAN_WakeUpFromRxMsgCallback;    /* Legacy weak WakeUpFr
ARM GAS  C:\Users\Rick\AppData\Local\Temp\cck9vz6U.s 			page 7


 315:Drivers/STM32F4xx_HAL_Driver/Src/stm32f4xx_hal_can.c ****     hcan->ErrorCallback              =  HAL_CAN_ErrorCallback;              /* Legacy weak ErrorCal
 316:Drivers/STM32F4xx_HAL_Driver/Src/stm32f4xx_hal_can.c **** 
 317:Drivers/STM32F4xx_HAL_Driver/Src/stm32f4xx_hal_can.c ****     if (hcan->MspInitCallback == NULL)
 318:Drivers/STM32F4xx_HAL_Driver/Src/stm32f4xx_hal_can.c ****     {
 319:Drivers/STM32F4xx_HAL_Driver/Src/stm32f4xx_hal_can.c ****       hcan->MspInitCallback = HAL_CAN_MspInit; /* Legacy weak MspInit */
 320:Drivers/STM32F4xx_HAL_Driver/Src/stm32f4xx_hal_can.c ****     }
 321:Drivers/STM32F4xx_HAL_Driver/Src/stm32f4xx_hal_can.c **** 
 322:Drivers/STM32F4xx_HAL_Driver/Src/stm32f4xx_hal_can.c ****     /* Init the low level hardware: CLOCK, NVIC */
 323:Drivers/STM32F4xx_HAL_Driver/Src/stm32f4xx_hal_can.c ****     hcan->MspInitCallback(hcan);
 324:Drivers/STM32F4xx_HAL_Driver/Src/stm32f4xx_hal_can.c ****   }
 325:Drivers/STM32F4xx_HAL_Driver/Src/stm32f4xx_hal_can.c **** 
 326:Drivers/STM32F4xx_HAL_Driver/Src/stm32f4xx_hal_can.c **** #else
 327:Drivers/STM32F4xx_HAL_Driver/Src/stm32f4xx_hal_can.c ****   if (hcan->State == HAL_CAN_STATE_RESET)
 328:Drivers/STM32F4xx_HAL_Driver/Src/stm32f4xx_hal_can.c ****   {
 329:Drivers/STM32F4xx_HAL_Driver/Src/stm32f4xx_hal_can.c ****     /* Init the low level hardware: CLOCK, NVIC */
 330:Drivers/STM32F4xx_HAL_Driver/Src/stm32f4xx_hal_can.c ****     HAL_CAN_MspInit(hcan);
 331:Drivers/STM32F4xx_HAL_Driver/Src/stm32f4xx_hal_can.c ****   }
 332:Drivers/STM32F4xx_HAL_Driver/Src/stm32f4xx_hal_can.c **** #endif /* USE_HAL_CAN_REGISTER_CALLBACKS */
 333:Drivers/STM32F4xx_HAL_Driver/Src/stm32f4xx_hal_can.c **** 
 334:Drivers/STM32F4xx_HAL_Driver/Src/stm32f4xx_hal_can.c ****   /* Request initialisation */
 335:Drivers/STM32F4xx_HAL_Driver/Src/stm32f4xx_hal_can.c ****   SET_BIT(hcan->Instance->MCR, CAN_MCR_INRQ);
 336:Drivers/STM32F4xx_HAL_Driver/Src/stm32f4xx_hal_can.c **** 
 337:Drivers/STM32F4xx_HAL_Driver/Src/stm32f4xx_hal_can.c ****   /* Get tick */
 338:Drivers/STM32F4xx_HAL_Driver/Src/stm32f4xx_hal_can.c ****   tickstart = HAL_GetTick();
 339:Drivers/STM32F4xx_HAL_Driver/Src/stm32f4xx_hal_can.c **** 
 340:Drivers/STM32F4xx_HAL_Driver/Src/stm32f4xx_hal_can.c ****   /* Wait initialisation acknowledge */
 341:Drivers/STM32F4xx_HAL_Driver/Src/stm32f4xx_hal_can.c ****   while ((hcan->Instance->MSR & CAN_MSR_INAK) == 0U)
 342:Drivers/STM32F4xx_HAL_Driver/Src/stm32f4xx_hal_can.c ****   {
 343:Drivers/STM32F4xx_HAL_Driver/Src/stm32f4xx_hal_can.c ****     if ((HAL_GetTick() - tickstart) > CAN_TIMEOUT_VALUE)
 344:Drivers/STM32F4xx_HAL_Driver/Src/stm32f4xx_hal_can.c ****     {
 345:Drivers/STM32F4xx_HAL_Driver/Src/stm32f4xx_hal_can.c ****       /* Update error code */
 346:Drivers/STM32F4xx_HAL_Driver/Src/stm32f4xx_hal_can.c ****       hcan->ErrorCode |= HAL_CAN_ERROR_TIMEOUT;
 347:Drivers/STM32F4xx_HAL_Driver/Src/stm32f4xx_hal_can.c **** 
 348:Drivers/STM32F4xx_HAL_Driver/Src/stm32f4xx_hal_can.c ****       /* Change CAN state */
 349:Drivers/STM32F4xx_HAL_Driver/Src/stm32f4xx_hal_can.c ****       hcan->State = HAL_CAN_STATE_ERROR;
 350:Drivers/STM32F4xx_HAL_Driver/Src/stm32f4xx_hal_can.c **** 
 351:Drivers/STM32F4xx_HAL_Driver/Src/stm32f4xx_hal_can.c ****       return HAL_ERROR;
 352:Drivers/STM32F4xx_HAL_Driver/Src/stm32f4xx_hal_can.c ****     }
 353:Drivers/STM32F4xx_HAL_Driver/Src/stm32f4xx_hal_can.c ****   }
 354:Drivers/STM32F4xx_HAL_Driver/Src/stm32f4xx_hal_can.c **** 
 355:Drivers/STM32F4xx_HAL_Driver/Src/stm32f4xx_hal_can.c ****   /* Exit from sleep mode */
 356:Drivers/STM32F4xx_HAL_Driver/Src/stm32f4xx_hal_can.c ****   CLEAR_BIT(hcan->Instance->MCR, CAN_MCR_SLEEP);
 357:Drivers/STM32F4xx_HAL_Driver/Src/stm32f4xx_hal_can.c **** 
 358:Drivers/STM32F4xx_HAL_Driver/Src/stm32f4xx_hal_can.c ****   /* Get tick */
 359:Drivers/STM32F4xx_HAL_Driver/Src/stm32f4xx_hal_can.c ****   tickstart = HAL_GetTick();
 360:Drivers/STM32F4xx_HAL_Driver/Src/stm32f4xx_hal_can.c **** 
 361:Drivers/STM32F4xx_HAL_Driver/Src/stm32f4xx_hal_can.c ****   /* Check Sleep mode leave acknowledge */
 362:Drivers/STM32F4xx_HAL_Driver/Src/stm32f4xx_hal_can.c ****   while ((hcan->Instance->MSR & CAN_MSR_SLAK) != 0U)
 363:Drivers/STM32F4xx_HAL_Driver/Src/stm32f4xx_hal_can.c ****   {
 364:Drivers/STM32F4xx_HAL_Driver/Src/stm32f4xx_hal_can.c ****     if ((HAL_GetTick() - tickstart) > CAN_TIMEOUT_VALUE)
 365:Drivers/STM32F4xx_HAL_Driver/Src/stm32f4xx_hal_can.c ****     {
 366:Drivers/STM32F4xx_HAL_Driver/Src/stm32f4xx_hal_can.c ****       /* Update error code */
 367:Drivers/STM32F4xx_HAL_Driver/Src/stm32f4xx_hal_can.c ****       hcan->ErrorCode |= HAL_CAN_ERROR_TIMEOUT;
 368:Drivers/STM32F4xx_HAL_Driver/Src/stm32f4xx_hal_can.c **** 
 369:Drivers/STM32F4xx_HAL_Driver/Src/stm32f4xx_hal_can.c ****       /* Change CAN state */
 370:Drivers/STM32F4xx_HAL_Driver/Src/stm32f4xx_hal_can.c ****       hcan->State = HAL_CAN_STATE_ERROR;
 371:Drivers/STM32F4xx_HAL_Driver/Src/stm32f4xx_hal_can.c **** 
ARM GAS  C:\Users\Rick\AppData\Local\Temp\cck9vz6U.s 			page 8


 372:Drivers/STM32F4xx_HAL_Driver/Src/stm32f4xx_hal_can.c ****       return HAL_ERROR;
 373:Drivers/STM32F4xx_HAL_Driver/Src/stm32f4xx_hal_can.c ****     }
 374:Drivers/STM32F4xx_HAL_Driver/Src/stm32f4xx_hal_can.c ****   }
 375:Drivers/STM32F4xx_HAL_Driver/Src/stm32f4xx_hal_can.c **** 
 376:Drivers/STM32F4xx_HAL_Driver/Src/stm32f4xx_hal_can.c ****   /* Set the time triggered communication mode */
 377:Drivers/STM32F4xx_HAL_Driver/Src/stm32f4xx_hal_can.c ****   if (hcan->Init.TimeTriggeredMode == ENABLE)
 378:Drivers/STM32F4xx_HAL_Driver/Src/stm32f4xx_hal_can.c ****   {
 379:Drivers/STM32F4xx_HAL_Driver/Src/stm32f4xx_hal_can.c ****     SET_BIT(hcan->Instance->MCR, CAN_MCR_TTCM);
 380:Drivers/STM32F4xx_HAL_Driver/Src/stm32f4xx_hal_can.c ****   }
 381:Drivers/STM32F4xx_HAL_Driver/Src/stm32f4xx_hal_can.c ****   else
 382:Drivers/STM32F4xx_HAL_Driver/Src/stm32f4xx_hal_can.c ****   {
 383:Drivers/STM32F4xx_HAL_Driver/Src/stm32f4xx_hal_can.c ****     CLEAR_BIT(hcan->Instance->MCR, CAN_MCR_TTCM);
 384:Drivers/STM32F4xx_HAL_Driver/Src/stm32f4xx_hal_can.c ****   }
 385:Drivers/STM32F4xx_HAL_Driver/Src/stm32f4xx_hal_can.c **** 
 386:Drivers/STM32F4xx_HAL_Driver/Src/stm32f4xx_hal_can.c ****   /* Set the automatic bus-off management */
 387:Drivers/STM32F4xx_HAL_Driver/Src/stm32f4xx_hal_can.c ****   if (hcan->Init.AutoBusOff == ENABLE)
 388:Drivers/STM32F4xx_HAL_Driver/Src/stm32f4xx_hal_can.c ****   {
 389:Drivers/STM32F4xx_HAL_Driver/Src/stm32f4xx_hal_can.c ****     SET_BIT(hcan->Instance->MCR, CAN_MCR_ABOM);
 390:Drivers/STM32F4xx_HAL_Driver/Src/stm32f4xx_hal_can.c ****   }
 391:Drivers/STM32F4xx_HAL_Driver/Src/stm32f4xx_hal_can.c ****   else
 392:Drivers/STM32F4xx_HAL_Driver/Src/stm32f4xx_hal_can.c ****   {
 393:Drivers/STM32F4xx_HAL_Driver/Src/stm32f4xx_hal_can.c ****     CLEAR_BIT(hcan->Instance->MCR, CAN_MCR_ABOM);
 394:Drivers/STM32F4xx_HAL_Driver/Src/stm32f4xx_hal_can.c ****   }
 395:Drivers/STM32F4xx_HAL_Driver/Src/stm32f4xx_hal_can.c **** 
 396:Drivers/STM32F4xx_HAL_Driver/Src/stm32f4xx_hal_can.c ****   /* Set the automatic wake-up mode */
 397:Drivers/STM32F4xx_HAL_Driver/Src/stm32f4xx_hal_can.c ****   if (hcan->Init.AutoWakeUp == ENABLE)
 398:Drivers/STM32F4xx_HAL_Driver/Src/stm32f4xx_hal_can.c ****   {
 399:Drivers/STM32F4xx_HAL_Driver/Src/stm32f4xx_hal_can.c ****     SET_BIT(hcan->Instance->MCR, CAN_MCR_AWUM);
 400:Drivers/STM32F4xx_HAL_Driver/Src/stm32f4xx_hal_can.c ****   }
 401:Drivers/STM32F4xx_HAL_Driver/Src/stm32f4xx_hal_can.c ****   else
 402:Drivers/STM32F4xx_HAL_Driver/Src/stm32f4xx_hal_can.c ****   {
 403:Drivers/STM32F4xx_HAL_Driver/Src/stm32f4xx_hal_can.c ****     CLEAR_BIT(hcan->Instance->MCR, CAN_MCR_AWUM);
 404:Drivers/STM32F4xx_HAL_Driver/Src/stm32f4xx_hal_can.c ****   }
 405:Drivers/STM32F4xx_HAL_Driver/Src/stm32f4xx_hal_can.c **** 
 406:Drivers/STM32F4xx_HAL_Driver/Src/stm32f4xx_hal_can.c ****   /* Set the automatic retransmission */
 407:Drivers/STM32F4xx_HAL_Driver/Src/stm32f4xx_hal_can.c ****   if (hcan->Init.AutoRetransmission == ENABLE)
 408:Drivers/STM32F4xx_HAL_Driver/Src/stm32f4xx_hal_can.c ****   {
 409:Drivers/STM32F4xx_HAL_Driver/Src/stm32f4xx_hal_can.c ****     CLEAR_BIT(hcan->Instance->MCR, CAN_MCR_NART);
 410:Drivers/STM32F4xx_HAL_Driver/Src/stm32f4xx_hal_can.c ****   }
 411:Drivers/STM32F4xx_HAL_Driver/Src/stm32f4xx_hal_can.c ****   else
 412:Drivers/STM32F4xx_HAL_Driver/Src/stm32f4xx_hal_can.c ****   {
 413:Drivers/STM32F4xx_HAL_Driver/Src/stm32f4xx_hal_can.c ****     SET_BIT(hcan->Instance->MCR, CAN_MCR_NART);
 414:Drivers/STM32F4xx_HAL_Driver/Src/stm32f4xx_hal_can.c ****   }
 415:Drivers/STM32F4xx_HAL_Driver/Src/stm32f4xx_hal_can.c **** 
 416:Drivers/STM32F4xx_HAL_Driver/Src/stm32f4xx_hal_can.c ****   /* Set the receive FIFO locked mode */
 417:Drivers/STM32F4xx_HAL_Driver/Src/stm32f4xx_hal_can.c ****   if (hcan->Init.ReceiveFifoLocked == ENABLE)
 418:Drivers/STM32F4xx_HAL_Driver/Src/stm32f4xx_hal_can.c ****   {
 419:Drivers/STM32F4xx_HAL_Driver/Src/stm32f4xx_hal_can.c ****     SET_BIT(hcan->Instance->MCR, CAN_MCR_RFLM);
 420:Drivers/STM32F4xx_HAL_Driver/Src/stm32f4xx_hal_can.c ****   }
 421:Drivers/STM32F4xx_HAL_Driver/Src/stm32f4xx_hal_can.c ****   else
 422:Drivers/STM32F4xx_HAL_Driver/Src/stm32f4xx_hal_can.c ****   {
 423:Drivers/STM32F4xx_HAL_Driver/Src/stm32f4xx_hal_can.c ****     CLEAR_BIT(hcan->Instance->MCR, CAN_MCR_RFLM);
 424:Drivers/STM32F4xx_HAL_Driver/Src/stm32f4xx_hal_can.c ****   }
 425:Drivers/STM32F4xx_HAL_Driver/Src/stm32f4xx_hal_can.c **** 
 426:Drivers/STM32F4xx_HAL_Driver/Src/stm32f4xx_hal_can.c ****   /* Set the transmit FIFO priority */
 427:Drivers/STM32F4xx_HAL_Driver/Src/stm32f4xx_hal_can.c ****   if (hcan->Init.TransmitFifoPriority == ENABLE)
 428:Drivers/STM32F4xx_HAL_Driver/Src/stm32f4xx_hal_can.c ****   {
ARM GAS  C:\Users\Rick\AppData\Local\Temp\cck9vz6U.s 			page 9


 429:Drivers/STM32F4xx_HAL_Driver/Src/stm32f4xx_hal_can.c ****     SET_BIT(hcan->Instance->MCR, CAN_MCR_TXFP);
 430:Drivers/STM32F4xx_HAL_Driver/Src/stm32f4xx_hal_can.c ****   }
 431:Drivers/STM32F4xx_HAL_Driver/Src/stm32f4xx_hal_can.c ****   else
 432:Drivers/STM32F4xx_HAL_Driver/Src/stm32f4xx_hal_can.c ****   {
 433:Drivers/STM32F4xx_HAL_Driver/Src/stm32f4xx_hal_can.c ****     CLEAR_BIT(hcan->Instance->MCR, CAN_MCR_TXFP);
 434:Drivers/STM32F4xx_HAL_Driver/Src/stm32f4xx_hal_can.c ****   }
 435:Drivers/STM32F4xx_HAL_Driver/Src/stm32f4xx_hal_can.c **** 
 436:Drivers/STM32F4xx_HAL_Driver/Src/stm32f4xx_hal_can.c ****   /* Set the bit timing register */
 437:Drivers/STM32F4xx_HAL_Driver/Src/stm32f4xx_hal_can.c ****   WRITE_REG(hcan->Instance->BTR, (uint32_t)(hcan->Init.Mode           |
 438:Drivers/STM32F4xx_HAL_Driver/Src/stm32f4xx_hal_can.c ****                                             hcan->Init.SyncJumpWidth  |
 439:Drivers/STM32F4xx_HAL_Driver/Src/stm32f4xx_hal_can.c ****                                             hcan->Init.TimeSeg1       |
 440:Drivers/STM32F4xx_HAL_Driver/Src/stm32f4xx_hal_can.c ****                                             hcan->Init.TimeSeg2       |
 441:Drivers/STM32F4xx_HAL_Driver/Src/stm32f4xx_hal_can.c ****                                             (hcan->Init.Prescaler - 1U)));
 442:Drivers/STM32F4xx_HAL_Driver/Src/stm32f4xx_hal_can.c **** 
 443:Drivers/STM32F4xx_HAL_Driver/Src/stm32f4xx_hal_can.c ****   /* Initialize the error code */
 444:Drivers/STM32F4xx_HAL_Driver/Src/stm32f4xx_hal_can.c ****   hcan->ErrorCode = HAL_CAN_ERROR_NONE;
 445:Drivers/STM32F4xx_HAL_Driver/Src/stm32f4xx_hal_can.c **** 
 446:Drivers/STM32F4xx_HAL_Driver/Src/stm32f4xx_hal_can.c ****   /* Initialize the CAN state */
 447:Drivers/STM32F4xx_HAL_Driver/Src/stm32f4xx_hal_can.c ****   hcan->State = HAL_CAN_STATE_READY;
 448:Drivers/STM32F4xx_HAL_Driver/Src/stm32f4xx_hal_can.c **** 
 449:Drivers/STM32F4xx_HAL_Driver/Src/stm32f4xx_hal_can.c ****   /* Return function status */
 450:Drivers/STM32F4xx_HAL_Driver/Src/stm32f4xx_hal_can.c ****   return HAL_OK;
 451:Drivers/STM32F4xx_HAL_Driver/Src/stm32f4xx_hal_can.c **** }
 452:Drivers/STM32F4xx_HAL_Driver/Src/stm32f4xx_hal_can.c **** 
 453:Drivers/STM32F4xx_HAL_Driver/Src/stm32f4xx_hal_can.c **** /**
 454:Drivers/STM32F4xx_HAL_Driver/Src/stm32f4xx_hal_can.c ****   * @brief  Deinitializes the CAN peripheral registers to their default
 455:Drivers/STM32F4xx_HAL_Driver/Src/stm32f4xx_hal_can.c ****   *         reset values.
 456:Drivers/STM32F4xx_HAL_Driver/Src/stm32f4xx_hal_can.c ****   * @param  hcan pointer to a CAN_HandleTypeDef structure that contains
 457:Drivers/STM32F4xx_HAL_Driver/Src/stm32f4xx_hal_can.c ****   *         the configuration information for the specified CAN.
 458:Drivers/STM32F4xx_HAL_Driver/Src/stm32f4xx_hal_can.c ****   * @retval HAL status
 459:Drivers/STM32F4xx_HAL_Driver/Src/stm32f4xx_hal_can.c ****   */
 460:Drivers/STM32F4xx_HAL_Driver/Src/stm32f4xx_hal_can.c **** HAL_StatusTypeDef HAL_CAN_DeInit(CAN_HandleTypeDef *hcan)
 461:Drivers/STM32F4xx_HAL_Driver/Src/stm32f4xx_hal_can.c **** {
 462:Drivers/STM32F4xx_HAL_Driver/Src/stm32f4xx_hal_can.c ****   /* Check CAN handle */
 463:Drivers/STM32F4xx_HAL_Driver/Src/stm32f4xx_hal_can.c ****   if (hcan == NULL)
 464:Drivers/STM32F4xx_HAL_Driver/Src/stm32f4xx_hal_can.c ****   {
 465:Drivers/STM32F4xx_HAL_Driver/Src/stm32f4xx_hal_can.c ****     return HAL_ERROR;
 466:Drivers/STM32F4xx_HAL_Driver/Src/stm32f4xx_hal_can.c ****   }
 467:Drivers/STM32F4xx_HAL_Driver/Src/stm32f4xx_hal_can.c **** 
 468:Drivers/STM32F4xx_HAL_Driver/Src/stm32f4xx_hal_can.c ****   /* Check the parameters */
 469:Drivers/STM32F4xx_HAL_Driver/Src/stm32f4xx_hal_can.c ****   assert_param(IS_CAN_ALL_INSTANCE(hcan->Instance));
 470:Drivers/STM32F4xx_HAL_Driver/Src/stm32f4xx_hal_can.c **** 
 471:Drivers/STM32F4xx_HAL_Driver/Src/stm32f4xx_hal_can.c ****   /* Stop the CAN module */
 472:Drivers/STM32F4xx_HAL_Driver/Src/stm32f4xx_hal_can.c ****   (void)HAL_CAN_Stop(hcan);
 473:Drivers/STM32F4xx_HAL_Driver/Src/stm32f4xx_hal_can.c **** 
 474:Drivers/STM32F4xx_HAL_Driver/Src/stm32f4xx_hal_can.c **** #if USE_HAL_CAN_REGISTER_CALLBACKS == 1
 475:Drivers/STM32F4xx_HAL_Driver/Src/stm32f4xx_hal_can.c ****   if (hcan->MspDeInitCallback == NULL)
 476:Drivers/STM32F4xx_HAL_Driver/Src/stm32f4xx_hal_can.c ****   {
 477:Drivers/STM32F4xx_HAL_Driver/Src/stm32f4xx_hal_can.c ****     hcan->MspDeInitCallback = HAL_CAN_MspDeInit; /* Legacy weak MspDeInit */
 478:Drivers/STM32F4xx_HAL_Driver/Src/stm32f4xx_hal_can.c ****   }
 479:Drivers/STM32F4xx_HAL_Driver/Src/stm32f4xx_hal_can.c **** 
 480:Drivers/STM32F4xx_HAL_Driver/Src/stm32f4xx_hal_can.c ****   /* DeInit the low level hardware: CLOCK, NVIC */
 481:Drivers/STM32F4xx_HAL_Driver/Src/stm32f4xx_hal_can.c ****   hcan->MspDeInitCallback(hcan);
 482:Drivers/STM32F4xx_HAL_Driver/Src/stm32f4xx_hal_can.c **** 
 483:Drivers/STM32F4xx_HAL_Driver/Src/stm32f4xx_hal_can.c **** #else
 484:Drivers/STM32F4xx_HAL_Driver/Src/stm32f4xx_hal_can.c ****   /* DeInit the low level hardware: CLOCK, NVIC */
 485:Drivers/STM32F4xx_HAL_Driver/Src/stm32f4xx_hal_can.c ****   HAL_CAN_MspDeInit(hcan);
ARM GAS  C:\Users\Rick\AppData\Local\Temp\cck9vz6U.s 			page 10


 486:Drivers/STM32F4xx_HAL_Driver/Src/stm32f4xx_hal_can.c **** #endif /* USE_HAL_CAN_REGISTER_CALLBACKS */
 487:Drivers/STM32F4xx_HAL_Driver/Src/stm32f4xx_hal_can.c **** 
 488:Drivers/STM32F4xx_HAL_Driver/Src/stm32f4xx_hal_can.c ****   /* Reset the CAN peripheral */
 489:Drivers/STM32F4xx_HAL_Driver/Src/stm32f4xx_hal_can.c ****   SET_BIT(hcan->Instance->MCR, CAN_MCR_RESET);
 490:Drivers/STM32F4xx_HAL_Driver/Src/stm32f4xx_hal_can.c **** 
 491:Drivers/STM32F4xx_HAL_Driver/Src/stm32f4xx_hal_can.c ****   /* Reset the CAN ErrorCode */
 492:Drivers/STM32F4xx_HAL_Driver/Src/stm32f4xx_hal_can.c ****   hcan->ErrorCode = HAL_CAN_ERROR_NONE;
 493:Drivers/STM32F4xx_HAL_Driver/Src/stm32f4xx_hal_can.c **** 
 494:Drivers/STM32F4xx_HAL_Driver/Src/stm32f4xx_hal_can.c ****   /* Change CAN state */
 495:Drivers/STM32F4xx_HAL_Driver/Src/stm32f4xx_hal_can.c ****   hcan->State = HAL_CAN_STATE_RESET;
 496:Drivers/STM32F4xx_HAL_Driver/Src/stm32f4xx_hal_can.c **** 
 497:Drivers/STM32F4xx_HAL_Driver/Src/stm32f4xx_hal_can.c ****   /* Return function status */
 498:Drivers/STM32F4xx_HAL_Driver/Src/stm32f4xx_hal_can.c ****   return HAL_OK;
 499:Drivers/STM32F4xx_HAL_Driver/Src/stm32f4xx_hal_can.c **** }
 500:Drivers/STM32F4xx_HAL_Driver/Src/stm32f4xx_hal_can.c **** 
 501:Drivers/STM32F4xx_HAL_Driver/Src/stm32f4xx_hal_can.c **** /**
 502:Drivers/STM32F4xx_HAL_Driver/Src/stm32f4xx_hal_can.c ****   * @brief  Initializes the CAN MSP.
 503:Drivers/STM32F4xx_HAL_Driver/Src/stm32f4xx_hal_can.c ****   * @param  hcan pointer to a CAN_HandleTypeDef structure that contains
 504:Drivers/STM32F4xx_HAL_Driver/Src/stm32f4xx_hal_can.c ****   *         the configuration information for the specified CAN.
 505:Drivers/STM32F4xx_HAL_Driver/Src/stm32f4xx_hal_can.c ****   * @retval None
 506:Drivers/STM32F4xx_HAL_Driver/Src/stm32f4xx_hal_can.c ****   */
 507:Drivers/STM32F4xx_HAL_Driver/Src/stm32f4xx_hal_can.c **** __weak void HAL_CAN_MspInit(CAN_HandleTypeDef *hcan)
 508:Drivers/STM32F4xx_HAL_Driver/Src/stm32f4xx_hal_can.c **** {
  30              		.loc 1 508 1 view -0
  31              		.cfi_startproc
  32              		@ args = 0, pretend = 0, frame = 0
  33              		@ frame_needed = 0, uses_anonymous_args = 0
  34              		@ link register save eliminated.
 509:Drivers/STM32F4xx_HAL_Driver/Src/stm32f4xx_hal_can.c ****   /* Prevent unused argument(s) compilation warning */
 510:Drivers/STM32F4xx_HAL_Driver/Src/stm32f4xx_hal_can.c ****   UNUSED(hcan);
  35              		.loc 1 510 3 view .LVU1
 511:Drivers/STM32F4xx_HAL_Driver/Src/stm32f4xx_hal_can.c **** 
 512:Drivers/STM32F4xx_HAL_Driver/Src/stm32f4xx_hal_can.c ****   /* NOTE : This function Should not be modified, when the callback is needed,
 513:Drivers/STM32F4xx_HAL_Driver/Src/stm32f4xx_hal_can.c ****             the HAL_CAN_MspInit could be implemented in the user file
 514:Drivers/STM32F4xx_HAL_Driver/Src/stm32f4xx_hal_can.c ****    */
 515:Drivers/STM32F4xx_HAL_Driver/Src/stm32f4xx_hal_can.c **** }
  36              		.loc 1 515 1 is_stmt 0 view .LVU2
  37 0000 7047     		bx	lr
  38              		.cfi_endproc
  39              	.LFE241:
  41              		.section	.text.HAL_CAN_Init,"ax",%progbits
  42              		.align	1
  43              		.global	HAL_CAN_Init
  44              		.syntax unified
  45              		.thumb
  46              		.thumb_func
  48              	HAL_CAN_Init:
  49              	.LVL1:
  50              	.LFB239:
 276:Drivers/STM32F4xx_HAL_Driver/Src/stm32f4xx_hal_can.c ****   uint32_t tickstart;
  51              		.loc 1 276 1 is_stmt 1 view -0
  52              		.cfi_startproc
  53              		@ args = 0, pretend = 0, frame = 0
  54              		@ frame_needed = 0, uses_anonymous_args = 0
 277:Drivers/STM32F4xx_HAL_Driver/Src/stm32f4xx_hal_can.c **** 
  55              		.loc 1 277 3 view .LVU4
 280:Drivers/STM32F4xx_HAL_Driver/Src/stm32f4xx_hal_can.c ****   {
ARM GAS  C:\Users\Rick\AppData\Local\Temp\cck9vz6U.s 			page 11


  56              		.loc 1 280 3 view .LVU5
 280:Drivers/STM32F4xx_HAL_Driver/Src/stm32f4xx_hal_can.c ****   {
  57              		.loc 1 280 6 is_stmt 0 view .LVU6
  58 0000 0028     		cmp	r0, #0
  59 0002 00F0A180 		beq	.L21
 276:Drivers/STM32F4xx_HAL_Driver/Src/stm32f4xx_hal_can.c ****   uint32_t tickstart;
  60              		.loc 1 276 1 view .LVU7
  61 0006 38B5     		push	{r3, r4, r5, lr}
  62              		.cfi_def_cfa_offset 16
  63              		.cfi_offset 3, -16
  64              		.cfi_offset 4, -12
  65              		.cfi_offset 5, -8
  66              		.cfi_offset 14, -4
  67 0008 0446     		mov	r4, r0
 286:Drivers/STM32F4xx_HAL_Driver/Src/stm32f4xx_hal_can.c ****   assert_param(IS_FUNCTIONAL_STATE(hcan->Init.TimeTriggeredMode));
  68              		.loc 1 286 3 is_stmt 1 view .LVU8
 287:Drivers/STM32F4xx_HAL_Driver/Src/stm32f4xx_hal_can.c ****   assert_param(IS_FUNCTIONAL_STATE(hcan->Init.AutoBusOff));
  69              		.loc 1 287 3 view .LVU9
 288:Drivers/STM32F4xx_HAL_Driver/Src/stm32f4xx_hal_can.c ****   assert_param(IS_FUNCTIONAL_STATE(hcan->Init.AutoWakeUp));
  70              		.loc 1 288 3 view .LVU10
 289:Drivers/STM32F4xx_HAL_Driver/Src/stm32f4xx_hal_can.c ****   assert_param(IS_FUNCTIONAL_STATE(hcan->Init.AutoRetransmission));
  71              		.loc 1 289 3 view .LVU11
 290:Drivers/STM32F4xx_HAL_Driver/Src/stm32f4xx_hal_can.c ****   assert_param(IS_FUNCTIONAL_STATE(hcan->Init.ReceiveFifoLocked));
  72              		.loc 1 290 3 view .LVU12
 291:Drivers/STM32F4xx_HAL_Driver/Src/stm32f4xx_hal_can.c ****   assert_param(IS_FUNCTIONAL_STATE(hcan->Init.TransmitFifoPriority));
  73              		.loc 1 291 3 view .LVU13
 292:Drivers/STM32F4xx_HAL_Driver/Src/stm32f4xx_hal_can.c ****   assert_param(IS_CAN_MODE(hcan->Init.Mode));
  74              		.loc 1 292 3 view .LVU14
 293:Drivers/STM32F4xx_HAL_Driver/Src/stm32f4xx_hal_can.c ****   assert_param(IS_CAN_SJW(hcan->Init.SyncJumpWidth));
  75              		.loc 1 293 3 view .LVU15
 294:Drivers/STM32F4xx_HAL_Driver/Src/stm32f4xx_hal_can.c ****   assert_param(IS_CAN_BS1(hcan->Init.TimeSeg1));
  76              		.loc 1 294 3 view .LVU16
 295:Drivers/STM32F4xx_HAL_Driver/Src/stm32f4xx_hal_can.c ****   assert_param(IS_CAN_BS2(hcan->Init.TimeSeg2));
  77              		.loc 1 295 3 view .LVU17
 296:Drivers/STM32F4xx_HAL_Driver/Src/stm32f4xx_hal_can.c ****   assert_param(IS_CAN_PRESCALER(hcan->Init.Prescaler));
  78              		.loc 1 296 3 view .LVU18
 297:Drivers/STM32F4xx_HAL_Driver/Src/stm32f4xx_hal_can.c **** 
  79              		.loc 1 297 3 view .LVU19
 327:Drivers/STM32F4xx_HAL_Driver/Src/stm32f4xx_hal_can.c ****   {
  80              		.loc 1 327 3 view .LVU20
 327:Drivers/STM32F4xx_HAL_Driver/Src/stm32f4xx_hal_can.c ****   {
  81              		.loc 1 327 11 is_stmt 0 view .LVU21
  82 000a 90F82030 		ldrb	r3, [r0, #32]	@ zero_extendqisi2
 327:Drivers/STM32F4xx_HAL_Driver/Src/stm32f4xx_hal_can.c ****   {
  83              		.loc 1 327 6 view .LVU22
  84 000e D3B1     		cbz	r3, .L26
  85              	.LVL2:
  86              	.L4:
 335:Drivers/STM32F4xx_HAL_Driver/Src/stm32f4xx_hal_can.c **** 
  87              		.loc 1 335 3 is_stmt 1 view .LVU23
  88 0010 2268     		ldr	r2, [r4]
  89 0012 1368     		ldr	r3, [r2]
  90 0014 43F00103 		orr	r3, r3, #1
  91 0018 1360     		str	r3, [r2]
 338:Drivers/STM32F4xx_HAL_Driver/Src/stm32f4xx_hal_can.c **** 
  92              		.loc 1 338 3 view .LVU24
 338:Drivers/STM32F4xx_HAL_Driver/Src/stm32f4xx_hal_can.c **** 
ARM GAS  C:\Users\Rick\AppData\Local\Temp\cck9vz6U.s 			page 12


  93              		.loc 1 338 15 is_stmt 0 view .LVU25
  94 001a FFF7FEFF 		bl	HAL_GetTick
  95              	.LVL3:
  96 001e 0546     		mov	r5, r0
  97              	.LVL4:
 341:Drivers/STM32F4xx_HAL_Driver/Src/stm32f4xx_hal_can.c ****   {
  98              		.loc 1 341 3 is_stmt 1 view .LVU26
  99              	.L5:
 341:Drivers/STM32F4xx_HAL_Driver/Src/stm32f4xx_hal_can.c ****   {
 100              		.loc 1 341 47 view .LVU27
 341:Drivers/STM32F4xx_HAL_Driver/Src/stm32f4xx_hal_can.c ****   {
 101              		.loc 1 341 15 is_stmt 0 view .LVU28
 102 0020 2368     		ldr	r3, [r4]
 341:Drivers/STM32F4xx_HAL_Driver/Src/stm32f4xx_hal_can.c ****   {
 103              		.loc 1 341 25 view .LVU29
 104 0022 5A68     		ldr	r2, [r3, #4]
 341:Drivers/STM32F4xx_HAL_Driver/Src/stm32f4xx_hal_can.c ****   {
 105              		.loc 1 341 47 view .LVU30
 106 0024 12F0010F 		tst	r2, #1
 107 0028 10D1     		bne	.L27
 343:Drivers/STM32F4xx_HAL_Driver/Src/stm32f4xx_hal_can.c ****     {
 108              		.loc 1 343 5 is_stmt 1 view .LVU31
 343:Drivers/STM32F4xx_HAL_Driver/Src/stm32f4xx_hal_can.c ****     {
 109              		.loc 1 343 10 is_stmt 0 view .LVU32
 110 002a FFF7FEFF 		bl	HAL_GetTick
 111              	.LVL5:
 343:Drivers/STM32F4xx_HAL_Driver/Src/stm32f4xx_hal_can.c ****     {
 112              		.loc 1 343 24 discriminator 1 view .LVU33
 113 002e 401B     		subs	r0, r0, r5
 343:Drivers/STM32F4xx_HAL_Driver/Src/stm32f4xx_hal_can.c ****     {
 114              		.loc 1 343 8 discriminator 1 view .LVU34
 115 0030 0A28     		cmp	r0, #10
 116 0032 F5D9     		bls	.L5
 346:Drivers/STM32F4xx_HAL_Driver/Src/stm32f4xx_hal_can.c **** 
 117              		.loc 1 346 7 is_stmt 1 view .LVU35
 346:Drivers/STM32F4xx_HAL_Driver/Src/stm32f4xx_hal_can.c **** 
 118              		.loc 1 346 11 is_stmt 0 view .LVU36
 119 0034 636A     		ldr	r3, [r4, #36]
 346:Drivers/STM32F4xx_HAL_Driver/Src/stm32f4xx_hal_can.c **** 
 120              		.loc 1 346 23 view .LVU37
 121 0036 43F40033 		orr	r3, r3, #131072
 122 003a 6362     		str	r3, [r4, #36]
 349:Drivers/STM32F4xx_HAL_Driver/Src/stm32f4xx_hal_can.c **** 
 123              		.loc 1 349 7 is_stmt 1 view .LVU38
 349:Drivers/STM32F4xx_HAL_Driver/Src/stm32f4xx_hal_can.c **** 
 124              		.loc 1 349 19 is_stmt 0 view .LVU39
 125 003c 0523     		movs	r3, #5
 126 003e 84F82030 		strb	r3, [r4, #32]
 351:Drivers/STM32F4xx_HAL_Driver/Src/stm32f4xx_hal_can.c ****     }
 127              		.loc 1 351 7 is_stmt 1 view .LVU40
 351:Drivers/STM32F4xx_HAL_Driver/Src/stm32f4xx_hal_can.c ****     }
 128              		.loc 1 351 14 is_stmt 0 view .LVU41
 129 0042 0120     		movs	r0, #1
 130              	.L3:
 451:Drivers/STM32F4xx_HAL_Driver/Src/stm32f4xx_hal_can.c **** 
 131              		.loc 1 451 1 view .LVU42
 132 0044 38BD     		pop	{r3, r4, r5, pc}
ARM GAS  C:\Users\Rick\AppData\Local\Temp\cck9vz6U.s 			page 13


 133              	.LVL6:
 134              	.L26:
 330:Drivers/STM32F4xx_HAL_Driver/Src/stm32f4xx_hal_can.c ****   }
 135              		.loc 1 330 5 is_stmt 1 view .LVU43
 136 0046 FFF7FEFF 		bl	HAL_CAN_MspInit
 137              	.LVL7:
 330:Drivers/STM32F4xx_HAL_Driver/Src/stm32f4xx_hal_can.c ****   }
 138              		.loc 1 330 5 is_stmt 0 view .LVU44
 139 004a E1E7     		b	.L4
 140              	.LVL8:
 141              	.L27:
 356:Drivers/STM32F4xx_HAL_Driver/Src/stm32f4xx_hal_can.c **** 
 142              		.loc 1 356 3 is_stmt 1 view .LVU45
 143 004c 1A68     		ldr	r2, [r3]
 144 004e 22F00202 		bic	r2, r2, #2
 145 0052 1A60     		str	r2, [r3]
 359:Drivers/STM32F4xx_HAL_Driver/Src/stm32f4xx_hal_can.c **** 
 146              		.loc 1 359 3 view .LVU46
 359:Drivers/STM32F4xx_HAL_Driver/Src/stm32f4xx_hal_can.c **** 
 147              		.loc 1 359 15 is_stmt 0 view .LVU47
 148 0054 FFF7FEFF 		bl	HAL_GetTick
 149              	.LVL9:
 150 0058 0546     		mov	r5, r0
 151              	.LVL10:
 362:Drivers/STM32F4xx_HAL_Driver/Src/stm32f4xx_hal_can.c ****   {
 152              		.loc 1 362 3 is_stmt 1 view .LVU48
 153              	.L7:
 362:Drivers/STM32F4xx_HAL_Driver/Src/stm32f4xx_hal_can.c ****   {
 154              		.loc 1 362 47 view .LVU49
 362:Drivers/STM32F4xx_HAL_Driver/Src/stm32f4xx_hal_can.c ****   {
 155              		.loc 1 362 15 is_stmt 0 view .LVU50
 156 005a 2368     		ldr	r3, [r4]
 362:Drivers/STM32F4xx_HAL_Driver/Src/stm32f4xx_hal_can.c ****   {
 157              		.loc 1 362 25 view .LVU51
 158 005c 5A68     		ldr	r2, [r3, #4]
 362:Drivers/STM32F4xx_HAL_Driver/Src/stm32f4xx_hal_can.c ****   {
 159              		.loc 1 362 47 view .LVU52
 160 005e 12F0020F 		tst	r2, #2
 161 0062 0DD0     		beq	.L28
 364:Drivers/STM32F4xx_HAL_Driver/Src/stm32f4xx_hal_can.c ****     {
 162              		.loc 1 364 5 is_stmt 1 view .LVU53
 364:Drivers/STM32F4xx_HAL_Driver/Src/stm32f4xx_hal_can.c ****     {
 163              		.loc 1 364 10 is_stmt 0 view .LVU54
 164 0064 FFF7FEFF 		bl	HAL_GetTick
 165              	.LVL11:
 364:Drivers/STM32F4xx_HAL_Driver/Src/stm32f4xx_hal_can.c ****     {
 166              		.loc 1 364 24 discriminator 1 view .LVU55
 167 0068 401B     		subs	r0, r0, r5
 364:Drivers/STM32F4xx_HAL_Driver/Src/stm32f4xx_hal_can.c ****     {
 168              		.loc 1 364 8 discriminator 1 view .LVU56
 169 006a 0A28     		cmp	r0, #10
 170 006c F5D9     		bls	.L7
 367:Drivers/STM32F4xx_HAL_Driver/Src/stm32f4xx_hal_can.c **** 
 171              		.loc 1 367 7 is_stmt 1 view .LVU57
 367:Drivers/STM32F4xx_HAL_Driver/Src/stm32f4xx_hal_can.c **** 
 172              		.loc 1 367 11 is_stmt 0 view .LVU58
 173 006e 636A     		ldr	r3, [r4, #36]
ARM GAS  C:\Users\Rick\AppData\Local\Temp\cck9vz6U.s 			page 14


 367:Drivers/STM32F4xx_HAL_Driver/Src/stm32f4xx_hal_can.c **** 
 174              		.loc 1 367 23 view .LVU59
 175 0070 43F40033 		orr	r3, r3, #131072
 176 0074 6362     		str	r3, [r4, #36]
 370:Drivers/STM32F4xx_HAL_Driver/Src/stm32f4xx_hal_can.c **** 
 177              		.loc 1 370 7 is_stmt 1 view .LVU60
 370:Drivers/STM32F4xx_HAL_Driver/Src/stm32f4xx_hal_can.c **** 
 178              		.loc 1 370 19 is_stmt 0 view .LVU61
 179 0076 0523     		movs	r3, #5
 180 0078 84F82030 		strb	r3, [r4, #32]
 372:Drivers/STM32F4xx_HAL_Driver/Src/stm32f4xx_hal_can.c ****     }
 181              		.loc 1 372 7 is_stmt 1 view .LVU62
 372:Drivers/STM32F4xx_HAL_Driver/Src/stm32f4xx_hal_can.c ****     }
 182              		.loc 1 372 14 is_stmt 0 view .LVU63
 183 007c 0120     		movs	r0, #1
 184 007e E1E7     		b	.L3
 185              	.L28:
 377:Drivers/STM32F4xx_HAL_Driver/Src/stm32f4xx_hal_can.c ****   {
 186              		.loc 1 377 3 is_stmt 1 view .LVU64
 377:Drivers/STM32F4xx_HAL_Driver/Src/stm32f4xx_hal_can.c ****   {
 187              		.loc 1 377 17 is_stmt 0 view .LVU65
 188 0080 227E     		ldrb	r2, [r4, #24]	@ zero_extendqisi2
 377:Drivers/STM32F4xx_HAL_Driver/Src/stm32f4xx_hal_can.c ****   {
 189              		.loc 1 377 6 view .LVU66
 190 0082 012A     		cmp	r2, #1
 191 0084 3DD0     		beq	.L29
 383:Drivers/STM32F4xx_HAL_Driver/Src/stm32f4xx_hal_can.c ****   }
 192              		.loc 1 383 5 is_stmt 1 view .LVU67
 193 0086 1A68     		ldr	r2, [r3]
 194 0088 22F08002 		bic	r2, r2, #128
 195 008c 1A60     		str	r2, [r3]
 196              	.L10:
 387:Drivers/STM32F4xx_HAL_Driver/Src/stm32f4xx_hal_can.c ****   {
 197              		.loc 1 387 3 view .LVU68
 387:Drivers/STM32F4xx_HAL_Driver/Src/stm32f4xx_hal_can.c ****   {
 198              		.loc 1 387 17 is_stmt 0 view .LVU69
 199 008e 637E     		ldrb	r3, [r4, #25]	@ zero_extendqisi2
 387:Drivers/STM32F4xx_HAL_Driver/Src/stm32f4xx_hal_can.c ****   {
 200              		.loc 1 387 6 view .LVU70
 201 0090 012B     		cmp	r3, #1
 202 0092 3BD0     		beq	.L30
 393:Drivers/STM32F4xx_HAL_Driver/Src/stm32f4xx_hal_can.c ****   }
 203              		.loc 1 393 5 is_stmt 1 view .LVU71
 204 0094 2268     		ldr	r2, [r4]
 205 0096 1368     		ldr	r3, [r2]
 206 0098 23F04003 		bic	r3, r3, #64
 207 009c 1360     		str	r3, [r2]
 208              	.L12:
 397:Drivers/STM32F4xx_HAL_Driver/Src/stm32f4xx_hal_can.c ****   {
 209              		.loc 1 397 3 view .LVU72
 397:Drivers/STM32F4xx_HAL_Driver/Src/stm32f4xx_hal_can.c ****   {
 210              		.loc 1 397 17 is_stmt 0 view .LVU73
 211 009e A37E     		ldrb	r3, [r4, #26]	@ zero_extendqisi2
 397:Drivers/STM32F4xx_HAL_Driver/Src/stm32f4xx_hal_can.c ****   {
 212              		.loc 1 397 6 view .LVU74
 213 00a0 012B     		cmp	r3, #1
 214 00a2 39D0     		beq	.L31
ARM GAS  C:\Users\Rick\AppData\Local\Temp\cck9vz6U.s 			page 15


 403:Drivers/STM32F4xx_HAL_Driver/Src/stm32f4xx_hal_can.c ****   }
 215              		.loc 1 403 5 is_stmt 1 view .LVU75
 216 00a4 2268     		ldr	r2, [r4]
 217 00a6 1368     		ldr	r3, [r2]
 218 00a8 23F02003 		bic	r3, r3, #32
 219 00ac 1360     		str	r3, [r2]
 220              	.L14:
 407:Drivers/STM32F4xx_HAL_Driver/Src/stm32f4xx_hal_can.c ****   {
 221              		.loc 1 407 3 view .LVU76
 407:Drivers/STM32F4xx_HAL_Driver/Src/stm32f4xx_hal_can.c ****   {
 222              		.loc 1 407 17 is_stmt 0 view .LVU77
 223 00ae E37E     		ldrb	r3, [r4, #27]	@ zero_extendqisi2
 407:Drivers/STM32F4xx_HAL_Driver/Src/stm32f4xx_hal_can.c ****   {
 224              		.loc 1 407 6 view .LVU78
 225 00b0 012B     		cmp	r3, #1
 226 00b2 37D0     		beq	.L32
 413:Drivers/STM32F4xx_HAL_Driver/Src/stm32f4xx_hal_can.c ****   }
 227              		.loc 1 413 5 is_stmt 1 view .LVU79
 228 00b4 2268     		ldr	r2, [r4]
 229 00b6 1368     		ldr	r3, [r2]
 230 00b8 43F01003 		orr	r3, r3, #16
 231 00bc 1360     		str	r3, [r2]
 232              	.L16:
 417:Drivers/STM32F4xx_HAL_Driver/Src/stm32f4xx_hal_can.c ****   {
 233              		.loc 1 417 3 view .LVU80
 417:Drivers/STM32F4xx_HAL_Driver/Src/stm32f4xx_hal_can.c ****   {
 234              		.loc 1 417 17 is_stmt 0 view .LVU81
 235 00be 237F     		ldrb	r3, [r4, #28]	@ zero_extendqisi2
 417:Drivers/STM32F4xx_HAL_Driver/Src/stm32f4xx_hal_can.c ****   {
 236              		.loc 1 417 6 view .LVU82
 237 00c0 012B     		cmp	r3, #1
 238 00c2 35D0     		beq	.L33
 423:Drivers/STM32F4xx_HAL_Driver/Src/stm32f4xx_hal_can.c ****   }
 239              		.loc 1 423 5 is_stmt 1 view .LVU83
 240 00c4 2268     		ldr	r2, [r4]
 241 00c6 1368     		ldr	r3, [r2]
 242 00c8 23F00803 		bic	r3, r3, #8
 243 00cc 1360     		str	r3, [r2]
 244              	.L18:
 427:Drivers/STM32F4xx_HAL_Driver/Src/stm32f4xx_hal_can.c ****   {
 245              		.loc 1 427 3 view .LVU84
 427:Drivers/STM32F4xx_HAL_Driver/Src/stm32f4xx_hal_can.c ****   {
 246              		.loc 1 427 17 is_stmt 0 view .LVU85
 247 00ce 637F     		ldrb	r3, [r4, #29]	@ zero_extendqisi2
 427:Drivers/STM32F4xx_HAL_Driver/Src/stm32f4xx_hal_can.c ****   {
 248              		.loc 1 427 6 view .LVU86
 249 00d0 012B     		cmp	r3, #1
 250 00d2 33D0     		beq	.L34
 433:Drivers/STM32F4xx_HAL_Driver/Src/stm32f4xx_hal_can.c ****   }
 251              		.loc 1 433 5 is_stmt 1 view .LVU87
 252 00d4 2268     		ldr	r2, [r4]
 253 00d6 1368     		ldr	r3, [r2]
 254 00d8 23F00403 		bic	r3, r3, #4
 255 00dc 1360     		str	r3, [r2]
 256              	.L20:
 437:Drivers/STM32F4xx_HAL_Driver/Src/stm32f4xx_hal_can.c ****                                             hcan->Init.SyncJumpWidth  |
 257              		.loc 1 437 3 view .LVU88
ARM GAS  C:\Users\Rick\AppData\Local\Temp\cck9vz6U.s 			page 16


 258 00de A368     		ldr	r3, [r4, #8]
 259 00e0 E268     		ldr	r2, [r4, #12]
 260 00e2 1343     		orrs	r3, r3, r2
 261 00e4 2269     		ldr	r2, [r4, #16]
 262 00e6 1343     		orrs	r3, r3, r2
 263 00e8 6269     		ldr	r2, [r4, #20]
 264 00ea 1343     		orrs	r3, r3, r2
 265 00ec 6268     		ldr	r2, [r4, #4]
 266 00ee 013A     		subs	r2, r2, #1
 267 00f0 2168     		ldr	r1, [r4]
 268 00f2 1343     		orrs	r3, r3, r2
 269 00f4 CB61     		str	r3, [r1, #28]
 444:Drivers/STM32F4xx_HAL_Driver/Src/stm32f4xx_hal_can.c **** 
 270              		.loc 1 444 3 view .LVU89
 444:Drivers/STM32F4xx_HAL_Driver/Src/stm32f4xx_hal_can.c **** 
 271              		.loc 1 444 19 is_stmt 0 view .LVU90
 272 00f6 0020     		movs	r0, #0
 273 00f8 6062     		str	r0, [r4, #36]
 447:Drivers/STM32F4xx_HAL_Driver/Src/stm32f4xx_hal_can.c **** 
 274              		.loc 1 447 3 is_stmt 1 view .LVU91
 447:Drivers/STM32F4xx_HAL_Driver/Src/stm32f4xx_hal_can.c **** 
 275              		.loc 1 447 15 is_stmt 0 view .LVU92
 276 00fa 0123     		movs	r3, #1
 277 00fc 84F82030 		strb	r3, [r4, #32]
 450:Drivers/STM32F4xx_HAL_Driver/Src/stm32f4xx_hal_can.c **** }
 278              		.loc 1 450 3 is_stmt 1 view .LVU93
 450:Drivers/STM32F4xx_HAL_Driver/Src/stm32f4xx_hal_can.c **** }
 279              		.loc 1 450 10 is_stmt 0 view .LVU94
 280 0100 A0E7     		b	.L3
 281              	.L29:
 379:Drivers/STM32F4xx_HAL_Driver/Src/stm32f4xx_hal_can.c ****   }
 282              		.loc 1 379 5 is_stmt 1 view .LVU95
 283 0102 1A68     		ldr	r2, [r3]
 284 0104 42F08002 		orr	r2, r2, #128
 285 0108 1A60     		str	r2, [r3]
 286 010a C0E7     		b	.L10
 287              	.L30:
 389:Drivers/STM32F4xx_HAL_Driver/Src/stm32f4xx_hal_can.c ****   }
 288              		.loc 1 389 5 view .LVU96
 289 010c 2268     		ldr	r2, [r4]
 290 010e 1368     		ldr	r3, [r2]
 291 0110 43F04003 		orr	r3, r3, #64
 292 0114 1360     		str	r3, [r2]
 293 0116 C2E7     		b	.L12
 294              	.L31:
 399:Drivers/STM32F4xx_HAL_Driver/Src/stm32f4xx_hal_can.c ****   }
 295              		.loc 1 399 5 view .LVU97
 296 0118 2268     		ldr	r2, [r4]
 297 011a 1368     		ldr	r3, [r2]
 298 011c 43F02003 		orr	r3, r3, #32
 299 0120 1360     		str	r3, [r2]
 300 0122 C4E7     		b	.L14
 301              	.L32:
 409:Drivers/STM32F4xx_HAL_Driver/Src/stm32f4xx_hal_can.c ****   }
 302              		.loc 1 409 5 view .LVU98
 303 0124 2268     		ldr	r2, [r4]
 304 0126 1368     		ldr	r3, [r2]
ARM GAS  C:\Users\Rick\AppData\Local\Temp\cck9vz6U.s 			page 17


 305 0128 23F01003 		bic	r3, r3, #16
 306 012c 1360     		str	r3, [r2]
 307 012e C6E7     		b	.L16
 308              	.L33:
 419:Drivers/STM32F4xx_HAL_Driver/Src/stm32f4xx_hal_can.c ****   }
 309              		.loc 1 419 5 view .LVU99
 310 0130 2268     		ldr	r2, [r4]
 311 0132 1368     		ldr	r3, [r2]
 312 0134 43F00803 		orr	r3, r3, #8
 313 0138 1360     		str	r3, [r2]
 314 013a C8E7     		b	.L18
 315              	.L34:
 429:Drivers/STM32F4xx_HAL_Driver/Src/stm32f4xx_hal_can.c ****   }
 316              		.loc 1 429 5 view .LVU100
 317 013c 2268     		ldr	r2, [r4]
 318 013e 1368     		ldr	r3, [r2]
 319 0140 43F00403 		orr	r3, r3, #4
 320 0144 1360     		str	r3, [r2]
 321 0146 CAE7     		b	.L20
 322              	.LVL12:
 323              	.L21:
 324              		.cfi_def_cfa_offset 0
 325              		.cfi_restore 3
 326              		.cfi_restore 4
 327              		.cfi_restore 5
 328              		.cfi_restore 14
 282:Drivers/STM32F4xx_HAL_Driver/Src/stm32f4xx_hal_can.c ****   }
 329              		.loc 1 282 12 is_stmt 0 view .LVU101
 330 0148 0120     		movs	r0, #1
 331              	.LVL13:
 451:Drivers/STM32F4xx_HAL_Driver/Src/stm32f4xx_hal_can.c **** 
 332              		.loc 1 451 1 view .LVU102
 333 014a 7047     		bx	lr
 334              		.cfi_endproc
 335              	.LFE239:
 337              		.section	.text.HAL_CAN_MspDeInit,"ax",%progbits
 338              		.align	1
 339              		.weak	HAL_CAN_MspDeInit
 340              		.syntax unified
 341              		.thumb
 342              		.thumb_func
 344              	HAL_CAN_MspDeInit:
 345              	.LVL14:
 346              	.LFB242:
 516:Drivers/STM32F4xx_HAL_Driver/Src/stm32f4xx_hal_can.c **** 
 517:Drivers/STM32F4xx_HAL_Driver/Src/stm32f4xx_hal_can.c **** /**
 518:Drivers/STM32F4xx_HAL_Driver/Src/stm32f4xx_hal_can.c ****   * @brief  DeInitializes the CAN MSP.
 519:Drivers/STM32F4xx_HAL_Driver/Src/stm32f4xx_hal_can.c ****   * @param  hcan pointer to a CAN_HandleTypeDef structure that contains
 520:Drivers/STM32F4xx_HAL_Driver/Src/stm32f4xx_hal_can.c ****   *         the configuration information for the specified CAN.
 521:Drivers/STM32F4xx_HAL_Driver/Src/stm32f4xx_hal_can.c ****   * @retval None
 522:Drivers/STM32F4xx_HAL_Driver/Src/stm32f4xx_hal_can.c ****   */
 523:Drivers/STM32F4xx_HAL_Driver/Src/stm32f4xx_hal_can.c **** __weak void HAL_CAN_MspDeInit(CAN_HandleTypeDef *hcan)
 524:Drivers/STM32F4xx_HAL_Driver/Src/stm32f4xx_hal_can.c **** {
 347              		.loc 1 524 1 is_stmt 1 view -0
 348              		.cfi_startproc
 349              		@ args = 0, pretend = 0, frame = 0
 350              		@ frame_needed = 0, uses_anonymous_args = 0
ARM GAS  C:\Users\Rick\AppData\Local\Temp\cck9vz6U.s 			page 18


 351              		@ link register save eliminated.
 525:Drivers/STM32F4xx_HAL_Driver/Src/stm32f4xx_hal_can.c ****   /* Prevent unused argument(s) compilation warning */
 526:Drivers/STM32F4xx_HAL_Driver/Src/stm32f4xx_hal_can.c ****   UNUSED(hcan);
 352              		.loc 1 526 3 view .LVU104
 527:Drivers/STM32F4xx_HAL_Driver/Src/stm32f4xx_hal_can.c **** 
 528:Drivers/STM32F4xx_HAL_Driver/Src/stm32f4xx_hal_can.c ****   /* NOTE : This function Should not be modified, when the callback is needed,
 529:Drivers/STM32F4xx_HAL_Driver/Src/stm32f4xx_hal_can.c ****             the HAL_CAN_MspDeInit could be implemented in the user file
 530:Drivers/STM32F4xx_HAL_Driver/Src/stm32f4xx_hal_can.c ****    */
 531:Drivers/STM32F4xx_HAL_Driver/Src/stm32f4xx_hal_can.c **** }
 353              		.loc 1 531 1 is_stmt 0 view .LVU105
 354 0000 7047     		bx	lr
 355              		.cfi_endproc
 356              	.LFE242:
 358              		.section	.text.HAL_CAN_ConfigFilter,"ax",%progbits
 359              		.align	1
 360              		.global	HAL_CAN_ConfigFilter
 361              		.syntax unified
 362              		.thumb
 363              		.thumb_func
 365              	HAL_CAN_ConfigFilter:
 366              	.LVL15:
 367              	.LFB243:
 532:Drivers/STM32F4xx_HAL_Driver/Src/stm32f4xx_hal_can.c **** 
 533:Drivers/STM32F4xx_HAL_Driver/Src/stm32f4xx_hal_can.c **** #if USE_HAL_CAN_REGISTER_CALLBACKS == 1
 534:Drivers/STM32F4xx_HAL_Driver/Src/stm32f4xx_hal_can.c **** /**
 535:Drivers/STM32F4xx_HAL_Driver/Src/stm32f4xx_hal_can.c ****   * @brief  Register a CAN CallBack.
 536:Drivers/STM32F4xx_HAL_Driver/Src/stm32f4xx_hal_can.c ****   *         To be used instead of the weak predefined callback
 537:Drivers/STM32F4xx_HAL_Driver/Src/stm32f4xx_hal_can.c ****   * @param  hcan pointer to a CAN_HandleTypeDef structure that contains
 538:Drivers/STM32F4xx_HAL_Driver/Src/stm32f4xx_hal_can.c ****   *         the configuration information for CAN module
 539:Drivers/STM32F4xx_HAL_Driver/Src/stm32f4xx_hal_can.c ****   * @param  CallbackID ID of the callback to be registered
 540:Drivers/STM32F4xx_HAL_Driver/Src/stm32f4xx_hal_can.c ****   *         This parameter can be one of the following values:
 541:Drivers/STM32F4xx_HAL_Driver/Src/stm32f4xx_hal_can.c ****   *           @arg @ref HAL_CAN_TX_MAILBOX0_COMPLETE_CB_ID Tx Mailbox 0 Complete callback ID
 542:Drivers/STM32F4xx_HAL_Driver/Src/stm32f4xx_hal_can.c ****   *           @arg @ref HAL_CAN_TX_MAILBOX1_COMPLETE_CB_ID Tx Mailbox 1 Complete callback ID
 543:Drivers/STM32F4xx_HAL_Driver/Src/stm32f4xx_hal_can.c ****   *           @arg @ref HAL_CAN_TX_MAILBOX2_COMPLETE_CB_ID Tx Mailbox 2 Complete callback ID
 544:Drivers/STM32F4xx_HAL_Driver/Src/stm32f4xx_hal_can.c ****   *           @arg @ref HAL_CAN_TX_MAILBOX0_ABORT_CB_ID Tx Mailbox 0 Abort callback ID
 545:Drivers/STM32F4xx_HAL_Driver/Src/stm32f4xx_hal_can.c ****   *           @arg @ref HAL_CAN_TX_MAILBOX1_ABORT_CB_ID Tx Mailbox 1 Abort callback ID
 546:Drivers/STM32F4xx_HAL_Driver/Src/stm32f4xx_hal_can.c ****   *           @arg @ref HAL_CAN_TX_MAILBOX2_ABORT_CB_ID Tx Mailbox 2 Abort callback ID
 547:Drivers/STM32F4xx_HAL_Driver/Src/stm32f4xx_hal_can.c ****   *           @arg @ref HAL_CAN_RX_FIFO0_MSG_PENDING_CB_ID Rx Fifo 0 message pending callback ID
 548:Drivers/STM32F4xx_HAL_Driver/Src/stm32f4xx_hal_can.c ****   *           @arg @ref HAL_CAN_RX_FIFO0_FULL_CB_ID Rx Fifo 0 full callback ID
 549:Drivers/STM32F4xx_HAL_Driver/Src/stm32f4xx_hal_can.c ****   *           @arg @ref HAL_CAN_RX_FIFO1_MSG_PENDING_CB_ID Rx Fifo 1 message pending callback ID
 550:Drivers/STM32F4xx_HAL_Driver/Src/stm32f4xx_hal_can.c ****   *           @arg @ref HAL_CAN_RX_FIFO1_FULL_CB_ID Rx Fifo 1 full callback ID
 551:Drivers/STM32F4xx_HAL_Driver/Src/stm32f4xx_hal_can.c ****   *           @arg @ref HAL_CAN_SLEEP_CB_ID Sleep callback ID
 552:Drivers/STM32F4xx_HAL_Driver/Src/stm32f4xx_hal_can.c ****   *           @arg @ref HAL_CAN_WAKEUP_FROM_RX_MSG_CB_ID Wake Up from Rx message callback ID
 553:Drivers/STM32F4xx_HAL_Driver/Src/stm32f4xx_hal_can.c ****   *           @arg @ref HAL_CAN_ERROR_CB_ID Error callback ID
 554:Drivers/STM32F4xx_HAL_Driver/Src/stm32f4xx_hal_can.c ****   *           @arg @ref HAL_CAN_MSPINIT_CB_ID MspInit callback ID
 555:Drivers/STM32F4xx_HAL_Driver/Src/stm32f4xx_hal_can.c ****   *           @arg @ref HAL_CAN_MSPDEINIT_CB_ID MspDeInit callback ID
 556:Drivers/STM32F4xx_HAL_Driver/Src/stm32f4xx_hal_can.c ****   * @param  pCallback pointer to the Callback function
 557:Drivers/STM32F4xx_HAL_Driver/Src/stm32f4xx_hal_can.c ****   * @retval HAL status
 558:Drivers/STM32F4xx_HAL_Driver/Src/stm32f4xx_hal_can.c ****   */
 559:Drivers/STM32F4xx_HAL_Driver/Src/stm32f4xx_hal_can.c **** HAL_StatusTypeDef HAL_CAN_RegisterCallback(CAN_HandleTypeDef *hcan, HAL_CAN_CallbackIDTypeDef Callb
 560:Drivers/STM32F4xx_HAL_Driver/Src/stm32f4xx_hal_can.c ****                                            void (* pCallback)(CAN_HandleTypeDef *_hcan))
 561:Drivers/STM32F4xx_HAL_Driver/Src/stm32f4xx_hal_can.c **** {
 562:Drivers/STM32F4xx_HAL_Driver/Src/stm32f4xx_hal_can.c ****   HAL_StatusTypeDef status = HAL_OK;
 563:Drivers/STM32F4xx_HAL_Driver/Src/stm32f4xx_hal_can.c **** 
 564:Drivers/STM32F4xx_HAL_Driver/Src/stm32f4xx_hal_can.c ****   if (pCallback == NULL)
 565:Drivers/STM32F4xx_HAL_Driver/Src/stm32f4xx_hal_can.c ****   {
 566:Drivers/STM32F4xx_HAL_Driver/Src/stm32f4xx_hal_can.c ****     /* Update the error code */
ARM GAS  C:\Users\Rick\AppData\Local\Temp\cck9vz6U.s 			page 19


 567:Drivers/STM32F4xx_HAL_Driver/Src/stm32f4xx_hal_can.c ****     hcan->ErrorCode |= HAL_CAN_ERROR_INVALID_CALLBACK;
 568:Drivers/STM32F4xx_HAL_Driver/Src/stm32f4xx_hal_can.c **** 
 569:Drivers/STM32F4xx_HAL_Driver/Src/stm32f4xx_hal_can.c ****     return HAL_ERROR;
 570:Drivers/STM32F4xx_HAL_Driver/Src/stm32f4xx_hal_can.c ****   }
 571:Drivers/STM32F4xx_HAL_Driver/Src/stm32f4xx_hal_can.c **** 
 572:Drivers/STM32F4xx_HAL_Driver/Src/stm32f4xx_hal_can.c ****   if (hcan->State == HAL_CAN_STATE_READY)
 573:Drivers/STM32F4xx_HAL_Driver/Src/stm32f4xx_hal_can.c ****   {
 574:Drivers/STM32F4xx_HAL_Driver/Src/stm32f4xx_hal_can.c ****     switch (CallbackID)
 575:Drivers/STM32F4xx_HAL_Driver/Src/stm32f4xx_hal_can.c ****     {
 576:Drivers/STM32F4xx_HAL_Driver/Src/stm32f4xx_hal_can.c ****       case HAL_CAN_TX_MAILBOX0_COMPLETE_CB_ID :
 577:Drivers/STM32F4xx_HAL_Driver/Src/stm32f4xx_hal_can.c ****         hcan->TxMailbox0CompleteCallback = pCallback;
 578:Drivers/STM32F4xx_HAL_Driver/Src/stm32f4xx_hal_can.c ****         break;
 579:Drivers/STM32F4xx_HAL_Driver/Src/stm32f4xx_hal_can.c **** 
 580:Drivers/STM32F4xx_HAL_Driver/Src/stm32f4xx_hal_can.c ****       case HAL_CAN_TX_MAILBOX1_COMPLETE_CB_ID :
 581:Drivers/STM32F4xx_HAL_Driver/Src/stm32f4xx_hal_can.c ****         hcan->TxMailbox1CompleteCallback = pCallback;
 582:Drivers/STM32F4xx_HAL_Driver/Src/stm32f4xx_hal_can.c ****         break;
 583:Drivers/STM32F4xx_HAL_Driver/Src/stm32f4xx_hal_can.c **** 
 584:Drivers/STM32F4xx_HAL_Driver/Src/stm32f4xx_hal_can.c ****       case HAL_CAN_TX_MAILBOX2_COMPLETE_CB_ID :
 585:Drivers/STM32F4xx_HAL_Driver/Src/stm32f4xx_hal_can.c ****         hcan->TxMailbox2CompleteCallback = pCallback;
 586:Drivers/STM32F4xx_HAL_Driver/Src/stm32f4xx_hal_can.c ****         break;
 587:Drivers/STM32F4xx_HAL_Driver/Src/stm32f4xx_hal_can.c **** 
 588:Drivers/STM32F4xx_HAL_Driver/Src/stm32f4xx_hal_can.c ****       case HAL_CAN_TX_MAILBOX0_ABORT_CB_ID :
 589:Drivers/STM32F4xx_HAL_Driver/Src/stm32f4xx_hal_can.c ****         hcan->TxMailbox0AbortCallback = pCallback;
 590:Drivers/STM32F4xx_HAL_Driver/Src/stm32f4xx_hal_can.c ****         break;
 591:Drivers/STM32F4xx_HAL_Driver/Src/stm32f4xx_hal_can.c **** 
 592:Drivers/STM32F4xx_HAL_Driver/Src/stm32f4xx_hal_can.c ****       case HAL_CAN_TX_MAILBOX1_ABORT_CB_ID :
 593:Drivers/STM32F4xx_HAL_Driver/Src/stm32f4xx_hal_can.c ****         hcan->TxMailbox1AbortCallback = pCallback;
 594:Drivers/STM32F4xx_HAL_Driver/Src/stm32f4xx_hal_can.c ****         break;
 595:Drivers/STM32F4xx_HAL_Driver/Src/stm32f4xx_hal_can.c **** 
 596:Drivers/STM32F4xx_HAL_Driver/Src/stm32f4xx_hal_can.c ****       case HAL_CAN_TX_MAILBOX2_ABORT_CB_ID :
 597:Drivers/STM32F4xx_HAL_Driver/Src/stm32f4xx_hal_can.c ****         hcan->TxMailbox2AbortCallback = pCallback;
 598:Drivers/STM32F4xx_HAL_Driver/Src/stm32f4xx_hal_can.c ****         break;
 599:Drivers/STM32F4xx_HAL_Driver/Src/stm32f4xx_hal_can.c **** 
 600:Drivers/STM32F4xx_HAL_Driver/Src/stm32f4xx_hal_can.c ****       case HAL_CAN_RX_FIFO0_MSG_PENDING_CB_ID :
 601:Drivers/STM32F4xx_HAL_Driver/Src/stm32f4xx_hal_can.c ****         hcan->RxFifo0MsgPendingCallback = pCallback;
 602:Drivers/STM32F4xx_HAL_Driver/Src/stm32f4xx_hal_can.c ****         break;
 603:Drivers/STM32F4xx_HAL_Driver/Src/stm32f4xx_hal_can.c **** 
 604:Drivers/STM32F4xx_HAL_Driver/Src/stm32f4xx_hal_can.c ****       case HAL_CAN_RX_FIFO0_FULL_CB_ID :
 605:Drivers/STM32F4xx_HAL_Driver/Src/stm32f4xx_hal_can.c ****         hcan->RxFifo0FullCallback = pCallback;
 606:Drivers/STM32F4xx_HAL_Driver/Src/stm32f4xx_hal_can.c ****         break;
 607:Drivers/STM32F4xx_HAL_Driver/Src/stm32f4xx_hal_can.c **** 
 608:Drivers/STM32F4xx_HAL_Driver/Src/stm32f4xx_hal_can.c ****       case HAL_CAN_RX_FIFO1_MSG_PENDING_CB_ID :
 609:Drivers/STM32F4xx_HAL_Driver/Src/stm32f4xx_hal_can.c ****         hcan->RxFifo1MsgPendingCallback = pCallback;
 610:Drivers/STM32F4xx_HAL_Driver/Src/stm32f4xx_hal_can.c ****         break;
 611:Drivers/STM32F4xx_HAL_Driver/Src/stm32f4xx_hal_can.c **** 
 612:Drivers/STM32F4xx_HAL_Driver/Src/stm32f4xx_hal_can.c ****       case HAL_CAN_RX_FIFO1_FULL_CB_ID :
 613:Drivers/STM32F4xx_HAL_Driver/Src/stm32f4xx_hal_can.c ****         hcan->RxFifo1FullCallback = pCallback;
 614:Drivers/STM32F4xx_HAL_Driver/Src/stm32f4xx_hal_can.c ****         break;
 615:Drivers/STM32F4xx_HAL_Driver/Src/stm32f4xx_hal_can.c **** 
 616:Drivers/STM32F4xx_HAL_Driver/Src/stm32f4xx_hal_can.c ****       case HAL_CAN_SLEEP_CB_ID :
 617:Drivers/STM32F4xx_HAL_Driver/Src/stm32f4xx_hal_can.c ****         hcan->SleepCallback = pCallback;
 618:Drivers/STM32F4xx_HAL_Driver/Src/stm32f4xx_hal_can.c ****         break;
 619:Drivers/STM32F4xx_HAL_Driver/Src/stm32f4xx_hal_can.c **** 
 620:Drivers/STM32F4xx_HAL_Driver/Src/stm32f4xx_hal_can.c ****       case HAL_CAN_WAKEUP_FROM_RX_MSG_CB_ID :
 621:Drivers/STM32F4xx_HAL_Driver/Src/stm32f4xx_hal_can.c ****         hcan->WakeUpFromRxMsgCallback = pCallback;
 622:Drivers/STM32F4xx_HAL_Driver/Src/stm32f4xx_hal_can.c ****         break;
 623:Drivers/STM32F4xx_HAL_Driver/Src/stm32f4xx_hal_can.c **** 
ARM GAS  C:\Users\Rick\AppData\Local\Temp\cck9vz6U.s 			page 20


 624:Drivers/STM32F4xx_HAL_Driver/Src/stm32f4xx_hal_can.c ****       case HAL_CAN_ERROR_CB_ID :
 625:Drivers/STM32F4xx_HAL_Driver/Src/stm32f4xx_hal_can.c ****         hcan->ErrorCallback = pCallback;
 626:Drivers/STM32F4xx_HAL_Driver/Src/stm32f4xx_hal_can.c ****         break;
 627:Drivers/STM32F4xx_HAL_Driver/Src/stm32f4xx_hal_can.c **** 
 628:Drivers/STM32F4xx_HAL_Driver/Src/stm32f4xx_hal_can.c ****       case HAL_CAN_MSPINIT_CB_ID :
 629:Drivers/STM32F4xx_HAL_Driver/Src/stm32f4xx_hal_can.c ****         hcan->MspInitCallback = pCallback;
 630:Drivers/STM32F4xx_HAL_Driver/Src/stm32f4xx_hal_can.c ****         break;
 631:Drivers/STM32F4xx_HAL_Driver/Src/stm32f4xx_hal_can.c **** 
 632:Drivers/STM32F4xx_HAL_Driver/Src/stm32f4xx_hal_can.c ****       case HAL_CAN_MSPDEINIT_CB_ID :
 633:Drivers/STM32F4xx_HAL_Driver/Src/stm32f4xx_hal_can.c ****         hcan->MspDeInitCallback = pCallback;
 634:Drivers/STM32F4xx_HAL_Driver/Src/stm32f4xx_hal_can.c ****         break;
 635:Drivers/STM32F4xx_HAL_Driver/Src/stm32f4xx_hal_can.c **** 
 636:Drivers/STM32F4xx_HAL_Driver/Src/stm32f4xx_hal_can.c ****       default :
 637:Drivers/STM32F4xx_HAL_Driver/Src/stm32f4xx_hal_can.c ****         /* Update the error code */
 638:Drivers/STM32F4xx_HAL_Driver/Src/stm32f4xx_hal_can.c ****         hcan->ErrorCode |= HAL_CAN_ERROR_INVALID_CALLBACK;
 639:Drivers/STM32F4xx_HAL_Driver/Src/stm32f4xx_hal_can.c **** 
 640:Drivers/STM32F4xx_HAL_Driver/Src/stm32f4xx_hal_can.c ****         /* Return error status */
 641:Drivers/STM32F4xx_HAL_Driver/Src/stm32f4xx_hal_can.c ****         status =  HAL_ERROR;
 642:Drivers/STM32F4xx_HAL_Driver/Src/stm32f4xx_hal_can.c ****         break;
 643:Drivers/STM32F4xx_HAL_Driver/Src/stm32f4xx_hal_can.c ****     }
 644:Drivers/STM32F4xx_HAL_Driver/Src/stm32f4xx_hal_can.c ****   }
 645:Drivers/STM32F4xx_HAL_Driver/Src/stm32f4xx_hal_can.c ****   else if (hcan->State == HAL_CAN_STATE_RESET)
 646:Drivers/STM32F4xx_HAL_Driver/Src/stm32f4xx_hal_can.c ****   {
 647:Drivers/STM32F4xx_HAL_Driver/Src/stm32f4xx_hal_can.c ****     switch (CallbackID)
 648:Drivers/STM32F4xx_HAL_Driver/Src/stm32f4xx_hal_can.c ****     {
 649:Drivers/STM32F4xx_HAL_Driver/Src/stm32f4xx_hal_can.c ****       case HAL_CAN_MSPINIT_CB_ID :
 650:Drivers/STM32F4xx_HAL_Driver/Src/stm32f4xx_hal_can.c ****         hcan->MspInitCallback = pCallback;
 651:Drivers/STM32F4xx_HAL_Driver/Src/stm32f4xx_hal_can.c ****         break;
 652:Drivers/STM32F4xx_HAL_Driver/Src/stm32f4xx_hal_can.c **** 
 653:Drivers/STM32F4xx_HAL_Driver/Src/stm32f4xx_hal_can.c ****       case HAL_CAN_MSPDEINIT_CB_ID :
 654:Drivers/STM32F4xx_HAL_Driver/Src/stm32f4xx_hal_can.c ****         hcan->MspDeInitCallback = pCallback;
 655:Drivers/STM32F4xx_HAL_Driver/Src/stm32f4xx_hal_can.c ****         break;
 656:Drivers/STM32F4xx_HAL_Driver/Src/stm32f4xx_hal_can.c **** 
 657:Drivers/STM32F4xx_HAL_Driver/Src/stm32f4xx_hal_can.c ****       default :
 658:Drivers/STM32F4xx_HAL_Driver/Src/stm32f4xx_hal_can.c ****         /* Update the error code */
 659:Drivers/STM32F4xx_HAL_Driver/Src/stm32f4xx_hal_can.c ****         hcan->ErrorCode |= HAL_CAN_ERROR_INVALID_CALLBACK;
 660:Drivers/STM32F4xx_HAL_Driver/Src/stm32f4xx_hal_can.c **** 
 661:Drivers/STM32F4xx_HAL_Driver/Src/stm32f4xx_hal_can.c ****         /* Return error status */
 662:Drivers/STM32F4xx_HAL_Driver/Src/stm32f4xx_hal_can.c ****         status =  HAL_ERROR;
 663:Drivers/STM32F4xx_HAL_Driver/Src/stm32f4xx_hal_can.c ****         break;
 664:Drivers/STM32F4xx_HAL_Driver/Src/stm32f4xx_hal_can.c ****     }
 665:Drivers/STM32F4xx_HAL_Driver/Src/stm32f4xx_hal_can.c ****   }
 666:Drivers/STM32F4xx_HAL_Driver/Src/stm32f4xx_hal_can.c ****   else
 667:Drivers/STM32F4xx_HAL_Driver/Src/stm32f4xx_hal_can.c ****   {
 668:Drivers/STM32F4xx_HAL_Driver/Src/stm32f4xx_hal_can.c ****     /* Update the error code */
 669:Drivers/STM32F4xx_HAL_Driver/Src/stm32f4xx_hal_can.c ****     hcan->ErrorCode |= HAL_CAN_ERROR_INVALID_CALLBACK;
 670:Drivers/STM32F4xx_HAL_Driver/Src/stm32f4xx_hal_can.c **** 
 671:Drivers/STM32F4xx_HAL_Driver/Src/stm32f4xx_hal_can.c ****     /* Return error status */
 672:Drivers/STM32F4xx_HAL_Driver/Src/stm32f4xx_hal_can.c ****     status =  HAL_ERROR;
 673:Drivers/STM32F4xx_HAL_Driver/Src/stm32f4xx_hal_can.c ****   }
 674:Drivers/STM32F4xx_HAL_Driver/Src/stm32f4xx_hal_can.c **** 
 675:Drivers/STM32F4xx_HAL_Driver/Src/stm32f4xx_hal_can.c ****   return status;
 676:Drivers/STM32F4xx_HAL_Driver/Src/stm32f4xx_hal_can.c **** }
 677:Drivers/STM32F4xx_HAL_Driver/Src/stm32f4xx_hal_can.c **** 
 678:Drivers/STM32F4xx_HAL_Driver/Src/stm32f4xx_hal_can.c **** /**
 679:Drivers/STM32F4xx_HAL_Driver/Src/stm32f4xx_hal_can.c ****   * @brief  Unregister a CAN CallBack.
 680:Drivers/STM32F4xx_HAL_Driver/Src/stm32f4xx_hal_can.c ****   *         CAN callback is redirected to the weak predefined callback
ARM GAS  C:\Users\Rick\AppData\Local\Temp\cck9vz6U.s 			page 21


 681:Drivers/STM32F4xx_HAL_Driver/Src/stm32f4xx_hal_can.c ****   * @param  hcan pointer to a CAN_HandleTypeDef structure that contains
 682:Drivers/STM32F4xx_HAL_Driver/Src/stm32f4xx_hal_can.c ****   *         the configuration information for CAN module
 683:Drivers/STM32F4xx_HAL_Driver/Src/stm32f4xx_hal_can.c ****   * @param  CallbackID ID of the callback to be unregistered
 684:Drivers/STM32F4xx_HAL_Driver/Src/stm32f4xx_hal_can.c ****   *         This parameter can be one of the following values:
 685:Drivers/STM32F4xx_HAL_Driver/Src/stm32f4xx_hal_can.c ****   *           @arg @ref HAL_CAN_TX_MAILBOX0_COMPLETE_CB_ID Tx Mailbox 0 Complete callback ID
 686:Drivers/STM32F4xx_HAL_Driver/Src/stm32f4xx_hal_can.c ****   *           @arg @ref HAL_CAN_TX_MAILBOX1_COMPLETE_CB_ID Tx Mailbox 1 Complete callback ID
 687:Drivers/STM32F4xx_HAL_Driver/Src/stm32f4xx_hal_can.c ****   *           @arg @ref HAL_CAN_TX_MAILBOX2_COMPLETE_CB_ID Tx Mailbox 2 Complete callback ID
 688:Drivers/STM32F4xx_HAL_Driver/Src/stm32f4xx_hal_can.c ****   *           @arg @ref HAL_CAN_TX_MAILBOX0_ABORT_CB_ID Tx Mailbox 0 Abort callback ID
 689:Drivers/STM32F4xx_HAL_Driver/Src/stm32f4xx_hal_can.c ****   *           @arg @ref HAL_CAN_TX_MAILBOX1_ABORT_CB_ID Tx Mailbox 1 Abort callback ID
 690:Drivers/STM32F4xx_HAL_Driver/Src/stm32f4xx_hal_can.c ****   *           @arg @ref HAL_CAN_TX_MAILBOX2_ABORT_CB_ID Tx Mailbox 2 Abort callback ID
 691:Drivers/STM32F4xx_HAL_Driver/Src/stm32f4xx_hal_can.c ****   *           @arg @ref HAL_CAN_RX_FIFO0_MSG_PENDING_CB_ID Rx Fifo 0 message pending callback ID
 692:Drivers/STM32F4xx_HAL_Driver/Src/stm32f4xx_hal_can.c ****   *           @arg @ref HAL_CAN_RX_FIFO0_FULL_CB_ID Rx Fifo 0 full callback ID
 693:Drivers/STM32F4xx_HAL_Driver/Src/stm32f4xx_hal_can.c ****   *           @arg @ref HAL_CAN_RX_FIFO1_MSG_PENDING_CB_ID Rx Fifo 1 message pending callback ID
 694:Drivers/STM32F4xx_HAL_Driver/Src/stm32f4xx_hal_can.c ****   *           @arg @ref HAL_CAN_RX_FIFO1_FULL_CB_ID Rx Fifo 1 full callback ID
 695:Drivers/STM32F4xx_HAL_Driver/Src/stm32f4xx_hal_can.c ****   *           @arg @ref HAL_CAN_SLEEP_CB_ID Sleep callback ID
 696:Drivers/STM32F4xx_HAL_Driver/Src/stm32f4xx_hal_can.c ****   *           @arg @ref HAL_CAN_WAKEUP_FROM_RX_MSG_CB_ID Wake Up from Rx message callback ID
 697:Drivers/STM32F4xx_HAL_Driver/Src/stm32f4xx_hal_can.c ****   *           @arg @ref HAL_CAN_ERROR_CB_ID Error callback ID
 698:Drivers/STM32F4xx_HAL_Driver/Src/stm32f4xx_hal_can.c ****   *           @arg @ref HAL_CAN_MSPINIT_CB_ID MspInit callback ID
 699:Drivers/STM32F4xx_HAL_Driver/Src/stm32f4xx_hal_can.c ****   *           @arg @ref HAL_CAN_MSPDEINIT_CB_ID MspDeInit callback ID
 700:Drivers/STM32F4xx_HAL_Driver/Src/stm32f4xx_hal_can.c ****   * @retval HAL status
 701:Drivers/STM32F4xx_HAL_Driver/Src/stm32f4xx_hal_can.c ****   */
 702:Drivers/STM32F4xx_HAL_Driver/Src/stm32f4xx_hal_can.c **** HAL_StatusTypeDef HAL_CAN_UnRegisterCallback(CAN_HandleTypeDef *hcan, HAL_CAN_CallbackIDTypeDef Cal
 703:Drivers/STM32F4xx_HAL_Driver/Src/stm32f4xx_hal_can.c **** {
 704:Drivers/STM32F4xx_HAL_Driver/Src/stm32f4xx_hal_can.c ****   HAL_StatusTypeDef status = HAL_OK;
 705:Drivers/STM32F4xx_HAL_Driver/Src/stm32f4xx_hal_can.c **** 
 706:Drivers/STM32F4xx_HAL_Driver/Src/stm32f4xx_hal_can.c ****   if (hcan->State == HAL_CAN_STATE_READY)
 707:Drivers/STM32F4xx_HAL_Driver/Src/stm32f4xx_hal_can.c ****   {
 708:Drivers/STM32F4xx_HAL_Driver/Src/stm32f4xx_hal_can.c ****     switch (CallbackID)
 709:Drivers/STM32F4xx_HAL_Driver/Src/stm32f4xx_hal_can.c ****     {
 710:Drivers/STM32F4xx_HAL_Driver/Src/stm32f4xx_hal_can.c ****       case HAL_CAN_TX_MAILBOX0_COMPLETE_CB_ID :
 711:Drivers/STM32F4xx_HAL_Driver/Src/stm32f4xx_hal_can.c ****         hcan->TxMailbox0CompleteCallback = HAL_CAN_TxMailbox0CompleteCallback;
 712:Drivers/STM32F4xx_HAL_Driver/Src/stm32f4xx_hal_can.c ****         break;
 713:Drivers/STM32F4xx_HAL_Driver/Src/stm32f4xx_hal_can.c **** 
 714:Drivers/STM32F4xx_HAL_Driver/Src/stm32f4xx_hal_can.c ****       case HAL_CAN_TX_MAILBOX1_COMPLETE_CB_ID :
 715:Drivers/STM32F4xx_HAL_Driver/Src/stm32f4xx_hal_can.c ****         hcan->TxMailbox1CompleteCallback = HAL_CAN_TxMailbox1CompleteCallback;
 716:Drivers/STM32F4xx_HAL_Driver/Src/stm32f4xx_hal_can.c ****         break;
 717:Drivers/STM32F4xx_HAL_Driver/Src/stm32f4xx_hal_can.c **** 
 718:Drivers/STM32F4xx_HAL_Driver/Src/stm32f4xx_hal_can.c ****       case HAL_CAN_TX_MAILBOX2_COMPLETE_CB_ID :
 719:Drivers/STM32F4xx_HAL_Driver/Src/stm32f4xx_hal_can.c ****         hcan->TxMailbox2CompleteCallback = HAL_CAN_TxMailbox2CompleteCallback;
 720:Drivers/STM32F4xx_HAL_Driver/Src/stm32f4xx_hal_can.c ****         break;
 721:Drivers/STM32F4xx_HAL_Driver/Src/stm32f4xx_hal_can.c **** 
 722:Drivers/STM32F4xx_HAL_Driver/Src/stm32f4xx_hal_can.c ****       case HAL_CAN_TX_MAILBOX0_ABORT_CB_ID :
 723:Drivers/STM32F4xx_HAL_Driver/Src/stm32f4xx_hal_can.c ****         hcan->TxMailbox0AbortCallback = HAL_CAN_TxMailbox0AbortCallback;
 724:Drivers/STM32F4xx_HAL_Driver/Src/stm32f4xx_hal_can.c ****         break;
 725:Drivers/STM32F4xx_HAL_Driver/Src/stm32f4xx_hal_can.c **** 
 726:Drivers/STM32F4xx_HAL_Driver/Src/stm32f4xx_hal_can.c ****       case HAL_CAN_TX_MAILBOX1_ABORT_CB_ID :
 727:Drivers/STM32F4xx_HAL_Driver/Src/stm32f4xx_hal_can.c ****         hcan->TxMailbox1AbortCallback = HAL_CAN_TxMailbox1AbortCallback;
 728:Drivers/STM32F4xx_HAL_Driver/Src/stm32f4xx_hal_can.c ****         break;
 729:Drivers/STM32F4xx_HAL_Driver/Src/stm32f4xx_hal_can.c **** 
 730:Drivers/STM32F4xx_HAL_Driver/Src/stm32f4xx_hal_can.c ****       case HAL_CAN_TX_MAILBOX2_ABORT_CB_ID :
 731:Drivers/STM32F4xx_HAL_Driver/Src/stm32f4xx_hal_can.c ****         hcan->TxMailbox2AbortCallback = HAL_CAN_TxMailbox2AbortCallback;
 732:Drivers/STM32F4xx_HAL_Driver/Src/stm32f4xx_hal_can.c ****         break;
 733:Drivers/STM32F4xx_HAL_Driver/Src/stm32f4xx_hal_can.c **** 
 734:Drivers/STM32F4xx_HAL_Driver/Src/stm32f4xx_hal_can.c ****       case HAL_CAN_RX_FIFO0_MSG_PENDING_CB_ID :
 735:Drivers/STM32F4xx_HAL_Driver/Src/stm32f4xx_hal_can.c ****         hcan->RxFifo0MsgPendingCallback = HAL_CAN_RxFifo0MsgPendingCallback;
 736:Drivers/STM32F4xx_HAL_Driver/Src/stm32f4xx_hal_can.c ****         break;
 737:Drivers/STM32F4xx_HAL_Driver/Src/stm32f4xx_hal_can.c **** 
ARM GAS  C:\Users\Rick\AppData\Local\Temp\cck9vz6U.s 			page 22


 738:Drivers/STM32F4xx_HAL_Driver/Src/stm32f4xx_hal_can.c ****       case HAL_CAN_RX_FIFO0_FULL_CB_ID :
 739:Drivers/STM32F4xx_HAL_Driver/Src/stm32f4xx_hal_can.c ****         hcan->RxFifo0FullCallback = HAL_CAN_RxFifo0FullCallback;
 740:Drivers/STM32F4xx_HAL_Driver/Src/stm32f4xx_hal_can.c ****         break;
 741:Drivers/STM32F4xx_HAL_Driver/Src/stm32f4xx_hal_can.c **** 
 742:Drivers/STM32F4xx_HAL_Driver/Src/stm32f4xx_hal_can.c ****       case HAL_CAN_RX_FIFO1_MSG_PENDING_CB_ID :
 743:Drivers/STM32F4xx_HAL_Driver/Src/stm32f4xx_hal_can.c ****         hcan->RxFifo1MsgPendingCallback = HAL_CAN_RxFifo1MsgPendingCallback;
 744:Drivers/STM32F4xx_HAL_Driver/Src/stm32f4xx_hal_can.c ****         break;
 745:Drivers/STM32F4xx_HAL_Driver/Src/stm32f4xx_hal_can.c **** 
 746:Drivers/STM32F4xx_HAL_Driver/Src/stm32f4xx_hal_can.c ****       case HAL_CAN_RX_FIFO1_FULL_CB_ID :
 747:Drivers/STM32F4xx_HAL_Driver/Src/stm32f4xx_hal_can.c ****         hcan->RxFifo1FullCallback = HAL_CAN_RxFifo1FullCallback;
 748:Drivers/STM32F4xx_HAL_Driver/Src/stm32f4xx_hal_can.c ****         break;
 749:Drivers/STM32F4xx_HAL_Driver/Src/stm32f4xx_hal_can.c **** 
 750:Drivers/STM32F4xx_HAL_Driver/Src/stm32f4xx_hal_can.c ****       case HAL_CAN_SLEEP_CB_ID :
 751:Drivers/STM32F4xx_HAL_Driver/Src/stm32f4xx_hal_can.c ****         hcan->SleepCallback = HAL_CAN_SleepCallback;
 752:Drivers/STM32F4xx_HAL_Driver/Src/stm32f4xx_hal_can.c ****         break;
 753:Drivers/STM32F4xx_HAL_Driver/Src/stm32f4xx_hal_can.c **** 
 754:Drivers/STM32F4xx_HAL_Driver/Src/stm32f4xx_hal_can.c ****       case HAL_CAN_WAKEUP_FROM_RX_MSG_CB_ID :
 755:Drivers/STM32F4xx_HAL_Driver/Src/stm32f4xx_hal_can.c ****         hcan->WakeUpFromRxMsgCallback = HAL_CAN_WakeUpFromRxMsgCallback;
 756:Drivers/STM32F4xx_HAL_Driver/Src/stm32f4xx_hal_can.c ****         break;
 757:Drivers/STM32F4xx_HAL_Driver/Src/stm32f4xx_hal_can.c **** 
 758:Drivers/STM32F4xx_HAL_Driver/Src/stm32f4xx_hal_can.c ****       case HAL_CAN_ERROR_CB_ID :
 759:Drivers/STM32F4xx_HAL_Driver/Src/stm32f4xx_hal_can.c ****         hcan->ErrorCallback = HAL_CAN_ErrorCallback;
 760:Drivers/STM32F4xx_HAL_Driver/Src/stm32f4xx_hal_can.c ****         break;
 761:Drivers/STM32F4xx_HAL_Driver/Src/stm32f4xx_hal_can.c **** 
 762:Drivers/STM32F4xx_HAL_Driver/Src/stm32f4xx_hal_can.c ****       case HAL_CAN_MSPINIT_CB_ID :
 763:Drivers/STM32F4xx_HAL_Driver/Src/stm32f4xx_hal_can.c ****         hcan->MspInitCallback = HAL_CAN_MspInit;
 764:Drivers/STM32F4xx_HAL_Driver/Src/stm32f4xx_hal_can.c ****         break;
 765:Drivers/STM32F4xx_HAL_Driver/Src/stm32f4xx_hal_can.c **** 
 766:Drivers/STM32F4xx_HAL_Driver/Src/stm32f4xx_hal_can.c ****       case HAL_CAN_MSPDEINIT_CB_ID :
 767:Drivers/STM32F4xx_HAL_Driver/Src/stm32f4xx_hal_can.c ****         hcan->MspDeInitCallback = HAL_CAN_MspDeInit;
 768:Drivers/STM32F4xx_HAL_Driver/Src/stm32f4xx_hal_can.c ****         break;
 769:Drivers/STM32F4xx_HAL_Driver/Src/stm32f4xx_hal_can.c **** 
 770:Drivers/STM32F4xx_HAL_Driver/Src/stm32f4xx_hal_can.c ****       default :
 771:Drivers/STM32F4xx_HAL_Driver/Src/stm32f4xx_hal_can.c ****         /* Update the error code */
 772:Drivers/STM32F4xx_HAL_Driver/Src/stm32f4xx_hal_can.c ****         hcan->ErrorCode |= HAL_CAN_ERROR_INVALID_CALLBACK;
 773:Drivers/STM32F4xx_HAL_Driver/Src/stm32f4xx_hal_can.c **** 
 774:Drivers/STM32F4xx_HAL_Driver/Src/stm32f4xx_hal_can.c ****         /* Return error status */
 775:Drivers/STM32F4xx_HAL_Driver/Src/stm32f4xx_hal_can.c ****         status =  HAL_ERROR;
 776:Drivers/STM32F4xx_HAL_Driver/Src/stm32f4xx_hal_can.c ****         break;
 777:Drivers/STM32F4xx_HAL_Driver/Src/stm32f4xx_hal_can.c ****     }
 778:Drivers/STM32F4xx_HAL_Driver/Src/stm32f4xx_hal_can.c ****   }
 779:Drivers/STM32F4xx_HAL_Driver/Src/stm32f4xx_hal_can.c ****   else if (hcan->State == HAL_CAN_STATE_RESET)
 780:Drivers/STM32F4xx_HAL_Driver/Src/stm32f4xx_hal_can.c ****   {
 781:Drivers/STM32F4xx_HAL_Driver/Src/stm32f4xx_hal_can.c ****     switch (CallbackID)
 782:Drivers/STM32F4xx_HAL_Driver/Src/stm32f4xx_hal_can.c ****     {
 783:Drivers/STM32F4xx_HAL_Driver/Src/stm32f4xx_hal_can.c ****       case HAL_CAN_MSPINIT_CB_ID :
 784:Drivers/STM32F4xx_HAL_Driver/Src/stm32f4xx_hal_can.c ****         hcan->MspInitCallback = HAL_CAN_MspInit;
 785:Drivers/STM32F4xx_HAL_Driver/Src/stm32f4xx_hal_can.c ****         break;
 786:Drivers/STM32F4xx_HAL_Driver/Src/stm32f4xx_hal_can.c **** 
 787:Drivers/STM32F4xx_HAL_Driver/Src/stm32f4xx_hal_can.c ****       case HAL_CAN_MSPDEINIT_CB_ID :
 788:Drivers/STM32F4xx_HAL_Driver/Src/stm32f4xx_hal_can.c ****         hcan->MspDeInitCallback = HAL_CAN_MspDeInit;
 789:Drivers/STM32F4xx_HAL_Driver/Src/stm32f4xx_hal_can.c ****         break;
 790:Drivers/STM32F4xx_HAL_Driver/Src/stm32f4xx_hal_can.c **** 
 791:Drivers/STM32F4xx_HAL_Driver/Src/stm32f4xx_hal_can.c ****       default :
 792:Drivers/STM32F4xx_HAL_Driver/Src/stm32f4xx_hal_can.c ****         /* Update the error code */
 793:Drivers/STM32F4xx_HAL_Driver/Src/stm32f4xx_hal_can.c ****         hcan->ErrorCode |= HAL_CAN_ERROR_INVALID_CALLBACK;
 794:Drivers/STM32F4xx_HAL_Driver/Src/stm32f4xx_hal_can.c **** 
ARM GAS  C:\Users\Rick\AppData\Local\Temp\cck9vz6U.s 			page 23


 795:Drivers/STM32F4xx_HAL_Driver/Src/stm32f4xx_hal_can.c ****         /* Return error status */
 796:Drivers/STM32F4xx_HAL_Driver/Src/stm32f4xx_hal_can.c ****         status =  HAL_ERROR;
 797:Drivers/STM32F4xx_HAL_Driver/Src/stm32f4xx_hal_can.c ****         break;
 798:Drivers/STM32F4xx_HAL_Driver/Src/stm32f4xx_hal_can.c ****     }
 799:Drivers/STM32F4xx_HAL_Driver/Src/stm32f4xx_hal_can.c ****   }
 800:Drivers/STM32F4xx_HAL_Driver/Src/stm32f4xx_hal_can.c ****   else
 801:Drivers/STM32F4xx_HAL_Driver/Src/stm32f4xx_hal_can.c ****   {
 802:Drivers/STM32F4xx_HAL_Driver/Src/stm32f4xx_hal_can.c ****     /* Update the error code */
 803:Drivers/STM32F4xx_HAL_Driver/Src/stm32f4xx_hal_can.c ****     hcan->ErrorCode |= HAL_CAN_ERROR_INVALID_CALLBACK;
 804:Drivers/STM32F4xx_HAL_Driver/Src/stm32f4xx_hal_can.c **** 
 805:Drivers/STM32F4xx_HAL_Driver/Src/stm32f4xx_hal_can.c ****     /* Return error status */
 806:Drivers/STM32F4xx_HAL_Driver/Src/stm32f4xx_hal_can.c ****     status =  HAL_ERROR;
 807:Drivers/STM32F4xx_HAL_Driver/Src/stm32f4xx_hal_can.c ****   }
 808:Drivers/STM32F4xx_HAL_Driver/Src/stm32f4xx_hal_can.c **** 
 809:Drivers/STM32F4xx_HAL_Driver/Src/stm32f4xx_hal_can.c ****   return status;
 810:Drivers/STM32F4xx_HAL_Driver/Src/stm32f4xx_hal_can.c **** }
 811:Drivers/STM32F4xx_HAL_Driver/Src/stm32f4xx_hal_can.c **** #endif /* USE_HAL_CAN_REGISTER_CALLBACKS */
 812:Drivers/STM32F4xx_HAL_Driver/Src/stm32f4xx_hal_can.c **** 
 813:Drivers/STM32F4xx_HAL_Driver/Src/stm32f4xx_hal_can.c **** /**
 814:Drivers/STM32F4xx_HAL_Driver/Src/stm32f4xx_hal_can.c ****   * @}
 815:Drivers/STM32F4xx_HAL_Driver/Src/stm32f4xx_hal_can.c ****   */
 816:Drivers/STM32F4xx_HAL_Driver/Src/stm32f4xx_hal_can.c **** 
 817:Drivers/STM32F4xx_HAL_Driver/Src/stm32f4xx_hal_can.c **** /** @defgroup CAN_Exported_Functions_Group2 Configuration functions
 818:Drivers/STM32F4xx_HAL_Driver/Src/stm32f4xx_hal_can.c ****   * @brief    Configuration functions.
 819:Drivers/STM32F4xx_HAL_Driver/Src/stm32f4xx_hal_can.c ****   *
 820:Drivers/STM32F4xx_HAL_Driver/Src/stm32f4xx_hal_can.c **** @verbatim
 821:Drivers/STM32F4xx_HAL_Driver/Src/stm32f4xx_hal_can.c ****   ==============================================================================
 822:Drivers/STM32F4xx_HAL_Driver/Src/stm32f4xx_hal_can.c ****               ##### Configuration functions #####
 823:Drivers/STM32F4xx_HAL_Driver/Src/stm32f4xx_hal_can.c ****   ==============================================================================
 824:Drivers/STM32F4xx_HAL_Driver/Src/stm32f4xx_hal_can.c ****     [..]  This section provides functions allowing to:
 825:Drivers/STM32F4xx_HAL_Driver/Src/stm32f4xx_hal_can.c ****       (+) HAL_CAN_ConfigFilter            : Configure the CAN reception filters
 826:Drivers/STM32F4xx_HAL_Driver/Src/stm32f4xx_hal_can.c **** 
 827:Drivers/STM32F4xx_HAL_Driver/Src/stm32f4xx_hal_can.c **** @endverbatim
 828:Drivers/STM32F4xx_HAL_Driver/Src/stm32f4xx_hal_can.c ****   * @{
 829:Drivers/STM32F4xx_HAL_Driver/Src/stm32f4xx_hal_can.c ****   */
 830:Drivers/STM32F4xx_HAL_Driver/Src/stm32f4xx_hal_can.c **** 
 831:Drivers/STM32F4xx_HAL_Driver/Src/stm32f4xx_hal_can.c **** /**
 832:Drivers/STM32F4xx_HAL_Driver/Src/stm32f4xx_hal_can.c ****   * @brief  Configures the CAN reception filter according to the specified
 833:Drivers/STM32F4xx_HAL_Driver/Src/stm32f4xx_hal_can.c ****   *         parameters in the CAN_FilterInitStruct.
 834:Drivers/STM32F4xx_HAL_Driver/Src/stm32f4xx_hal_can.c ****   * @param  hcan pointer to a CAN_HandleTypeDef structure that contains
 835:Drivers/STM32F4xx_HAL_Driver/Src/stm32f4xx_hal_can.c ****   *         the configuration information for the specified CAN.
 836:Drivers/STM32F4xx_HAL_Driver/Src/stm32f4xx_hal_can.c ****   * @param  sFilterConfig pointer to a CAN_FilterTypeDef structure that
 837:Drivers/STM32F4xx_HAL_Driver/Src/stm32f4xx_hal_can.c ****   *         contains the filter configuration information.
 838:Drivers/STM32F4xx_HAL_Driver/Src/stm32f4xx_hal_can.c ****   * @retval None
 839:Drivers/STM32F4xx_HAL_Driver/Src/stm32f4xx_hal_can.c ****   */
 840:Drivers/STM32F4xx_HAL_Driver/Src/stm32f4xx_hal_can.c **** HAL_StatusTypeDef HAL_CAN_ConfigFilter(CAN_HandleTypeDef *hcan, const CAN_FilterTypeDef *sFilterCon
 841:Drivers/STM32F4xx_HAL_Driver/Src/stm32f4xx_hal_can.c **** {
 368              		.loc 1 841 1 is_stmt 1 view -0
 369              		.cfi_startproc
 370              		@ args = 0, pretend = 0, frame = 0
 371              		@ frame_needed = 0, uses_anonymous_args = 0
 842:Drivers/STM32F4xx_HAL_Driver/Src/stm32f4xx_hal_can.c ****   uint32_t filternbrbitpos;
 372              		.loc 1 842 3 view .LVU107
 843:Drivers/STM32F4xx_HAL_Driver/Src/stm32f4xx_hal_can.c ****   CAN_TypeDef *can_ip = hcan->Instance;
 373              		.loc 1 843 3 view .LVU108
 844:Drivers/STM32F4xx_HAL_Driver/Src/stm32f4xx_hal_can.c ****   HAL_CAN_StateTypeDef state = hcan->State;
 374              		.loc 1 844 3 view .LVU109
ARM GAS  C:\Users\Rick\AppData\Local\Temp\cck9vz6U.s 			page 24


 375              		.loc 1 844 24 is_stmt 0 view .LVU110
 376 0000 90F82030 		ldrb	r3, [r0, #32]	@ zero_extendqisi2
 377              	.LVL16:
 845:Drivers/STM32F4xx_HAL_Driver/Src/stm32f4xx_hal_can.c **** 
 846:Drivers/STM32F4xx_HAL_Driver/Src/stm32f4xx_hal_can.c ****   if ((state == HAL_CAN_STATE_READY) ||
 378              		.loc 1 846 3 is_stmt 1 view .LVU111
 379              		.loc 1 846 38 is_stmt 0 view .LVU112
 380 0004 013B     		subs	r3, r3, #1
 381              	.LVL17:
 382              		.loc 1 846 38 view .LVU113
 383 0006 DBB2     		uxtb	r3, r3
 384              	.LVL18:
 385              		.loc 1 846 6 view .LVU114
 386 0008 012B     		cmp	r3, #1
 387 000a 05D9     		bls	.L50
 847:Drivers/STM32F4xx_HAL_Driver/Src/stm32f4xx_hal_can.c ****       (state == HAL_CAN_STATE_LISTENING))
 848:Drivers/STM32F4xx_HAL_Driver/Src/stm32f4xx_hal_can.c ****   {
 849:Drivers/STM32F4xx_HAL_Driver/Src/stm32f4xx_hal_can.c ****     /* Check the parameters */
 850:Drivers/STM32F4xx_HAL_Driver/Src/stm32f4xx_hal_can.c ****     assert_param(IS_CAN_FILTER_ID_HALFWORD(sFilterConfig->FilterIdHigh));
 851:Drivers/STM32F4xx_HAL_Driver/Src/stm32f4xx_hal_can.c ****     assert_param(IS_CAN_FILTER_ID_HALFWORD(sFilterConfig->FilterIdLow));
 852:Drivers/STM32F4xx_HAL_Driver/Src/stm32f4xx_hal_can.c ****     assert_param(IS_CAN_FILTER_ID_HALFWORD(sFilterConfig->FilterMaskIdHigh));
 853:Drivers/STM32F4xx_HAL_Driver/Src/stm32f4xx_hal_can.c ****     assert_param(IS_CAN_FILTER_ID_HALFWORD(sFilterConfig->FilterMaskIdLow));
 854:Drivers/STM32F4xx_HAL_Driver/Src/stm32f4xx_hal_can.c ****     assert_param(IS_CAN_FILTER_MODE(sFilterConfig->FilterMode));
 855:Drivers/STM32F4xx_HAL_Driver/Src/stm32f4xx_hal_can.c ****     assert_param(IS_CAN_FILTER_SCALE(sFilterConfig->FilterScale));
 856:Drivers/STM32F4xx_HAL_Driver/Src/stm32f4xx_hal_can.c ****     assert_param(IS_CAN_FILTER_FIFO(sFilterConfig->FilterFIFOAssignment));
 857:Drivers/STM32F4xx_HAL_Driver/Src/stm32f4xx_hal_can.c ****     assert_param(IS_CAN_FILTER_ACTIVATION(sFilterConfig->FilterActivation));
 858:Drivers/STM32F4xx_HAL_Driver/Src/stm32f4xx_hal_can.c **** 
 859:Drivers/STM32F4xx_HAL_Driver/Src/stm32f4xx_hal_can.c **** #if defined(CAN3)
 860:Drivers/STM32F4xx_HAL_Driver/Src/stm32f4xx_hal_can.c ****     /* Check the CAN instance */
 861:Drivers/STM32F4xx_HAL_Driver/Src/stm32f4xx_hal_can.c ****     if (hcan->Instance == CAN3)
 862:Drivers/STM32F4xx_HAL_Driver/Src/stm32f4xx_hal_can.c ****     {
 863:Drivers/STM32F4xx_HAL_Driver/Src/stm32f4xx_hal_can.c ****       /* CAN3 is single instance with 14 dedicated filters banks */
 864:Drivers/STM32F4xx_HAL_Driver/Src/stm32f4xx_hal_can.c **** 
 865:Drivers/STM32F4xx_HAL_Driver/Src/stm32f4xx_hal_can.c ****       /* Check the parameters */
 866:Drivers/STM32F4xx_HAL_Driver/Src/stm32f4xx_hal_can.c ****       assert_param(IS_CAN_FILTER_BANK_SINGLE(sFilterConfig->FilterBank));
 867:Drivers/STM32F4xx_HAL_Driver/Src/stm32f4xx_hal_can.c ****     }
 868:Drivers/STM32F4xx_HAL_Driver/Src/stm32f4xx_hal_can.c ****     else
 869:Drivers/STM32F4xx_HAL_Driver/Src/stm32f4xx_hal_can.c ****     {
 870:Drivers/STM32F4xx_HAL_Driver/Src/stm32f4xx_hal_can.c ****       /* CAN1 and CAN2 are dual instances with 28 common filters banks */
 871:Drivers/STM32F4xx_HAL_Driver/Src/stm32f4xx_hal_can.c ****       /* Select master instance to access the filter banks */
 872:Drivers/STM32F4xx_HAL_Driver/Src/stm32f4xx_hal_can.c ****       can_ip = CAN1;
 873:Drivers/STM32F4xx_HAL_Driver/Src/stm32f4xx_hal_can.c **** 
 874:Drivers/STM32F4xx_HAL_Driver/Src/stm32f4xx_hal_can.c ****       /* Check the parameters */
 875:Drivers/STM32F4xx_HAL_Driver/Src/stm32f4xx_hal_can.c ****       assert_param(IS_CAN_FILTER_BANK_DUAL(sFilterConfig->FilterBank));
 876:Drivers/STM32F4xx_HAL_Driver/Src/stm32f4xx_hal_can.c ****       assert_param(IS_CAN_FILTER_BANK_DUAL(sFilterConfig->SlaveStartFilterBank));
 877:Drivers/STM32F4xx_HAL_Driver/Src/stm32f4xx_hal_can.c ****     }
 878:Drivers/STM32F4xx_HAL_Driver/Src/stm32f4xx_hal_can.c **** #elif defined(CAN2)
 879:Drivers/STM32F4xx_HAL_Driver/Src/stm32f4xx_hal_can.c ****     /* CAN1 and CAN2 are dual instances with 28 common filters banks */
 880:Drivers/STM32F4xx_HAL_Driver/Src/stm32f4xx_hal_can.c ****     /* Select master instance to access the filter banks */
 881:Drivers/STM32F4xx_HAL_Driver/Src/stm32f4xx_hal_can.c ****     can_ip = CAN1;
 882:Drivers/STM32F4xx_HAL_Driver/Src/stm32f4xx_hal_can.c **** 
 883:Drivers/STM32F4xx_HAL_Driver/Src/stm32f4xx_hal_can.c ****     /* Check the parameters */
 884:Drivers/STM32F4xx_HAL_Driver/Src/stm32f4xx_hal_can.c ****     assert_param(IS_CAN_FILTER_BANK_DUAL(sFilterConfig->FilterBank));
 885:Drivers/STM32F4xx_HAL_Driver/Src/stm32f4xx_hal_can.c ****     assert_param(IS_CAN_FILTER_BANK_DUAL(sFilterConfig->SlaveStartFilterBank));
 886:Drivers/STM32F4xx_HAL_Driver/Src/stm32f4xx_hal_can.c **** #else
 887:Drivers/STM32F4xx_HAL_Driver/Src/stm32f4xx_hal_can.c ****     /* CAN1 is single instance with 14 dedicated filters banks */
 888:Drivers/STM32F4xx_HAL_Driver/Src/stm32f4xx_hal_can.c **** 
ARM GAS  C:\Users\Rick\AppData\Local\Temp\cck9vz6U.s 			page 25


 889:Drivers/STM32F4xx_HAL_Driver/Src/stm32f4xx_hal_can.c ****     /* Check the parameters */
 890:Drivers/STM32F4xx_HAL_Driver/Src/stm32f4xx_hal_can.c ****     assert_param(IS_CAN_FILTER_BANK_SINGLE(sFilterConfig->FilterBank));
 891:Drivers/STM32F4xx_HAL_Driver/Src/stm32f4xx_hal_can.c **** #endif /* CAN3 */
 892:Drivers/STM32F4xx_HAL_Driver/Src/stm32f4xx_hal_can.c **** 
 893:Drivers/STM32F4xx_HAL_Driver/Src/stm32f4xx_hal_can.c ****     /* Initialisation mode for the filter */
 894:Drivers/STM32F4xx_HAL_Driver/Src/stm32f4xx_hal_can.c ****     SET_BIT(can_ip->FMR, CAN_FMR_FINIT);
 895:Drivers/STM32F4xx_HAL_Driver/Src/stm32f4xx_hal_can.c **** 
 896:Drivers/STM32F4xx_HAL_Driver/Src/stm32f4xx_hal_can.c **** #if defined(CAN3)
 897:Drivers/STM32F4xx_HAL_Driver/Src/stm32f4xx_hal_can.c ****     /* Check the CAN instance */
 898:Drivers/STM32F4xx_HAL_Driver/Src/stm32f4xx_hal_can.c ****     if (can_ip == CAN1)
 899:Drivers/STM32F4xx_HAL_Driver/Src/stm32f4xx_hal_can.c ****     {
 900:Drivers/STM32F4xx_HAL_Driver/Src/stm32f4xx_hal_can.c ****       /* Select the start filter number of CAN2 slave instance */
 901:Drivers/STM32F4xx_HAL_Driver/Src/stm32f4xx_hal_can.c ****       CLEAR_BIT(can_ip->FMR, CAN_FMR_CAN2SB);
 902:Drivers/STM32F4xx_HAL_Driver/Src/stm32f4xx_hal_can.c ****       SET_BIT(can_ip->FMR, sFilterConfig->SlaveStartFilterBank << CAN_FMR_CAN2SB_Pos);
 903:Drivers/STM32F4xx_HAL_Driver/Src/stm32f4xx_hal_can.c ****     }
 904:Drivers/STM32F4xx_HAL_Driver/Src/stm32f4xx_hal_can.c **** 
 905:Drivers/STM32F4xx_HAL_Driver/Src/stm32f4xx_hal_can.c **** #elif defined(CAN2)
 906:Drivers/STM32F4xx_HAL_Driver/Src/stm32f4xx_hal_can.c ****     /* Select the start filter number of CAN2 slave instance */
 907:Drivers/STM32F4xx_HAL_Driver/Src/stm32f4xx_hal_can.c ****     CLEAR_BIT(can_ip->FMR, CAN_FMR_CAN2SB);
 908:Drivers/STM32F4xx_HAL_Driver/Src/stm32f4xx_hal_can.c ****     SET_BIT(can_ip->FMR, sFilterConfig->SlaveStartFilterBank << CAN_FMR_CAN2SB_Pos);
 909:Drivers/STM32F4xx_HAL_Driver/Src/stm32f4xx_hal_can.c **** 
 910:Drivers/STM32F4xx_HAL_Driver/Src/stm32f4xx_hal_can.c **** #endif /* CAN3 */
 911:Drivers/STM32F4xx_HAL_Driver/Src/stm32f4xx_hal_can.c ****     /* Convert filter number into bit position */
 912:Drivers/STM32F4xx_HAL_Driver/Src/stm32f4xx_hal_can.c ****     filternbrbitpos = (uint32_t)1 << (sFilterConfig->FilterBank & 0x1FU);
 913:Drivers/STM32F4xx_HAL_Driver/Src/stm32f4xx_hal_can.c **** 
 914:Drivers/STM32F4xx_HAL_Driver/Src/stm32f4xx_hal_can.c ****     /* Filter Deactivation */
 915:Drivers/STM32F4xx_HAL_Driver/Src/stm32f4xx_hal_can.c ****     CLEAR_BIT(can_ip->FA1R, filternbrbitpos);
 916:Drivers/STM32F4xx_HAL_Driver/Src/stm32f4xx_hal_can.c **** 
 917:Drivers/STM32F4xx_HAL_Driver/Src/stm32f4xx_hal_can.c ****     /* Filter Scale */
 918:Drivers/STM32F4xx_HAL_Driver/Src/stm32f4xx_hal_can.c ****     if (sFilterConfig->FilterScale == CAN_FILTERSCALE_16BIT)
 919:Drivers/STM32F4xx_HAL_Driver/Src/stm32f4xx_hal_can.c ****     {
 920:Drivers/STM32F4xx_HAL_Driver/Src/stm32f4xx_hal_can.c ****       /* 16-bit scale for the filter */
 921:Drivers/STM32F4xx_HAL_Driver/Src/stm32f4xx_hal_can.c ****       CLEAR_BIT(can_ip->FS1R, filternbrbitpos);
 922:Drivers/STM32F4xx_HAL_Driver/Src/stm32f4xx_hal_can.c **** 
 923:Drivers/STM32F4xx_HAL_Driver/Src/stm32f4xx_hal_can.c ****       /* First 16-bit identifier and First 16-bit mask */
 924:Drivers/STM32F4xx_HAL_Driver/Src/stm32f4xx_hal_can.c ****       /* Or First 16-bit identifier and Second 16-bit identifier */
 925:Drivers/STM32F4xx_HAL_Driver/Src/stm32f4xx_hal_can.c ****       can_ip->sFilterRegister[sFilterConfig->FilterBank].FR1 =
 926:Drivers/STM32F4xx_HAL_Driver/Src/stm32f4xx_hal_can.c ****         ((0x0000FFFFU & (uint32_t)sFilterConfig->FilterMaskIdLow) << 16U) |
 927:Drivers/STM32F4xx_HAL_Driver/Src/stm32f4xx_hal_can.c ****         (0x0000FFFFU & (uint32_t)sFilterConfig->FilterIdLow);
 928:Drivers/STM32F4xx_HAL_Driver/Src/stm32f4xx_hal_can.c **** 
 929:Drivers/STM32F4xx_HAL_Driver/Src/stm32f4xx_hal_can.c ****       /* Second 16-bit identifier and Second 16-bit mask */
 930:Drivers/STM32F4xx_HAL_Driver/Src/stm32f4xx_hal_can.c ****       /* Or Third 16-bit identifier and Fourth 16-bit identifier */
 931:Drivers/STM32F4xx_HAL_Driver/Src/stm32f4xx_hal_can.c ****       can_ip->sFilterRegister[sFilterConfig->FilterBank].FR2 =
 932:Drivers/STM32F4xx_HAL_Driver/Src/stm32f4xx_hal_can.c ****         ((0x0000FFFFU & (uint32_t)sFilterConfig->FilterMaskIdHigh) << 16U) |
 933:Drivers/STM32F4xx_HAL_Driver/Src/stm32f4xx_hal_can.c ****         (0x0000FFFFU & (uint32_t)sFilterConfig->FilterIdHigh);
 934:Drivers/STM32F4xx_HAL_Driver/Src/stm32f4xx_hal_can.c ****     }
 935:Drivers/STM32F4xx_HAL_Driver/Src/stm32f4xx_hal_can.c **** 
 936:Drivers/STM32F4xx_HAL_Driver/Src/stm32f4xx_hal_can.c ****     if (sFilterConfig->FilterScale == CAN_FILTERSCALE_32BIT)
 937:Drivers/STM32F4xx_HAL_Driver/Src/stm32f4xx_hal_can.c ****     {
 938:Drivers/STM32F4xx_HAL_Driver/Src/stm32f4xx_hal_can.c ****       /* 32-bit scale for the filter */
 939:Drivers/STM32F4xx_HAL_Driver/Src/stm32f4xx_hal_can.c ****       SET_BIT(can_ip->FS1R, filternbrbitpos);
 940:Drivers/STM32F4xx_HAL_Driver/Src/stm32f4xx_hal_can.c **** 
 941:Drivers/STM32F4xx_HAL_Driver/Src/stm32f4xx_hal_can.c ****       /* 32-bit identifier or First 32-bit identifier */
 942:Drivers/STM32F4xx_HAL_Driver/Src/stm32f4xx_hal_can.c ****       can_ip->sFilterRegister[sFilterConfig->FilterBank].FR1 =
 943:Drivers/STM32F4xx_HAL_Driver/Src/stm32f4xx_hal_can.c ****         ((0x0000FFFFU & (uint32_t)sFilterConfig->FilterIdHigh) << 16U) |
 944:Drivers/STM32F4xx_HAL_Driver/Src/stm32f4xx_hal_can.c ****         (0x0000FFFFU & (uint32_t)sFilterConfig->FilterIdLow);
 945:Drivers/STM32F4xx_HAL_Driver/Src/stm32f4xx_hal_can.c **** 
ARM GAS  C:\Users\Rick\AppData\Local\Temp\cck9vz6U.s 			page 26


 946:Drivers/STM32F4xx_HAL_Driver/Src/stm32f4xx_hal_can.c ****       /* 32-bit mask or Second 32-bit identifier */
 947:Drivers/STM32F4xx_HAL_Driver/Src/stm32f4xx_hal_can.c ****       can_ip->sFilterRegister[sFilterConfig->FilterBank].FR2 =
 948:Drivers/STM32F4xx_HAL_Driver/Src/stm32f4xx_hal_can.c ****         ((0x0000FFFFU & (uint32_t)sFilterConfig->FilterMaskIdHigh) << 16U) |
 949:Drivers/STM32F4xx_HAL_Driver/Src/stm32f4xx_hal_can.c ****         (0x0000FFFFU & (uint32_t)sFilterConfig->FilterMaskIdLow);
 950:Drivers/STM32F4xx_HAL_Driver/Src/stm32f4xx_hal_can.c ****     }
 951:Drivers/STM32F4xx_HAL_Driver/Src/stm32f4xx_hal_can.c **** 
 952:Drivers/STM32F4xx_HAL_Driver/Src/stm32f4xx_hal_can.c ****     /* Filter Mode */
 953:Drivers/STM32F4xx_HAL_Driver/Src/stm32f4xx_hal_can.c ****     if (sFilterConfig->FilterMode == CAN_FILTERMODE_IDMASK)
 954:Drivers/STM32F4xx_HAL_Driver/Src/stm32f4xx_hal_can.c ****     {
 955:Drivers/STM32F4xx_HAL_Driver/Src/stm32f4xx_hal_can.c ****       /* Id/Mask mode for the filter*/
 956:Drivers/STM32F4xx_HAL_Driver/Src/stm32f4xx_hal_can.c ****       CLEAR_BIT(can_ip->FM1R, filternbrbitpos);
 957:Drivers/STM32F4xx_HAL_Driver/Src/stm32f4xx_hal_can.c ****     }
 958:Drivers/STM32F4xx_HAL_Driver/Src/stm32f4xx_hal_can.c ****     else /* CAN_FilterInitStruct->CAN_FilterMode == CAN_FilterMode_IdList */
 959:Drivers/STM32F4xx_HAL_Driver/Src/stm32f4xx_hal_can.c ****     {
 960:Drivers/STM32F4xx_HAL_Driver/Src/stm32f4xx_hal_can.c ****       /* Identifier list mode for the filter*/
 961:Drivers/STM32F4xx_HAL_Driver/Src/stm32f4xx_hal_can.c ****       SET_BIT(can_ip->FM1R, filternbrbitpos);
 962:Drivers/STM32F4xx_HAL_Driver/Src/stm32f4xx_hal_can.c ****     }
 963:Drivers/STM32F4xx_HAL_Driver/Src/stm32f4xx_hal_can.c **** 
 964:Drivers/STM32F4xx_HAL_Driver/Src/stm32f4xx_hal_can.c ****     /* Filter FIFO assignment */
 965:Drivers/STM32F4xx_HAL_Driver/Src/stm32f4xx_hal_can.c ****     if (sFilterConfig->FilterFIFOAssignment == CAN_FILTER_FIFO0)
 966:Drivers/STM32F4xx_HAL_Driver/Src/stm32f4xx_hal_can.c ****     {
 967:Drivers/STM32F4xx_HAL_Driver/Src/stm32f4xx_hal_can.c ****       /* FIFO 0 assignation for the filter */
 968:Drivers/STM32F4xx_HAL_Driver/Src/stm32f4xx_hal_can.c ****       CLEAR_BIT(can_ip->FFA1R, filternbrbitpos);
 969:Drivers/STM32F4xx_HAL_Driver/Src/stm32f4xx_hal_can.c ****     }
 970:Drivers/STM32F4xx_HAL_Driver/Src/stm32f4xx_hal_can.c ****     else
 971:Drivers/STM32F4xx_HAL_Driver/Src/stm32f4xx_hal_can.c ****     {
 972:Drivers/STM32F4xx_HAL_Driver/Src/stm32f4xx_hal_can.c ****       /* FIFO 1 assignation for the filter */
 973:Drivers/STM32F4xx_HAL_Driver/Src/stm32f4xx_hal_can.c ****       SET_BIT(can_ip->FFA1R, filternbrbitpos);
 974:Drivers/STM32F4xx_HAL_Driver/Src/stm32f4xx_hal_can.c ****     }
 975:Drivers/STM32F4xx_HAL_Driver/Src/stm32f4xx_hal_can.c **** 
 976:Drivers/STM32F4xx_HAL_Driver/Src/stm32f4xx_hal_can.c ****     /* Filter activation */
 977:Drivers/STM32F4xx_HAL_Driver/Src/stm32f4xx_hal_can.c ****     if (sFilterConfig->FilterActivation == CAN_FILTER_ENABLE)
 978:Drivers/STM32F4xx_HAL_Driver/Src/stm32f4xx_hal_can.c ****     {
 979:Drivers/STM32F4xx_HAL_Driver/Src/stm32f4xx_hal_can.c ****       SET_BIT(can_ip->FA1R, filternbrbitpos);
 980:Drivers/STM32F4xx_HAL_Driver/Src/stm32f4xx_hal_can.c ****     }
 981:Drivers/STM32F4xx_HAL_Driver/Src/stm32f4xx_hal_can.c **** 
 982:Drivers/STM32F4xx_HAL_Driver/Src/stm32f4xx_hal_can.c ****     /* Leave the initialisation mode for the filter */
 983:Drivers/STM32F4xx_HAL_Driver/Src/stm32f4xx_hal_can.c ****     CLEAR_BIT(can_ip->FMR, CAN_FMR_FINIT);
 984:Drivers/STM32F4xx_HAL_Driver/Src/stm32f4xx_hal_can.c **** 
 985:Drivers/STM32F4xx_HAL_Driver/Src/stm32f4xx_hal_can.c ****     /* Return function status */
 986:Drivers/STM32F4xx_HAL_Driver/Src/stm32f4xx_hal_can.c ****     return HAL_OK;
 987:Drivers/STM32F4xx_HAL_Driver/Src/stm32f4xx_hal_can.c ****   }
 988:Drivers/STM32F4xx_HAL_Driver/Src/stm32f4xx_hal_can.c ****   else
 989:Drivers/STM32F4xx_HAL_Driver/Src/stm32f4xx_hal_can.c ****   {
 990:Drivers/STM32F4xx_HAL_Driver/Src/stm32f4xx_hal_can.c ****     /* Update error code */
 991:Drivers/STM32F4xx_HAL_Driver/Src/stm32f4xx_hal_can.c ****     hcan->ErrorCode |= HAL_CAN_ERROR_NOT_INITIALIZED;
 388              		.loc 1 991 5 is_stmt 1 view .LVU115
 389              		.loc 1 991 9 is_stmt 0 view .LVU116
 390 000c 436A     		ldr	r3, [r0, #36]
 391              		.loc 1 991 21 view .LVU117
 392 000e 43F48023 		orr	r3, r3, #262144
 393 0012 4362     		str	r3, [r0, #36]
 992:Drivers/STM32F4xx_HAL_Driver/Src/stm32f4xx_hal_can.c **** 
 993:Drivers/STM32F4xx_HAL_Driver/Src/stm32f4xx_hal_can.c ****     return HAL_ERROR;
 394              		.loc 1 993 5 is_stmt 1 view .LVU118
 395              		.loc 1 993 12 is_stmt 0 view .LVU119
 396 0014 0120     		movs	r0, #1
ARM GAS  C:\Users\Rick\AppData\Local\Temp\cck9vz6U.s 			page 27


 397              	.LVL19:
 994:Drivers/STM32F4xx_HAL_Driver/Src/stm32f4xx_hal_can.c ****   }
 995:Drivers/STM32F4xx_HAL_Driver/Src/stm32f4xx_hal_can.c **** }
 398              		.loc 1 995 1 view .LVU120
 399 0016 7047     		bx	lr
 400              	.LVL20:
 401              	.L50:
 841:Drivers/STM32F4xx_HAL_Driver/Src/stm32f4xx_hal_can.c ****   uint32_t filternbrbitpos;
 402              		.loc 1 841 1 view .LVU121
 403 0018 30B5     		push	{r4, r5, lr}
 404              		.cfi_def_cfa_offset 12
 405              		.cfi_offset 4, -12
 406              		.cfi_offset 5, -8
 407              		.cfi_offset 14, -4
 850:Drivers/STM32F4xx_HAL_Driver/Src/stm32f4xx_hal_can.c ****     assert_param(IS_CAN_FILTER_ID_HALFWORD(sFilterConfig->FilterIdLow));
 408              		.loc 1 850 5 is_stmt 1 view .LVU122
 851:Drivers/STM32F4xx_HAL_Driver/Src/stm32f4xx_hal_can.c ****     assert_param(IS_CAN_FILTER_ID_HALFWORD(sFilterConfig->FilterMaskIdHigh));
 409              		.loc 1 851 5 view .LVU123
 852:Drivers/STM32F4xx_HAL_Driver/Src/stm32f4xx_hal_can.c ****     assert_param(IS_CAN_FILTER_ID_HALFWORD(sFilterConfig->FilterMaskIdLow));
 410              		.loc 1 852 5 view .LVU124
 853:Drivers/STM32F4xx_HAL_Driver/Src/stm32f4xx_hal_can.c ****     assert_param(IS_CAN_FILTER_MODE(sFilterConfig->FilterMode));
 411              		.loc 1 853 5 view .LVU125
 854:Drivers/STM32F4xx_HAL_Driver/Src/stm32f4xx_hal_can.c ****     assert_param(IS_CAN_FILTER_SCALE(sFilterConfig->FilterScale));
 412              		.loc 1 854 5 view .LVU126
 855:Drivers/STM32F4xx_HAL_Driver/Src/stm32f4xx_hal_can.c ****     assert_param(IS_CAN_FILTER_FIFO(sFilterConfig->FilterFIFOAssignment));
 413              		.loc 1 855 5 view .LVU127
 856:Drivers/STM32F4xx_HAL_Driver/Src/stm32f4xx_hal_can.c ****     assert_param(IS_CAN_FILTER_ACTIVATION(sFilterConfig->FilterActivation));
 414              		.loc 1 856 5 view .LVU128
 857:Drivers/STM32F4xx_HAL_Driver/Src/stm32f4xx_hal_can.c **** 
 415              		.loc 1 857 5 view .LVU129
 881:Drivers/STM32F4xx_HAL_Driver/Src/stm32f4xx_hal_can.c **** 
 416              		.loc 1 881 5 view .LVU130
 417              	.LVL21:
 884:Drivers/STM32F4xx_HAL_Driver/Src/stm32f4xx_hal_can.c ****     assert_param(IS_CAN_FILTER_BANK_DUAL(sFilterConfig->SlaveStartFilterBank));
 418              		.loc 1 884 5 view .LVU131
 885:Drivers/STM32F4xx_HAL_Driver/Src/stm32f4xx_hal_can.c **** #else
 419              		.loc 1 885 5 view .LVU132
 894:Drivers/STM32F4xx_HAL_Driver/Src/stm32f4xx_hal_can.c **** 
 420              		.loc 1 894 5 view .LVU133
 421 001a 464B     		ldr	r3, .L53
 422 001c D3F80022 		ldr	r2, [r3, #512]
 423 0020 42F00102 		orr	r2, r2, #1
 424 0024 C3F80022 		str	r2, [r3, #512]
 907:Drivers/STM32F4xx_HAL_Driver/Src/stm32f4xx_hal_can.c ****     SET_BIT(can_ip->FMR, sFilterConfig->SlaveStartFilterBank << CAN_FMR_CAN2SB_Pos);
 425              		.loc 1 907 5 view .LVU134
 426 0028 D3F80022 		ldr	r2, [r3, #512]
 427 002c 22F47C52 		bic	r2, r2, #16128
 428 0030 C3F80022 		str	r2, [r3, #512]
 908:Drivers/STM32F4xx_HAL_Driver/Src/stm32f4xx_hal_can.c **** 
 429              		.loc 1 908 5 view .LVU135
 430 0034 D3F80022 		ldr	r2, [r3, #512]
 431 0038 486A     		ldr	r0, [r1, #36]
 432              	.LVL22:
 908:Drivers/STM32F4xx_HAL_Driver/Src/stm32f4xx_hal_can.c **** 
 433              		.loc 1 908 5 is_stmt 0 view .LVU136
 434 003a 42EA0022 		orr	r2, r2, r0, lsl #8
 435 003e C3F80022 		str	r2, [r3, #512]
ARM GAS  C:\Users\Rick\AppData\Local\Temp\cck9vz6U.s 			page 28


 912:Drivers/STM32F4xx_HAL_Driver/Src/stm32f4xx_hal_can.c **** 
 436              		.loc 1 912 5 is_stmt 1 view .LVU137
 912:Drivers/STM32F4xx_HAL_Driver/Src/stm32f4xx_hal_can.c **** 
 437              		.loc 1 912 52 is_stmt 0 view .LVU138
 438 0042 4A69     		ldr	r2, [r1, #20]
 912:Drivers/STM32F4xx_HAL_Driver/Src/stm32f4xx_hal_can.c **** 
 439              		.loc 1 912 65 view .LVU139
 440 0044 02F01F02 		and	r2, r2, #31
 912:Drivers/STM32F4xx_HAL_Driver/Src/stm32f4xx_hal_can.c **** 
 441              		.loc 1 912 21 view .LVU140
 442 0048 0120     		movs	r0, #1
 443 004a 00FA02F2 		lsl	r2, r0, r2
 444              	.LVL23:
 915:Drivers/STM32F4xx_HAL_Driver/Src/stm32f4xx_hal_can.c **** 
 445              		.loc 1 915 5 is_stmt 1 view .LVU141
 446 004e D3F81C02 		ldr	r0, [r3, #540]
 447 0052 6FEA020C 		mvn	ip, r2
 448 0056 20EA0200 		bic	r0, r0, r2
 449 005a C3F81C02 		str	r0, [r3, #540]
 918:Drivers/STM32F4xx_HAL_Driver/Src/stm32f4xx_hal_can.c ****     {
 450              		.loc 1 918 5 view .LVU142
 918:Drivers/STM32F4xx_HAL_Driver/Src/stm32f4xx_hal_can.c ****     {
 451              		.loc 1 918 22 is_stmt 0 view .LVU143
 452 005e CB69     		ldr	r3, [r1, #28]
 918:Drivers/STM32F4xx_HAL_Driver/Src/stm32f4xx_hal_can.c ****     {
 453              		.loc 1 918 8 view .LVU144
 454 0060 C3B9     		cbnz	r3, .L38
 921:Drivers/STM32F4xx_HAL_Driver/Src/stm32f4xx_hal_can.c **** 
 455              		.loc 1 921 7 is_stmt 1 view .LVU145
 456 0062 344B     		ldr	r3, .L53
 457 0064 D3F80C02 		ldr	r0, [r3, #524]
 458 0068 0CEA0000 		and	r0, ip, r0
 459 006c C3F80C02 		str	r0, [r3, #524]
 925:Drivers/STM32F4xx_HAL_Driver/Src/stm32f4xx_hal_can.c ****         ((0x0000FFFFU & (uint32_t)sFilterConfig->FilterMaskIdLow) << 16U) |
 460              		.loc 1 925 7 view .LVU146
 927:Drivers/STM32F4xx_HAL_Driver/Src/stm32f4xx_hal_can.c **** 
 461              		.loc 1 927 22 is_stmt 0 view .LVU147
 462 0070 8C88     		ldrh	r4, [r1, #4]
 925:Drivers/STM32F4xx_HAL_Driver/Src/stm32f4xx_hal_can.c ****         ((0x0000FFFFU & (uint32_t)sFilterConfig->FilterMaskIdLow) << 16U) |
 463              		.loc 1 925 44 view .LVU148
 464 0072 4869     		ldr	r0, [r1, #20]
 926:Drivers/STM32F4xx_HAL_Driver/Src/stm32f4xx_hal_can.c ****         (0x0000FFFFU & (uint32_t)sFilterConfig->FilterIdLow);
 465              		.loc 1 926 75 view .LVU149
 466 0074 CD68     		ldr	r5, [r1, #12]
 467 0076 44EA0544 		orr	r4, r4, r5, lsl #16
 925:Drivers/STM32F4xx_HAL_Driver/Src/stm32f4xx_hal_can.c ****         ((0x0000FFFFU & (uint32_t)sFilterConfig->FilterMaskIdLow) << 16U) |
 468              		.loc 1 925 62 view .LVU150
 469 007a 4830     		adds	r0, r0, #72
 470 007c 43F83040 		str	r4, [r3, r0, lsl #3]
 931:Drivers/STM32F4xx_HAL_Driver/Src/stm32f4xx_hal_can.c ****         ((0x0000FFFFU & (uint32_t)sFilterConfig->FilterMaskIdHigh) << 16U) |
 471              		.loc 1 931 7 is_stmt 1 view .LVU151
 932:Drivers/STM32F4xx_HAL_Driver/Src/stm32f4xx_hal_can.c ****         (0x0000FFFFU & (uint32_t)sFilterConfig->FilterIdHigh);
 472              		.loc 1 932 48 is_stmt 0 view .LVU152
 473 0080 8C68     		ldr	r4, [r1, #8]
 933:Drivers/STM32F4xx_HAL_Driver/Src/stm32f4xx_hal_can.c ****     }
 474              		.loc 1 933 22 view .LVU153
 475 0082 0888     		ldrh	r0, [r1]
ARM GAS  C:\Users\Rick\AppData\Local\Temp\cck9vz6U.s 			page 29


 932:Drivers/STM32F4xx_HAL_Driver/Src/stm32f4xx_hal_can.c ****         (0x0000FFFFU & (uint32_t)sFilterConfig->FilterIdHigh);
 476              		.loc 1 932 76 view .LVU154
 477 0084 40EA0440 		orr	r0, r0, r4, lsl #16
 931:Drivers/STM32F4xx_HAL_Driver/Src/stm32f4xx_hal_can.c ****         ((0x0000FFFFU & (uint32_t)sFilterConfig->FilterMaskIdHigh) << 16U) |
 478              		.loc 1 931 62 view .LVU155
 479 0088 4C69     		ldr	r4, [r1, #20]
 480 008a 04F1480E 		add	lr, r4, #72
 481 008e 03EBCE03 		add	r3, r3, lr, lsl #3
 482 0092 5860     		str	r0, [r3, #4]
 483              	.L38:
 936:Drivers/STM32F4xx_HAL_Driver/Src/stm32f4xx_hal_can.c ****     {
 484              		.loc 1 936 5 is_stmt 1 view .LVU156
 936:Drivers/STM32F4xx_HAL_Driver/Src/stm32f4xx_hal_can.c ****     {
 485              		.loc 1 936 22 is_stmt 0 view .LVU157
 486 0094 CB69     		ldr	r3, [r1, #28]
 936:Drivers/STM32F4xx_HAL_Driver/Src/stm32f4xx_hal_can.c ****     {
 487              		.loc 1 936 8 view .LVU158
 488 0096 012B     		cmp	r3, #1
 489 0098 1ED0     		beq	.L51
 490              	.L39:
 953:Drivers/STM32F4xx_HAL_Driver/Src/stm32f4xx_hal_can.c ****     {
 491              		.loc 1 953 5 is_stmt 1 view .LVU159
 953:Drivers/STM32F4xx_HAL_Driver/Src/stm32f4xx_hal_can.c ****     {
 492              		.loc 1 953 22 is_stmt 0 view .LVU160
 493 009a 8B69     		ldr	r3, [r1, #24]
 953:Drivers/STM32F4xx_HAL_Driver/Src/stm32f4xx_hal_can.c ****     {
 494              		.loc 1 953 8 view .LVU161
 495 009c 002B     		cmp	r3, #0
 496 009e 33D1     		bne	.L40
 956:Drivers/STM32F4xx_HAL_Driver/Src/stm32f4xx_hal_can.c ****     }
 497              		.loc 1 956 7 is_stmt 1 view .LVU162
 498 00a0 2448     		ldr	r0, .L53
 499 00a2 D0F80432 		ldr	r3, [r0, #516]
 500 00a6 0CEA0303 		and	r3, ip, r3
 501 00aa C0F80432 		str	r3, [r0, #516]
 502              	.L41:
 965:Drivers/STM32F4xx_HAL_Driver/Src/stm32f4xx_hal_can.c ****     {
 503              		.loc 1 965 5 view .LVU163
 965:Drivers/STM32F4xx_HAL_Driver/Src/stm32f4xx_hal_can.c ****     {
 504              		.loc 1 965 22 is_stmt 0 view .LVU164
 505 00ae 0B69     		ldr	r3, [r1, #16]
 965:Drivers/STM32F4xx_HAL_Driver/Src/stm32f4xx_hal_can.c ****     {
 506              		.loc 1 965 8 view .LVU165
 507 00b0 8BBB     		cbnz	r3, .L42
 968:Drivers/STM32F4xx_HAL_Driver/Src/stm32f4xx_hal_can.c ****     }
 508              		.loc 1 968 7 is_stmt 1 view .LVU166
 509 00b2 2048     		ldr	r0, .L53
 510 00b4 D0F81432 		ldr	r3, [r0, #532]
 511 00b8 0CEA0303 		and	r3, ip, r3
 512 00bc C0F81432 		str	r3, [r0, #532]
 513              	.L43:
 977:Drivers/STM32F4xx_HAL_Driver/Src/stm32f4xx_hal_can.c ****     {
 514              		.loc 1 977 5 view .LVU167
 977:Drivers/STM32F4xx_HAL_Driver/Src/stm32f4xx_hal_can.c ****     {
 515              		.loc 1 977 22 is_stmt 0 view .LVU168
 516 00c0 0B6A     		ldr	r3, [r1, #32]
 977:Drivers/STM32F4xx_HAL_Driver/Src/stm32f4xx_hal_can.c ****     {
ARM GAS  C:\Users\Rick\AppData\Local\Temp\cck9vz6U.s 			page 30


 517              		.loc 1 977 8 view .LVU169
 518 00c2 012B     		cmp	r3, #1
 519 00c4 2ED0     		beq	.L52
 520              	.LVL24:
 521              	.L44:
 983:Drivers/STM32F4xx_HAL_Driver/Src/stm32f4xx_hal_can.c **** 
 522              		.loc 1 983 5 is_stmt 1 view .LVU170
 523 00c6 1B4A     		ldr	r2, .L53
 524              	.LVL25:
 983:Drivers/STM32F4xx_HAL_Driver/Src/stm32f4xx_hal_can.c **** 
 525              		.loc 1 983 5 is_stmt 0 view .LVU171
 526 00c8 D2F80032 		ldr	r3, [r2, #512]
 527 00cc 23F00103 		bic	r3, r3, #1
 528 00d0 C2F80032 		str	r3, [r2, #512]
 986:Drivers/STM32F4xx_HAL_Driver/Src/stm32f4xx_hal_can.c ****   }
 529              		.loc 1 986 5 is_stmt 1 view .LVU172
 986:Drivers/STM32F4xx_HAL_Driver/Src/stm32f4xx_hal_can.c ****   }
 530              		.loc 1 986 12 is_stmt 0 view .LVU173
 531 00d4 0020     		movs	r0, #0
 532              		.loc 1 995 1 view .LVU174
 533 00d6 30BD     		pop	{r4, r5, pc}
 534              	.LVL26:
 535              	.L51:
 939:Drivers/STM32F4xx_HAL_Driver/Src/stm32f4xx_hal_can.c **** 
 536              		.loc 1 939 7 is_stmt 1 view .LVU175
 537 00d8 164B     		ldr	r3, .L53
 538 00da D3F80C02 		ldr	r0, [r3, #524]
 539 00de 1043     		orrs	r0, r0, r2
 540 00e0 C3F80C02 		str	r0, [r3, #524]
 942:Drivers/STM32F4xx_HAL_Driver/Src/stm32f4xx_hal_can.c ****         ((0x0000FFFFU & (uint32_t)sFilterConfig->FilterIdHigh) << 16U) |
 541              		.loc 1 942 7 view .LVU176
 944:Drivers/STM32F4xx_HAL_Driver/Src/stm32f4xx_hal_can.c **** 
 542              		.loc 1 944 22 is_stmt 0 view .LVU177
 543 00e4 8C88     		ldrh	r4, [r1, #4]
 942:Drivers/STM32F4xx_HAL_Driver/Src/stm32f4xx_hal_can.c ****         ((0x0000FFFFU & (uint32_t)sFilterConfig->FilterIdHigh) << 16U) |
 544              		.loc 1 942 44 view .LVU178
 545 00e6 4869     		ldr	r0, [r1, #20]
 943:Drivers/STM32F4xx_HAL_Driver/Src/stm32f4xx_hal_can.c ****         (0x0000FFFFU & (uint32_t)sFilterConfig->FilterIdLow);
 546              		.loc 1 943 72 view .LVU179
 547 00e8 0D68     		ldr	r5, [r1]
 548 00ea 44EA0544 		orr	r4, r4, r5, lsl #16
 942:Drivers/STM32F4xx_HAL_Driver/Src/stm32f4xx_hal_can.c ****         ((0x0000FFFFU & (uint32_t)sFilterConfig->FilterIdHigh) << 16U) |
 549              		.loc 1 942 62 view .LVU180
 550 00ee 4830     		adds	r0, r0, #72
 551 00f0 43F83040 		str	r4, [r3, r0, lsl #3]
 947:Drivers/STM32F4xx_HAL_Driver/Src/stm32f4xx_hal_can.c ****         ((0x0000FFFFU & (uint32_t)sFilterConfig->FilterMaskIdHigh) << 16U) |
 552              		.loc 1 947 7 is_stmt 1 view .LVU181
 949:Drivers/STM32F4xx_HAL_Driver/Src/stm32f4xx_hal_can.c ****     }
 553              		.loc 1 949 22 is_stmt 0 view .LVU182
 554 00f4 8889     		ldrh	r0, [r1, #12]
 947:Drivers/STM32F4xx_HAL_Driver/Src/stm32f4xx_hal_can.c ****         ((0x0000FFFFU & (uint32_t)sFilterConfig->FilterMaskIdHigh) << 16U) |
 555              		.loc 1 947 44 view .LVU183
 556 00f6 4C69     		ldr	r4, [r1, #20]
 948:Drivers/STM32F4xx_HAL_Driver/Src/stm32f4xx_hal_can.c ****         (0x0000FFFFU & (uint32_t)sFilterConfig->FilterMaskIdLow);
 557              		.loc 1 948 76 view .LVU184
 558 00f8 8D68     		ldr	r5, [r1, #8]
 559 00fa 40EA0540 		orr	r0, r0, r5, lsl #16
ARM GAS  C:\Users\Rick\AppData\Local\Temp\cck9vz6U.s 			page 31


 947:Drivers/STM32F4xx_HAL_Driver/Src/stm32f4xx_hal_can.c ****         ((0x0000FFFFU & (uint32_t)sFilterConfig->FilterMaskIdHigh) << 16U) |
 560              		.loc 1 947 62 view .LVU185
 561 00fe 4834     		adds	r4, r4, #72
 562 0100 03EBC403 		add	r3, r3, r4, lsl #3
 563 0104 5860     		str	r0, [r3, #4]
 564 0106 C8E7     		b	.L39
 565              	.L40:
 961:Drivers/STM32F4xx_HAL_Driver/Src/stm32f4xx_hal_can.c ****     }
 566              		.loc 1 961 7 is_stmt 1 view .LVU186
 567 0108 0A48     		ldr	r0, .L53
 568 010a D0F80432 		ldr	r3, [r0, #516]
 569 010e 1343     		orrs	r3, r3, r2
 570 0110 C0F80432 		str	r3, [r0, #516]
 571 0114 CBE7     		b	.L41
 572              	.L42:
 973:Drivers/STM32F4xx_HAL_Driver/Src/stm32f4xx_hal_can.c ****     }
 573              		.loc 1 973 7 view .LVU187
 574 0116 0748     		ldr	r0, .L53
 575 0118 D0F81432 		ldr	r3, [r0, #532]
 576 011c 1343     		orrs	r3, r3, r2
 577 011e C0F81432 		str	r3, [r0, #532]
 578 0122 CDE7     		b	.L43
 579              	.L52:
 979:Drivers/STM32F4xx_HAL_Driver/Src/stm32f4xx_hal_can.c ****     }
 580              		.loc 1 979 7 view .LVU188
 581 0124 0349     		ldr	r1, .L53
 582              	.LVL27:
 979:Drivers/STM32F4xx_HAL_Driver/Src/stm32f4xx_hal_can.c ****     }
 583              		.loc 1 979 7 is_stmt 0 view .LVU189
 584 0126 D1F81C32 		ldr	r3, [r1, #540]
 585 012a 1343     		orrs	r3, r3, r2
 586 012c C1F81C32 		str	r3, [r1, #540]
 587 0130 C9E7     		b	.L44
 588              	.L54:
 589 0132 00BF     		.align	2
 590              	.L53:
 591 0134 00640040 		.word	1073767424
 592              		.cfi_endproc
 593              	.LFE243:
 595              		.section	.text.HAL_CAN_Start,"ax",%progbits
 596              		.align	1
 597              		.global	HAL_CAN_Start
 598              		.syntax unified
 599              		.thumb
 600              		.thumb_func
 602              	HAL_CAN_Start:
 603              	.LVL28:
 604              	.LFB244:
 996:Drivers/STM32F4xx_HAL_Driver/Src/stm32f4xx_hal_can.c **** 
 997:Drivers/STM32F4xx_HAL_Driver/Src/stm32f4xx_hal_can.c **** /**
 998:Drivers/STM32F4xx_HAL_Driver/Src/stm32f4xx_hal_can.c ****   * @}
 999:Drivers/STM32F4xx_HAL_Driver/Src/stm32f4xx_hal_can.c ****   */
1000:Drivers/STM32F4xx_HAL_Driver/Src/stm32f4xx_hal_can.c **** 
1001:Drivers/STM32F4xx_HAL_Driver/Src/stm32f4xx_hal_can.c **** /** @defgroup CAN_Exported_Functions_Group3 Control functions
1002:Drivers/STM32F4xx_HAL_Driver/Src/stm32f4xx_hal_can.c ****   * @brief    Control functions
1003:Drivers/STM32F4xx_HAL_Driver/Src/stm32f4xx_hal_can.c ****   *
1004:Drivers/STM32F4xx_HAL_Driver/Src/stm32f4xx_hal_can.c **** @verbatim
ARM GAS  C:\Users\Rick\AppData\Local\Temp\cck9vz6U.s 			page 32


1005:Drivers/STM32F4xx_HAL_Driver/Src/stm32f4xx_hal_can.c ****   ==============================================================================
1006:Drivers/STM32F4xx_HAL_Driver/Src/stm32f4xx_hal_can.c ****                       ##### Control functions #####
1007:Drivers/STM32F4xx_HAL_Driver/Src/stm32f4xx_hal_can.c ****   ==============================================================================
1008:Drivers/STM32F4xx_HAL_Driver/Src/stm32f4xx_hal_can.c ****     [..]  This section provides functions allowing to:
1009:Drivers/STM32F4xx_HAL_Driver/Src/stm32f4xx_hal_can.c ****       (+) HAL_CAN_Start                    : Start the CAN module
1010:Drivers/STM32F4xx_HAL_Driver/Src/stm32f4xx_hal_can.c ****       (+) HAL_CAN_Stop                     : Stop the CAN module
1011:Drivers/STM32F4xx_HAL_Driver/Src/stm32f4xx_hal_can.c ****       (+) HAL_CAN_RequestSleep             : Request sleep mode entry.
1012:Drivers/STM32F4xx_HAL_Driver/Src/stm32f4xx_hal_can.c ****       (+) HAL_CAN_WakeUp                   : Wake up from sleep mode.
1013:Drivers/STM32F4xx_HAL_Driver/Src/stm32f4xx_hal_can.c ****       (+) HAL_CAN_IsSleepActive            : Check is sleep mode is active.
1014:Drivers/STM32F4xx_HAL_Driver/Src/stm32f4xx_hal_can.c ****       (+) HAL_CAN_AddTxMessage             : Add a message to the Tx mailboxes
1015:Drivers/STM32F4xx_HAL_Driver/Src/stm32f4xx_hal_can.c ****                                              and activate the corresponding
1016:Drivers/STM32F4xx_HAL_Driver/Src/stm32f4xx_hal_can.c ****                                              transmission request
1017:Drivers/STM32F4xx_HAL_Driver/Src/stm32f4xx_hal_can.c ****       (+) HAL_CAN_AbortTxRequest           : Abort transmission request
1018:Drivers/STM32F4xx_HAL_Driver/Src/stm32f4xx_hal_can.c ****       (+) HAL_CAN_GetTxMailboxesFreeLevel  : Return Tx mailboxes free level
1019:Drivers/STM32F4xx_HAL_Driver/Src/stm32f4xx_hal_can.c ****       (+) HAL_CAN_IsTxMessagePending       : Check if a transmission request is
1020:Drivers/STM32F4xx_HAL_Driver/Src/stm32f4xx_hal_can.c ****                                              pending on the selected Tx mailbox
1021:Drivers/STM32F4xx_HAL_Driver/Src/stm32f4xx_hal_can.c ****       (+) HAL_CAN_GetRxMessage             : Get a CAN frame from the Rx FIFO
1022:Drivers/STM32F4xx_HAL_Driver/Src/stm32f4xx_hal_can.c ****       (+) HAL_CAN_GetRxFifoFillLevel       : Return Rx FIFO fill level
1023:Drivers/STM32F4xx_HAL_Driver/Src/stm32f4xx_hal_can.c **** 
1024:Drivers/STM32F4xx_HAL_Driver/Src/stm32f4xx_hal_can.c **** @endverbatim
1025:Drivers/STM32F4xx_HAL_Driver/Src/stm32f4xx_hal_can.c ****   * @{
1026:Drivers/STM32F4xx_HAL_Driver/Src/stm32f4xx_hal_can.c ****   */
1027:Drivers/STM32F4xx_HAL_Driver/Src/stm32f4xx_hal_can.c **** 
1028:Drivers/STM32F4xx_HAL_Driver/Src/stm32f4xx_hal_can.c **** /**
1029:Drivers/STM32F4xx_HAL_Driver/Src/stm32f4xx_hal_can.c ****   * @brief  Start the CAN module.
1030:Drivers/STM32F4xx_HAL_Driver/Src/stm32f4xx_hal_can.c ****   * @param  hcan pointer to an CAN_HandleTypeDef structure that contains
1031:Drivers/STM32F4xx_HAL_Driver/Src/stm32f4xx_hal_can.c ****   *         the configuration information for the specified CAN.
1032:Drivers/STM32F4xx_HAL_Driver/Src/stm32f4xx_hal_can.c ****   * @retval HAL status
1033:Drivers/STM32F4xx_HAL_Driver/Src/stm32f4xx_hal_can.c ****   */
1034:Drivers/STM32F4xx_HAL_Driver/Src/stm32f4xx_hal_can.c **** HAL_StatusTypeDef HAL_CAN_Start(CAN_HandleTypeDef *hcan)
1035:Drivers/STM32F4xx_HAL_Driver/Src/stm32f4xx_hal_can.c **** {
 605              		.loc 1 1035 1 is_stmt 1 view -0
 606              		.cfi_startproc
 607              		@ args = 0, pretend = 0, frame = 0
 608              		@ frame_needed = 0, uses_anonymous_args = 0
 609              		.loc 1 1035 1 is_stmt 0 view .LVU191
 610 0000 70B5     		push	{r4, r5, r6, lr}
 611              		.cfi_def_cfa_offset 16
 612              		.cfi_offset 4, -16
 613              		.cfi_offset 5, -12
 614              		.cfi_offset 6, -8
 615              		.cfi_offset 14, -4
 616 0002 0446     		mov	r4, r0
1036:Drivers/STM32F4xx_HAL_Driver/Src/stm32f4xx_hal_can.c ****   uint32_t tickstart;
 617              		.loc 1 1036 3 is_stmt 1 view .LVU192
1037:Drivers/STM32F4xx_HAL_Driver/Src/stm32f4xx_hal_can.c **** 
1038:Drivers/STM32F4xx_HAL_Driver/Src/stm32f4xx_hal_can.c ****   if (hcan->State == HAL_CAN_STATE_READY)
 618              		.loc 1 1038 3 view .LVU193
 619              		.loc 1 1038 11 is_stmt 0 view .LVU194
 620 0004 90F82030 		ldrb	r3, [r0, #32]	@ zero_extendqisi2
 621              		.loc 1 1038 6 view .LVU195
 622 0008 012B     		cmp	r3, #1
 623 000a 06D0     		beq	.L61
1039:Drivers/STM32F4xx_HAL_Driver/Src/stm32f4xx_hal_can.c ****   {
1040:Drivers/STM32F4xx_HAL_Driver/Src/stm32f4xx_hal_can.c ****     /* Change CAN peripheral state */
1041:Drivers/STM32F4xx_HAL_Driver/Src/stm32f4xx_hal_can.c ****     hcan->State = HAL_CAN_STATE_LISTENING;
1042:Drivers/STM32F4xx_HAL_Driver/Src/stm32f4xx_hal_can.c **** 
ARM GAS  C:\Users\Rick\AppData\Local\Temp\cck9vz6U.s 			page 33


1043:Drivers/STM32F4xx_HAL_Driver/Src/stm32f4xx_hal_can.c ****     /* Request leave initialisation */
1044:Drivers/STM32F4xx_HAL_Driver/Src/stm32f4xx_hal_can.c ****     CLEAR_BIT(hcan->Instance->MCR, CAN_MCR_INRQ);
1045:Drivers/STM32F4xx_HAL_Driver/Src/stm32f4xx_hal_can.c **** 
1046:Drivers/STM32F4xx_HAL_Driver/Src/stm32f4xx_hal_can.c ****     /* Get tick */
1047:Drivers/STM32F4xx_HAL_Driver/Src/stm32f4xx_hal_can.c ****     tickstart = HAL_GetTick();
1048:Drivers/STM32F4xx_HAL_Driver/Src/stm32f4xx_hal_can.c **** 
1049:Drivers/STM32F4xx_HAL_Driver/Src/stm32f4xx_hal_can.c ****     /* Wait the acknowledge */
1050:Drivers/STM32F4xx_HAL_Driver/Src/stm32f4xx_hal_can.c ****     while ((hcan->Instance->MSR & CAN_MSR_INAK) != 0U)
1051:Drivers/STM32F4xx_HAL_Driver/Src/stm32f4xx_hal_can.c ****     {
1052:Drivers/STM32F4xx_HAL_Driver/Src/stm32f4xx_hal_can.c ****       /* Check for the Timeout */
1053:Drivers/STM32F4xx_HAL_Driver/Src/stm32f4xx_hal_can.c ****       if ((HAL_GetTick() - tickstart) > CAN_TIMEOUT_VALUE)
1054:Drivers/STM32F4xx_HAL_Driver/Src/stm32f4xx_hal_can.c ****       {
1055:Drivers/STM32F4xx_HAL_Driver/Src/stm32f4xx_hal_can.c ****         /* Update error code */
1056:Drivers/STM32F4xx_HAL_Driver/Src/stm32f4xx_hal_can.c ****         hcan->ErrorCode |= HAL_CAN_ERROR_TIMEOUT;
1057:Drivers/STM32F4xx_HAL_Driver/Src/stm32f4xx_hal_can.c **** 
1058:Drivers/STM32F4xx_HAL_Driver/Src/stm32f4xx_hal_can.c ****         /* Change CAN state */
1059:Drivers/STM32F4xx_HAL_Driver/Src/stm32f4xx_hal_can.c ****         hcan->State = HAL_CAN_STATE_ERROR;
1060:Drivers/STM32F4xx_HAL_Driver/Src/stm32f4xx_hal_can.c **** 
1061:Drivers/STM32F4xx_HAL_Driver/Src/stm32f4xx_hal_can.c ****         return HAL_ERROR;
1062:Drivers/STM32F4xx_HAL_Driver/Src/stm32f4xx_hal_can.c ****       }
1063:Drivers/STM32F4xx_HAL_Driver/Src/stm32f4xx_hal_can.c ****     }
1064:Drivers/STM32F4xx_HAL_Driver/Src/stm32f4xx_hal_can.c **** 
1065:Drivers/STM32F4xx_HAL_Driver/Src/stm32f4xx_hal_can.c ****     /* Reset the CAN ErrorCode */
1066:Drivers/STM32F4xx_HAL_Driver/Src/stm32f4xx_hal_can.c ****     hcan->ErrorCode = HAL_CAN_ERROR_NONE;
1067:Drivers/STM32F4xx_HAL_Driver/Src/stm32f4xx_hal_can.c **** 
1068:Drivers/STM32F4xx_HAL_Driver/Src/stm32f4xx_hal_can.c ****     /* Return function status */
1069:Drivers/STM32F4xx_HAL_Driver/Src/stm32f4xx_hal_can.c ****     return HAL_OK;
1070:Drivers/STM32F4xx_HAL_Driver/Src/stm32f4xx_hal_can.c ****   }
1071:Drivers/STM32F4xx_HAL_Driver/Src/stm32f4xx_hal_can.c ****   else
1072:Drivers/STM32F4xx_HAL_Driver/Src/stm32f4xx_hal_can.c ****   {
1073:Drivers/STM32F4xx_HAL_Driver/Src/stm32f4xx_hal_can.c ****     /* Update error code */
1074:Drivers/STM32F4xx_HAL_Driver/Src/stm32f4xx_hal_can.c ****     hcan->ErrorCode |= HAL_CAN_ERROR_NOT_READY;
 624              		.loc 1 1074 5 is_stmt 1 view .LVU196
 625              		.loc 1 1074 9 is_stmt 0 view .LVU197
 626 000c 436A     		ldr	r3, [r0, #36]
 627              		.loc 1 1074 21 view .LVU198
 628 000e 43F40023 		orr	r3, r3, #524288
 629 0012 4362     		str	r3, [r0, #36]
1075:Drivers/STM32F4xx_HAL_Driver/Src/stm32f4xx_hal_can.c **** 
1076:Drivers/STM32F4xx_HAL_Driver/Src/stm32f4xx_hal_can.c ****     return HAL_ERROR;
 630              		.loc 1 1076 5 is_stmt 1 view .LVU199
 631              		.loc 1 1076 12 is_stmt 0 view .LVU200
 632 0014 0126     		movs	r6, #1
 633              	.LVL29:
 634              	.L58:
1077:Drivers/STM32F4xx_HAL_Driver/Src/stm32f4xx_hal_can.c ****   }
1078:Drivers/STM32F4xx_HAL_Driver/Src/stm32f4xx_hal_can.c **** }
 635              		.loc 1 1078 1 view .LVU201
 636 0016 3046     		mov	r0, r6
 637 0018 70BD     		pop	{r4, r5, r6, pc}
 638              	.LVL30:
 639              	.L61:
 640              		.loc 1 1078 1 view .LVU202
 641 001a DEB2     		uxtb	r6, r3
1041:Drivers/STM32F4xx_HAL_Driver/Src/stm32f4xx_hal_can.c **** 
 642              		.loc 1 1041 5 is_stmt 1 view .LVU203
1041:Drivers/STM32F4xx_HAL_Driver/Src/stm32f4xx_hal_can.c **** 
ARM GAS  C:\Users\Rick\AppData\Local\Temp\cck9vz6U.s 			page 34


 643              		.loc 1 1041 17 is_stmt 0 view .LVU204
 644 001c 0223     		movs	r3, #2
 645 001e 80F82030 		strb	r3, [r0, #32]
1044:Drivers/STM32F4xx_HAL_Driver/Src/stm32f4xx_hal_can.c **** 
 646              		.loc 1 1044 5 is_stmt 1 view .LVU205
 647 0022 0268     		ldr	r2, [r0]
 648 0024 1368     		ldr	r3, [r2]
 649 0026 23F00103 		bic	r3, r3, #1
 650 002a 1360     		str	r3, [r2]
1047:Drivers/STM32F4xx_HAL_Driver/Src/stm32f4xx_hal_can.c **** 
 651              		.loc 1 1047 5 view .LVU206
1047:Drivers/STM32F4xx_HAL_Driver/Src/stm32f4xx_hal_can.c **** 
 652              		.loc 1 1047 17 is_stmt 0 view .LVU207
 653 002c FFF7FEFF 		bl	HAL_GetTick
 654              	.LVL31:
1047:Drivers/STM32F4xx_HAL_Driver/Src/stm32f4xx_hal_can.c **** 
 655              		.loc 1 1047 17 view .LVU208
 656 0030 0546     		mov	r5, r0
 657              	.LVL32:
1050:Drivers/STM32F4xx_HAL_Driver/Src/stm32f4xx_hal_can.c ****     {
 658              		.loc 1 1050 5 is_stmt 1 view .LVU209
 659              	.L57:
1050:Drivers/STM32F4xx_HAL_Driver/Src/stm32f4xx_hal_can.c ****     {
 660              		.loc 1 1050 49 view .LVU210
1050:Drivers/STM32F4xx_HAL_Driver/Src/stm32f4xx_hal_can.c ****     {
 661              		.loc 1 1050 17 is_stmt 0 view .LVU211
 662 0032 2368     		ldr	r3, [r4]
1050:Drivers/STM32F4xx_HAL_Driver/Src/stm32f4xx_hal_can.c ****     {
 663              		.loc 1 1050 27 view .LVU212
 664 0034 5B68     		ldr	r3, [r3, #4]
1050:Drivers/STM32F4xx_HAL_Driver/Src/stm32f4xx_hal_can.c ****     {
 665              		.loc 1 1050 49 view .LVU213
 666 0036 13F0010F 		tst	r3, #1
 667 003a 0CD0     		beq	.L62
1053:Drivers/STM32F4xx_HAL_Driver/Src/stm32f4xx_hal_can.c ****       {
 668              		.loc 1 1053 7 is_stmt 1 view .LVU214
1053:Drivers/STM32F4xx_HAL_Driver/Src/stm32f4xx_hal_can.c ****       {
 669              		.loc 1 1053 12 is_stmt 0 view .LVU215
 670 003c FFF7FEFF 		bl	HAL_GetTick
 671              	.LVL33:
1053:Drivers/STM32F4xx_HAL_Driver/Src/stm32f4xx_hal_can.c ****       {
 672              		.loc 1 1053 26 discriminator 1 view .LVU216
 673 0040 431B     		subs	r3, r0, r5
1053:Drivers/STM32F4xx_HAL_Driver/Src/stm32f4xx_hal_can.c ****       {
 674              		.loc 1 1053 10 discriminator 1 view .LVU217
 675 0042 0A2B     		cmp	r3, #10
 676 0044 F5D9     		bls	.L57
1056:Drivers/STM32F4xx_HAL_Driver/Src/stm32f4xx_hal_can.c **** 
 677              		.loc 1 1056 9 is_stmt 1 view .LVU218
1056:Drivers/STM32F4xx_HAL_Driver/Src/stm32f4xx_hal_can.c **** 
 678              		.loc 1 1056 13 is_stmt 0 view .LVU219
 679 0046 636A     		ldr	r3, [r4, #36]
1056:Drivers/STM32F4xx_HAL_Driver/Src/stm32f4xx_hal_can.c **** 
 680              		.loc 1 1056 25 view .LVU220
 681 0048 43F40033 		orr	r3, r3, #131072
 682 004c 6362     		str	r3, [r4, #36]
1059:Drivers/STM32F4xx_HAL_Driver/Src/stm32f4xx_hal_can.c **** 
ARM GAS  C:\Users\Rick\AppData\Local\Temp\cck9vz6U.s 			page 35


 683              		.loc 1 1059 9 is_stmt 1 view .LVU221
1059:Drivers/STM32F4xx_HAL_Driver/Src/stm32f4xx_hal_can.c **** 
 684              		.loc 1 1059 21 is_stmt 0 view .LVU222
 685 004e 0523     		movs	r3, #5
 686 0050 84F82030 		strb	r3, [r4, #32]
1061:Drivers/STM32F4xx_HAL_Driver/Src/stm32f4xx_hal_can.c ****       }
 687              		.loc 1 1061 9 is_stmt 1 view .LVU223
1061:Drivers/STM32F4xx_HAL_Driver/Src/stm32f4xx_hal_can.c ****       }
 688              		.loc 1 1061 16 is_stmt 0 view .LVU224
 689 0054 DFE7     		b	.L58
 690              	.L62:
1066:Drivers/STM32F4xx_HAL_Driver/Src/stm32f4xx_hal_can.c **** 
 691              		.loc 1 1066 5 is_stmt 1 view .LVU225
1066:Drivers/STM32F4xx_HAL_Driver/Src/stm32f4xx_hal_can.c **** 
 692              		.loc 1 1066 21 is_stmt 0 view .LVU226
 693 0056 0026     		movs	r6, #0
 694 0058 6662     		str	r6, [r4, #36]
1069:Drivers/STM32F4xx_HAL_Driver/Src/stm32f4xx_hal_can.c ****   }
 695              		.loc 1 1069 5 is_stmt 1 view .LVU227
1069:Drivers/STM32F4xx_HAL_Driver/Src/stm32f4xx_hal_can.c ****   }
 696              		.loc 1 1069 12 is_stmt 0 view .LVU228
 697 005a DCE7     		b	.L58
 698              		.cfi_endproc
 699              	.LFE244:
 701              		.section	.text.HAL_CAN_Stop,"ax",%progbits
 702              		.align	1
 703              		.global	HAL_CAN_Stop
 704              		.syntax unified
 705              		.thumb
 706              		.thumb_func
 708              	HAL_CAN_Stop:
 709              	.LVL34:
 710              	.LFB245:
1079:Drivers/STM32F4xx_HAL_Driver/Src/stm32f4xx_hal_can.c **** 
1080:Drivers/STM32F4xx_HAL_Driver/Src/stm32f4xx_hal_can.c **** /**
1081:Drivers/STM32F4xx_HAL_Driver/Src/stm32f4xx_hal_can.c ****   * @brief  Stop the CAN module and enable access to configuration registers.
1082:Drivers/STM32F4xx_HAL_Driver/Src/stm32f4xx_hal_can.c ****   * @param  hcan pointer to an CAN_HandleTypeDef structure that contains
1083:Drivers/STM32F4xx_HAL_Driver/Src/stm32f4xx_hal_can.c ****   *         the configuration information for the specified CAN.
1084:Drivers/STM32F4xx_HAL_Driver/Src/stm32f4xx_hal_can.c ****   * @retval HAL status
1085:Drivers/STM32F4xx_HAL_Driver/Src/stm32f4xx_hal_can.c ****   */
1086:Drivers/STM32F4xx_HAL_Driver/Src/stm32f4xx_hal_can.c **** HAL_StatusTypeDef HAL_CAN_Stop(CAN_HandleTypeDef *hcan)
1087:Drivers/STM32F4xx_HAL_Driver/Src/stm32f4xx_hal_can.c **** {
 711              		.loc 1 1087 1 is_stmt 1 view -0
 712              		.cfi_startproc
 713              		@ args = 0, pretend = 0, frame = 0
 714              		@ frame_needed = 0, uses_anonymous_args = 0
 715              		.loc 1 1087 1 is_stmt 0 view .LVU230
 716 0000 38B5     		push	{r3, r4, r5, lr}
 717              		.cfi_def_cfa_offset 16
 718              		.cfi_offset 3, -16
 719              		.cfi_offset 4, -12
 720              		.cfi_offset 5, -8
 721              		.cfi_offset 14, -4
 722 0002 0446     		mov	r4, r0
1088:Drivers/STM32F4xx_HAL_Driver/Src/stm32f4xx_hal_can.c ****   uint32_t tickstart;
 723              		.loc 1 1088 3 is_stmt 1 view .LVU231
1089:Drivers/STM32F4xx_HAL_Driver/Src/stm32f4xx_hal_can.c **** 
ARM GAS  C:\Users\Rick\AppData\Local\Temp\cck9vz6U.s 			page 36


1090:Drivers/STM32F4xx_HAL_Driver/Src/stm32f4xx_hal_can.c ****   if (hcan->State == HAL_CAN_STATE_LISTENING)
 724              		.loc 1 1090 3 view .LVU232
 725              		.loc 1 1090 11 is_stmt 0 view .LVU233
 726 0004 90F82030 		ldrb	r3, [r0, #32]	@ zero_extendqisi2
 727              		.loc 1 1090 6 view .LVU234
 728 0008 022B     		cmp	r3, #2
 729 000a 05D0     		beq	.L69
1091:Drivers/STM32F4xx_HAL_Driver/Src/stm32f4xx_hal_can.c ****   {
1092:Drivers/STM32F4xx_HAL_Driver/Src/stm32f4xx_hal_can.c ****     /* Request initialisation */
1093:Drivers/STM32F4xx_HAL_Driver/Src/stm32f4xx_hal_can.c ****     SET_BIT(hcan->Instance->MCR, CAN_MCR_INRQ);
1094:Drivers/STM32F4xx_HAL_Driver/Src/stm32f4xx_hal_can.c **** 
1095:Drivers/STM32F4xx_HAL_Driver/Src/stm32f4xx_hal_can.c ****     /* Get tick */
1096:Drivers/STM32F4xx_HAL_Driver/Src/stm32f4xx_hal_can.c ****     tickstart = HAL_GetTick();
1097:Drivers/STM32F4xx_HAL_Driver/Src/stm32f4xx_hal_can.c **** 
1098:Drivers/STM32F4xx_HAL_Driver/Src/stm32f4xx_hal_can.c ****     /* Wait the acknowledge */
1099:Drivers/STM32F4xx_HAL_Driver/Src/stm32f4xx_hal_can.c ****     while ((hcan->Instance->MSR & CAN_MSR_INAK) == 0U)
1100:Drivers/STM32F4xx_HAL_Driver/Src/stm32f4xx_hal_can.c ****     {
1101:Drivers/STM32F4xx_HAL_Driver/Src/stm32f4xx_hal_can.c ****       /* Check for the Timeout */
1102:Drivers/STM32F4xx_HAL_Driver/Src/stm32f4xx_hal_can.c ****       if ((HAL_GetTick() - tickstart) > CAN_TIMEOUT_VALUE)
1103:Drivers/STM32F4xx_HAL_Driver/Src/stm32f4xx_hal_can.c ****       {
1104:Drivers/STM32F4xx_HAL_Driver/Src/stm32f4xx_hal_can.c ****         /* Update error code */
1105:Drivers/STM32F4xx_HAL_Driver/Src/stm32f4xx_hal_can.c ****         hcan->ErrorCode |= HAL_CAN_ERROR_TIMEOUT;
1106:Drivers/STM32F4xx_HAL_Driver/Src/stm32f4xx_hal_can.c **** 
1107:Drivers/STM32F4xx_HAL_Driver/Src/stm32f4xx_hal_can.c ****         /* Change CAN state */
1108:Drivers/STM32F4xx_HAL_Driver/Src/stm32f4xx_hal_can.c ****         hcan->State = HAL_CAN_STATE_ERROR;
1109:Drivers/STM32F4xx_HAL_Driver/Src/stm32f4xx_hal_can.c **** 
1110:Drivers/STM32F4xx_HAL_Driver/Src/stm32f4xx_hal_can.c ****         return HAL_ERROR;
1111:Drivers/STM32F4xx_HAL_Driver/Src/stm32f4xx_hal_can.c ****       }
1112:Drivers/STM32F4xx_HAL_Driver/Src/stm32f4xx_hal_can.c ****     }
1113:Drivers/STM32F4xx_HAL_Driver/Src/stm32f4xx_hal_can.c **** 
1114:Drivers/STM32F4xx_HAL_Driver/Src/stm32f4xx_hal_can.c ****     /* Exit from sleep mode */
1115:Drivers/STM32F4xx_HAL_Driver/Src/stm32f4xx_hal_can.c ****     CLEAR_BIT(hcan->Instance->MCR, CAN_MCR_SLEEP);
1116:Drivers/STM32F4xx_HAL_Driver/Src/stm32f4xx_hal_can.c **** 
1117:Drivers/STM32F4xx_HAL_Driver/Src/stm32f4xx_hal_can.c ****     /* Change CAN peripheral state */
1118:Drivers/STM32F4xx_HAL_Driver/Src/stm32f4xx_hal_can.c ****     hcan->State = HAL_CAN_STATE_READY;
1119:Drivers/STM32F4xx_HAL_Driver/Src/stm32f4xx_hal_can.c **** 
1120:Drivers/STM32F4xx_HAL_Driver/Src/stm32f4xx_hal_can.c ****     /* Return function status */
1121:Drivers/STM32F4xx_HAL_Driver/Src/stm32f4xx_hal_can.c ****     return HAL_OK;
1122:Drivers/STM32F4xx_HAL_Driver/Src/stm32f4xx_hal_can.c ****   }
1123:Drivers/STM32F4xx_HAL_Driver/Src/stm32f4xx_hal_can.c ****   else
1124:Drivers/STM32F4xx_HAL_Driver/Src/stm32f4xx_hal_can.c ****   {
1125:Drivers/STM32F4xx_HAL_Driver/Src/stm32f4xx_hal_can.c ****     /* Update error code */
1126:Drivers/STM32F4xx_HAL_Driver/Src/stm32f4xx_hal_can.c ****     hcan->ErrorCode |= HAL_CAN_ERROR_NOT_STARTED;
 730              		.loc 1 1126 5 is_stmt 1 view .LVU235
 731              		.loc 1 1126 9 is_stmt 0 view .LVU236
 732 000c 436A     		ldr	r3, [r0, #36]
 733              		.loc 1 1126 21 view .LVU237
 734 000e 43F48013 		orr	r3, r3, #1048576
 735 0012 4362     		str	r3, [r0, #36]
1127:Drivers/STM32F4xx_HAL_Driver/Src/stm32f4xx_hal_can.c **** 
1128:Drivers/STM32F4xx_HAL_Driver/Src/stm32f4xx_hal_can.c ****     return HAL_ERROR;
 736              		.loc 1 1128 5 is_stmt 1 view .LVU238
 737              		.loc 1 1128 12 is_stmt 0 view .LVU239
 738 0014 0120     		movs	r0, #1
 739              	.LVL35:
 740              	.L66:
1129:Drivers/STM32F4xx_HAL_Driver/Src/stm32f4xx_hal_can.c ****   }
ARM GAS  C:\Users\Rick\AppData\Local\Temp\cck9vz6U.s 			page 37


1130:Drivers/STM32F4xx_HAL_Driver/Src/stm32f4xx_hal_can.c **** }
 741              		.loc 1 1130 1 view .LVU240
 742 0016 38BD     		pop	{r3, r4, r5, pc}
 743              	.LVL36:
 744              	.L69:
1093:Drivers/STM32F4xx_HAL_Driver/Src/stm32f4xx_hal_can.c **** 
 745              		.loc 1 1093 5 is_stmt 1 view .LVU241
 746 0018 0268     		ldr	r2, [r0]
 747 001a 1368     		ldr	r3, [r2]
 748 001c 43F00103 		orr	r3, r3, #1
 749 0020 1360     		str	r3, [r2]
1096:Drivers/STM32F4xx_HAL_Driver/Src/stm32f4xx_hal_can.c **** 
 750              		.loc 1 1096 5 view .LVU242
1096:Drivers/STM32F4xx_HAL_Driver/Src/stm32f4xx_hal_can.c **** 
 751              		.loc 1 1096 17 is_stmt 0 view .LVU243
 752 0022 FFF7FEFF 		bl	HAL_GetTick
 753              	.LVL37:
1096:Drivers/STM32F4xx_HAL_Driver/Src/stm32f4xx_hal_can.c **** 
 754              		.loc 1 1096 17 view .LVU244
 755 0026 0546     		mov	r5, r0
 756              	.LVL38:
1099:Drivers/STM32F4xx_HAL_Driver/Src/stm32f4xx_hal_can.c ****     {
 757              		.loc 1 1099 5 is_stmt 1 view .LVU245
 758              	.L65:
1099:Drivers/STM32F4xx_HAL_Driver/Src/stm32f4xx_hal_can.c ****     {
 759              		.loc 1 1099 49 view .LVU246
1099:Drivers/STM32F4xx_HAL_Driver/Src/stm32f4xx_hal_can.c ****     {
 760              		.loc 1 1099 17 is_stmt 0 view .LVU247
 761 0028 2368     		ldr	r3, [r4]
1099:Drivers/STM32F4xx_HAL_Driver/Src/stm32f4xx_hal_can.c ****     {
 762              		.loc 1 1099 27 view .LVU248
 763 002a 5A68     		ldr	r2, [r3, #4]
1099:Drivers/STM32F4xx_HAL_Driver/Src/stm32f4xx_hal_can.c ****     {
 764              		.loc 1 1099 49 view .LVU249
 765 002c 12F0010F 		tst	r2, #1
 766 0030 0DD1     		bne	.L70
1102:Drivers/STM32F4xx_HAL_Driver/Src/stm32f4xx_hal_can.c ****       {
 767              		.loc 1 1102 7 is_stmt 1 view .LVU250
1102:Drivers/STM32F4xx_HAL_Driver/Src/stm32f4xx_hal_can.c ****       {
 768              		.loc 1 1102 12 is_stmt 0 view .LVU251
 769 0032 FFF7FEFF 		bl	HAL_GetTick
 770              	.LVL39:
1102:Drivers/STM32F4xx_HAL_Driver/Src/stm32f4xx_hal_can.c ****       {
 771              		.loc 1 1102 26 discriminator 1 view .LVU252
 772 0036 431B     		subs	r3, r0, r5
1102:Drivers/STM32F4xx_HAL_Driver/Src/stm32f4xx_hal_can.c ****       {
 773              		.loc 1 1102 10 discriminator 1 view .LVU253
 774 0038 0A2B     		cmp	r3, #10
 775 003a F5D9     		bls	.L65
1105:Drivers/STM32F4xx_HAL_Driver/Src/stm32f4xx_hal_can.c **** 
 776              		.loc 1 1105 9 is_stmt 1 view .LVU254
1105:Drivers/STM32F4xx_HAL_Driver/Src/stm32f4xx_hal_can.c **** 
 777              		.loc 1 1105 13 is_stmt 0 view .LVU255
 778 003c 636A     		ldr	r3, [r4, #36]
1105:Drivers/STM32F4xx_HAL_Driver/Src/stm32f4xx_hal_can.c **** 
 779              		.loc 1 1105 25 view .LVU256
 780 003e 43F40033 		orr	r3, r3, #131072
ARM GAS  C:\Users\Rick\AppData\Local\Temp\cck9vz6U.s 			page 38


 781 0042 6362     		str	r3, [r4, #36]
1108:Drivers/STM32F4xx_HAL_Driver/Src/stm32f4xx_hal_can.c **** 
 782              		.loc 1 1108 9 is_stmt 1 view .LVU257
1108:Drivers/STM32F4xx_HAL_Driver/Src/stm32f4xx_hal_can.c **** 
 783              		.loc 1 1108 21 is_stmt 0 view .LVU258
 784 0044 0523     		movs	r3, #5
 785 0046 84F82030 		strb	r3, [r4, #32]
1110:Drivers/STM32F4xx_HAL_Driver/Src/stm32f4xx_hal_can.c ****       }
 786              		.loc 1 1110 9 is_stmt 1 view .LVU259
1110:Drivers/STM32F4xx_HAL_Driver/Src/stm32f4xx_hal_can.c ****       }
 787              		.loc 1 1110 16 is_stmt 0 view .LVU260
 788 004a 0120     		movs	r0, #1
 789 004c E3E7     		b	.L66
 790              	.L70:
1115:Drivers/STM32F4xx_HAL_Driver/Src/stm32f4xx_hal_can.c **** 
 791              		.loc 1 1115 5 is_stmt 1 view .LVU261
 792 004e 1A68     		ldr	r2, [r3]
 793 0050 22F00202 		bic	r2, r2, #2
 794 0054 1A60     		str	r2, [r3]
1118:Drivers/STM32F4xx_HAL_Driver/Src/stm32f4xx_hal_can.c **** 
 795              		.loc 1 1118 5 view .LVU262
1118:Drivers/STM32F4xx_HAL_Driver/Src/stm32f4xx_hal_can.c **** 
 796              		.loc 1 1118 17 is_stmt 0 view .LVU263
 797 0056 0123     		movs	r3, #1
 798 0058 84F82030 		strb	r3, [r4, #32]
1121:Drivers/STM32F4xx_HAL_Driver/Src/stm32f4xx_hal_can.c ****   }
 799              		.loc 1 1121 5 is_stmt 1 view .LVU264
1121:Drivers/STM32F4xx_HAL_Driver/Src/stm32f4xx_hal_can.c ****   }
 800              		.loc 1 1121 12 is_stmt 0 view .LVU265
 801 005c 0020     		movs	r0, #0
 802 005e DAE7     		b	.L66
 803              		.cfi_endproc
 804              	.LFE245:
 806              		.section	.text.HAL_CAN_DeInit,"ax",%progbits
 807              		.align	1
 808              		.global	HAL_CAN_DeInit
 809              		.syntax unified
 810              		.thumb
 811              		.thumb_func
 813              	HAL_CAN_DeInit:
 814              	.LVL40:
 815              	.LFB240:
 461:Drivers/STM32F4xx_HAL_Driver/Src/stm32f4xx_hal_can.c ****   /* Check CAN handle */
 816              		.loc 1 461 1 is_stmt 1 view -0
 817              		.cfi_startproc
 818              		@ args = 0, pretend = 0, frame = 0
 819              		@ frame_needed = 0, uses_anonymous_args = 0
 463:Drivers/STM32F4xx_HAL_Driver/Src/stm32f4xx_hal_can.c ****   {
 820              		.loc 1 463 3 view .LVU267
 463:Drivers/STM32F4xx_HAL_Driver/Src/stm32f4xx_hal_can.c ****   {
 821              		.loc 1 463 6 is_stmt 0 view .LVU268
 822 0000 80B1     		cbz	r0, .L73
 461:Drivers/STM32F4xx_HAL_Driver/Src/stm32f4xx_hal_can.c ****   /* Check CAN handle */
 823              		.loc 1 461 1 view .LVU269
 824 0002 10B5     		push	{r4, lr}
 825              		.cfi_def_cfa_offset 8
 826              		.cfi_offset 4, -8
ARM GAS  C:\Users\Rick\AppData\Local\Temp\cck9vz6U.s 			page 39


 827              		.cfi_offset 14, -4
 828 0004 0446     		mov	r4, r0
 469:Drivers/STM32F4xx_HAL_Driver/Src/stm32f4xx_hal_can.c **** 
 829              		.loc 1 469 3 is_stmt 1 view .LVU270
 472:Drivers/STM32F4xx_HAL_Driver/Src/stm32f4xx_hal_can.c **** 
 830              		.loc 1 472 3 view .LVU271
 472:Drivers/STM32F4xx_HAL_Driver/Src/stm32f4xx_hal_can.c **** 
 831              		.loc 1 472 9 is_stmt 0 view .LVU272
 832 0006 FFF7FEFF 		bl	HAL_CAN_Stop
 833              	.LVL41:
 485:Drivers/STM32F4xx_HAL_Driver/Src/stm32f4xx_hal_can.c **** #endif /* USE_HAL_CAN_REGISTER_CALLBACKS */
 834              		.loc 1 485 3 is_stmt 1 view .LVU273
 835 000a 2046     		mov	r0, r4
 836 000c FFF7FEFF 		bl	HAL_CAN_MspDeInit
 837              	.LVL42:
 489:Drivers/STM32F4xx_HAL_Driver/Src/stm32f4xx_hal_can.c **** 
 838              		.loc 1 489 3 view .LVU274
 839 0010 2268     		ldr	r2, [r4]
 840 0012 1368     		ldr	r3, [r2]
 841 0014 43F40043 		orr	r3, r3, #32768
 842 0018 1360     		str	r3, [r2]
 492:Drivers/STM32F4xx_HAL_Driver/Src/stm32f4xx_hal_can.c **** 
 843              		.loc 1 492 3 view .LVU275
 492:Drivers/STM32F4xx_HAL_Driver/Src/stm32f4xx_hal_can.c **** 
 844              		.loc 1 492 19 is_stmt 0 view .LVU276
 845 001a 0020     		movs	r0, #0
 846 001c 6062     		str	r0, [r4, #36]
 495:Drivers/STM32F4xx_HAL_Driver/Src/stm32f4xx_hal_can.c **** 
 847              		.loc 1 495 3 is_stmt 1 view .LVU277
 495:Drivers/STM32F4xx_HAL_Driver/Src/stm32f4xx_hal_can.c **** 
 848              		.loc 1 495 15 is_stmt 0 view .LVU278
 849 001e 84F82000 		strb	r0, [r4, #32]
 498:Drivers/STM32F4xx_HAL_Driver/Src/stm32f4xx_hal_can.c **** }
 850              		.loc 1 498 3 is_stmt 1 view .LVU279
 499:Drivers/STM32F4xx_HAL_Driver/Src/stm32f4xx_hal_can.c **** 
 851              		.loc 1 499 1 is_stmt 0 view .LVU280
 852 0022 10BD     		pop	{r4, pc}
 853              	.LVL43:
 854              	.L73:
 855              		.cfi_def_cfa_offset 0
 856              		.cfi_restore 4
 857              		.cfi_restore 14
 465:Drivers/STM32F4xx_HAL_Driver/Src/stm32f4xx_hal_can.c ****   }
 858              		.loc 1 465 12 view .LVU281
 859 0024 0120     		movs	r0, #1
 860              	.LVL44:
 499:Drivers/STM32F4xx_HAL_Driver/Src/stm32f4xx_hal_can.c **** 
 861              		.loc 1 499 1 view .LVU282
 862 0026 7047     		bx	lr
 863              		.cfi_endproc
 864              	.LFE240:
 866              		.section	.text.HAL_CAN_RequestSleep,"ax",%progbits
 867              		.align	1
 868              		.global	HAL_CAN_RequestSleep
 869              		.syntax unified
 870              		.thumb
 871              		.thumb_func
ARM GAS  C:\Users\Rick\AppData\Local\Temp\cck9vz6U.s 			page 40


 873              	HAL_CAN_RequestSleep:
 874              	.LVL45:
 875              	.LFB246:
1131:Drivers/STM32F4xx_HAL_Driver/Src/stm32f4xx_hal_can.c **** 
1132:Drivers/STM32F4xx_HAL_Driver/Src/stm32f4xx_hal_can.c **** /**
1133:Drivers/STM32F4xx_HAL_Driver/Src/stm32f4xx_hal_can.c ****   * @brief  Request the sleep mode (low power) entry.
1134:Drivers/STM32F4xx_HAL_Driver/Src/stm32f4xx_hal_can.c ****   *         When returning from this function, Sleep mode will be entered
1135:Drivers/STM32F4xx_HAL_Driver/Src/stm32f4xx_hal_can.c ****   *         as soon as the current CAN activity (transmission or reception
1136:Drivers/STM32F4xx_HAL_Driver/Src/stm32f4xx_hal_can.c ****   *         of a CAN frame) has been completed.
1137:Drivers/STM32F4xx_HAL_Driver/Src/stm32f4xx_hal_can.c ****   * @param  hcan pointer to a CAN_HandleTypeDef structure that contains
1138:Drivers/STM32F4xx_HAL_Driver/Src/stm32f4xx_hal_can.c ****   *         the configuration information for the specified CAN.
1139:Drivers/STM32F4xx_HAL_Driver/Src/stm32f4xx_hal_can.c ****   * @retval HAL status.
1140:Drivers/STM32F4xx_HAL_Driver/Src/stm32f4xx_hal_can.c ****   */
1141:Drivers/STM32F4xx_HAL_Driver/Src/stm32f4xx_hal_can.c **** HAL_StatusTypeDef HAL_CAN_RequestSleep(CAN_HandleTypeDef *hcan)
1142:Drivers/STM32F4xx_HAL_Driver/Src/stm32f4xx_hal_can.c **** {
 876              		.loc 1 1142 1 is_stmt 1 view -0
 877              		.cfi_startproc
 878              		@ args = 0, pretend = 0, frame = 0
 879              		@ frame_needed = 0, uses_anonymous_args = 0
 880              		@ link register save eliminated.
1143:Drivers/STM32F4xx_HAL_Driver/Src/stm32f4xx_hal_can.c ****   HAL_CAN_StateTypeDef state = hcan->State;
 881              		.loc 1 1143 3 view .LVU284
 882              		.loc 1 1143 24 is_stmt 0 view .LVU285
 883 0000 90F82030 		ldrb	r3, [r0, #32]	@ zero_extendqisi2
 884              	.LVL46:
1144:Drivers/STM32F4xx_HAL_Driver/Src/stm32f4xx_hal_can.c **** 
1145:Drivers/STM32F4xx_HAL_Driver/Src/stm32f4xx_hal_can.c ****   if ((state == HAL_CAN_STATE_READY) ||
 885              		.loc 1 1145 3 is_stmt 1 view .LVU286
 886              		.loc 1 1145 38 is_stmt 0 view .LVU287
 887 0004 013B     		subs	r3, r3, #1
 888              	.LVL47:
 889              		.loc 1 1145 38 view .LVU288
 890 0006 DBB2     		uxtb	r3, r3
 891              	.LVL48:
 892              		.loc 1 1145 6 view .LVU289
 893 0008 012B     		cmp	r3, #1
 894 000a 05D9     		bls	.L81
1146:Drivers/STM32F4xx_HAL_Driver/Src/stm32f4xx_hal_can.c ****       (state == HAL_CAN_STATE_LISTENING))
1147:Drivers/STM32F4xx_HAL_Driver/Src/stm32f4xx_hal_can.c ****   {
1148:Drivers/STM32F4xx_HAL_Driver/Src/stm32f4xx_hal_can.c ****     /* Request Sleep mode */
1149:Drivers/STM32F4xx_HAL_Driver/Src/stm32f4xx_hal_can.c ****     SET_BIT(hcan->Instance->MCR, CAN_MCR_SLEEP);
1150:Drivers/STM32F4xx_HAL_Driver/Src/stm32f4xx_hal_can.c **** 
1151:Drivers/STM32F4xx_HAL_Driver/Src/stm32f4xx_hal_can.c ****     /* Return function status */
1152:Drivers/STM32F4xx_HAL_Driver/Src/stm32f4xx_hal_can.c ****     return HAL_OK;
1153:Drivers/STM32F4xx_HAL_Driver/Src/stm32f4xx_hal_can.c ****   }
1154:Drivers/STM32F4xx_HAL_Driver/Src/stm32f4xx_hal_can.c ****   else
1155:Drivers/STM32F4xx_HAL_Driver/Src/stm32f4xx_hal_can.c ****   {
1156:Drivers/STM32F4xx_HAL_Driver/Src/stm32f4xx_hal_can.c ****     /* Update error code */
1157:Drivers/STM32F4xx_HAL_Driver/Src/stm32f4xx_hal_can.c ****     hcan->ErrorCode |= HAL_CAN_ERROR_NOT_INITIALIZED;
 895              		.loc 1 1157 5 is_stmt 1 view .LVU290
 896              		.loc 1 1157 9 is_stmt 0 view .LVU291
 897 000c 436A     		ldr	r3, [r0, #36]
 898              		.loc 1 1157 21 view .LVU292
 899 000e 43F48023 		orr	r3, r3, #262144
 900 0012 4362     		str	r3, [r0, #36]
1158:Drivers/STM32F4xx_HAL_Driver/Src/stm32f4xx_hal_can.c **** 
1159:Drivers/STM32F4xx_HAL_Driver/Src/stm32f4xx_hal_can.c ****     /* Return function status */
ARM GAS  C:\Users\Rick\AppData\Local\Temp\cck9vz6U.s 			page 41


1160:Drivers/STM32F4xx_HAL_Driver/Src/stm32f4xx_hal_can.c ****     return HAL_ERROR;
 901              		.loc 1 1160 5 is_stmt 1 view .LVU293
 902              		.loc 1 1160 12 is_stmt 0 view .LVU294
 903 0014 0120     		movs	r0, #1
 904              	.LVL49:
1161:Drivers/STM32F4xx_HAL_Driver/Src/stm32f4xx_hal_can.c ****   }
1162:Drivers/STM32F4xx_HAL_Driver/Src/stm32f4xx_hal_can.c **** }
 905              		.loc 1 1162 1 view .LVU295
 906 0016 7047     		bx	lr
 907              	.LVL50:
 908              	.L81:
1149:Drivers/STM32F4xx_HAL_Driver/Src/stm32f4xx_hal_can.c **** 
 909              		.loc 1 1149 5 is_stmt 1 view .LVU296
 910 0018 0268     		ldr	r2, [r0]
 911 001a 1368     		ldr	r3, [r2]
 912 001c 43F00203 		orr	r3, r3, #2
 913 0020 1360     		str	r3, [r2]
1152:Drivers/STM32F4xx_HAL_Driver/Src/stm32f4xx_hal_can.c ****   }
 914              		.loc 1 1152 5 view .LVU297
1152:Drivers/STM32F4xx_HAL_Driver/Src/stm32f4xx_hal_can.c ****   }
 915              		.loc 1 1152 12 is_stmt 0 view .LVU298
 916 0022 0020     		movs	r0, #0
 917              	.LVL51:
1152:Drivers/STM32F4xx_HAL_Driver/Src/stm32f4xx_hal_can.c ****   }
 918              		.loc 1 1152 12 view .LVU299
 919 0024 7047     		bx	lr
 920              		.cfi_endproc
 921              	.LFE246:
 923              		.section	.text.HAL_CAN_WakeUp,"ax",%progbits
 924              		.align	1
 925              		.global	HAL_CAN_WakeUp
 926              		.syntax unified
 927              		.thumb
 928              		.thumb_func
 930              	HAL_CAN_WakeUp:
 931              	.LVL52:
 932              	.LFB247:
1163:Drivers/STM32F4xx_HAL_Driver/Src/stm32f4xx_hal_can.c **** 
1164:Drivers/STM32F4xx_HAL_Driver/Src/stm32f4xx_hal_can.c **** /**
1165:Drivers/STM32F4xx_HAL_Driver/Src/stm32f4xx_hal_can.c ****   * @brief  Wake up from sleep mode.
1166:Drivers/STM32F4xx_HAL_Driver/Src/stm32f4xx_hal_can.c ****   *         When returning with HAL_OK status from this function, Sleep mode
1167:Drivers/STM32F4xx_HAL_Driver/Src/stm32f4xx_hal_can.c ****   *         is exited.
1168:Drivers/STM32F4xx_HAL_Driver/Src/stm32f4xx_hal_can.c ****   * @param  hcan pointer to a CAN_HandleTypeDef structure that contains
1169:Drivers/STM32F4xx_HAL_Driver/Src/stm32f4xx_hal_can.c ****   *         the configuration information for the specified CAN.
1170:Drivers/STM32F4xx_HAL_Driver/Src/stm32f4xx_hal_can.c ****   * @retval HAL status.
1171:Drivers/STM32F4xx_HAL_Driver/Src/stm32f4xx_hal_can.c ****   */
1172:Drivers/STM32F4xx_HAL_Driver/Src/stm32f4xx_hal_can.c **** HAL_StatusTypeDef HAL_CAN_WakeUp(CAN_HandleTypeDef *hcan)
1173:Drivers/STM32F4xx_HAL_Driver/Src/stm32f4xx_hal_can.c **** {
 933              		.loc 1 1173 1 is_stmt 1 view -0
 934              		.cfi_startproc
 935              		@ args = 0, pretend = 0, frame = 8
 936              		@ frame_needed = 0, uses_anonymous_args = 0
 937              		@ link register save eliminated.
 938              		.loc 1 1173 1 is_stmt 0 view .LVU301
 939 0000 82B0     		sub	sp, sp, #8
 940              		.cfi_def_cfa_offset 8
1174:Drivers/STM32F4xx_HAL_Driver/Src/stm32f4xx_hal_can.c ****   __IO uint32_t count = 0;
ARM GAS  C:\Users\Rick\AppData\Local\Temp\cck9vz6U.s 			page 42


 941              		.loc 1 1174 3 is_stmt 1 view .LVU302
 942              		.loc 1 1174 17 is_stmt 0 view .LVU303
 943 0002 0023     		movs	r3, #0
 944 0004 0193     		str	r3, [sp, #4]
1175:Drivers/STM32F4xx_HAL_Driver/Src/stm32f4xx_hal_can.c ****   HAL_CAN_StateTypeDef state = hcan->State;
 945              		.loc 1 1175 3 is_stmt 1 view .LVU304
 946              		.loc 1 1175 24 is_stmt 0 view .LVU305
 947 0006 90F82030 		ldrb	r3, [r0, #32]	@ zero_extendqisi2
 948              	.LVL53:
1176:Drivers/STM32F4xx_HAL_Driver/Src/stm32f4xx_hal_can.c **** 
1177:Drivers/STM32F4xx_HAL_Driver/Src/stm32f4xx_hal_can.c ****   if ((state == HAL_CAN_STATE_READY) ||
 949              		.loc 1 1177 3 is_stmt 1 view .LVU306
 950              		.loc 1 1177 38 is_stmt 0 view .LVU307
 951 000a 013B     		subs	r3, r3, #1
 952              	.LVL54:
 953              		.loc 1 1177 38 view .LVU308
 954 000c DBB2     		uxtb	r3, r3
 955              	.LVL55:
 956              		.loc 1 1177 6 view .LVU309
 957 000e 012B     		cmp	r3, #1
 958 0010 18D8     		bhi	.L83
1178:Drivers/STM32F4xx_HAL_Driver/Src/stm32f4xx_hal_can.c ****       (state == HAL_CAN_STATE_LISTENING))
1179:Drivers/STM32F4xx_HAL_Driver/Src/stm32f4xx_hal_can.c ****   {
1180:Drivers/STM32F4xx_HAL_Driver/Src/stm32f4xx_hal_can.c ****     /* Wake up request */
1181:Drivers/STM32F4xx_HAL_Driver/Src/stm32f4xx_hal_can.c ****     CLEAR_BIT(hcan->Instance->MCR, CAN_MCR_SLEEP);
 959              		.loc 1 1181 5 is_stmt 1 view .LVU310
 960 0012 0268     		ldr	r2, [r0]
 961 0014 1368     		ldr	r3, [r2]
 962 0016 23F00203 		bic	r3, r3, #2
 963 001a 1360     		str	r3, [r2]
 964              	.L86:
1182:Drivers/STM32F4xx_HAL_Driver/Src/stm32f4xx_hal_can.c **** 
1183:Drivers/STM32F4xx_HAL_Driver/Src/stm32f4xx_hal_can.c ****     /* Wait sleep mode is exited */
1184:Drivers/STM32F4xx_HAL_Driver/Src/stm32f4xx_hal_can.c ****     do
 965              		.loc 1 1184 5 view .LVU311
1185:Drivers/STM32F4xx_HAL_Driver/Src/stm32f4xx_hal_can.c ****     {
1186:Drivers/STM32F4xx_HAL_Driver/Src/stm32f4xx_hal_can.c ****       /* Increment counter */
1187:Drivers/STM32F4xx_HAL_Driver/Src/stm32f4xx_hal_can.c ****       count++;
 966              		.loc 1 1187 7 view .LVU312
 967              		.loc 1 1187 12 is_stmt 0 view .LVU313
 968 001c 019B     		ldr	r3, [sp, #4]
 969 001e 0133     		adds	r3, r3, #1
 970 0020 0193     		str	r3, [sp, #4]
1188:Drivers/STM32F4xx_HAL_Driver/Src/stm32f4xx_hal_can.c **** 
1189:Drivers/STM32F4xx_HAL_Driver/Src/stm32f4xx_hal_can.c ****       /* Check if timeout is reached */
1190:Drivers/STM32F4xx_HAL_Driver/Src/stm32f4xx_hal_can.c ****       if (count > CAN_WAKEUP_TIMEOUT_COUNTER)
 971              		.loc 1 1190 7 is_stmt 1 view .LVU314
 972              		.loc 1 1190 17 is_stmt 0 view .LVU315
 973 0022 019A     		ldr	r2, [sp, #4]
 974              		.loc 1 1190 10 view .LVU316
 975 0024 0B4B     		ldr	r3, .L89
 976 0026 9A42     		cmp	r2, r3
 977 0028 06D8     		bhi	.L88
1191:Drivers/STM32F4xx_HAL_Driver/Src/stm32f4xx_hal_can.c ****       {
1192:Drivers/STM32F4xx_HAL_Driver/Src/stm32f4xx_hal_can.c ****         /* Update error code */
1193:Drivers/STM32F4xx_HAL_Driver/Src/stm32f4xx_hal_can.c ****         hcan->ErrorCode |= HAL_CAN_ERROR_TIMEOUT;
1194:Drivers/STM32F4xx_HAL_Driver/Src/stm32f4xx_hal_can.c **** 
ARM GAS  C:\Users\Rick\AppData\Local\Temp\cck9vz6U.s 			page 43


1195:Drivers/STM32F4xx_HAL_Driver/Src/stm32f4xx_hal_can.c ****         return HAL_ERROR;
1196:Drivers/STM32F4xx_HAL_Driver/Src/stm32f4xx_hal_can.c ****       }
1197:Drivers/STM32F4xx_HAL_Driver/Src/stm32f4xx_hal_can.c ****     } while ((hcan->Instance->MSR & CAN_MSR_SLAK) != 0U);
 978              		.loc 1 1197 51 is_stmt 1 view .LVU317
 979              		.loc 1 1197 19 is_stmt 0 view .LVU318
 980 002a 0368     		ldr	r3, [r0]
 981              		.loc 1 1197 29 view .LVU319
 982 002c 5B68     		ldr	r3, [r3, #4]
 983              		.loc 1 1197 51 view .LVU320
 984 002e 13F0020F 		tst	r3, #2
 985 0032 F3D1     		bne	.L86
1198:Drivers/STM32F4xx_HAL_Driver/Src/stm32f4xx_hal_can.c **** 
1199:Drivers/STM32F4xx_HAL_Driver/Src/stm32f4xx_hal_can.c ****     /* Return function status */
1200:Drivers/STM32F4xx_HAL_Driver/Src/stm32f4xx_hal_can.c ****     return HAL_OK;
 986              		.loc 1 1200 12 view .LVU321
 987 0034 0020     		movs	r0, #0
 988              	.LVL56:
 989              		.loc 1 1200 12 view .LVU322
 990 0036 0AE0     		b	.L85
 991              	.LVL57:
 992              	.L88:
1193:Drivers/STM32F4xx_HAL_Driver/Src/stm32f4xx_hal_can.c **** 
 993              		.loc 1 1193 9 is_stmt 1 view .LVU323
1193:Drivers/STM32F4xx_HAL_Driver/Src/stm32f4xx_hal_can.c **** 
 994              		.loc 1 1193 13 is_stmt 0 view .LVU324
 995 0038 436A     		ldr	r3, [r0, #36]
1193:Drivers/STM32F4xx_HAL_Driver/Src/stm32f4xx_hal_can.c **** 
 996              		.loc 1 1193 25 view .LVU325
 997 003a 43F40033 		orr	r3, r3, #131072
 998 003e 4362     		str	r3, [r0, #36]
1195:Drivers/STM32F4xx_HAL_Driver/Src/stm32f4xx_hal_can.c ****       }
 999              		.loc 1 1195 9 is_stmt 1 view .LVU326
1195:Drivers/STM32F4xx_HAL_Driver/Src/stm32f4xx_hal_can.c ****       }
 1000              		.loc 1 1195 16 is_stmt 0 view .LVU327
 1001 0040 0120     		movs	r0, #1
 1002              	.LVL58:
1195:Drivers/STM32F4xx_HAL_Driver/Src/stm32f4xx_hal_can.c ****       }
 1003              		.loc 1 1195 16 view .LVU328
 1004 0042 04E0     		b	.L85
 1005              	.LVL59:
 1006              	.L83:
1201:Drivers/STM32F4xx_HAL_Driver/Src/stm32f4xx_hal_can.c ****   }
1202:Drivers/STM32F4xx_HAL_Driver/Src/stm32f4xx_hal_can.c ****   else
1203:Drivers/STM32F4xx_HAL_Driver/Src/stm32f4xx_hal_can.c ****   {
1204:Drivers/STM32F4xx_HAL_Driver/Src/stm32f4xx_hal_can.c ****     /* Update error code */
1205:Drivers/STM32F4xx_HAL_Driver/Src/stm32f4xx_hal_can.c ****     hcan->ErrorCode |= HAL_CAN_ERROR_NOT_INITIALIZED;
 1007              		.loc 1 1205 5 is_stmt 1 view .LVU329
 1008              		.loc 1 1205 9 is_stmt 0 view .LVU330
 1009 0044 436A     		ldr	r3, [r0, #36]
 1010              		.loc 1 1205 21 view .LVU331
 1011 0046 43F48023 		orr	r3, r3, #262144
 1012 004a 4362     		str	r3, [r0, #36]
1206:Drivers/STM32F4xx_HAL_Driver/Src/stm32f4xx_hal_can.c **** 
1207:Drivers/STM32F4xx_HAL_Driver/Src/stm32f4xx_hal_can.c ****     return HAL_ERROR;
 1013              		.loc 1 1207 5 is_stmt 1 view .LVU332
 1014              		.loc 1 1207 12 is_stmt 0 view .LVU333
 1015 004c 0120     		movs	r0, #1
ARM GAS  C:\Users\Rick\AppData\Local\Temp\cck9vz6U.s 			page 44


 1016              	.LVL60:
 1017              	.L85:
1208:Drivers/STM32F4xx_HAL_Driver/Src/stm32f4xx_hal_can.c ****   }
1209:Drivers/STM32F4xx_HAL_Driver/Src/stm32f4xx_hal_can.c **** }
 1018              		.loc 1 1209 1 view .LVU334
 1019 004e 02B0     		add	sp, sp, #8
 1020              		.cfi_def_cfa_offset 0
 1021              		@ sp needed
 1022 0050 7047     		bx	lr
 1023              	.L90:
 1024 0052 00BF     		.align	2
 1025              	.L89:
 1026 0054 40420F00 		.word	1000000
 1027              		.cfi_endproc
 1028              	.LFE247:
 1030              		.section	.text.HAL_CAN_IsSleepActive,"ax",%progbits
 1031              		.align	1
 1032              		.global	HAL_CAN_IsSleepActive
 1033              		.syntax unified
 1034              		.thumb
 1035              		.thumb_func
 1037              	HAL_CAN_IsSleepActive:
 1038              	.LVL61:
 1039              	.LFB248:
1210:Drivers/STM32F4xx_HAL_Driver/Src/stm32f4xx_hal_can.c **** 
1211:Drivers/STM32F4xx_HAL_Driver/Src/stm32f4xx_hal_can.c **** /**
1212:Drivers/STM32F4xx_HAL_Driver/Src/stm32f4xx_hal_can.c ****   * @brief  Check is sleep mode is active.
1213:Drivers/STM32F4xx_HAL_Driver/Src/stm32f4xx_hal_can.c ****   * @param  hcan pointer to a CAN_HandleTypeDef structure that contains
1214:Drivers/STM32F4xx_HAL_Driver/Src/stm32f4xx_hal_can.c ****   *         the configuration information for the specified CAN.
1215:Drivers/STM32F4xx_HAL_Driver/Src/stm32f4xx_hal_can.c ****   * @retval Status
1216:Drivers/STM32F4xx_HAL_Driver/Src/stm32f4xx_hal_can.c ****   *          - 0 : Sleep mode is not active.
1217:Drivers/STM32F4xx_HAL_Driver/Src/stm32f4xx_hal_can.c ****   *          - 1 : Sleep mode is active.
1218:Drivers/STM32F4xx_HAL_Driver/Src/stm32f4xx_hal_can.c ****   */
1219:Drivers/STM32F4xx_HAL_Driver/Src/stm32f4xx_hal_can.c **** uint32_t HAL_CAN_IsSleepActive(const CAN_HandleTypeDef *hcan)
1220:Drivers/STM32F4xx_HAL_Driver/Src/stm32f4xx_hal_can.c **** {
 1040              		.loc 1 1220 1 is_stmt 1 view -0
 1041              		.cfi_startproc
 1042              		@ args = 0, pretend = 0, frame = 0
 1043              		@ frame_needed = 0, uses_anonymous_args = 0
 1044              		@ link register save eliminated.
1221:Drivers/STM32F4xx_HAL_Driver/Src/stm32f4xx_hal_can.c ****   uint32_t status = 0U;
 1045              		.loc 1 1221 3 view .LVU336
1222:Drivers/STM32F4xx_HAL_Driver/Src/stm32f4xx_hal_can.c ****   HAL_CAN_StateTypeDef state = hcan->State;
 1046              		.loc 1 1222 3 view .LVU337
 1047              		.loc 1 1222 24 is_stmt 0 view .LVU338
 1048 0000 90F82030 		ldrb	r3, [r0, #32]	@ zero_extendqisi2
 1049              	.LVL62:
1223:Drivers/STM32F4xx_HAL_Driver/Src/stm32f4xx_hal_can.c **** 
1224:Drivers/STM32F4xx_HAL_Driver/Src/stm32f4xx_hal_can.c ****   if ((state == HAL_CAN_STATE_READY) ||
 1050              		.loc 1 1224 3 is_stmt 1 view .LVU339
 1051              		.loc 1 1224 38 is_stmt 0 view .LVU340
 1052 0004 013B     		subs	r3, r3, #1
 1053              	.LVL63:
 1054              		.loc 1 1224 38 view .LVU341
 1055 0006 DBB2     		uxtb	r3, r3
 1056              	.LVL64:
 1057              		.loc 1 1224 6 view .LVU342
ARM GAS  C:\Users\Rick\AppData\Local\Temp\cck9vz6U.s 			page 45


 1058 0008 012B     		cmp	r3, #1
 1059 000a 01D9     		bls	.L95
1221:Drivers/STM32F4xx_HAL_Driver/Src/stm32f4xx_hal_can.c ****   HAL_CAN_StateTypeDef state = hcan->State;
 1060              		.loc 1 1221 12 view .LVU343
 1061 000c 0020     		movs	r0, #0
 1062              	.LVL65:
1221:Drivers/STM32F4xx_HAL_Driver/Src/stm32f4xx_hal_can.c ****   HAL_CAN_StateTypeDef state = hcan->State;
 1063              		.loc 1 1221 12 view .LVU344
 1064 000e 7047     		bx	lr
 1065              	.LVL66:
 1066              	.L95:
1225:Drivers/STM32F4xx_HAL_Driver/Src/stm32f4xx_hal_can.c ****       (state == HAL_CAN_STATE_LISTENING))
1226:Drivers/STM32F4xx_HAL_Driver/Src/stm32f4xx_hal_can.c ****   {
1227:Drivers/STM32F4xx_HAL_Driver/Src/stm32f4xx_hal_can.c ****     /* Check Sleep mode */
1228:Drivers/STM32F4xx_HAL_Driver/Src/stm32f4xx_hal_can.c ****     if ((hcan->Instance->MSR & CAN_MSR_SLAK) != 0U)
 1067              		.loc 1 1228 5 is_stmt 1 view .LVU345
 1068              		.loc 1 1228 14 is_stmt 0 view .LVU346
 1069 0010 0368     		ldr	r3, [r0]
 1070              		.loc 1 1228 24 view .LVU347
 1071 0012 5868     		ldr	r0, [r3, #4]
 1072              	.LVL67:
 1073              		.loc 1 1228 8 view .LVU348
 1074 0014 10F00200 		ands	r0, r0, #2
 1075 0018 00D1     		bne	.L94
 1076 001a 7047     		bx	lr
 1077              	.L94:
1229:Drivers/STM32F4xx_HAL_Driver/Src/stm32f4xx_hal_can.c ****     {
1230:Drivers/STM32F4xx_HAL_Driver/Src/stm32f4xx_hal_can.c ****       status = 1U;
 1078              		.loc 1 1230 14 view .LVU349
 1079 001c 0120     		movs	r0, #1
 1080              	.LVL68:
1231:Drivers/STM32F4xx_HAL_Driver/Src/stm32f4xx_hal_can.c ****     }
1232:Drivers/STM32F4xx_HAL_Driver/Src/stm32f4xx_hal_can.c ****   }
1233:Drivers/STM32F4xx_HAL_Driver/Src/stm32f4xx_hal_can.c **** 
1234:Drivers/STM32F4xx_HAL_Driver/Src/stm32f4xx_hal_can.c ****   /* Return function status */
1235:Drivers/STM32F4xx_HAL_Driver/Src/stm32f4xx_hal_can.c ****   return status;
 1081              		.loc 1 1235 3 is_stmt 1 view .LVU350
1236:Drivers/STM32F4xx_HAL_Driver/Src/stm32f4xx_hal_can.c **** }
 1082              		.loc 1 1236 1 is_stmt 0 view .LVU351
 1083 001e 7047     		bx	lr
 1084              		.cfi_endproc
 1085              	.LFE248:
 1087              		.section	.text.HAL_CAN_AddTxMessage,"ax",%progbits
 1088              		.align	1
 1089              		.global	HAL_CAN_AddTxMessage
 1090              		.syntax unified
 1091              		.thumb
 1092              		.thumb_func
 1094              	HAL_CAN_AddTxMessage:
 1095              	.LVL69:
 1096              	.LFB249:
1237:Drivers/STM32F4xx_HAL_Driver/Src/stm32f4xx_hal_can.c **** 
1238:Drivers/STM32F4xx_HAL_Driver/Src/stm32f4xx_hal_can.c **** /**
1239:Drivers/STM32F4xx_HAL_Driver/Src/stm32f4xx_hal_can.c ****   * @brief  Add a message to the first free Tx mailbox and activate the
1240:Drivers/STM32F4xx_HAL_Driver/Src/stm32f4xx_hal_can.c ****   *         corresponding transmission request.
1241:Drivers/STM32F4xx_HAL_Driver/Src/stm32f4xx_hal_can.c ****   * @param  hcan pointer to a CAN_HandleTypeDef structure that contains
1242:Drivers/STM32F4xx_HAL_Driver/Src/stm32f4xx_hal_can.c ****   *         the configuration information for the specified CAN.
ARM GAS  C:\Users\Rick\AppData\Local\Temp\cck9vz6U.s 			page 46


1243:Drivers/STM32F4xx_HAL_Driver/Src/stm32f4xx_hal_can.c ****   * @param  pHeader pointer to a CAN_TxHeaderTypeDef structure.
1244:Drivers/STM32F4xx_HAL_Driver/Src/stm32f4xx_hal_can.c ****   * @param  aData array containing the payload of the Tx frame.
1245:Drivers/STM32F4xx_HAL_Driver/Src/stm32f4xx_hal_can.c ****   * @param  pTxMailbox pointer to a variable where the function will return
1246:Drivers/STM32F4xx_HAL_Driver/Src/stm32f4xx_hal_can.c ****   *         the TxMailbox used to store the Tx message.
1247:Drivers/STM32F4xx_HAL_Driver/Src/stm32f4xx_hal_can.c ****   *         This parameter can be a value of @arg CAN_Tx_Mailboxes.
1248:Drivers/STM32F4xx_HAL_Driver/Src/stm32f4xx_hal_can.c ****   * @retval HAL status
1249:Drivers/STM32F4xx_HAL_Driver/Src/stm32f4xx_hal_can.c ****   */
1250:Drivers/STM32F4xx_HAL_Driver/Src/stm32f4xx_hal_can.c **** HAL_StatusTypeDef HAL_CAN_AddTxMessage(CAN_HandleTypeDef *hcan, const CAN_TxHeaderTypeDef *pHeader,
1251:Drivers/STM32F4xx_HAL_Driver/Src/stm32f4xx_hal_can.c ****                                        const uint8_t aData[], uint32_t *pTxMailbox)
1252:Drivers/STM32F4xx_HAL_Driver/Src/stm32f4xx_hal_can.c **** {
 1097              		.loc 1 1252 1 is_stmt 1 view -0
 1098              		.cfi_startproc
 1099              		@ args = 0, pretend = 0, frame = 0
 1100              		@ frame_needed = 0, uses_anonymous_args = 0
 1101              		.loc 1 1252 1 is_stmt 0 view .LVU353
 1102 0000 30B5     		push	{r4, r5, lr}
 1103              		.cfi_def_cfa_offset 12
 1104              		.cfi_offset 4, -12
 1105              		.cfi_offset 5, -8
 1106              		.cfi_offset 14, -4
1253:Drivers/STM32F4xx_HAL_Driver/Src/stm32f4xx_hal_can.c ****   uint32_t transmitmailbox;
 1107              		.loc 1 1253 3 is_stmt 1 view .LVU354
1254:Drivers/STM32F4xx_HAL_Driver/Src/stm32f4xx_hal_can.c ****   HAL_CAN_StateTypeDef state = hcan->State;
 1108              		.loc 1 1254 3 view .LVU355
 1109              		.loc 1 1254 24 is_stmt 0 view .LVU356
 1110 0002 90F820C0 		ldrb	ip, [r0, #32]	@ zero_extendqisi2
 1111              	.LVL70:
1255:Drivers/STM32F4xx_HAL_Driver/Src/stm32f4xx_hal_can.c ****   uint32_t tsr = READ_REG(hcan->Instance->TSR);
 1112              		.loc 1 1255 3 is_stmt 1 view .LVU357
 1113              		.loc 1 1255 12 is_stmt 0 view .LVU358
 1114 0006 0468     		ldr	r4, [r0]
 1115 0008 A468     		ldr	r4, [r4, #8]
 1116              	.LVL71:
1256:Drivers/STM32F4xx_HAL_Driver/Src/stm32f4xx_hal_can.c **** 
1257:Drivers/STM32F4xx_HAL_Driver/Src/stm32f4xx_hal_can.c ****   /* Check the parameters */
1258:Drivers/STM32F4xx_HAL_Driver/Src/stm32f4xx_hal_can.c ****   assert_param(IS_CAN_IDTYPE(pHeader->IDE));
 1117              		.loc 1 1258 3 is_stmt 1 view .LVU359
1259:Drivers/STM32F4xx_HAL_Driver/Src/stm32f4xx_hal_can.c ****   assert_param(IS_CAN_RTR(pHeader->RTR));
 1118              		.loc 1 1259 3 view .LVU360
1260:Drivers/STM32F4xx_HAL_Driver/Src/stm32f4xx_hal_can.c ****   assert_param(IS_CAN_DLC(pHeader->DLC));
 1119              		.loc 1 1260 3 view .LVU361
1261:Drivers/STM32F4xx_HAL_Driver/Src/stm32f4xx_hal_can.c ****   if (pHeader->IDE == CAN_ID_STD)
 1120              		.loc 1 1261 3 view .LVU362
1262:Drivers/STM32F4xx_HAL_Driver/Src/stm32f4xx_hal_can.c ****   {
1263:Drivers/STM32F4xx_HAL_Driver/Src/stm32f4xx_hal_can.c ****     assert_param(IS_CAN_STDID(pHeader->StdId));
 1121              		.loc 1 1263 5 view .LVU363
1264:Drivers/STM32F4xx_HAL_Driver/Src/stm32f4xx_hal_can.c ****   }
1265:Drivers/STM32F4xx_HAL_Driver/Src/stm32f4xx_hal_can.c ****   else
1266:Drivers/STM32F4xx_HAL_Driver/Src/stm32f4xx_hal_can.c ****   {
1267:Drivers/STM32F4xx_HAL_Driver/Src/stm32f4xx_hal_can.c ****     assert_param(IS_CAN_EXTID(pHeader->ExtId));
 1122              		.loc 1 1267 5 view .LVU364
1268:Drivers/STM32F4xx_HAL_Driver/Src/stm32f4xx_hal_can.c ****   }
1269:Drivers/STM32F4xx_HAL_Driver/Src/stm32f4xx_hal_can.c ****   assert_param(IS_FUNCTIONAL_STATE(pHeader->TransmitGlobalTime));
 1123              		.loc 1 1269 3 view .LVU365
1270:Drivers/STM32F4xx_HAL_Driver/Src/stm32f4xx_hal_can.c **** 
1271:Drivers/STM32F4xx_HAL_Driver/Src/stm32f4xx_hal_can.c ****   if ((state == HAL_CAN_STATE_READY) ||
 1124              		.loc 1 1271 3 view .LVU366
ARM GAS  C:\Users\Rick\AppData\Local\Temp\cck9vz6U.s 			page 47


 1125              		.loc 1 1271 38 is_stmt 0 view .LVU367
 1126 000a 0CF1FF3C 		add	ip, ip, #-1
 1127              	.LVL72:
 1128              		.loc 1 1271 38 view .LVU368
 1129 000e 5FFA8CFC 		uxtb	ip, ip
 1130              	.LVL73:
 1131              		.loc 1 1271 6 view .LVU369
 1132 0012 BCF1010F 		cmp	ip, #1
 1133 0016 62D8     		bhi	.L97
1272:Drivers/STM32F4xx_HAL_Driver/Src/stm32f4xx_hal_can.c ****       (state == HAL_CAN_STATE_LISTENING))
1273:Drivers/STM32F4xx_HAL_Driver/Src/stm32f4xx_hal_can.c ****   {
1274:Drivers/STM32F4xx_HAL_Driver/Src/stm32f4xx_hal_can.c ****     /* Check that all the Tx mailboxes are not full */
1275:Drivers/STM32F4xx_HAL_Driver/Src/stm32f4xx_hal_can.c ****     if (((tsr & CAN_TSR_TME0) != 0U) ||
 1134              		.loc 1 1275 5 is_stmt 1 view .LVU370
 1135              		.loc 1 1275 8 is_stmt 0 view .LVU371
 1136 0018 14F0E05F 		tst	r4, #469762048
 1137 001c 59D0     		beq	.L98
1276:Drivers/STM32F4xx_HAL_Driver/Src/stm32f4xx_hal_can.c ****         ((tsr & CAN_TSR_TME1) != 0U) ||
1277:Drivers/STM32F4xx_HAL_Driver/Src/stm32f4xx_hal_can.c ****         ((tsr & CAN_TSR_TME2) != 0U))
1278:Drivers/STM32F4xx_HAL_Driver/Src/stm32f4xx_hal_can.c ****     {
1279:Drivers/STM32F4xx_HAL_Driver/Src/stm32f4xx_hal_can.c ****       /* Select an empty transmit mailbox */
1280:Drivers/STM32F4xx_HAL_Driver/Src/stm32f4xx_hal_can.c ****       transmitmailbox = (tsr & CAN_TSR_CODE) >> CAN_TSR_CODE_Pos;
 1138              		.loc 1 1280 7 is_stmt 1 view .LVU372
 1139              		.loc 1 1280 23 is_stmt 0 view .LVU373
 1140 001e C4F3016C 		ubfx	ip, r4, #24, #2
 1141              	.LVL74:
1281:Drivers/STM32F4xx_HAL_Driver/Src/stm32f4xx_hal_can.c **** 
1282:Drivers/STM32F4xx_HAL_Driver/Src/stm32f4xx_hal_can.c ****       /* Store the Tx mailbox */
1283:Drivers/STM32F4xx_HAL_Driver/Src/stm32f4xx_hal_can.c ****       *pTxMailbox = (uint32_t)1 << transmitmailbox;
 1142              		.loc 1 1283 7 is_stmt 1 view .LVU374
 1143              		.loc 1 1283 33 is_stmt 0 view .LVU375
 1144 0022 0124     		movs	r4, #1
 1145              	.LVL75:
 1146              		.loc 1 1283 33 view .LVU376
 1147 0024 04FA0CF4 		lsl	r4, r4, ip
 1148              		.loc 1 1283 19 view .LVU377
 1149 0028 1C60     		str	r4, [r3]
1284:Drivers/STM32F4xx_HAL_Driver/Src/stm32f4xx_hal_can.c **** 
1285:Drivers/STM32F4xx_HAL_Driver/Src/stm32f4xx_hal_can.c ****       /* Set up the Id */
1286:Drivers/STM32F4xx_HAL_Driver/Src/stm32f4xx_hal_can.c ****       if (pHeader->IDE == CAN_ID_STD)
 1150              		.loc 1 1286 7 is_stmt 1 view .LVU378
 1151              		.loc 1 1286 18 is_stmt 0 view .LVU379
 1152 002a 8B68     		ldr	r3, [r1, #8]
 1153              	.LVL76:
 1154              		.loc 1 1286 10 view .LVU380
 1155 002c 002B     		cmp	r3, #0
 1156 002e 3DD1     		bne	.L99
1287:Drivers/STM32F4xx_HAL_Driver/Src/stm32f4xx_hal_can.c ****       {
1288:Drivers/STM32F4xx_HAL_Driver/Src/stm32f4xx_hal_can.c ****         hcan->Instance->sTxMailBox[transmitmailbox].TIR = ((pHeader->StdId << CAN_TI0R_STID_Pos) |
 1157              		.loc 1 1288 9 is_stmt 1 view .LVU381
 1158              		.loc 1 1288 68 is_stmt 0 view .LVU382
 1159 0030 0D68     		ldr	r5, [r1]
1289:Drivers/STM32F4xx_HAL_Driver/Src/stm32f4xx_hal_can.c ****                                                            pHeader->RTR);
 1160              		.loc 1 1289 67 view .LVU383
 1161 0032 CB68     		ldr	r3, [r1, #12]
1288:Drivers/STM32F4xx_HAL_Driver/Src/stm32f4xx_hal_can.c ****                                                            pHeader->RTR);
 1162              		.loc 1 1288 13 view .LVU384
ARM GAS  C:\Users\Rick\AppData\Local\Temp\cck9vz6U.s 			page 48


 1163 0034 0468     		ldr	r4, [r0]
1288:Drivers/STM32F4xx_HAL_Driver/Src/stm32f4xx_hal_can.c ****                                                            pHeader->RTR);
 1164              		.loc 1 1288 98 view .LVU385
 1165 0036 43EA4555 		orr	r5, r3, r5, lsl #21
1288:Drivers/STM32F4xx_HAL_Driver/Src/stm32f4xx_hal_can.c ****                                                            pHeader->RTR);
 1166              		.loc 1 1288 57 view .LVU386
 1167 003a 0CF11803 		add	r3, ip, #24
 1168 003e 1B01     		lsls	r3, r3, #4
 1169 0040 E550     		str	r5, [r4, r3]
 1170              	.L100:
1290:Drivers/STM32F4xx_HAL_Driver/Src/stm32f4xx_hal_can.c ****       }
1291:Drivers/STM32F4xx_HAL_Driver/Src/stm32f4xx_hal_can.c ****       else
1292:Drivers/STM32F4xx_HAL_Driver/Src/stm32f4xx_hal_can.c ****       {
1293:Drivers/STM32F4xx_HAL_Driver/Src/stm32f4xx_hal_can.c ****         hcan->Instance->sTxMailBox[transmitmailbox].TIR = ((pHeader->ExtId << CAN_TI0R_EXID_Pos) |
1294:Drivers/STM32F4xx_HAL_Driver/Src/stm32f4xx_hal_can.c ****                                                            pHeader->IDE |
1295:Drivers/STM32F4xx_HAL_Driver/Src/stm32f4xx_hal_can.c ****                                                            pHeader->RTR);
1296:Drivers/STM32F4xx_HAL_Driver/Src/stm32f4xx_hal_can.c ****       }
1297:Drivers/STM32F4xx_HAL_Driver/Src/stm32f4xx_hal_can.c **** 
1298:Drivers/STM32F4xx_HAL_Driver/Src/stm32f4xx_hal_can.c ****       /* Set up the DLC */
1299:Drivers/STM32F4xx_HAL_Driver/Src/stm32f4xx_hal_can.c ****       hcan->Instance->sTxMailBox[transmitmailbox].TDTR = (pHeader->DLC);
 1171              		.loc 1 1299 7 is_stmt 1 view .LVU387
 1172              		.loc 1 1299 11 is_stmt 0 view .LVU388
 1173 0042 0368     		ldr	r3, [r0]
 1174              		.loc 1 1299 66 view .LVU389
 1175 0044 0C69     		ldr	r4, [r1, #16]
 1176              		.loc 1 1299 56 view .LVU390
 1177 0046 0CF1180E 		add	lr, ip, #24
 1178 004a 03EB0E13 		add	r3, r3, lr, lsl #4
 1179 004e 5C60     		str	r4, [r3, #4]
1300:Drivers/STM32F4xx_HAL_Driver/Src/stm32f4xx_hal_can.c **** 
1301:Drivers/STM32F4xx_HAL_Driver/Src/stm32f4xx_hal_can.c ****       /* Set up the Transmit Global Time mode */
1302:Drivers/STM32F4xx_HAL_Driver/Src/stm32f4xx_hal_can.c ****       if (pHeader->TransmitGlobalTime == ENABLE)
 1180              		.loc 1 1302 7 is_stmt 1 view .LVU391
 1181              		.loc 1 1302 18 is_stmt 0 view .LVU392
 1182 0050 0B7D     		ldrb	r3, [r1, #20]	@ zero_extendqisi2
 1183              		.loc 1 1302 10 view .LVU393
 1184 0052 012B     		cmp	r3, #1
 1185 0054 35D0     		beq	.L104
 1186              	.LVL77:
 1187              	.L101:
1303:Drivers/STM32F4xx_HAL_Driver/Src/stm32f4xx_hal_can.c ****       {
1304:Drivers/STM32F4xx_HAL_Driver/Src/stm32f4xx_hal_can.c ****         SET_BIT(hcan->Instance->sTxMailBox[transmitmailbox].TDTR, CAN_TDT0R_TGT);
1305:Drivers/STM32F4xx_HAL_Driver/Src/stm32f4xx_hal_can.c ****       }
1306:Drivers/STM32F4xx_HAL_Driver/Src/stm32f4xx_hal_can.c **** 
1307:Drivers/STM32F4xx_HAL_Driver/Src/stm32f4xx_hal_can.c ****       /* Set up the data field */
1308:Drivers/STM32F4xx_HAL_Driver/Src/stm32f4xx_hal_can.c ****       WRITE_REG(hcan->Instance->sTxMailBox[transmitmailbox].TDHR,
 1188              		.loc 1 1308 7 is_stmt 1 view .LVU394
 1189 0056 D179     		ldrb	r1, [r2, #7]	@ zero_extendqisi2
 1190 0058 9379     		ldrb	r3, [r2, #6]	@ zero_extendqisi2
 1191 005a 1B04     		lsls	r3, r3, #16
 1192 005c 43EA0163 		orr	r3, r3, r1, lsl #24
 1193 0060 5179     		ldrb	r1, [r2, #5]	@ zero_extendqisi2
 1194 0062 43EA0123 		orr	r3, r3, r1, lsl #8
 1195 0066 1479     		ldrb	r4, [r2, #4]	@ zero_extendqisi2
 1196 0068 0168     		ldr	r1, [r0]
 1197 006a 2343     		orrs	r3, r3, r4
 1198 006c 01EB0C11 		add	r1, r1, ip, lsl #4
ARM GAS  C:\Users\Rick\AppData\Local\Temp\cck9vz6U.s 			page 49


 1199 0070 C1F88C31 		str	r3, [r1, #396]
1309:Drivers/STM32F4xx_HAL_Driver/Src/stm32f4xx_hal_can.c ****                 ((uint32_t)aData[7] << CAN_TDH0R_DATA7_Pos) |
1310:Drivers/STM32F4xx_HAL_Driver/Src/stm32f4xx_hal_can.c ****                 ((uint32_t)aData[6] << CAN_TDH0R_DATA6_Pos) |
1311:Drivers/STM32F4xx_HAL_Driver/Src/stm32f4xx_hal_can.c ****                 ((uint32_t)aData[5] << CAN_TDH0R_DATA5_Pos) |
1312:Drivers/STM32F4xx_HAL_Driver/Src/stm32f4xx_hal_can.c ****                 ((uint32_t)aData[4] << CAN_TDH0R_DATA4_Pos));
1313:Drivers/STM32F4xx_HAL_Driver/Src/stm32f4xx_hal_can.c ****       WRITE_REG(hcan->Instance->sTxMailBox[transmitmailbox].TDLR,
 1200              		.loc 1 1313 7 view .LVU395
 1201 0074 D178     		ldrb	r1, [r2, #3]	@ zero_extendqisi2
 1202 0076 9378     		ldrb	r3, [r2, #2]	@ zero_extendqisi2
 1203 0078 1B04     		lsls	r3, r3, #16
 1204 007a 43EA0163 		orr	r3, r3, r1, lsl #24
 1205 007e 5178     		ldrb	r1, [r2, #1]	@ zero_extendqisi2
 1206 0080 43EA0123 		orr	r3, r3, r1, lsl #8
 1207 0084 1178     		ldrb	r1, [r2]	@ zero_extendqisi2
 1208 0086 0268     		ldr	r2, [r0]
 1209              	.LVL78:
 1210              		.loc 1 1313 7 is_stmt 0 view .LVU396
 1211 0088 0B43     		orrs	r3, r3, r1
 1212 008a 02EB0C12 		add	r2, r2, ip, lsl #4
 1213 008e C2F88831 		str	r3, [r2, #392]
1314:Drivers/STM32F4xx_HAL_Driver/Src/stm32f4xx_hal_can.c ****                 ((uint32_t)aData[3] << CAN_TDL0R_DATA3_Pos) |
1315:Drivers/STM32F4xx_HAL_Driver/Src/stm32f4xx_hal_can.c ****                 ((uint32_t)aData[2] << CAN_TDL0R_DATA2_Pos) |
1316:Drivers/STM32F4xx_HAL_Driver/Src/stm32f4xx_hal_can.c ****                 ((uint32_t)aData[1] << CAN_TDL0R_DATA1_Pos) |
1317:Drivers/STM32F4xx_HAL_Driver/Src/stm32f4xx_hal_can.c ****                 ((uint32_t)aData[0] << CAN_TDL0R_DATA0_Pos));
1318:Drivers/STM32F4xx_HAL_Driver/Src/stm32f4xx_hal_can.c **** 
1319:Drivers/STM32F4xx_HAL_Driver/Src/stm32f4xx_hal_can.c ****       /* Request transmission */
1320:Drivers/STM32F4xx_HAL_Driver/Src/stm32f4xx_hal_can.c ****       SET_BIT(hcan->Instance->sTxMailBox[transmitmailbox].TIR, CAN_TI0R_TXRQ);
 1214              		.loc 1 1320 7 is_stmt 1 view .LVU397
 1215 0092 0268     		ldr	r2, [r0]
 1216 0094 0CF1180C 		add	ip, ip, #24
 1217              	.LVL79:
 1218              		.loc 1 1320 7 is_stmt 0 view .LVU398
 1219 0098 4FEA0C1C 		lsl	ip, ip, #4
 1220 009c 52F80C30 		ldr	r3, [r2, ip]
 1221 00a0 43F00103 		orr	r3, r3, #1
 1222 00a4 42F80C30 		str	r3, [r2, ip]
1321:Drivers/STM32F4xx_HAL_Driver/Src/stm32f4xx_hal_can.c **** 
1322:Drivers/STM32F4xx_HAL_Driver/Src/stm32f4xx_hal_can.c ****       /* Return function status */
1323:Drivers/STM32F4xx_HAL_Driver/Src/stm32f4xx_hal_can.c ****       return HAL_OK;
 1223              		.loc 1 1323 7 is_stmt 1 view .LVU399
 1224              		.loc 1 1323 14 is_stmt 0 view .LVU400
 1225 00a8 0020     		movs	r0, #0
 1226              	.LVL80:
 1227              		.loc 1 1323 14 view .LVU401
 1228 00aa 1DE0     		b	.L102
 1229              	.LVL81:
 1230              	.L99:
1293:Drivers/STM32F4xx_HAL_Driver/Src/stm32f4xx_hal_can.c ****                                                            pHeader->IDE |
 1231              		.loc 1 1293 9 is_stmt 1 view .LVU402
1293:Drivers/STM32F4xx_HAL_Driver/Src/stm32f4xx_hal_can.c ****                                                            pHeader->IDE |
 1232              		.loc 1 1293 68 is_stmt 0 view .LVU403
 1233 00ac 4C68     		ldr	r4, [r1, #4]
1293:Drivers/STM32F4xx_HAL_Driver/Src/stm32f4xx_hal_can.c ****                                                            pHeader->IDE |
 1234              		.loc 1 1293 98 view .LVU404
 1235 00ae 43EAC403 		orr	r3, r3, r4, lsl #3
1295:Drivers/STM32F4xx_HAL_Driver/Src/stm32f4xx_hal_can.c ****       }
 1236              		.loc 1 1295 67 view .LVU405
ARM GAS  C:\Users\Rick\AppData\Local\Temp\cck9vz6U.s 			page 50


 1237 00b2 CC68     		ldr	r4, [r1, #12]
1294:Drivers/STM32F4xx_HAL_Driver/Src/stm32f4xx_hal_can.c ****                                                            pHeader->RTR);
 1238              		.loc 1 1294 73 view .LVU406
 1239 00b4 2343     		orrs	r3, r3, r4
1293:Drivers/STM32F4xx_HAL_Driver/Src/stm32f4xx_hal_can.c ****                                                            pHeader->IDE |
 1240              		.loc 1 1293 57 view .LVU407
 1241 00b6 0CF11804 		add	r4, ip, #24
 1242 00ba 2401     		lsls	r4, r4, #4
 1243 00bc 0568     		ldr	r5, [r0]
 1244 00be 2B51     		str	r3, [r5, r4]
 1245 00c0 BFE7     		b	.L100
 1246              	.L104:
1304:Drivers/STM32F4xx_HAL_Driver/Src/stm32f4xx_hal_can.c ****       }
 1247              		.loc 1 1304 9 is_stmt 1 view .LVU408
 1248 00c2 0368     		ldr	r3, [r0]
 1249 00c4 03EB0E13 		add	r3, r3, lr, lsl #4
 1250 00c8 5968     		ldr	r1, [r3, #4]
 1251              	.LVL82:
1304:Drivers/STM32F4xx_HAL_Driver/Src/stm32f4xx_hal_can.c ****       }
 1252              		.loc 1 1304 9 is_stmt 0 view .LVU409
 1253 00ca 41F48071 		orr	r1, r1, #256
 1254 00ce 5960     		str	r1, [r3, #4]
 1255 00d0 C1E7     		b	.L101
 1256              	.LVL83:
 1257              	.L98:
1324:Drivers/STM32F4xx_HAL_Driver/Src/stm32f4xx_hal_can.c ****     }
1325:Drivers/STM32F4xx_HAL_Driver/Src/stm32f4xx_hal_can.c ****     else
1326:Drivers/STM32F4xx_HAL_Driver/Src/stm32f4xx_hal_can.c ****     {
1327:Drivers/STM32F4xx_HAL_Driver/Src/stm32f4xx_hal_can.c ****       /* Update error code */
1328:Drivers/STM32F4xx_HAL_Driver/Src/stm32f4xx_hal_can.c ****       hcan->ErrorCode |= HAL_CAN_ERROR_PARAM;
 1258              		.loc 1 1328 7 is_stmt 1 view .LVU410
 1259              		.loc 1 1328 11 is_stmt 0 view .LVU411
 1260 00d2 436A     		ldr	r3, [r0, #36]
 1261              	.LVL84:
 1262              		.loc 1 1328 23 view .LVU412
 1263 00d4 43F40013 		orr	r3, r3, #2097152
 1264 00d8 4362     		str	r3, [r0, #36]
1329:Drivers/STM32F4xx_HAL_Driver/Src/stm32f4xx_hal_can.c **** 
1330:Drivers/STM32F4xx_HAL_Driver/Src/stm32f4xx_hal_can.c ****       return HAL_ERROR;
 1265              		.loc 1 1330 7 is_stmt 1 view .LVU413
 1266              		.loc 1 1330 14 is_stmt 0 view .LVU414
 1267 00da 0120     		movs	r0, #1
 1268              	.LVL85:
 1269              		.loc 1 1330 14 view .LVU415
 1270 00dc 04E0     		b	.L102
 1271              	.LVL86:
 1272              	.L97:
1331:Drivers/STM32F4xx_HAL_Driver/Src/stm32f4xx_hal_can.c ****     }
1332:Drivers/STM32F4xx_HAL_Driver/Src/stm32f4xx_hal_can.c ****   }
1333:Drivers/STM32F4xx_HAL_Driver/Src/stm32f4xx_hal_can.c ****   else
1334:Drivers/STM32F4xx_HAL_Driver/Src/stm32f4xx_hal_can.c ****   {
1335:Drivers/STM32F4xx_HAL_Driver/Src/stm32f4xx_hal_can.c ****     /* Update error code */
1336:Drivers/STM32F4xx_HAL_Driver/Src/stm32f4xx_hal_can.c ****     hcan->ErrorCode |= HAL_CAN_ERROR_NOT_INITIALIZED;
 1273              		.loc 1 1336 5 is_stmt 1 view .LVU416
 1274              		.loc 1 1336 9 is_stmt 0 view .LVU417
 1275 00de 436A     		ldr	r3, [r0, #36]
 1276              	.LVL87:
ARM GAS  C:\Users\Rick\AppData\Local\Temp\cck9vz6U.s 			page 51


 1277              		.loc 1 1336 21 view .LVU418
 1278 00e0 43F48023 		orr	r3, r3, #262144
 1279 00e4 4362     		str	r3, [r0, #36]
1337:Drivers/STM32F4xx_HAL_Driver/Src/stm32f4xx_hal_can.c **** 
1338:Drivers/STM32F4xx_HAL_Driver/Src/stm32f4xx_hal_can.c ****     return HAL_ERROR;
 1280              		.loc 1 1338 5 is_stmt 1 view .LVU419
 1281              		.loc 1 1338 12 is_stmt 0 view .LVU420
 1282 00e6 0120     		movs	r0, #1
 1283              	.LVL88:
 1284              	.L102:
1339:Drivers/STM32F4xx_HAL_Driver/Src/stm32f4xx_hal_can.c ****   }
1340:Drivers/STM32F4xx_HAL_Driver/Src/stm32f4xx_hal_can.c **** }
 1285              		.loc 1 1340 1 view .LVU421
 1286 00e8 30BD     		pop	{r4, r5, pc}
 1287              		.cfi_endproc
 1288              	.LFE249:
 1290              		.section	.text.HAL_CAN_AbortTxRequest,"ax",%progbits
 1291              		.align	1
 1292              		.global	HAL_CAN_AbortTxRequest
 1293              		.syntax unified
 1294              		.thumb
 1295              		.thumb_func
 1297              	HAL_CAN_AbortTxRequest:
 1298              	.LVL89:
 1299              	.LFB250:
1341:Drivers/STM32F4xx_HAL_Driver/Src/stm32f4xx_hal_can.c **** 
1342:Drivers/STM32F4xx_HAL_Driver/Src/stm32f4xx_hal_can.c **** /**
1343:Drivers/STM32F4xx_HAL_Driver/Src/stm32f4xx_hal_can.c ****   * @brief  Abort transmission requests
1344:Drivers/STM32F4xx_HAL_Driver/Src/stm32f4xx_hal_can.c ****   * @param  hcan pointer to an CAN_HandleTypeDef structure that contains
1345:Drivers/STM32F4xx_HAL_Driver/Src/stm32f4xx_hal_can.c ****   *         the configuration information for the specified CAN.
1346:Drivers/STM32F4xx_HAL_Driver/Src/stm32f4xx_hal_can.c ****   * @param  TxMailboxes List of the Tx Mailboxes to abort.
1347:Drivers/STM32F4xx_HAL_Driver/Src/stm32f4xx_hal_can.c ****   *         This parameter can be any combination of @arg CAN_Tx_Mailboxes.
1348:Drivers/STM32F4xx_HAL_Driver/Src/stm32f4xx_hal_can.c ****   * @retval HAL status
1349:Drivers/STM32F4xx_HAL_Driver/Src/stm32f4xx_hal_can.c ****   */
1350:Drivers/STM32F4xx_HAL_Driver/Src/stm32f4xx_hal_can.c **** HAL_StatusTypeDef HAL_CAN_AbortTxRequest(CAN_HandleTypeDef *hcan, uint32_t TxMailboxes)
1351:Drivers/STM32F4xx_HAL_Driver/Src/stm32f4xx_hal_can.c **** {
 1300              		.loc 1 1351 1 is_stmt 1 view -0
 1301              		.cfi_startproc
 1302              		@ args = 0, pretend = 0, frame = 0
 1303              		@ frame_needed = 0, uses_anonymous_args = 0
 1304              		@ link register save eliminated.
1352:Drivers/STM32F4xx_HAL_Driver/Src/stm32f4xx_hal_can.c ****   HAL_CAN_StateTypeDef state = hcan->State;
 1305              		.loc 1 1352 3 view .LVU423
 1306              		.loc 1 1352 24 is_stmt 0 view .LVU424
 1307 0000 90F82030 		ldrb	r3, [r0, #32]	@ zero_extendqisi2
 1308              	.LVL90:
1353:Drivers/STM32F4xx_HAL_Driver/Src/stm32f4xx_hal_can.c **** 
1354:Drivers/STM32F4xx_HAL_Driver/Src/stm32f4xx_hal_can.c ****   /* Check function parameters */
1355:Drivers/STM32F4xx_HAL_Driver/Src/stm32f4xx_hal_can.c ****   assert_param(IS_CAN_TX_MAILBOX_LIST(TxMailboxes));
 1309              		.loc 1 1355 3 is_stmt 1 view .LVU425
1356:Drivers/STM32F4xx_HAL_Driver/Src/stm32f4xx_hal_can.c **** 
1357:Drivers/STM32F4xx_HAL_Driver/Src/stm32f4xx_hal_can.c ****   if ((state == HAL_CAN_STATE_READY) ||
 1310              		.loc 1 1357 3 view .LVU426
 1311              		.loc 1 1357 38 is_stmt 0 view .LVU427
 1312 0004 013B     		subs	r3, r3, #1
 1313              	.LVL91:
 1314              		.loc 1 1357 38 view .LVU428
ARM GAS  C:\Users\Rick\AppData\Local\Temp\cck9vz6U.s 			page 52


 1315 0006 DBB2     		uxtb	r3, r3
 1316              	.LVL92:
 1317              		.loc 1 1357 6 view .LVU429
 1318 0008 012B     		cmp	r3, #1
 1319 000a 05D9     		bls	.L111
1358:Drivers/STM32F4xx_HAL_Driver/Src/stm32f4xx_hal_can.c ****       (state == HAL_CAN_STATE_LISTENING))
1359:Drivers/STM32F4xx_HAL_Driver/Src/stm32f4xx_hal_can.c ****   {
1360:Drivers/STM32F4xx_HAL_Driver/Src/stm32f4xx_hal_can.c ****     /* Check Tx Mailbox 0 */
1361:Drivers/STM32F4xx_HAL_Driver/Src/stm32f4xx_hal_can.c ****     if ((TxMailboxes & CAN_TX_MAILBOX0) != 0U)
1362:Drivers/STM32F4xx_HAL_Driver/Src/stm32f4xx_hal_can.c ****     {
1363:Drivers/STM32F4xx_HAL_Driver/Src/stm32f4xx_hal_can.c ****       /* Add cancellation request for Tx Mailbox 0 */
1364:Drivers/STM32F4xx_HAL_Driver/Src/stm32f4xx_hal_can.c ****       SET_BIT(hcan->Instance->TSR, CAN_TSR_ABRQ0);
1365:Drivers/STM32F4xx_HAL_Driver/Src/stm32f4xx_hal_can.c ****     }
1366:Drivers/STM32F4xx_HAL_Driver/Src/stm32f4xx_hal_can.c **** 
1367:Drivers/STM32F4xx_HAL_Driver/Src/stm32f4xx_hal_can.c ****     /* Check Tx Mailbox 1 */
1368:Drivers/STM32F4xx_HAL_Driver/Src/stm32f4xx_hal_can.c ****     if ((TxMailboxes & CAN_TX_MAILBOX1) != 0U)
1369:Drivers/STM32F4xx_HAL_Driver/Src/stm32f4xx_hal_can.c ****     {
1370:Drivers/STM32F4xx_HAL_Driver/Src/stm32f4xx_hal_can.c ****       /* Add cancellation request for Tx Mailbox 1 */
1371:Drivers/STM32F4xx_HAL_Driver/Src/stm32f4xx_hal_can.c ****       SET_BIT(hcan->Instance->TSR, CAN_TSR_ABRQ1);
1372:Drivers/STM32F4xx_HAL_Driver/Src/stm32f4xx_hal_can.c ****     }
1373:Drivers/STM32F4xx_HAL_Driver/Src/stm32f4xx_hal_can.c **** 
1374:Drivers/STM32F4xx_HAL_Driver/Src/stm32f4xx_hal_can.c ****     /* Check Tx Mailbox 2 */
1375:Drivers/STM32F4xx_HAL_Driver/Src/stm32f4xx_hal_can.c ****     if ((TxMailboxes & CAN_TX_MAILBOX2) != 0U)
1376:Drivers/STM32F4xx_HAL_Driver/Src/stm32f4xx_hal_can.c ****     {
1377:Drivers/STM32F4xx_HAL_Driver/Src/stm32f4xx_hal_can.c ****       /* Add cancellation request for Tx Mailbox 2 */
1378:Drivers/STM32F4xx_HAL_Driver/Src/stm32f4xx_hal_can.c ****       SET_BIT(hcan->Instance->TSR, CAN_TSR_ABRQ2);
1379:Drivers/STM32F4xx_HAL_Driver/Src/stm32f4xx_hal_can.c ****     }
1380:Drivers/STM32F4xx_HAL_Driver/Src/stm32f4xx_hal_can.c **** 
1381:Drivers/STM32F4xx_HAL_Driver/Src/stm32f4xx_hal_can.c ****     /* Return function status */
1382:Drivers/STM32F4xx_HAL_Driver/Src/stm32f4xx_hal_can.c ****     return HAL_OK;
1383:Drivers/STM32F4xx_HAL_Driver/Src/stm32f4xx_hal_can.c ****   }
1384:Drivers/STM32F4xx_HAL_Driver/Src/stm32f4xx_hal_can.c ****   else
1385:Drivers/STM32F4xx_HAL_Driver/Src/stm32f4xx_hal_can.c ****   {
1386:Drivers/STM32F4xx_HAL_Driver/Src/stm32f4xx_hal_can.c ****     /* Update error code */
1387:Drivers/STM32F4xx_HAL_Driver/Src/stm32f4xx_hal_can.c ****     hcan->ErrorCode |= HAL_CAN_ERROR_NOT_INITIALIZED;
 1320              		.loc 1 1387 5 is_stmt 1 view .LVU430
 1321              		.loc 1 1387 9 is_stmt 0 view .LVU431
 1322 000c 436A     		ldr	r3, [r0, #36]
 1323              		.loc 1 1387 21 view .LVU432
 1324 000e 43F48023 		orr	r3, r3, #262144
 1325 0012 4362     		str	r3, [r0, #36]
1388:Drivers/STM32F4xx_HAL_Driver/Src/stm32f4xx_hal_can.c **** 
1389:Drivers/STM32F4xx_HAL_Driver/Src/stm32f4xx_hal_can.c ****     return HAL_ERROR;
 1326              		.loc 1 1389 5 is_stmt 1 view .LVU433
 1327              		.loc 1 1389 12 is_stmt 0 view .LVU434
 1328 0014 0120     		movs	r0, #1
 1329              	.LVL93:
1390:Drivers/STM32F4xx_HAL_Driver/Src/stm32f4xx_hal_can.c ****   }
1391:Drivers/STM32F4xx_HAL_Driver/Src/stm32f4xx_hal_can.c **** }
 1330              		.loc 1 1391 1 view .LVU435
 1331 0016 7047     		bx	lr
 1332              	.LVL94:
 1333              	.L111:
1361:Drivers/STM32F4xx_HAL_Driver/Src/stm32f4xx_hal_can.c ****     {
 1334              		.loc 1 1361 5 is_stmt 1 view .LVU436
1361:Drivers/STM32F4xx_HAL_Driver/Src/stm32f4xx_hal_can.c ****     {
 1335              		.loc 1 1361 8 is_stmt 0 view .LVU437
ARM GAS  C:\Users\Rick\AppData\Local\Temp\cck9vz6U.s 			page 53


 1336 0018 11F0010F 		tst	r1, #1
 1337 001c 04D0     		beq	.L107
1364:Drivers/STM32F4xx_HAL_Driver/Src/stm32f4xx_hal_can.c ****     }
 1338              		.loc 1 1364 7 is_stmt 1 view .LVU438
 1339 001e 0268     		ldr	r2, [r0]
 1340 0020 9368     		ldr	r3, [r2, #8]
 1341 0022 43F08003 		orr	r3, r3, #128
 1342 0026 9360     		str	r3, [r2, #8]
 1343              	.L107:
1368:Drivers/STM32F4xx_HAL_Driver/Src/stm32f4xx_hal_can.c ****     {
 1344              		.loc 1 1368 5 view .LVU439
1368:Drivers/STM32F4xx_HAL_Driver/Src/stm32f4xx_hal_can.c ****     {
 1345              		.loc 1 1368 8 is_stmt 0 view .LVU440
 1346 0028 11F0020F 		tst	r1, #2
 1347 002c 04D0     		beq	.L108
1371:Drivers/STM32F4xx_HAL_Driver/Src/stm32f4xx_hal_can.c ****     }
 1348              		.loc 1 1371 7 is_stmt 1 view .LVU441
 1349 002e 0268     		ldr	r2, [r0]
 1350 0030 9368     		ldr	r3, [r2, #8]
 1351 0032 43F40043 		orr	r3, r3, #32768
 1352 0036 9360     		str	r3, [r2, #8]
 1353              	.L108:
1375:Drivers/STM32F4xx_HAL_Driver/Src/stm32f4xx_hal_can.c ****     {
 1354              		.loc 1 1375 5 view .LVU442
1375:Drivers/STM32F4xx_HAL_Driver/Src/stm32f4xx_hal_can.c ****     {
 1355              		.loc 1 1375 8 is_stmt 0 view .LVU443
 1356 0038 11F0040F 		tst	r1, #4
 1357 003c 04D0     		beq	.L109
1378:Drivers/STM32F4xx_HAL_Driver/Src/stm32f4xx_hal_can.c ****     }
 1358              		.loc 1 1378 7 is_stmt 1 view .LVU444
 1359 003e 0268     		ldr	r2, [r0]
 1360 0040 9368     		ldr	r3, [r2, #8]
 1361 0042 43F40003 		orr	r3, r3, #8388608
 1362 0046 9360     		str	r3, [r2, #8]
 1363              	.L109:
1382:Drivers/STM32F4xx_HAL_Driver/Src/stm32f4xx_hal_can.c ****   }
 1364              		.loc 1 1382 5 view .LVU445
1382:Drivers/STM32F4xx_HAL_Driver/Src/stm32f4xx_hal_can.c ****   }
 1365              		.loc 1 1382 12 is_stmt 0 view .LVU446
 1366 0048 0020     		movs	r0, #0
 1367              	.LVL95:
1382:Drivers/STM32F4xx_HAL_Driver/Src/stm32f4xx_hal_can.c ****   }
 1368              		.loc 1 1382 12 view .LVU447
 1369 004a 7047     		bx	lr
 1370              		.cfi_endproc
 1371              	.LFE250:
 1373              		.section	.text.HAL_CAN_GetTxMailboxesFreeLevel,"ax",%progbits
 1374              		.align	1
 1375              		.global	HAL_CAN_GetTxMailboxesFreeLevel
 1376              		.syntax unified
 1377              		.thumb
 1378              		.thumb_func
 1380              	HAL_CAN_GetTxMailboxesFreeLevel:
 1381              	.LVL96:
 1382              	.LFB251:
1392:Drivers/STM32F4xx_HAL_Driver/Src/stm32f4xx_hal_can.c **** 
1393:Drivers/STM32F4xx_HAL_Driver/Src/stm32f4xx_hal_can.c **** /**
ARM GAS  C:\Users\Rick\AppData\Local\Temp\cck9vz6U.s 			page 54


1394:Drivers/STM32F4xx_HAL_Driver/Src/stm32f4xx_hal_can.c ****   * @brief  Return Tx Mailboxes free level: number of free Tx Mailboxes.
1395:Drivers/STM32F4xx_HAL_Driver/Src/stm32f4xx_hal_can.c ****   * @param  hcan pointer to a CAN_HandleTypeDef structure that contains
1396:Drivers/STM32F4xx_HAL_Driver/Src/stm32f4xx_hal_can.c ****   *         the configuration information for the specified CAN.
1397:Drivers/STM32F4xx_HAL_Driver/Src/stm32f4xx_hal_can.c ****   * @retval Number of free Tx Mailboxes.
1398:Drivers/STM32F4xx_HAL_Driver/Src/stm32f4xx_hal_can.c ****   */
1399:Drivers/STM32F4xx_HAL_Driver/Src/stm32f4xx_hal_can.c **** uint32_t HAL_CAN_GetTxMailboxesFreeLevel(const CAN_HandleTypeDef *hcan)
1400:Drivers/STM32F4xx_HAL_Driver/Src/stm32f4xx_hal_can.c **** {
 1383              		.loc 1 1400 1 is_stmt 1 view -0
 1384              		.cfi_startproc
 1385              		@ args = 0, pretend = 0, frame = 0
 1386              		@ frame_needed = 0, uses_anonymous_args = 0
 1387              		@ link register save eliminated.
1401:Drivers/STM32F4xx_HAL_Driver/Src/stm32f4xx_hal_can.c ****   uint32_t freelevel = 0U;
 1388              		.loc 1 1401 3 view .LVU449
1402:Drivers/STM32F4xx_HAL_Driver/Src/stm32f4xx_hal_can.c ****   HAL_CAN_StateTypeDef state = hcan->State;
 1389              		.loc 1 1402 3 view .LVU450
 1390              		.loc 1 1402 24 is_stmt 0 view .LVU451
 1391 0000 90F82030 		ldrb	r3, [r0, #32]	@ zero_extendqisi2
 1392              	.LVL97:
1403:Drivers/STM32F4xx_HAL_Driver/Src/stm32f4xx_hal_can.c **** 
1404:Drivers/STM32F4xx_HAL_Driver/Src/stm32f4xx_hal_can.c ****   if ((state == HAL_CAN_STATE_READY) ||
 1393              		.loc 1 1404 3 is_stmt 1 view .LVU452
 1394              		.loc 1 1404 38 is_stmt 0 view .LVU453
 1395 0004 013B     		subs	r3, r3, #1
 1396              	.LVL98:
 1397              		.loc 1 1404 38 view .LVU454
 1398 0006 DBB2     		uxtb	r3, r3
 1399              	.LVL99:
 1400              		.loc 1 1404 6 view .LVU455
 1401 0008 012B     		cmp	r3, #1
 1402 000a 01D9     		bls	.L118
1401:Drivers/STM32F4xx_HAL_Driver/Src/stm32f4xx_hal_can.c ****   HAL_CAN_StateTypeDef state = hcan->State;
 1403              		.loc 1 1401 12 view .LVU456
 1404 000c 0020     		movs	r0, #0
 1405              	.LVL100:
1405:Drivers/STM32F4xx_HAL_Driver/Src/stm32f4xx_hal_can.c ****       (state == HAL_CAN_STATE_LISTENING))
1406:Drivers/STM32F4xx_HAL_Driver/Src/stm32f4xx_hal_can.c ****   {
1407:Drivers/STM32F4xx_HAL_Driver/Src/stm32f4xx_hal_can.c ****     /* Check Tx Mailbox 0 status */
1408:Drivers/STM32F4xx_HAL_Driver/Src/stm32f4xx_hal_can.c ****     if ((hcan->Instance->TSR & CAN_TSR_TME0) != 0U)
1409:Drivers/STM32F4xx_HAL_Driver/Src/stm32f4xx_hal_can.c ****     {
1410:Drivers/STM32F4xx_HAL_Driver/Src/stm32f4xx_hal_can.c ****       freelevel++;
1411:Drivers/STM32F4xx_HAL_Driver/Src/stm32f4xx_hal_can.c ****     }
1412:Drivers/STM32F4xx_HAL_Driver/Src/stm32f4xx_hal_can.c **** 
1413:Drivers/STM32F4xx_HAL_Driver/Src/stm32f4xx_hal_can.c ****     /* Check Tx Mailbox 1 status */
1414:Drivers/STM32F4xx_HAL_Driver/Src/stm32f4xx_hal_can.c ****     if ((hcan->Instance->TSR & CAN_TSR_TME1) != 0U)
1415:Drivers/STM32F4xx_HAL_Driver/Src/stm32f4xx_hal_can.c ****     {
1416:Drivers/STM32F4xx_HAL_Driver/Src/stm32f4xx_hal_can.c ****       freelevel++;
1417:Drivers/STM32F4xx_HAL_Driver/Src/stm32f4xx_hal_can.c ****     }
1418:Drivers/STM32F4xx_HAL_Driver/Src/stm32f4xx_hal_can.c **** 
1419:Drivers/STM32F4xx_HAL_Driver/Src/stm32f4xx_hal_can.c ****     /* Check Tx Mailbox 2 status */
1420:Drivers/STM32F4xx_HAL_Driver/Src/stm32f4xx_hal_can.c ****     if ((hcan->Instance->TSR & CAN_TSR_TME2) != 0U)
1421:Drivers/STM32F4xx_HAL_Driver/Src/stm32f4xx_hal_can.c ****     {
1422:Drivers/STM32F4xx_HAL_Driver/Src/stm32f4xx_hal_can.c ****       freelevel++;
1423:Drivers/STM32F4xx_HAL_Driver/Src/stm32f4xx_hal_can.c ****     }
1424:Drivers/STM32F4xx_HAL_Driver/Src/stm32f4xx_hal_can.c ****   }
1425:Drivers/STM32F4xx_HAL_Driver/Src/stm32f4xx_hal_can.c **** 
1426:Drivers/STM32F4xx_HAL_Driver/Src/stm32f4xx_hal_can.c ****   /* Return Tx Mailboxes free level */
ARM GAS  C:\Users\Rick\AppData\Local\Temp\cck9vz6U.s 			page 55


1427:Drivers/STM32F4xx_HAL_Driver/Src/stm32f4xx_hal_can.c ****   return freelevel;
 1406              		.loc 1 1427 3 is_stmt 1 view .LVU457
 1407              	.L112:
1428:Drivers/STM32F4xx_HAL_Driver/Src/stm32f4xx_hal_can.c **** }
 1408              		.loc 1 1428 1 is_stmt 0 view .LVU458
 1409 000e 7047     		bx	lr
 1410              	.LVL101:
 1411              	.L118:
1408:Drivers/STM32F4xx_HAL_Driver/Src/stm32f4xx_hal_can.c ****     {
 1412              		.loc 1 1408 5 is_stmt 1 view .LVU459
1408:Drivers/STM32F4xx_HAL_Driver/Src/stm32f4xx_hal_can.c ****     {
 1413              		.loc 1 1408 14 is_stmt 0 view .LVU460
 1414 0010 0368     		ldr	r3, [r0]
1408:Drivers/STM32F4xx_HAL_Driver/Src/stm32f4xx_hal_can.c ****     {
 1415              		.loc 1 1408 24 view .LVU461
 1416 0012 9868     		ldr	r0, [r3, #8]
 1417              	.LVL102:
1408:Drivers/STM32F4xx_HAL_Driver/Src/stm32f4xx_hal_can.c ****     {
 1418              		.loc 1 1408 8 view .LVU462
 1419 0014 10F08060 		ands	r0, r0, #67108864
 1420 0018 00D0     		beq	.L114
1410:Drivers/STM32F4xx_HAL_Driver/Src/stm32f4xx_hal_can.c ****     }
 1421              		.loc 1 1410 16 view .LVU463
 1422 001a 0120     		movs	r0, #1
 1423              	.L114:
 1424              	.LVL103:
1414:Drivers/STM32F4xx_HAL_Driver/Src/stm32f4xx_hal_can.c ****     {
 1425              		.loc 1 1414 5 is_stmt 1 view .LVU464
1414:Drivers/STM32F4xx_HAL_Driver/Src/stm32f4xx_hal_can.c ****     {
 1426              		.loc 1 1414 24 is_stmt 0 view .LVU465
 1427 001c 9A68     		ldr	r2, [r3, #8]
1414:Drivers/STM32F4xx_HAL_Driver/Src/stm32f4xx_hal_can.c ****     {
 1428              		.loc 1 1414 8 view .LVU466
 1429 001e 12F0006F 		tst	r2, #134217728
 1430 0022 00D0     		beq	.L115
1416:Drivers/STM32F4xx_HAL_Driver/Src/stm32f4xx_hal_can.c ****     }
 1431              		.loc 1 1416 7 is_stmt 1 view .LVU467
1416:Drivers/STM32F4xx_HAL_Driver/Src/stm32f4xx_hal_can.c ****     }
 1432              		.loc 1 1416 16 is_stmt 0 view .LVU468
 1433 0024 0130     		adds	r0, r0, #1
 1434              	.LVL104:
 1435              	.L115:
1420:Drivers/STM32F4xx_HAL_Driver/Src/stm32f4xx_hal_can.c ****     {
 1436              		.loc 1 1420 5 is_stmt 1 view .LVU469
1420:Drivers/STM32F4xx_HAL_Driver/Src/stm32f4xx_hal_can.c ****     {
 1437              		.loc 1 1420 24 is_stmt 0 view .LVU470
 1438 0026 9B68     		ldr	r3, [r3, #8]
1420:Drivers/STM32F4xx_HAL_Driver/Src/stm32f4xx_hal_can.c ****     {
 1439              		.loc 1 1420 8 view .LVU471
 1440 0028 13F0805F 		tst	r3, #268435456
 1441 002c EFD0     		beq	.L112
1422:Drivers/STM32F4xx_HAL_Driver/Src/stm32f4xx_hal_can.c ****     }
 1442              		.loc 1 1422 7 is_stmt 1 view .LVU472
1422:Drivers/STM32F4xx_HAL_Driver/Src/stm32f4xx_hal_can.c ****     }
 1443              		.loc 1 1422 16 is_stmt 0 view .LVU473
 1444 002e 0130     		adds	r0, r0, #1
 1445              	.LVL105:
ARM GAS  C:\Users\Rick\AppData\Local\Temp\cck9vz6U.s 			page 56


1422:Drivers/STM32F4xx_HAL_Driver/Src/stm32f4xx_hal_can.c ****     }
 1446              		.loc 1 1422 16 view .LVU474
 1447 0030 7047     		bx	lr
 1448              		.cfi_endproc
 1449              	.LFE251:
 1451              		.section	.text.HAL_CAN_IsTxMessagePending,"ax",%progbits
 1452              		.align	1
 1453              		.global	HAL_CAN_IsTxMessagePending
 1454              		.syntax unified
 1455              		.thumb
 1456              		.thumb_func
 1458              	HAL_CAN_IsTxMessagePending:
 1459              	.LVL106:
 1460              	.LFB252:
1429:Drivers/STM32F4xx_HAL_Driver/Src/stm32f4xx_hal_can.c **** 
1430:Drivers/STM32F4xx_HAL_Driver/Src/stm32f4xx_hal_can.c **** /**
1431:Drivers/STM32F4xx_HAL_Driver/Src/stm32f4xx_hal_can.c ****   * @brief  Check if a transmission request is pending on the selected Tx
1432:Drivers/STM32F4xx_HAL_Driver/Src/stm32f4xx_hal_can.c ****   *         Mailboxes.
1433:Drivers/STM32F4xx_HAL_Driver/Src/stm32f4xx_hal_can.c ****   * @param  hcan pointer to an CAN_HandleTypeDef structure that contains
1434:Drivers/STM32F4xx_HAL_Driver/Src/stm32f4xx_hal_can.c ****   *         the configuration information for the specified CAN.
1435:Drivers/STM32F4xx_HAL_Driver/Src/stm32f4xx_hal_can.c ****   * @param  TxMailboxes List of Tx Mailboxes to check.
1436:Drivers/STM32F4xx_HAL_Driver/Src/stm32f4xx_hal_can.c ****   *         This parameter can be any combination of @arg CAN_Tx_Mailboxes.
1437:Drivers/STM32F4xx_HAL_Driver/Src/stm32f4xx_hal_can.c ****   * @retval Status
1438:Drivers/STM32F4xx_HAL_Driver/Src/stm32f4xx_hal_can.c ****   *          - 0 : No pending transmission request on any selected Tx Mailboxes.
1439:Drivers/STM32F4xx_HAL_Driver/Src/stm32f4xx_hal_can.c ****   *          - 1 : Pending transmission request on at least one of the selected
1440:Drivers/STM32F4xx_HAL_Driver/Src/stm32f4xx_hal_can.c ****   *                Tx Mailbox.
1441:Drivers/STM32F4xx_HAL_Driver/Src/stm32f4xx_hal_can.c ****   */
1442:Drivers/STM32F4xx_HAL_Driver/Src/stm32f4xx_hal_can.c **** uint32_t HAL_CAN_IsTxMessagePending(const CAN_HandleTypeDef *hcan, uint32_t TxMailboxes)
1443:Drivers/STM32F4xx_HAL_Driver/Src/stm32f4xx_hal_can.c **** {
 1461              		.loc 1 1443 1 is_stmt 1 view -0
 1462              		.cfi_startproc
 1463              		@ args = 0, pretend = 0, frame = 0
 1464              		@ frame_needed = 0, uses_anonymous_args = 0
 1465              		@ link register save eliminated.
1444:Drivers/STM32F4xx_HAL_Driver/Src/stm32f4xx_hal_can.c ****   uint32_t status = 0U;
 1466              		.loc 1 1444 3 view .LVU476
1445:Drivers/STM32F4xx_HAL_Driver/Src/stm32f4xx_hal_can.c ****   HAL_CAN_StateTypeDef state = hcan->State;
 1467              		.loc 1 1445 3 view .LVU477
 1468              		.loc 1 1445 24 is_stmt 0 view .LVU478
 1469 0000 90F82030 		ldrb	r3, [r0, #32]	@ zero_extendqisi2
 1470              	.LVL107:
1446:Drivers/STM32F4xx_HAL_Driver/Src/stm32f4xx_hal_can.c **** 
1447:Drivers/STM32F4xx_HAL_Driver/Src/stm32f4xx_hal_can.c ****   /* Check function parameters */
1448:Drivers/STM32F4xx_HAL_Driver/Src/stm32f4xx_hal_can.c ****   assert_param(IS_CAN_TX_MAILBOX_LIST(TxMailboxes));
 1471              		.loc 1 1448 3 is_stmt 1 view .LVU479
1449:Drivers/STM32F4xx_HAL_Driver/Src/stm32f4xx_hal_can.c **** 
1450:Drivers/STM32F4xx_HAL_Driver/Src/stm32f4xx_hal_can.c ****   if ((state == HAL_CAN_STATE_READY) ||
 1472              		.loc 1 1450 3 view .LVU480
 1473              		.loc 1 1450 38 is_stmt 0 view .LVU481
 1474 0004 013B     		subs	r3, r3, #1
 1475              	.LVL108:
 1476              		.loc 1 1450 38 view .LVU482
 1477 0006 DBB2     		uxtb	r3, r3
 1478              	.LVL109:
 1479              		.loc 1 1450 6 view .LVU483
 1480 0008 012B     		cmp	r3, #1
 1481 000a 01D9     		bls	.L123
ARM GAS  C:\Users\Rick\AppData\Local\Temp\cck9vz6U.s 			page 57


1444:Drivers/STM32F4xx_HAL_Driver/Src/stm32f4xx_hal_can.c ****   HAL_CAN_StateTypeDef state = hcan->State;
 1482              		.loc 1 1444 12 view .LVU484
 1483 000c 0020     		movs	r0, #0
 1484              	.LVL110:
1444:Drivers/STM32F4xx_HAL_Driver/Src/stm32f4xx_hal_can.c ****   HAL_CAN_StateTypeDef state = hcan->State;
 1485              		.loc 1 1444 12 view .LVU485
 1486 000e 7047     		bx	lr
 1487              	.LVL111:
 1488              	.L123:
1451:Drivers/STM32F4xx_HAL_Driver/Src/stm32f4xx_hal_can.c ****       (state == HAL_CAN_STATE_LISTENING))
1452:Drivers/STM32F4xx_HAL_Driver/Src/stm32f4xx_hal_can.c ****   {
1453:Drivers/STM32F4xx_HAL_Driver/Src/stm32f4xx_hal_can.c ****     /* Check pending transmission request on the selected Tx Mailboxes */
1454:Drivers/STM32F4xx_HAL_Driver/Src/stm32f4xx_hal_can.c ****     if ((hcan->Instance->TSR & (TxMailboxes << CAN_TSR_TME0_Pos)) != (TxMailboxes << CAN_TSR_TME0_P
 1489              		.loc 1 1454 5 is_stmt 1 view .LVU486
 1490              		.loc 1 1454 14 is_stmt 0 view .LVU487
 1491 0010 0368     		ldr	r3, [r0]
 1492              		.loc 1 1454 24 view .LVU488
 1493 0012 9B68     		ldr	r3, [r3, #8]
 1494              		.loc 1 1454 30 view .LVU489
 1495 0014 03EA8163 		and	r3, r3, r1, lsl #26
 1496              		.loc 1 1454 8 view .LVU490
 1497 0018 B3EB816F 		cmp	r3, r1, lsl #26
 1498 001c 01D0     		beq	.L124
1455:Drivers/STM32F4xx_HAL_Driver/Src/stm32f4xx_hal_can.c ****     {
1456:Drivers/STM32F4xx_HAL_Driver/Src/stm32f4xx_hal_can.c ****       status = 1U;
 1499              		.loc 1 1456 14 view .LVU491
 1500 001e 0120     		movs	r0, #1
 1501              	.LVL112:
1457:Drivers/STM32F4xx_HAL_Driver/Src/stm32f4xx_hal_can.c ****     }
1458:Drivers/STM32F4xx_HAL_Driver/Src/stm32f4xx_hal_can.c ****   }
1459:Drivers/STM32F4xx_HAL_Driver/Src/stm32f4xx_hal_can.c **** 
1460:Drivers/STM32F4xx_HAL_Driver/Src/stm32f4xx_hal_can.c ****   /* Return status */
1461:Drivers/STM32F4xx_HAL_Driver/Src/stm32f4xx_hal_can.c ****   return status;
 1502              		.loc 1 1461 3 is_stmt 1 view .LVU492
1462:Drivers/STM32F4xx_HAL_Driver/Src/stm32f4xx_hal_can.c **** }
 1503              		.loc 1 1462 1 is_stmt 0 view .LVU493
 1504 0020 7047     		bx	lr
 1505              	.LVL113:
 1506              	.L124:
1444:Drivers/STM32F4xx_HAL_Driver/Src/stm32f4xx_hal_can.c ****   HAL_CAN_StateTypeDef state = hcan->State;
 1507              		.loc 1 1444 12 view .LVU494
 1508 0022 0020     		movs	r0, #0
 1509              	.LVL114:
1444:Drivers/STM32F4xx_HAL_Driver/Src/stm32f4xx_hal_can.c ****   HAL_CAN_StateTypeDef state = hcan->State;
 1510              		.loc 1 1444 12 view .LVU495
 1511 0024 7047     		bx	lr
 1512              		.cfi_endproc
 1513              	.LFE252:
 1515              		.section	.text.HAL_CAN_GetTxTimestamp,"ax",%progbits
 1516              		.align	1
 1517              		.global	HAL_CAN_GetTxTimestamp
 1518              		.syntax unified
 1519              		.thumb
 1520              		.thumb_func
 1522              	HAL_CAN_GetTxTimestamp:
 1523              	.LVL115:
 1524              	.LFB253:
ARM GAS  C:\Users\Rick\AppData\Local\Temp\cck9vz6U.s 			page 58


1463:Drivers/STM32F4xx_HAL_Driver/Src/stm32f4xx_hal_can.c **** 
1464:Drivers/STM32F4xx_HAL_Driver/Src/stm32f4xx_hal_can.c **** /**
1465:Drivers/STM32F4xx_HAL_Driver/Src/stm32f4xx_hal_can.c ****   * @brief  Return timestamp of Tx message sent, if time triggered communication
1466:Drivers/STM32F4xx_HAL_Driver/Src/stm32f4xx_hal_can.c ****             mode is enabled.
1467:Drivers/STM32F4xx_HAL_Driver/Src/stm32f4xx_hal_can.c ****   * @param  hcan pointer to a CAN_HandleTypeDef structure that contains
1468:Drivers/STM32F4xx_HAL_Driver/Src/stm32f4xx_hal_can.c ****   *         the configuration information for the specified CAN.
1469:Drivers/STM32F4xx_HAL_Driver/Src/stm32f4xx_hal_can.c ****   * @param  TxMailbox Tx Mailbox where the timestamp of message sent will be
1470:Drivers/STM32F4xx_HAL_Driver/Src/stm32f4xx_hal_can.c ****   *         read.
1471:Drivers/STM32F4xx_HAL_Driver/Src/stm32f4xx_hal_can.c ****   *         This parameter can be one value of @arg CAN_Tx_Mailboxes.
1472:Drivers/STM32F4xx_HAL_Driver/Src/stm32f4xx_hal_can.c ****   * @retval Timestamp of message sent from Tx Mailbox.
1473:Drivers/STM32F4xx_HAL_Driver/Src/stm32f4xx_hal_can.c ****   */
1474:Drivers/STM32F4xx_HAL_Driver/Src/stm32f4xx_hal_can.c **** uint32_t HAL_CAN_GetTxTimestamp(const CAN_HandleTypeDef *hcan, uint32_t TxMailbox)
1475:Drivers/STM32F4xx_HAL_Driver/Src/stm32f4xx_hal_can.c **** {
 1525              		.loc 1 1475 1 is_stmt 1 view -0
 1526              		.cfi_startproc
 1527              		@ args = 0, pretend = 0, frame = 0
 1528              		@ frame_needed = 0, uses_anonymous_args = 0
 1529              		@ link register save eliminated.
1476:Drivers/STM32F4xx_HAL_Driver/Src/stm32f4xx_hal_can.c ****   uint32_t timestamp = 0U;
 1530              		.loc 1 1476 3 view .LVU497
1477:Drivers/STM32F4xx_HAL_Driver/Src/stm32f4xx_hal_can.c ****   uint32_t transmitmailbox;
 1531              		.loc 1 1477 3 view .LVU498
1478:Drivers/STM32F4xx_HAL_Driver/Src/stm32f4xx_hal_can.c ****   HAL_CAN_StateTypeDef state = hcan->State;
 1532              		.loc 1 1478 3 view .LVU499
 1533              		.loc 1 1478 24 is_stmt 0 view .LVU500
 1534 0000 90F82030 		ldrb	r3, [r0, #32]	@ zero_extendqisi2
 1535              	.LVL116:
1479:Drivers/STM32F4xx_HAL_Driver/Src/stm32f4xx_hal_can.c **** 
1480:Drivers/STM32F4xx_HAL_Driver/Src/stm32f4xx_hal_can.c ****   /* Check function parameters */
1481:Drivers/STM32F4xx_HAL_Driver/Src/stm32f4xx_hal_can.c ****   assert_param(IS_CAN_TX_MAILBOX(TxMailbox));
 1536              		.loc 1 1481 3 is_stmt 1 view .LVU501
1482:Drivers/STM32F4xx_HAL_Driver/Src/stm32f4xx_hal_can.c **** 
1483:Drivers/STM32F4xx_HAL_Driver/Src/stm32f4xx_hal_can.c ****   if ((state == HAL_CAN_STATE_READY) ||
 1537              		.loc 1 1483 3 view .LVU502
 1538              		.loc 1 1483 38 is_stmt 0 view .LVU503
 1539 0004 013B     		subs	r3, r3, #1
 1540              	.LVL117:
 1541              		.loc 1 1483 38 view .LVU504
 1542 0006 DBB2     		uxtb	r3, r3
 1543              	.LVL118:
 1544              		.loc 1 1483 6 view .LVU505
 1545 0008 012B     		cmp	r3, #1
 1546 000a 01D9     		bls	.L130
1476:Drivers/STM32F4xx_HAL_Driver/Src/stm32f4xx_hal_can.c ****   uint32_t transmitmailbox;
 1547              		.loc 1 1476 12 view .LVU506
 1548 000c 0020     		movs	r0, #0
 1549              	.LVL119:
1484:Drivers/STM32F4xx_HAL_Driver/Src/stm32f4xx_hal_can.c ****       (state == HAL_CAN_STATE_LISTENING))
1485:Drivers/STM32F4xx_HAL_Driver/Src/stm32f4xx_hal_can.c ****   {
1486:Drivers/STM32F4xx_HAL_Driver/Src/stm32f4xx_hal_can.c ****     /* Select the Tx mailbox */
1487:Drivers/STM32F4xx_HAL_Driver/Src/stm32f4xx_hal_can.c ****     transmitmailbox = POSITION_VAL(TxMailbox);
1488:Drivers/STM32F4xx_HAL_Driver/Src/stm32f4xx_hal_can.c **** 
1489:Drivers/STM32F4xx_HAL_Driver/Src/stm32f4xx_hal_can.c ****     /* Get timestamp */
1490:Drivers/STM32F4xx_HAL_Driver/Src/stm32f4xx_hal_can.c ****     timestamp = (hcan->Instance->sTxMailBox[transmitmailbox].TDTR & CAN_TDT0R_TIME) >> CAN_TDT0R_TI
1491:Drivers/STM32F4xx_HAL_Driver/Src/stm32f4xx_hal_can.c ****   }
1492:Drivers/STM32F4xx_HAL_Driver/Src/stm32f4xx_hal_can.c **** 
1493:Drivers/STM32F4xx_HAL_Driver/Src/stm32f4xx_hal_can.c ****   /* Return the timestamp */
ARM GAS  C:\Users\Rick\AppData\Local\Temp\cck9vz6U.s 			page 59


1494:Drivers/STM32F4xx_HAL_Driver/Src/stm32f4xx_hal_can.c ****   return timestamp;
 1550              		.loc 1 1494 3 is_stmt 1 view .LVU507
1495:Drivers/STM32F4xx_HAL_Driver/Src/stm32f4xx_hal_can.c **** }
 1551              		.loc 1 1495 1 is_stmt 0 view .LVU508
 1552 000e 7047     		bx	lr
 1553              	.LVL120:
 1554              	.L130:
1487:Drivers/STM32F4xx_HAL_Driver/Src/stm32f4xx_hal_can.c **** 
 1555              		.loc 1 1487 5 is_stmt 1 view .LVU509
 1556              	.LBB6:
 1557              	.LBI6:
 1558              		.file 2 "Drivers/CMSIS/Include/cmsis_gcc.h"
   1:Drivers/CMSIS/Include/cmsis_gcc.h **** /**************************************************************************//**
   2:Drivers/CMSIS/Include/cmsis_gcc.h ****  * @file     cmsis_gcc.h
   3:Drivers/CMSIS/Include/cmsis_gcc.h ****  * @brief    CMSIS compiler GCC header file
   4:Drivers/CMSIS/Include/cmsis_gcc.h ****  * @version  V5.4.1
   5:Drivers/CMSIS/Include/cmsis_gcc.h ****  * @date     27. May 2021
   6:Drivers/CMSIS/Include/cmsis_gcc.h ****  ******************************************************************************/
   7:Drivers/CMSIS/Include/cmsis_gcc.h **** /*
   8:Drivers/CMSIS/Include/cmsis_gcc.h ****  * Copyright (c) 2009-2021 Arm Limited. All rights reserved.
   9:Drivers/CMSIS/Include/cmsis_gcc.h ****  *
  10:Drivers/CMSIS/Include/cmsis_gcc.h ****  * SPDX-License-Identifier: Apache-2.0
  11:Drivers/CMSIS/Include/cmsis_gcc.h ****  *
  12:Drivers/CMSIS/Include/cmsis_gcc.h ****  * Licensed under the Apache License, Version 2.0 (the License); you may
  13:Drivers/CMSIS/Include/cmsis_gcc.h ****  * not use this file except in compliance with the License.
  14:Drivers/CMSIS/Include/cmsis_gcc.h ****  * You may obtain a copy of the License at
  15:Drivers/CMSIS/Include/cmsis_gcc.h ****  *
  16:Drivers/CMSIS/Include/cmsis_gcc.h ****  * www.apache.org/licenses/LICENSE-2.0
  17:Drivers/CMSIS/Include/cmsis_gcc.h ****  *
  18:Drivers/CMSIS/Include/cmsis_gcc.h ****  * Unless required by applicable law or agreed to in writing, software
  19:Drivers/CMSIS/Include/cmsis_gcc.h ****  * distributed under the License is distributed on an AS IS BASIS, WITHOUT
  20:Drivers/CMSIS/Include/cmsis_gcc.h ****  * WARRANTIES OR CONDITIONS OF ANY KIND, either express or implied.
  21:Drivers/CMSIS/Include/cmsis_gcc.h ****  * See the License for the specific language governing permissions and
  22:Drivers/CMSIS/Include/cmsis_gcc.h ****  * limitations under the License.
  23:Drivers/CMSIS/Include/cmsis_gcc.h ****  */
  24:Drivers/CMSIS/Include/cmsis_gcc.h **** 
  25:Drivers/CMSIS/Include/cmsis_gcc.h **** #ifndef __CMSIS_GCC_H
  26:Drivers/CMSIS/Include/cmsis_gcc.h **** #define __CMSIS_GCC_H
  27:Drivers/CMSIS/Include/cmsis_gcc.h **** 
  28:Drivers/CMSIS/Include/cmsis_gcc.h **** /* ignore some GCC warnings */
  29:Drivers/CMSIS/Include/cmsis_gcc.h **** #pragma GCC diagnostic push
  30:Drivers/CMSIS/Include/cmsis_gcc.h **** #pragma GCC diagnostic ignored "-Wsign-conversion"
  31:Drivers/CMSIS/Include/cmsis_gcc.h **** #pragma GCC diagnostic ignored "-Wconversion"
  32:Drivers/CMSIS/Include/cmsis_gcc.h **** #pragma GCC diagnostic ignored "-Wunused-parameter"
  33:Drivers/CMSIS/Include/cmsis_gcc.h **** 
  34:Drivers/CMSIS/Include/cmsis_gcc.h **** /* Fallback for __has_builtin */
  35:Drivers/CMSIS/Include/cmsis_gcc.h **** #ifndef __has_builtin
  36:Drivers/CMSIS/Include/cmsis_gcc.h ****   #define __has_builtin(x) (0)
  37:Drivers/CMSIS/Include/cmsis_gcc.h **** #endif
  38:Drivers/CMSIS/Include/cmsis_gcc.h **** 
  39:Drivers/CMSIS/Include/cmsis_gcc.h **** /* CMSIS compiler specific defines */
  40:Drivers/CMSIS/Include/cmsis_gcc.h **** #ifndef   __ASM
  41:Drivers/CMSIS/Include/cmsis_gcc.h ****   #define __ASM                                  __asm
  42:Drivers/CMSIS/Include/cmsis_gcc.h **** #endif
  43:Drivers/CMSIS/Include/cmsis_gcc.h **** #ifndef   __INLINE
  44:Drivers/CMSIS/Include/cmsis_gcc.h ****   #define __INLINE                               inline
  45:Drivers/CMSIS/Include/cmsis_gcc.h **** #endif
ARM GAS  C:\Users\Rick\AppData\Local\Temp\cck9vz6U.s 			page 60


  46:Drivers/CMSIS/Include/cmsis_gcc.h **** #ifndef   __STATIC_INLINE
  47:Drivers/CMSIS/Include/cmsis_gcc.h ****   #define __STATIC_INLINE                        static inline
  48:Drivers/CMSIS/Include/cmsis_gcc.h **** #endif
  49:Drivers/CMSIS/Include/cmsis_gcc.h **** #ifndef   __STATIC_FORCEINLINE
  50:Drivers/CMSIS/Include/cmsis_gcc.h ****   #define __STATIC_FORCEINLINE                   __attribute__((always_inline)) static inline
  51:Drivers/CMSIS/Include/cmsis_gcc.h **** #endif
  52:Drivers/CMSIS/Include/cmsis_gcc.h **** #ifndef   __NO_RETURN
  53:Drivers/CMSIS/Include/cmsis_gcc.h ****   #define __NO_RETURN                            __attribute__((__noreturn__))
  54:Drivers/CMSIS/Include/cmsis_gcc.h **** #endif
  55:Drivers/CMSIS/Include/cmsis_gcc.h **** #ifndef   __USED
  56:Drivers/CMSIS/Include/cmsis_gcc.h ****   #define __USED                                 __attribute__((used))
  57:Drivers/CMSIS/Include/cmsis_gcc.h **** #endif
  58:Drivers/CMSIS/Include/cmsis_gcc.h **** #ifndef   __WEAK
  59:Drivers/CMSIS/Include/cmsis_gcc.h ****   #define __WEAK                                 __attribute__((weak))
  60:Drivers/CMSIS/Include/cmsis_gcc.h **** #endif
  61:Drivers/CMSIS/Include/cmsis_gcc.h **** #ifndef   __PACKED
  62:Drivers/CMSIS/Include/cmsis_gcc.h ****   #define __PACKED                               __attribute__((packed, aligned(1)))
  63:Drivers/CMSIS/Include/cmsis_gcc.h **** #endif
  64:Drivers/CMSIS/Include/cmsis_gcc.h **** #ifndef   __PACKED_STRUCT
  65:Drivers/CMSIS/Include/cmsis_gcc.h ****   #define __PACKED_STRUCT                        struct __attribute__((packed, aligned(1)))
  66:Drivers/CMSIS/Include/cmsis_gcc.h **** #endif
  67:Drivers/CMSIS/Include/cmsis_gcc.h **** #ifndef   __PACKED_UNION
  68:Drivers/CMSIS/Include/cmsis_gcc.h ****   #define __PACKED_UNION                         union __attribute__((packed, aligned(1)))
  69:Drivers/CMSIS/Include/cmsis_gcc.h **** #endif
  70:Drivers/CMSIS/Include/cmsis_gcc.h **** #ifndef   __UNALIGNED_UINT32        /* deprecated */
  71:Drivers/CMSIS/Include/cmsis_gcc.h ****   #pragma GCC diagnostic push
  72:Drivers/CMSIS/Include/cmsis_gcc.h ****   #pragma GCC diagnostic ignored "-Wpacked"
  73:Drivers/CMSIS/Include/cmsis_gcc.h ****   #pragma GCC diagnostic ignored "-Wattributes"
  74:Drivers/CMSIS/Include/cmsis_gcc.h ****   struct __attribute__((packed)) T_UINT32 { uint32_t v; };
  75:Drivers/CMSIS/Include/cmsis_gcc.h ****   #pragma GCC diagnostic pop
  76:Drivers/CMSIS/Include/cmsis_gcc.h ****   #define __UNALIGNED_UINT32(x)                  (((struct T_UINT32 *)(x))->v)
  77:Drivers/CMSIS/Include/cmsis_gcc.h **** #endif
  78:Drivers/CMSIS/Include/cmsis_gcc.h **** #ifndef   __UNALIGNED_UINT16_WRITE
  79:Drivers/CMSIS/Include/cmsis_gcc.h ****   #pragma GCC diagnostic push
  80:Drivers/CMSIS/Include/cmsis_gcc.h ****   #pragma GCC diagnostic ignored "-Wpacked"
  81:Drivers/CMSIS/Include/cmsis_gcc.h ****   #pragma GCC diagnostic ignored "-Wattributes"
  82:Drivers/CMSIS/Include/cmsis_gcc.h ****   __PACKED_STRUCT T_UINT16_WRITE { uint16_t v; };
  83:Drivers/CMSIS/Include/cmsis_gcc.h ****   #pragma GCC diagnostic pop
  84:Drivers/CMSIS/Include/cmsis_gcc.h ****   #define __UNALIGNED_UINT16_WRITE(addr, val)    (void)((((struct T_UINT16_WRITE *)(void *)(addr))-
  85:Drivers/CMSIS/Include/cmsis_gcc.h **** #endif
  86:Drivers/CMSIS/Include/cmsis_gcc.h **** #ifndef   __UNALIGNED_UINT16_READ
  87:Drivers/CMSIS/Include/cmsis_gcc.h ****   #pragma GCC diagnostic push
  88:Drivers/CMSIS/Include/cmsis_gcc.h ****   #pragma GCC diagnostic ignored "-Wpacked"
  89:Drivers/CMSIS/Include/cmsis_gcc.h ****   #pragma GCC diagnostic ignored "-Wattributes"
  90:Drivers/CMSIS/Include/cmsis_gcc.h ****   __PACKED_STRUCT T_UINT16_READ { uint16_t v; };
  91:Drivers/CMSIS/Include/cmsis_gcc.h ****   #pragma GCC diagnostic pop
  92:Drivers/CMSIS/Include/cmsis_gcc.h ****   #define __UNALIGNED_UINT16_READ(addr)          (((const struct T_UINT16_READ *)(const void *)(add
  93:Drivers/CMSIS/Include/cmsis_gcc.h **** #endif
  94:Drivers/CMSIS/Include/cmsis_gcc.h **** #ifndef   __UNALIGNED_UINT32_WRITE
  95:Drivers/CMSIS/Include/cmsis_gcc.h ****   #pragma GCC diagnostic push
  96:Drivers/CMSIS/Include/cmsis_gcc.h ****   #pragma GCC diagnostic ignored "-Wpacked"
  97:Drivers/CMSIS/Include/cmsis_gcc.h ****   #pragma GCC diagnostic ignored "-Wattributes"
  98:Drivers/CMSIS/Include/cmsis_gcc.h ****   __PACKED_STRUCT T_UINT32_WRITE { uint32_t v; };
  99:Drivers/CMSIS/Include/cmsis_gcc.h ****   #pragma GCC diagnostic pop
 100:Drivers/CMSIS/Include/cmsis_gcc.h ****   #define __UNALIGNED_UINT32_WRITE(addr, val)    (void)((((struct T_UINT32_WRITE *)(void *)(addr))-
 101:Drivers/CMSIS/Include/cmsis_gcc.h **** #endif
 102:Drivers/CMSIS/Include/cmsis_gcc.h **** #ifndef   __UNALIGNED_UINT32_READ
ARM GAS  C:\Users\Rick\AppData\Local\Temp\cck9vz6U.s 			page 61


 103:Drivers/CMSIS/Include/cmsis_gcc.h ****   #pragma GCC diagnostic push
 104:Drivers/CMSIS/Include/cmsis_gcc.h ****   #pragma GCC diagnostic ignored "-Wpacked"
 105:Drivers/CMSIS/Include/cmsis_gcc.h ****   #pragma GCC diagnostic ignored "-Wattributes"
 106:Drivers/CMSIS/Include/cmsis_gcc.h ****   __PACKED_STRUCT T_UINT32_READ { uint32_t v; };
 107:Drivers/CMSIS/Include/cmsis_gcc.h ****   #pragma GCC diagnostic pop
 108:Drivers/CMSIS/Include/cmsis_gcc.h ****   #define __UNALIGNED_UINT32_READ(addr)          (((const struct T_UINT32_READ *)(const void *)(add
 109:Drivers/CMSIS/Include/cmsis_gcc.h **** #endif
 110:Drivers/CMSIS/Include/cmsis_gcc.h **** #ifndef   __ALIGNED
 111:Drivers/CMSIS/Include/cmsis_gcc.h ****   #define __ALIGNED(x)                           __attribute__((aligned(x)))
 112:Drivers/CMSIS/Include/cmsis_gcc.h **** #endif
 113:Drivers/CMSIS/Include/cmsis_gcc.h **** #ifndef   __RESTRICT
 114:Drivers/CMSIS/Include/cmsis_gcc.h ****   #define __RESTRICT                             __restrict
 115:Drivers/CMSIS/Include/cmsis_gcc.h **** #endif
 116:Drivers/CMSIS/Include/cmsis_gcc.h **** #ifndef   __COMPILER_BARRIER
 117:Drivers/CMSIS/Include/cmsis_gcc.h ****   #define __COMPILER_BARRIER()                   __ASM volatile("":::"memory")
 118:Drivers/CMSIS/Include/cmsis_gcc.h **** #endif
 119:Drivers/CMSIS/Include/cmsis_gcc.h **** 
 120:Drivers/CMSIS/Include/cmsis_gcc.h **** /* #########################  Startup and Lowlevel Init  ######################## */
 121:Drivers/CMSIS/Include/cmsis_gcc.h **** 
 122:Drivers/CMSIS/Include/cmsis_gcc.h **** #ifndef __PROGRAM_START
 123:Drivers/CMSIS/Include/cmsis_gcc.h **** 
 124:Drivers/CMSIS/Include/cmsis_gcc.h **** /**
 125:Drivers/CMSIS/Include/cmsis_gcc.h ****   \brief   Initializes data and bss sections
 126:Drivers/CMSIS/Include/cmsis_gcc.h ****   \details This default implementations initialized all data and additional bss
 127:Drivers/CMSIS/Include/cmsis_gcc.h ****            sections relying on .copy.table and .zero.table specified properly
 128:Drivers/CMSIS/Include/cmsis_gcc.h ****            in the used linker script.
 129:Drivers/CMSIS/Include/cmsis_gcc.h **** 
 130:Drivers/CMSIS/Include/cmsis_gcc.h ****  */
 131:Drivers/CMSIS/Include/cmsis_gcc.h **** __STATIC_FORCEINLINE __NO_RETURN void __cmsis_start(void)
 132:Drivers/CMSIS/Include/cmsis_gcc.h **** {
 133:Drivers/CMSIS/Include/cmsis_gcc.h ****   extern void _start(void) __NO_RETURN;
 134:Drivers/CMSIS/Include/cmsis_gcc.h **** 
 135:Drivers/CMSIS/Include/cmsis_gcc.h ****   typedef struct {
 136:Drivers/CMSIS/Include/cmsis_gcc.h ****     uint32_t const* src;
 137:Drivers/CMSIS/Include/cmsis_gcc.h ****     uint32_t* dest;
 138:Drivers/CMSIS/Include/cmsis_gcc.h ****     uint32_t  wlen;
 139:Drivers/CMSIS/Include/cmsis_gcc.h ****   } __copy_table_t;
 140:Drivers/CMSIS/Include/cmsis_gcc.h **** 
 141:Drivers/CMSIS/Include/cmsis_gcc.h ****   typedef struct {
 142:Drivers/CMSIS/Include/cmsis_gcc.h ****     uint32_t* dest;
 143:Drivers/CMSIS/Include/cmsis_gcc.h ****     uint32_t  wlen;
 144:Drivers/CMSIS/Include/cmsis_gcc.h ****   } __zero_table_t;
 145:Drivers/CMSIS/Include/cmsis_gcc.h **** 
 146:Drivers/CMSIS/Include/cmsis_gcc.h ****   extern const __copy_table_t __copy_table_start__;
 147:Drivers/CMSIS/Include/cmsis_gcc.h ****   extern const __copy_table_t __copy_table_end__;
 148:Drivers/CMSIS/Include/cmsis_gcc.h ****   extern const __zero_table_t __zero_table_start__;
 149:Drivers/CMSIS/Include/cmsis_gcc.h ****   extern const __zero_table_t __zero_table_end__;
 150:Drivers/CMSIS/Include/cmsis_gcc.h **** 
 151:Drivers/CMSIS/Include/cmsis_gcc.h ****   for (__copy_table_t const* pTable = &__copy_table_start__; pTable < &__copy_table_end__; ++pTable
 152:Drivers/CMSIS/Include/cmsis_gcc.h ****     for(uint32_t i=0u; i<pTable->wlen; ++i) {
 153:Drivers/CMSIS/Include/cmsis_gcc.h ****       pTable->dest[i] = pTable->src[i];
 154:Drivers/CMSIS/Include/cmsis_gcc.h ****     }
 155:Drivers/CMSIS/Include/cmsis_gcc.h ****   }
 156:Drivers/CMSIS/Include/cmsis_gcc.h **** 
 157:Drivers/CMSIS/Include/cmsis_gcc.h ****   for (__zero_table_t const* pTable = &__zero_table_start__; pTable < &__zero_table_end__; ++pTable
 158:Drivers/CMSIS/Include/cmsis_gcc.h ****     for(uint32_t i=0u; i<pTable->wlen; ++i) {
 159:Drivers/CMSIS/Include/cmsis_gcc.h ****       pTable->dest[i] = 0u;
ARM GAS  C:\Users\Rick\AppData\Local\Temp\cck9vz6U.s 			page 62


 160:Drivers/CMSIS/Include/cmsis_gcc.h ****     }
 161:Drivers/CMSIS/Include/cmsis_gcc.h ****   }
 162:Drivers/CMSIS/Include/cmsis_gcc.h **** 
 163:Drivers/CMSIS/Include/cmsis_gcc.h ****   _start();
 164:Drivers/CMSIS/Include/cmsis_gcc.h **** }
 165:Drivers/CMSIS/Include/cmsis_gcc.h **** 
 166:Drivers/CMSIS/Include/cmsis_gcc.h **** #define __PROGRAM_START           __cmsis_start
 167:Drivers/CMSIS/Include/cmsis_gcc.h **** #endif
 168:Drivers/CMSIS/Include/cmsis_gcc.h **** 
 169:Drivers/CMSIS/Include/cmsis_gcc.h **** #ifndef __INITIAL_SP
 170:Drivers/CMSIS/Include/cmsis_gcc.h **** #define __INITIAL_SP              __StackTop
 171:Drivers/CMSIS/Include/cmsis_gcc.h **** #endif
 172:Drivers/CMSIS/Include/cmsis_gcc.h **** 
 173:Drivers/CMSIS/Include/cmsis_gcc.h **** #ifndef __STACK_LIMIT
 174:Drivers/CMSIS/Include/cmsis_gcc.h **** #define __STACK_LIMIT             __StackLimit
 175:Drivers/CMSIS/Include/cmsis_gcc.h **** #endif
 176:Drivers/CMSIS/Include/cmsis_gcc.h **** 
 177:Drivers/CMSIS/Include/cmsis_gcc.h **** #ifndef __VECTOR_TABLE
 178:Drivers/CMSIS/Include/cmsis_gcc.h **** #define __VECTOR_TABLE            __Vectors
 179:Drivers/CMSIS/Include/cmsis_gcc.h **** #endif
 180:Drivers/CMSIS/Include/cmsis_gcc.h **** 
 181:Drivers/CMSIS/Include/cmsis_gcc.h **** #ifndef __VECTOR_TABLE_ATTRIBUTE
 182:Drivers/CMSIS/Include/cmsis_gcc.h **** #define __VECTOR_TABLE_ATTRIBUTE  __attribute__((used, section(".vectors")))
 183:Drivers/CMSIS/Include/cmsis_gcc.h **** #endif
 184:Drivers/CMSIS/Include/cmsis_gcc.h **** 
 185:Drivers/CMSIS/Include/cmsis_gcc.h **** #if defined (__ARM_FEATURE_CMSE) && (__ARM_FEATURE_CMSE == 3U)
 186:Drivers/CMSIS/Include/cmsis_gcc.h **** #ifndef __STACK_SEAL
 187:Drivers/CMSIS/Include/cmsis_gcc.h **** #define __STACK_SEAL              __StackSeal
 188:Drivers/CMSIS/Include/cmsis_gcc.h **** #endif
 189:Drivers/CMSIS/Include/cmsis_gcc.h **** 
 190:Drivers/CMSIS/Include/cmsis_gcc.h **** #ifndef __TZ_STACK_SEAL_SIZE
 191:Drivers/CMSIS/Include/cmsis_gcc.h **** #define __TZ_STACK_SEAL_SIZE      8U
 192:Drivers/CMSIS/Include/cmsis_gcc.h **** #endif
 193:Drivers/CMSIS/Include/cmsis_gcc.h **** 
 194:Drivers/CMSIS/Include/cmsis_gcc.h **** #ifndef __TZ_STACK_SEAL_VALUE
 195:Drivers/CMSIS/Include/cmsis_gcc.h **** #define __TZ_STACK_SEAL_VALUE     0xFEF5EDA5FEF5EDA5ULL
 196:Drivers/CMSIS/Include/cmsis_gcc.h **** #endif
 197:Drivers/CMSIS/Include/cmsis_gcc.h **** 
 198:Drivers/CMSIS/Include/cmsis_gcc.h **** 
 199:Drivers/CMSIS/Include/cmsis_gcc.h **** __STATIC_FORCEINLINE void __TZ_set_STACKSEAL_S (uint32_t* stackTop) {
 200:Drivers/CMSIS/Include/cmsis_gcc.h ****   *((uint64_t *)stackTop) = __TZ_STACK_SEAL_VALUE;
 201:Drivers/CMSIS/Include/cmsis_gcc.h **** }
 202:Drivers/CMSIS/Include/cmsis_gcc.h **** #endif
 203:Drivers/CMSIS/Include/cmsis_gcc.h **** 
 204:Drivers/CMSIS/Include/cmsis_gcc.h **** 
 205:Drivers/CMSIS/Include/cmsis_gcc.h **** /* ##########################  Core Instruction Access  ######################### */
 206:Drivers/CMSIS/Include/cmsis_gcc.h **** /** \defgroup CMSIS_Core_InstructionInterface CMSIS Core Instruction Interface
 207:Drivers/CMSIS/Include/cmsis_gcc.h ****   Access to dedicated instructions
 208:Drivers/CMSIS/Include/cmsis_gcc.h ****   @{
 209:Drivers/CMSIS/Include/cmsis_gcc.h **** */
 210:Drivers/CMSIS/Include/cmsis_gcc.h **** 
 211:Drivers/CMSIS/Include/cmsis_gcc.h **** /* Define macros for porting to both thumb1 and thumb2.
 212:Drivers/CMSIS/Include/cmsis_gcc.h ****  * For thumb1, use low register (r0-r7), specified by constraint "l"
 213:Drivers/CMSIS/Include/cmsis_gcc.h ****  * Otherwise, use general registers, specified by constraint "r" */
 214:Drivers/CMSIS/Include/cmsis_gcc.h **** #if defined (__thumb__) && !defined (__thumb2__)
 215:Drivers/CMSIS/Include/cmsis_gcc.h **** #define __CMSIS_GCC_OUT_REG(r) "=l" (r)
 216:Drivers/CMSIS/Include/cmsis_gcc.h **** #define __CMSIS_GCC_RW_REG(r) "+l" (r)
ARM GAS  C:\Users\Rick\AppData\Local\Temp\cck9vz6U.s 			page 63


 217:Drivers/CMSIS/Include/cmsis_gcc.h **** #define __CMSIS_GCC_USE_REG(r) "l" (r)
 218:Drivers/CMSIS/Include/cmsis_gcc.h **** #else
 219:Drivers/CMSIS/Include/cmsis_gcc.h **** #define __CMSIS_GCC_OUT_REG(r) "=r" (r)
 220:Drivers/CMSIS/Include/cmsis_gcc.h **** #define __CMSIS_GCC_RW_REG(r) "+r" (r)
 221:Drivers/CMSIS/Include/cmsis_gcc.h **** #define __CMSIS_GCC_USE_REG(r) "r" (r)
 222:Drivers/CMSIS/Include/cmsis_gcc.h **** #endif
 223:Drivers/CMSIS/Include/cmsis_gcc.h **** 
 224:Drivers/CMSIS/Include/cmsis_gcc.h **** /**
 225:Drivers/CMSIS/Include/cmsis_gcc.h ****   \brief   No Operation
 226:Drivers/CMSIS/Include/cmsis_gcc.h ****   \details No Operation does nothing. This instruction can be used for code alignment purposes.
 227:Drivers/CMSIS/Include/cmsis_gcc.h ****  */
 228:Drivers/CMSIS/Include/cmsis_gcc.h **** #define __NOP()                             __ASM volatile ("nop")
 229:Drivers/CMSIS/Include/cmsis_gcc.h **** 
 230:Drivers/CMSIS/Include/cmsis_gcc.h **** /**
 231:Drivers/CMSIS/Include/cmsis_gcc.h ****   \brief   Wait For Interrupt
 232:Drivers/CMSIS/Include/cmsis_gcc.h ****   \details Wait For Interrupt is a hint instruction that suspends execution until one of a number o
 233:Drivers/CMSIS/Include/cmsis_gcc.h ****  */
 234:Drivers/CMSIS/Include/cmsis_gcc.h **** #define __WFI()                             __ASM volatile ("wfi":::"memory")
 235:Drivers/CMSIS/Include/cmsis_gcc.h **** 
 236:Drivers/CMSIS/Include/cmsis_gcc.h **** 
 237:Drivers/CMSIS/Include/cmsis_gcc.h **** /**
 238:Drivers/CMSIS/Include/cmsis_gcc.h ****   \brief   Wait For Event
 239:Drivers/CMSIS/Include/cmsis_gcc.h ****   \details Wait For Event is a hint instruction that permits the processor to enter
 240:Drivers/CMSIS/Include/cmsis_gcc.h ****            a low-power state until one of a number of events occurs.
 241:Drivers/CMSIS/Include/cmsis_gcc.h ****  */
 242:Drivers/CMSIS/Include/cmsis_gcc.h **** #define __WFE()                             __ASM volatile ("wfe":::"memory")
 243:Drivers/CMSIS/Include/cmsis_gcc.h **** 
 244:Drivers/CMSIS/Include/cmsis_gcc.h **** 
 245:Drivers/CMSIS/Include/cmsis_gcc.h **** /**
 246:Drivers/CMSIS/Include/cmsis_gcc.h ****   \brief   Send Event
 247:Drivers/CMSIS/Include/cmsis_gcc.h ****   \details Send Event is a hint instruction. It causes an event to be signaled to the CPU.
 248:Drivers/CMSIS/Include/cmsis_gcc.h ****  */
 249:Drivers/CMSIS/Include/cmsis_gcc.h **** #define __SEV()                             __ASM volatile ("sev")
 250:Drivers/CMSIS/Include/cmsis_gcc.h **** 
 251:Drivers/CMSIS/Include/cmsis_gcc.h **** 
 252:Drivers/CMSIS/Include/cmsis_gcc.h **** /**
 253:Drivers/CMSIS/Include/cmsis_gcc.h ****   \brief   Instruction Synchronization Barrier
 254:Drivers/CMSIS/Include/cmsis_gcc.h ****   \details Instruction Synchronization Barrier flushes the pipeline in the processor,
 255:Drivers/CMSIS/Include/cmsis_gcc.h ****            so that all instructions following the ISB are fetched from cache or memory,
 256:Drivers/CMSIS/Include/cmsis_gcc.h ****            after the instruction has been completed.
 257:Drivers/CMSIS/Include/cmsis_gcc.h ****  */
 258:Drivers/CMSIS/Include/cmsis_gcc.h **** __STATIC_FORCEINLINE void __ISB(void)
 259:Drivers/CMSIS/Include/cmsis_gcc.h **** {
 260:Drivers/CMSIS/Include/cmsis_gcc.h ****   __ASM volatile ("isb 0xF":::"memory");
 261:Drivers/CMSIS/Include/cmsis_gcc.h **** }
 262:Drivers/CMSIS/Include/cmsis_gcc.h **** 
 263:Drivers/CMSIS/Include/cmsis_gcc.h **** 
 264:Drivers/CMSIS/Include/cmsis_gcc.h **** /**
 265:Drivers/CMSIS/Include/cmsis_gcc.h ****   \brief   Data Synchronization Barrier
 266:Drivers/CMSIS/Include/cmsis_gcc.h ****   \details Acts as a special kind of Data Memory Barrier.
 267:Drivers/CMSIS/Include/cmsis_gcc.h ****            It completes when all explicit memory accesses before this instruction complete.
 268:Drivers/CMSIS/Include/cmsis_gcc.h ****  */
 269:Drivers/CMSIS/Include/cmsis_gcc.h **** __STATIC_FORCEINLINE void __DSB(void)
 270:Drivers/CMSIS/Include/cmsis_gcc.h **** {
 271:Drivers/CMSIS/Include/cmsis_gcc.h ****   __ASM volatile ("dsb 0xF":::"memory");
 272:Drivers/CMSIS/Include/cmsis_gcc.h **** }
 273:Drivers/CMSIS/Include/cmsis_gcc.h **** 
ARM GAS  C:\Users\Rick\AppData\Local\Temp\cck9vz6U.s 			page 64


 274:Drivers/CMSIS/Include/cmsis_gcc.h **** 
 275:Drivers/CMSIS/Include/cmsis_gcc.h **** /**
 276:Drivers/CMSIS/Include/cmsis_gcc.h ****   \brief   Data Memory Barrier
 277:Drivers/CMSIS/Include/cmsis_gcc.h ****   \details Ensures the apparent order of the explicit memory operations before
 278:Drivers/CMSIS/Include/cmsis_gcc.h ****            and after the instruction, without ensuring their completion.
 279:Drivers/CMSIS/Include/cmsis_gcc.h ****  */
 280:Drivers/CMSIS/Include/cmsis_gcc.h **** __STATIC_FORCEINLINE void __DMB(void)
 281:Drivers/CMSIS/Include/cmsis_gcc.h **** {
 282:Drivers/CMSIS/Include/cmsis_gcc.h ****   __ASM volatile ("dmb 0xF":::"memory");
 283:Drivers/CMSIS/Include/cmsis_gcc.h **** }
 284:Drivers/CMSIS/Include/cmsis_gcc.h **** 
 285:Drivers/CMSIS/Include/cmsis_gcc.h **** 
 286:Drivers/CMSIS/Include/cmsis_gcc.h **** /**
 287:Drivers/CMSIS/Include/cmsis_gcc.h ****   \brief   Reverse byte order (32 bit)
 288:Drivers/CMSIS/Include/cmsis_gcc.h ****   \details Reverses the byte order in unsigned integer value. For example, 0x12345678 becomes 0x785
 289:Drivers/CMSIS/Include/cmsis_gcc.h ****   \param [in]    value  Value to reverse
 290:Drivers/CMSIS/Include/cmsis_gcc.h ****   \return               Reversed value
 291:Drivers/CMSIS/Include/cmsis_gcc.h ****  */
 292:Drivers/CMSIS/Include/cmsis_gcc.h **** __STATIC_FORCEINLINE uint32_t __REV(uint32_t value)
 293:Drivers/CMSIS/Include/cmsis_gcc.h **** {
 294:Drivers/CMSIS/Include/cmsis_gcc.h **** #if (__GNUC__ > 4) || (__GNUC__ == 4 && __GNUC_MINOR__ >= 5)
 295:Drivers/CMSIS/Include/cmsis_gcc.h ****   return __builtin_bswap32(value);
 296:Drivers/CMSIS/Include/cmsis_gcc.h **** #else
 297:Drivers/CMSIS/Include/cmsis_gcc.h ****   uint32_t result;
 298:Drivers/CMSIS/Include/cmsis_gcc.h **** 
 299:Drivers/CMSIS/Include/cmsis_gcc.h ****   __ASM ("rev %0, %1" : __CMSIS_GCC_OUT_REG (result) : __CMSIS_GCC_USE_REG (value) );
 300:Drivers/CMSIS/Include/cmsis_gcc.h ****   return result;
 301:Drivers/CMSIS/Include/cmsis_gcc.h **** #endif
 302:Drivers/CMSIS/Include/cmsis_gcc.h **** }
 303:Drivers/CMSIS/Include/cmsis_gcc.h **** 
 304:Drivers/CMSIS/Include/cmsis_gcc.h **** 
 305:Drivers/CMSIS/Include/cmsis_gcc.h **** /**
 306:Drivers/CMSIS/Include/cmsis_gcc.h ****   \brief   Reverse byte order (16 bit)
 307:Drivers/CMSIS/Include/cmsis_gcc.h ****   \details Reverses the byte order within each halfword of a word. For example, 0x12345678 becomes 
 308:Drivers/CMSIS/Include/cmsis_gcc.h ****   \param [in]    value  Value to reverse
 309:Drivers/CMSIS/Include/cmsis_gcc.h ****   \return               Reversed value
 310:Drivers/CMSIS/Include/cmsis_gcc.h ****  */
 311:Drivers/CMSIS/Include/cmsis_gcc.h **** __STATIC_FORCEINLINE uint32_t __REV16(uint32_t value)
 312:Drivers/CMSIS/Include/cmsis_gcc.h **** {
 313:Drivers/CMSIS/Include/cmsis_gcc.h ****   uint32_t result;
 314:Drivers/CMSIS/Include/cmsis_gcc.h **** 
 315:Drivers/CMSIS/Include/cmsis_gcc.h ****   __ASM ("rev16 %0, %1" : __CMSIS_GCC_OUT_REG (result) : __CMSIS_GCC_USE_REG (value) );
 316:Drivers/CMSIS/Include/cmsis_gcc.h ****   return result;
 317:Drivers/CMSIS/Include/cmsis_gcc.h **** }
 318:Drivers/CMSIS/Include/cmsis_gcc.h **** 
 319:Drivers/CMSIS/Include/cmsis_gcc.h **** 
 320:Drivers/CMSIS/Include/cmsis_gcc.h **** /**
 321:Drivers/CMSIS/Include/cmsis_gcc.h ****   \brief   Reverse byte order (16 bit)
 322:Drivers/CMSIS/Include/cmsis_gcc.h ****   \details Reverses the byte order in a 16-bit value and returns the signed 16-bit result. For exam
 323:Drivers/CMSIS/Include/cmsis_gcc.h ****   \param [in]    value  Value to reverse
 324:Drivers/CMSIS/Include/cmsis_gcc.h ****   \return               Reversed value
 325:Drivers/CMSIS/Include/cmsis_gcc.h ****  */
 326:Drivers/CMSIS/Include/cmsis_gcc.h **** __STATIC_FORCEINLINE int16_t __REVSH(int16_t value)
 327:Drivers/CMSIS/Include/cmsis_gcc.h **** {
 328:Drivers/CMSIS/Include/cmsis_gcc.h **** #if (__GNUC__ > 4) || (__GNUC__ == 4 && __GNUC_MINOR__ >= 8)
 329:Drivers/CMSIS/Include/cmsis_gcc.h ****   return (int16_t)__builtin_bswap16(value);
 330:Drivers/CMSIS/Include/cmsis_gcc.h **** #else
ARM GAS  C:\Users\Rick\AppData\Local\Temp\cck9vz6U.s 			page 65


 331:Drivers/CMSIS/Include/cmsis_gcc.h ****   int16_t result;
 332:Drivers/CMSIS/Include/cmsis_gcc.h **** 
 333:Drivers/CMSIS/Include/cmsis_gcc.h ****   __ASM ("revsh %0, %1" : __CMSIS_GCC_OUT_REG (result) : __CMSIS_GCC_USE_REG (value) );
 334:Drivers/CMSIS/Include/cmsis_gcc.h ****   return result;
 335:Drivers/CMSIS/Include/cmsis_gcc.h **** #endif
 336:Drivers/CMSIS/Include/cmsis_gcc.h **** }
 337:Drivers/CMSIS/Include/cmsis_gcc.h **** 
 338:Drivers/CMSIS/Include/cmsis_gcc.h **** 
 339:Drivers/CMSIS/Include/cmsis_gcc.h **** /**
 340:Drivers/CMSIS/Include/cmsis_gcc.h ****   \brief   Rotate Right in unsigned value (32 bit)
 341:Drivers/CMSIS/Include/cmsis_gcc.h ****   \details Rotate Right (immediate) provides the value of the contents of a register rotated by a v
 342:Drivers/CMSIS/Include/cmsis_gcc.h ****   \param [in]    op1  Value to rotate
 343:Drivers/CMSIS/Include/cmsis_gcc.h ****   \param [in]    op2  Number of Bits to rotate
 344:Drivers/CMSIS/Include/cmsis_gcc.h ****   \return               Rotated value
 345:Drivers/CMSIS/Include/cmsis_gcc.h ****  */
 346:Drivers/CMSIS/Include/cmsis_gcc.h **** __STATIC_FORCEINLINE uint32_t __ROR(uint32_t op1, uint32_t op2)
 347:Drivers/CMSIS/Include/cmsis_gcc.h **** {
 348:Drivers/CMSIS/Include/cmsis_gcc.h ****   op2 %= 32U;
 349:Drivers/CMSIS/Include/cmsis_gcc.h ****   if (op2 == 0U)
 350:Drivers/CMSIS/Include/cmsis_gcc.h ****   {
 351:Drivers/CMSIS/Include/cmsis_gcc.h ****     return op1;
 352:Drivers/CMSIS/Include/cmsis_gcc.h ****   }
 353:Drivers/CMSIS/Include/cmsis_gcc.h ****   return (op1 >> op2) | (op1 << (32U - op2));
 354:Drivers/CMSIS/Include/cmsis_gcc.h **** }
 355:Drivers/CMSIS/Include/cmsis_gcc.h **** 
 356:Drivers/CMSIS/Include/cmsis_gcc.h **** 
 357:Drivers/CMSIS/Include/cmsis_gcc.h **** /**
 358:Drivers/CMSIS/Include/cmsis_gcc.h ****   \brief   Breakpoint
 359:Drivers/CMSIS/Include/cmsis_gcc.h ****   \details Causes the processor to enter Debug state.
 360:Drivers/CMSIS/Include/cmsis_gcc.h ****            Debug tools can use this to investigate system state when the instruction at a particula
 361:Drivers/CMSIS/Include/cmsis_gcc.h ****   \param [in]    value  is ignored by the processor.
 362:Drivers/CMSIS/Include/cmsis_gcc.h ****                  If required, a debugger can use it to store additional information about the break
 363:Drivers/CMSIS/Include/cmsis_gcc.h ****  */
 364:Drivers/CMSIS/Include/cmsis_gcc.h **** #define __BKPT(value)                       __ASM volatile ("bkpt "#value)
 365:Drivers/CMSIS/Include/cmsis_gcc.h **** 
 366:Drivers/CMSIS/Include/cmsis_gcc.h **** 
 367:Drivers/CMSIS/Include/cmsis_gcc.h **** /**
 368:Drivers/CMSIS/Include/cmsis_gcc.h ****   \brief   Reverse bit order of value
 369:Drivers/CMSIS/Include/cmsis_gcc.h ****   \details Reverses the bit order of the given value.
 370:Drivers/CMSIS/Include/cmsis_gcc.h ****   \param [in]    value  Value to reverse
 371:Drivers/CMSIS/Include/cmsis_gcc.h ****   \return               Reversed value
 372:Drivers/CMSIS/Include/cmsis_gcc.h ****  */
 373:Drivers/CMSIS/Include/cmsis_gcc.h **** __STATIC_FORCEINLINE uint32_t __RBIT(uint32_t value)
 1559              		.loc 2 373 31 view .LVU510
 1560              	.LBB7:
 374:Drivers/CMSIS/Include/cmsis_gcc.h **** {
 375:Drivers/CMSIS/Include/cmsis_gcc.h ****   uint32_t result;
 1561              		.loc 2 375 3 view .LVU511
 376:Drivers/CMSIS/Include/cmsis_gcc.h **** 
 377:Drivers/CMSIS/Include/cmsis_gcc.h **** #if ((defined (__ARM_ARCH_7M__      ) && (__ARM_ARCH_7M__      == 1)) || \
 378:Drivers/CMSIS/Include/cmsis_gcc.h ****      (defined (__ARM_ARCH_7EM__     ) && (__ARM_ARCH_7EM__     == 1)) || \
 379:Drivers/CMSIS/Include/cmsis_gcc.h ****      (defined (__ARM_ARCH_8M_MAIN__ ) && (__ARM_ARCH_8M_MAIN__ == 1))    )
 380:Drivers/CMSIS/Include/cmsis_gcc.h ****    __ASM ("rbit %0, %1" : "=r" (result) : "r" (value) );
 1562              		.loc 2 380 4 view .LVU512
 1563              		.syntax unified
 1564              	@ 380 "Drivers/CMSIS/Include/cmsis_gcc.h" 1
 1565 0010 91FAA1F1 		rbit r1, r1
ARM GAS  C:\Users\Rick\AppData\Local\Temp\cck9vz6U.s 			page 66


 1566              	@ 0 "" 2
 1567              	.LVL121:
 381:Drivers/CMSIS/Include/cmsis_gcc.h **** #else
 382:Drivers/CMSIS/Include/cmsis_gcc.h ****   uint32_t s = (4U /*sizeof(v)*/ * 8U) - 1U; /* extra shift needed at end */
 383:Drivers/CMSIS/Include/cmsis_gcc.h **** 
 384:Drivers/CMSIS/Include/cmsis_gcc.h ****   result = value;                      /* r will be reversed bits of v; first get LSB of v */
 385:Drivers/CMSIS/Include/cmsis_gcc.h ****   for (value >>= 1U; value != 0U; value >>= 1U)
 386:Drivers/CMSIS/Include/cmsis_gcc.h ****   {
 387:Drivers/CMSIS/Include/cmsis_gcc.h ****     result <<= 1U;
 388:Drivers/CMSIS/Include/cmsis_gcc.h ****     result |= value & 1U;
 389:Drivers/CMSIS/Include/cmsis_gcc.h ****     s--;
 390:Drivers/CMSIS/Include/cmsis_gcc.h ****   }
 391:Drivers/CMSIS/Include/cmsis_gcc.h ****   result <<= s;                        /* shift when v's highest bits are zero */
 392:Drivers/CMSIS/Include/cmsis_gcc.h **** #endif
 393:Drivers/CMSIS/Include/cmsis_gcc.h ****   return result;
 1568              		.loc 2 393 3 view .LVU513
 1569              		.loc 2 393 3 is_stmt 0 view .LVU514
 1570              		.thumb
 1571              		.syntax unified
 1572              	.LBE7:
 1573              	.LBE6:
 1574              	.LBB8:
 1575              	.LBI8:
 394:Drivers/CMSIS/Include/cmsis_gcc.h **** }
 395:Drivers/CMSIS/Include/cmsis_gcc.h **** 
 396:Drivers/CMSIS/Include/cmsis_gcc.h **** 
 397:Drivers/CMSIS/Include/cmsis_gcc.h **** /**
 398:Drivers/CMSIS/Include/cmsis_gcc.h ****   \brief   Count leading zeros
 399:Drivers/CMSIS/Include/cmsis_gcc.h ****   \details Counts the number of leading zeros of a data value.
 400:Drivers/CMSIS/Include/cmsis_gcc.h ****   \param [in]  value  Value to count the leading zeros
 401:Drivers/CMSIS/Include/cmsis_gcc.h ****   \return             number of leading zeros in value
 402:Drivers/CMSIS/Include/cmsis_gcc.h ****  */
 403:Drivers/CMSIS/Include/cmsis_gcc.h **** __STATIC_FORCEINLINE uint8_t __CLZ(uint32_t value)
 1576              		.loc 2 403 30 is_stmt 1 view .LVU515
 1577              	.LBB9:
 404:Drivers/CMSIS/Include/cmsis_gcc.h **** {
 405:Drivers/CMSIS/Include/cmsis_gcc.h ****   /* Even though __builtin_clz produces a CLZ instruction on ARM, formally
 406:Drivers/CMSIS/Include/cmsis_gcc.h ****      __builtin_clz(0) is undefined behaviour, so handle this case specially.
 407:Drivers/CMSIS/Include/cmsis_gcc.h ****      This guarantees ARM-compatible results if happening to compile on a non-ARM
 408:Drivers/CMSIS/Include/cmsis_gcc.h ****      target, and ensures the compiler doesn't decide to activate any
 409:Drivers/CMSIS/Include/cmsis_gcc.h ****      optimisations using the logic "value was passed to __builtin_clz, so it
 410:Drivers/CMSIS/Include/cmsis_gcc.h ****      is non-zero".
 411:Drivers/CMSIS/Include/cmsis_gcc.h ****      ARM GCC 7.3 and possibly earlier will optimise this test away, leaving a
 412:Drivers/CMSIS/Include/cmsis_gcc.h ****      single CLZ instruction.
 413:Drivers/CMSIS/Include/cmsis_gcc.h ****    */
 414:Drivers/CMSIS/Include/cmsis_gcc.h ****   if (value == 0U)
 1578              		.loc 2 414 3 view .LVU516
 1579              		.loc 2 414 6 is_stmt 0 view .LVU517
 1580 0014 41B1     		cbz	r1, .L129
 415:Drivers/CMSIS/Include/cmsis_gcc.h ****   {
 416:Drivers/CMSIS/Include/cmsis_gcc.h ****     return 32U;
 417:Drivers/CMSIS/Include/cmsis_gcc.h ****   }
 418:Drivers/CMSIS/Include/cmsis_gcc.h ****   return __builtin_clz(value);
 1581              		.loc 2 418 3 is_stmt 1 view .LVU518
 1582              		.loc 2 418 10 is_stmt 0 discriminator 1 view .LVU519
 1583 0016 B1FA81F1 		clz	r1, r1
 1584              	.LVL122:
ARM GAS  C:\Users\Rick\AppData\Local\Temp\cck9vz6U.s 			page 67


 1585              	.L127:
 1586              		.loc 2 418 10 discriminator 1 view .LVU520
 1587              	.LBE9:
 1588              	.LBE8:
1490:Drivers/STM32F4xx_HAL_Driver/Src/stm32f4xx_hal_can.c ****   }
 1589              		.loc 1 1490 5 is_stmt 1 view .LVU521
1490:Drivers/STM32F4xx_HAL_Driver/Src/stm32f4xx_hal_can.c ****   }
 1590              		.loc 1 1490 22 is_stmt 0 view .LVU522
 1591 001a 0368     		ldr	r3, [r0]
1490:Drivers/STM32F4xx_HAL_Driver/Src/stm32f4xx_hal_can.c ****   }
 1592              		.loc 1 1490 61 view .LVU523
 1593 001c 1831     		adds	r1, r1, #24
 1594              	.LVL123:
1490:Drivers/STM32F4xx_HAL_Driver/Src/stm32f4xx_hal_can.c ****   }
 1595              		.loc 1 1490 61 view .LVU524
 1596 001e 03EB0113 		add	r3, r3, r1, lsl #4
 1597 0022 5868     		ldr	r0, [r3, #4]
 1598              	.LVL124:
1490:Drivers/STM32F4xx_HAL_Driver/Src/stm32f4xx_hal_can.c ****   }
 1599              		.loc 1 1490 85 view .LVU525
 1600 0024 000C     		lsrs	r0, r0, #16
 1601              	.LVL125:
1490:Drivers/STM32F4xx_HAL_Driver/Src/stm32f4xx_hal_can.c ****   }
 1602              		.loc 1 1490 85 view .LVU526
 1603 0026 7047     		bx	lr
 1604              	.LVL126:
 1605              	.L129:
 1606              	.LBB11:
 1607              	.LBB10:
 416:Drivers/CMSIS/Include/cmsis_gcc.h ****   }
 1608              		.loc 2 416 12 view .LVU527
 1609 0028 2021     		movs	r1, #32
 1610              	.LVL127:
 416:Drivers/CMSIS/Include/cmsis_gcc.h ****   }
 1611              		.loc 2 416 12 view .LVU528
 1612 002a F6E7     		b	.L127
 1613              	.LBE10:
 1614              	.LBE11:
 1615              		.cfi_endproc
 1616              	.LFE253:
 1618              		.section	.text.HAL_CAN_GetRxMessage,"ax",%progbits
 1619              		.align	1
 1620              		.global	HAL_CAN_GetRxMessage
 1621              		.syntax unified
 1622              		.thumb
 1623              		.thumb_func
 1625              	HAL_CAN_GetRxMessage:
 1626              	.LVL128:
 1627              	.LFB254:
1496:Drivers/STM32F4xx_HAL_Driver/Src/stm32f4xx_hal_can.c **** 
1497:Drivers/STM32F4xx_HAL_Driver/Src/stm32f4xx_hal_can.c **** /**
1498:Drivers/STM32F4xx_HAL_Driver/Src/stm32f4xx_hal_can.c ****   * @brief  Get an CAN frame from the Rx FIFO zone into the message RAM.
1499:Drivers/STM32F4xx_HAL_Driver/Src/stm32f4xx_hal_can.c ****   * @param  hcan pointer to an CAN_HandleTypeDef structure that contains
1500:Drivers/STM32F4xx_HAL_Driver/Src/stm32f4xx_hal_can.c ****   *         the configuration information for the specified CAN.
1501:Drivers/STM32F4xx_HAL_Driver/Src/stm32f4xx_hal_can.c ****   * @param  RxFifo Fifo number of the received message to be read.
1502:Drivers/STM32F4xx_HAL_Driver/Src/stm32f4xx_hal_can.c ****   *         This parameter can be a value of @arg CAN_receive_FIFO_number.
1503:Drivers/STM32F4xx_HAL_Driver/Src/stm32f4xx_hal_can.c ****   * @param  pHeader pointer to a CAN_RxHeaderTypeDef structure where the header
ARM GAS  C:\Users\Rick\AppData\Local\Temp\cck9vz6U.s 			page 68


1504:Drivers/STM32F4xx_HAL_Driver/Src/stm32f4xx_hal_can.c ****   *         of the Rx frame will be stored.
1505:Drivers/STM32F4xx_HAL_Driver/Src/stm32f4xx_hal_can.c ****   * @param  aData array where the payload of the Rx frame will be stored.
1506:Drivers/STM32F4xx_HAL_Driver/Src/stm32f4xx_hal_can.c ****   * @retval HAL status
1507:Drivers/STM32F4xx_HAL_Driver/Src/stm32f4xx_hal_can.c ****   */
1508:Drivers/STM32F4xx_HAL_Driver/Src/stm32f4xx_hal_can.c **** HAL_StatusTypeDef HAL_CAN_GetRxMessage(CAN_HandleTypeDef *hcan, uint32_t RxFifo,
1509:Drivers/STM32F4xx_HAL_Driver/Src/stm32f4xx_hal_can.c ****                                        CAN_RxHeaderTypeDef *pHeader, uint8_t aData[])
1510:Drivers/STM32F4xx_HAL_Driver/Src/stm32f4xx_hal_can.c **** {
 1628              		.loc 1 1510 1 is_stmt 1 view -0
 1629              		.cfi_startproc
 1630              		@ args = 0, pretend = 0, frame = 0
 1631              		@ frame_needed = 0, uses_anonymous_args = 0
 1632              		@ link register save eliminated.
1511:Drivers/STM32F4xx_HAL_Driver/Src/stm32f4xx_hal_can.c ****   HAL_CAN_StateTypeDef state = hcan->State;
 1633              		.loc 1 1511 3 view .LVU530
 1634              		.loc 1 1511 24 is_stmt 0 view .LVU531
 1635 0000 90F820C0 		ldrb	ip, [r0, #32]	@ zero_extendqisi2
 1636              	.LVL129:
1512:Drivers/STM32F4xx_HAL_Driver/Src/stm32f4xx_hal_can.c **** 
1513:Drivers/STM32F4xx_HAL_Driver/Src/stm32f4xx_hal_can.c ****   assert_param(IS_CAN_RX_FIFO(RxFifo));
 1637              		.loc 1 1513 3 is_stmt 1 view .LVU532
1514:Drivers/STM32F4xx_HAL_Driver/Src/stm32f4xx_hal_can.c **** 
1515:Drivers/STM32F4xx_HAL_Driver/Src/stm32f4xx_hal_can.c ****   if ((state == HAL_CAN_STATE_READY) ||
 1638              		.loc 1 1515 3 view .LVU533
 1639              		.loc 1 1515 38 is_stmt 0 view .LVU534
 1640 0004 0CF1FF3C 		add	ip, ip, #-1
 1641              	.LVL130:
 1642              		.loc 1 1515 38 view .LVU535
 1643 0008 5FFA8CFC 		uxtb	ip, ip
 1644              	.LVL131:
 1645              		.loc 1 1515 6 view .LVU536
 1646 000c BCF1010F 		cmp	ip, #1
 1647 0010 00F2A580 		bhi	.L132
1510:Drivers/STM32F4xx_HAL_Driver/Src/stm32f4xx_hal_can.c ****   HAL_CAN_StateTypeDef state = hcan->State;
 1648              		.loc 1 1510 1 view .LVU537
 1649 0014 30B4     		push	{r4, r5}
 1650              		.cfi_def_cfa_offset 8
 1651              		.cfi_offset 4, -8
 1652              		.cfi_offset 5, -4
1516:Drivers/STM32F4xx_HAL_Driver/Src/stm32f4xx_hal_can.c ****       (state == HAL_CAN_STATE_LISTENING))
1517:Drivers/STM32F4xx_HAL_Driver/Src/stm32f4xx_hal_can.c ****   {
1518:Drivers/STM32F4xx_HAL_Driver/Src/stm32f4xx_hal_can.c ****     /* Check the Rx FIFO */
1519:Drivers/STM32F4xx_HAL_Driver/Src/stm32f4xx_hal_can.c ****     if (RxFifo == CAN_RX_FIFO0) /* Rx element is assigned to Rx FIFO 0 */
 1653              		.loc 1 1519 5 is_stmt 1 view .LVU538
 1654              		.loc 1 1519 8 is_stmt 0 view .LVU539
 1655 0016 51B9     		cbnz	r1, .L133
1520:Drivers/STM32F4xx_HAL_Driver/Src/stm32f4xx_hal_can.c ****     {
1521:Drivers/STM32F4xx_HAL_Driver/Src/stm32f4xx_hal_can.c ****       /* Check that the Rx FIFO 0 is not empty */
1522:Drivers/STM32F4xx_HAL_Driver/Src/stm32f4xx_hal_can.c ****       if ((hcan->Instance->RF0R & CAN_RF0R_FMP0) == 0U)
 1656              		.loc 1 1522 7 is_stmt 1 view .LVU540
 1657              		.loc 1 1522 16 is_stmt 0 view .LVU541
 1658 0018 0468     		ldr	r4, [r0]
 1659              		.loc 1 1522 26 view .LVU542
 1660 001a E468     		ldr	r4, [r4, #12]
 1661              		.loc 1 1522 10 view .LVU543
 1662 001c 14F0030F 		tst	r4, #3
 1663 0020 10D1     		bne	.L134
1523:Drivers/STM32F4xx_HAL_Driver/Src/stm32f4xx_hal_can.c ****       {
ARM GAS  C:\Users\Rick\AppData\Local\Temp\cck9vz6U.s 			page 69


1524:Drivers/STM32F4xx_HAL_Driver/Src/stm32f4xx_hal_can.c ****         /* Update error code */
1525:Drivers/STM32F4xx_HAL_Driver/Src/stm32f4xx_hal_can.c ****         hcan->ErrorCode |= HAL_CAN_ERROR_PARAM;
 1664              		.loc 1 1525 9 is_stmt 1 view .LVU544
 1665              		.loc 1 1525 13 is_stmt 0 view .LVU545
 1666 0022 436A     		ldr	r3, [r0, #36]
 1667              	.LVL132:
 1668              		.loc 1 1525 25 view .LVU546
 1669 0024 43F40013 		orr	r3, r3, #2097152
 1670 0028 4362     		str	r3, [r0, #36]
1526:Drivers/STM32F4xx_HAL_Driver/Src/stm32f4xx_hal_can.c **** 
1527:Drivers/STM32F4xx_HAL_Driver/Src/stm32f4xx_hal_can.c ****         return HAL_ERROR;
 1671              		.loc 1 1527 9 is_stmt 1 view .LVU547
 1672              		.loc 1 1527 16 is_stmt 0 view .LVU548
 1673 002a 0120     		movs	r0, #1
 1674              	.LVL133:
 1675              		.loc 1 1527 16 view .LVU549
 1676 002c 7EE0     		b	.L135
 1677              	.LVL134:
 1678              	.L133:
1528:Drivers/STM32F4xx_HAL_Driver/Src/stm32f4xx_hal_can.c ****       }
1529:Drivers/STM32F4xx_HAL_Driver/Src/stm32f4xx_hal_can.c ****     }
1530:Drivers/STM32F4xx_HAL_Driver/Src/stm32f4xx_hal_can.c ****     else /* Rx element is assigned to Rx FIFO 1 */
1531:Drivers/STM32F4xx_HAL_Driver/Src/stm32f4xx_hal_can.c ****     {
1532:Drivers/STM32F4xx_HAL_Driver/Src/stm32f4xx_hal_can.c ****       /* Check that the Rx FIFO 1 is not empty */
1533:Drivers/STM32F4xx_HAL_Driver/Src/stm32f4xx_hal_can.c ****       if ((hcan->Instance->RF1R & CAN_RF1R_FMP1) == 0U)
 1679              		.loc 1 1533 7 is_stmt 1 view .LVU550
 1680              		.loc 1 1533 16 is_stmt 0 view .LVU551
 1681 002e 0468     		ldr	r4, [r0]
 1682              		.loc 1 1533 26 view .LVU552
 1683 0030 2469     		ldr	r4, [r4, #16]
 1684              		.loc 1 1533 10 view .LVU553
 1685 0032 14F0030F 		tst	r4, #3
 1686 0036 05D1     		bne	.L134
1534:Drivers/STM32F4xx_HAL_Driver/Src/stm32f4xx_hal_can.c ****       {
1535:Drivers/STM32F4xx_HAL_Driver/Src/stm32f4xx_hal_can.c ****         /* Update error code */
1536:Drivers/STM32F4xx_HAL_Driver/Src/stm32f4xx_hal_can.c ****         hcan->ErrorCode |= HAL_CAN_ERROR_PARAM;
 1687              		.loc 1 1536 9 is_stmt 1 view .LVU554
 1688              		.loc 1 1536 13 is_stmt 0 view .LVU555
 1689 0038 436A     		ldr	r3, [r0, #36]
 1690              	.LVL135:
 1691              		.loc 1 1536 25 view .LVU556
 1692 003a 43F40013 		orr	r3, r3, #2097152
 1693 003e 4362     		str	r3, [r0, #36]
1537:Drivers/STM32F4xx_HAL_Driver/Src/stm32f4xx_hal_can.c **** 
1538:Drivers/STM32F4xx_HAL_Driver/Src/stm32f4xx_hal_can.c ****         return HAL_ERROR;
 1694              		.loc 1 1538 9 is_stmt 1 view .LVU557
 1695              		.loc 1 1538 16 is_stmt 0 view .LVU558
 1696 0040 0120     		movs	r0, #1
 1697              	.LVL136:
 1698              		.loc 1 1538 16 view .LVU559
 1699 0042 73E0     		b	.L135
 1700              	.LVL137:
 1701              	.L134:
1539:Drivers/STM32F4xx_HAL_Driver/Src/stm32f4xx_hal_can.c ****       }
1540:Drivers/STM32F4xx_HAL_Driver/Src/stm32f4xx_hal_can.c ****     }
1541:Drivers/STM32F4xx_HAL_Driver/Src/stm32f4xx_hal_can.c **** 
1542:Drivers/STM32F4xx_HAL_Driver/Src/stm32f4xx_hal_can.c ****     /* Get the header */
ARM GAS  C:\Users\Rick\AppData\Local\Temp\cck9vz6U.s 			page 70


1543:Drivers/STM32F4xx_HAL_Driver/Src/stm32f4xx_hal_can.c ****     pHeader->IDE = CAN_RI0R_IDE & hcan->Instance->sFIFOMailBox[RxFifo].RIR;
 1702              		.loc 1 1543 5 is_stmt 1 view .LVU560
 1703              		.loc 1 1543 39 is_stmt 0 view .LVU561
 1704 0044 0568     		ldr	r5, [r0]
 1705              		.loc 1 1543 71 view .LVU562
 1706 0046 01F11B04 		add	r4, r1, #27
 1707 004a 2401     		lsls	r4, r4, #4
 1708 004c 2C59     		ldr	r4, [r5, r4]
 1709              		.loc 1 1543 33 view .LVU563
 1710 004e 04F00404 		and	r4, r4, #4
 1711              		.loc 1 1543 18 view .LVU564
 1712 0052 9460     		str	r4, [r2, #8]
1544:Drivers/STM32F4xx_HAL_Driver/Src/stm32f4xx_hal_can.c ****     if (pHeader->IDE == CAN_ID_STD)
 1713              		.loc 1 1544 5 is_stmt 1 view .LVU565
 1714              		.loc 1 1544 8 is_stmt 0 view .LVU566
 1715 0054 002C     		cmp	r4, #0
 1716 0056 6BD1     		bne	.L136
1545:Drivers/STM32F4xx_HAL_Driver/Src/stm32f4xx_hal_can.c ****     {
1546:Drivers/STM32F4xx_HAL_Driver/Src/stm32f4xx_hal_can.c ****       pHeader->StdId = (CAN_RI0R_STID & hcan->Instance->sFIFOMailBox[RxFifo].RIR) >> CAN_TI0R_STID_
 1717              		.loc 1 1546 7 is_stmt 1 view .LVU567
 1718              		.loc 1 1546 45 is_stmt 0 view .LVU568
 1719 0058 0568     		ldr	r5, [r0]
 1720              		.loc 1 1546 77 view .LVU569
 1721 005a 01F11B04 		add	r4, r1, #27
 1722 005e 2401     		lsls	r4, r4, #4
 1723 0060 2C59     		ldr	r4, [r5, r4]
 1724              		.loc 1 1546 83 view .LVU570
 1725 0062 640D     		lsrs	r4, r4, #21
 1726              		.loc 1 1546 22 view .LVU571
 1727 0064 1460     		str	r4, [r2]
 1728              	.L137:
1547:Drivers/STM32F4xx_HAL_Driver/Src/stm32f4xx_hal_can.c ****     }
1548:Drivers/STM32F4xx_HAL_Driver/Src/stm32f4xx_hal_can.c ****     else
1549:Drivers/STM32F4xx_HAL_Driver/Src/stm32f4xx_hal_can.c ****     {
1550:Drivers/STM32F4xx_HAL_Driver/Src/stm32f4xx_hal_can.c ****       pHeader->ExtId = ((CAN_RI0R_EXID | CAN_RI0R_STID) &
1551:Drivers/STM32F4xx_HAL_Driver/Src/stm32f4xx_hal_can.c ****                         hcan->Instance->sFIFOMailBox[RxFifo].RIR) >> CAN_RI0R_EXID_Pos;
1552:Drivers/STM32F4xx_HAL_Driver/Src/stm32f4xx_hal_can.c ****     }
1553:Drivers/STM32F4xx_HAL_Driver/Src/stm32f4xx_hal_can.c ****     pHeader->RTR = (CAN_RI0R_RTR & hcan->Instance->sFIFOMailBox[RxFifo].RIR);
 1729              		.loc 1 1553 5 is_stmt 1 view .LVU572
 1730              		.loc 1 1553 40 is_stmt 0 view .LVU573
 1731 0066 0468     		ldr	r4, [r0]
 1732              		.loc 1 1553 72 view .LVU574
 1733 0068 01F11B0C 		add	ip, r1, #27
 1734 006c 4FEA0C1C 		lsl	ip, ip, #4
 1735 0070 54F80C40 		ldr	r4, [r4, ip]
 1736              		.loc 1 1553 34 view .LVU575
 1737 0074 04F00204 		and	r4, r4, #2
 1738              		.loc 1 1553 18 view .LVU576
 1739 0078 D460     		str	r4, [r2, #12]
1554:Drivers/STM32F4xx_HAL_Driver/Src/stm32f4xx_hal_can.c ****     if (((CAN_RDT0R_DLC & hcan->Instance->sFIFOMailBox[RxFifo].RDTR) >> CAN_RDT0R_DLC_Pos) >= 8U)
 1740              		.loc 1 1554 5 is_stmt 1 view .LVU577
 1741              		.loc 1 1554 31 is_stmt 0 view .LVU578
 1742 007a 0468     		ldr	r4, [r0]
 1743              		.loc 1 1554 63 view .LVU579
 1744 007c A444     		add	ip, ip, r4
 1745 007e DCF80450 		ldr	r5, [ip, #4]
 1746              		.loc 1 1554 8 view .LVU580
ARM GAS  C:\Users\Rick\AppData\Local\Temp\cck9vz6U.s 			page 71


 1747 0082 15F0080F 		tst	r5, #8
 1748 0086 5BD0     		beq	.L138
1555:Drivers/STM32F4xx_HAL_Driver/Src/stm32f4xx_hal_can.c ****     {
1556:Drivers/STM32F4xx_HAL_Driver/Src/stm32f4xx_hal_can.c ****       /* Truncate DLC to 8 if received field is over range */
1557:Drivers/STM32F4xx_HAL_Driver/Src/stm32f4xx_hal_can.c ****       pHeader->DLC = 8U;
 1749              		.loc 1 1557 7 is_stmt 1 view .LVU581
 1750              		.loc 1 1557 20 is_stmt 0 view .LVU582
 1751 0088 0824     		movs	r4, #8
 1752 008a 1461     		str	r4, [r2, #16]
 1753              	.L139:
1558:Drivers/STM32F4xx_HAL_Driver/Src/stm32f4xx_hal_can.c ****     }
1559:Drivers/STM32F4xx_HAL_Driver/Src/stm32f4xx_hal_can.c ****     else
1560:Drivers/STM32F4xx_HAL_Driver/Src/stm32f4xx_hal_can.c ****     {
1561:Drivers/STM32F4xx_HAL_Driver/Src/stm32f4xx_hal_can.c ****       pHeader->DLC = (CAN_RDT0R_DLC & hcan->Instance->sFIFOMailBox[RxFifo].RDTR) >> CAN_RDT0R_DLC_P
1562:Drivers/STM32F4xx_HAL_Driver/Src/stm32f4xx_hal_can.c ****     }
1563:Drivers/STM32F4xx_HAL_Driver/Src/stm32f4xx_hal_can.c ****     pHeader->FilterMatchIndex = (CAN_RDT0R_FMI & hcan->Instance->sFIFOMailBox[RxFifo].RDTR) >> CAN_
 1754              		.loc 1 1563 5 is_stmt 1 view .LVU583
 1755              		.loc 1 1563 54 is_stmt 0 view .LVU584
 1756 008c 0468     		ldr	r4, [r0]
 1757              		.loc 1 1563 86 view .LVU585
 1758 008e 01F11B0C 		add	ip, r1, #27
 1759 0092 04EB0C14 		add	r4, r4, ip, lsl #4
 1760 0096 6468     		ldr	r4, [r4, #4]
 1761              		.loc 1 1563 93 view .LVU586
 1762 0098 C4F30724 		ubfx	r4, r4, #8, #8
 1763              		.loc 1 1563 31 view .LVU587
 1764 009c 9461     		str	r4, [r2, #24]
1564:Drivers/STM32F4xx_HAL_Driver/Src/stm32f4xx_hal_can.c ****     pHeader->Timestamp = (CAN_RDT0R_TIME & hcan->Instance->sFIFOMailBox[RxFifo].RDTR) >> CAN_RDT0R_
 1765              		.loc 1 1564 5 is_stmt 1 view .LVU588
 1766              		.loc 1 1564 48 is_stmt 0 view .LVU589
 1767 009e 0468     		ldr	r4, [r0]
 1768              		.loc 1 1564 80 view .LVU590
 1769 00a0 04EB0C14 		add	r4, r4, ip, lsl #4
 1770 00a4 6468     		ldr	r4, [r4, #4]
 1771              		.loc 1 1564 87 view .LVU591
 1772 00a6 240C     		lsrs	r4, r4, #16
 1773              		.loc 1 1564 24 view .LVU592
 1774 00a8 5461     		str	r4, [r2, #20]
1565:Drivers/STM32F4xx_HAL_Driver/Src/stm32f4xx_hal_can.c **** 
1566:Drivers/STM32F4xx_HAL_Driver/Src/stm32f4xx_hal_can.c ****     /* Get the data */
1567:Drivers/STM32F4xx_HAL_Driver/Src/stm32f4xx_hal_can.c ****     aData[0] = (uint8_t)((CAN_RDL0R_DATA0 & hcan->Instance->sFIFOMailBox[RxFifo].RDLR) >> CAN_RDL0R
 1775              		.loc 1 1567 5 is_stmt 1 view .LVU593
 1776              		.loc 1 1567 49 is_stmt 0 view .LVU594
 1777 00aa 0268     		ldr	r2, [r0]
 1778              	.LVL138:
 1779              		.loc 1 1567 81 view .LVU595
 1780 00ac 02EB0112 		add	r2, r2, r1, lsl #4
 1781 00b0 D2F8B821 		ldr	r2, [r2, #440]
 1782              		.loc 1 1567 14 view .LVU596
 1783 00b4 1A70     		strb	r2, [r3]
1568:Drivers/STM32F4xx_HAL_Driver/Src/stm32f4xx_hal_can.c ****     aData[1] = (uint8_t)((CAN_RDL0R_DATA1 & hcan->Instance->sFIFOMailBox[RxFifo].RDLR) >> CAN_RDL0R
 1784              		.loc 1 1568 5 is_stmt 1 view .LVU597
 1785              		.loc 1 1568 49 is_stmt 0 view .LVU598
 1786 00b6 0268     		ldr	r2, [r0]
 1787              		.loc 1 1568 81 view .LVU599
 1788 00b8 02EB0112 		add	r2, r2, r1, lsl #4
 1789 00bc D2F8B821 		ldr	r2, [r2, #440]
ARM GAS  C:\Users\Rick\AppData\Local\Temp\cck9vz6U.s 			page 72


 1790              		.loc 1 1568 16 view .LVU600
 1791 00c0 C2F30722 		ubfx	r2, r2, #8, #8
 1792              		.loc 1 1568 14 view .LVU601
 1793 00c4 5A70     		strb	r2, [r3, #1]
1569:Drivers/STM32F4xx_HAL_Driver/Src/stm32f4xx_hal_can.c ****     aData[2] = (uint8_t)((CAN_RDL0R_DATA2 & hcan->Instance->sFIFOMailBox[RxFifo].RDLR) >> CAN_RDL0R
 1794              		.loc 1 1569 5 is_stmt 1 view .LVU602
 1795              		.loc 1 1569 49 is_stmt 0 view .LVU603
 1796 00c6 0268     		ldr	r2, [r0]
 1797              		.loc 1 1569 81 view .LVU604
 1798 00c8 02EB0112 		add	r2, r2, r1, lsl #4
 1799 00cc D2F8B821 		ldr	r2, [r2, #440]
 1800              		.loc 1 1569 16 view .LVU605
 1801 00d0 C2F30742 		ubfx	r2, r2, #16, #8
 1802              		.loc 1 1569 14 view .LVU606
 1803 00d4 9A70     		strb	r2, [r3, #2]
1570:Drivers/STM32F4xx_HAL_Driver/Src/stm32f4xx_hal_can.c ****     aData[3] = (uint8_t)((CAN_RDL0R_DATA3 & hcan->Instance->sFIFOMailBox[RxFifo].RDLR) >> CAN_RDL0R
 1804              		.loc 1 1570 5 is_stmt 1 view .LVU607
 1805              		.loc 1 1570 49 is_stmt 0 view .LVU608
 1806 00d6 0268     		ldr	r2, [r0]
 1807              		.loc 1 1570 81 view .LVU609
 1808 00d8 02EB0112 		add	r2, r2, r1, lsl #4
 1809 00dc D2F8B821 		ldr	r2, [r2, #440]
 1810              		.loc 1 1570 16 view .LVU610
 1811 00e0 120E     		lsrs	r2, r2, #24
 1812              		.loc 1 1570 14 view .LVU611
 1813 00e2 DA70     		strb	r2, [r3, #3]
1571:Drivers/STM32F4xx_HAL_Driver/Src/stm32f4xx_hal_can.c ****     aData[4] = (uint8_t)((CAN_RDH0R_DATA4 & hcan->Instance->sFIFOMailBox[RxFifo].RDHR) >> CAN_RDH0R
 1814              		.loc 1 1571 5 is_stmt 1 view .LVU612
 1815              		.loc 1 1571 49 is_stmt 0 view .LVU613
 1816 00e4 0268     		ldr	r2, [r0]
 1817              		.loc 1 1571 81 view .LVU614
 1818 00e6 02EB0112 		add	r2, r2, r1, lsl #4
 1819 00ea D2F8BC21 		ldr	r2, [r2, #444]
 1820              		.loc 1 1571 14 view .LVU615
 1821 00ee 1A71     		strb	r2, [r3, #4]
1572:Drivers/STM32F4xx_HAL_Driver/Src/stm32f4xx_hal_can.c ****     aData[5] = (uint8_t)((CAN_RDH0R_DATA5 & hcan->Instance->sFIFOMailBox[RxFifo].RDHR) >> CAN_RDH0R
 1822              		.loc 1 1572 5 is_stmt 1 view .LVU616
 1823              		.loc 1 1572 49 is_stmt 0 view .LVU617
 1824 00f0 0268     		ldr	r2, [r0]
 1825              		.loc 1 1572 81 view .LVU618
 1826 00f2 02EB0112 		add	r2, r2, r1, lsl #4
 1827 00f6 D2F8BC21 		ldr	r2, [r2, #444]
 1828              		.loc 1 1572 16 view .LVU619
 1829 00fa C2F30722 		ubfx	r2, r2, #8, #8
 1830              		.loc 1 1572 14 view .LVU620
 1831 00fe 5A71     		strb	r2, [r3, #5]
1573:Drivers/STM32F4xx_HAL_Driver/Src/stm32f4xx_hal_can.c ****     aData[6] = (uint8_t)((CAN_RDH0R_DATA6 & hcan->Instance->sFIFOMailBox[RxFifo].RDHR) >> CAN_RDH0R
 1832              		.loc 1 1573 5 is_stmt 1 view .LVU621
 1833              		.loc 1 1573 49 is_stmt 0 view .LVU622
 1834 0100 0268     		ldr	r2, [r0]
 1835              		.loc 1 1573 81 view .LVU623
 1836 0102 02EB0112 		add	r2, r2, r1, lsl #4
 1837 0106 D2F8BC21 		ldr	r2, [r2, #444]
 1838              		.loc 1 1573 16 view .LVU624
 1839 010a C2F30742 		ubfx	r2, r2, #16, #8
 1840              		.loc 1 1573 14 view .LVU625
 1841 010e 9A71     		strb	r2, [r3, #6]
ARM GAS  C:\Users\Rick\AppData\Local\Temp\cck9vz6U.s 			page 73


1574:Drivers/STM32F4xx_HAL_Driver/Src/stm32f4xx_hal_can.c ****     aData[7] = (uint8_t)((CAN_RDH0R_DATA7 & hcan->Instance->sFIFOMailBox[RxFifo].RDHR) >> CAN_RDH0R
 1842              		.loc 1 1574 5 is_stmt 1 view .LVU626
 1843              		.loc 1 1574 49 is_stmt 0 view .LVU627
 1844 0110 0268     		ldr	r2, [r0]
 1845              		.loc 1 1574 81 view .LVU628
 1846 0112 02EB0112 		add	r2, r2, r1, lsl #4
 1847 0116 D2F8BC21 		ldr	r2, [r2, #444]
 1848              		.loc 1 1574 16 view .LVU629
 1849 011a 120E     		lsrs	r2, r2, #24
 1850              		.loc 1 1574 14 view .LVU630
 1851 011c DA71     		strb	r2, [r3, #7]
1575:Drivers/STM32F4xx_HAL_Driver/Src/stm32f4xx_hal_can.c **** 
1576:Drivers/STM32F4xx_HAL_Driver/Src/stm32f4xx_hal_can.c ****     /* Release the FIFO */
1577:Drivers/STM32F4xx_HAL_Driver/Src/stm32f4xx_hal_can.c ****     if (RxFifo == CAN_RX_FIFO0) /* Rx element is assigned to Rx FIFO 0 */
 1852              		.loc 1 1577 5 is_stmt 1 view .LVU631
 1853              		.loc 1 1577 8 is_stmt 0 view .LVU632
 1854 011e C1B9     		cbnz	r1, .L140
1578:Drivers/STM32F4xx_HAL_Driver/Src/stm32f4xx_hal_can.c ****     {
1579:Drivers/STM32F4xx_HAL_Driver/Src/stm32f4xx_hal_can.c ****       /* Release RX FIFO 0 */
1580:Drivers/STM32F4xx_HAL_Driver/Src/stm32f4xx_hal_can.c ****       SET_BIT(hcan->Instance->RF0R, CAN_RF0R_RFOM0);
 1855              		.loc 1 1580 7 is_stmt 1 view .LVU633
 1856 0120 0268     		ldr	r2, [r0]
 1857 0122 D368     		ldr	r3, [r2, #12]
 1858              	.LVL139:
 1859              		.loc 1 1580 7 is_stmt 0 view .LVU634
 1860 0124 43F02003 		orr	r3, r3, #32
 1861 0128 D360     		str	r3, [r2, #12]
 1862              	.L141:
1581:Drivers/STM32F4xx_HAL_Driver/Src/stm32f4xx_hal_can.c ****     }
1582:Drivers/STM32F4xx_HAL_Driver/Src/stm32f4xx_hal_can.c ****     else /* Rx element is assigned to Rx FIFO 1 */
1583:Drivers/STM32F4xx_HAL_Driver/Src/stm32f4xx_hal_can.c ****     {
1584:Drivers/STM32F4xx_HAL_Driver/Src/stm32f4xx_hal_can.c ****       /* Release RX FIFO 1 */
1585:Drivers/STM32F4xx_HAL_Driver/Src/stm32f4xx_hal_can.c ****       SET_BIT(hcan->Instance->RF1R, CAN_RF1R_RFOM1);
1586:Drivers/STM32F4xx_HAL_Driver/Src/stm32f4xx_hal_can.c ****     }
1587:Drivers/STM32F4xx_HAL_Driver/Src/stm32f4xx_hal_can.c **** 
1588:Drivers/STM32F4xx_HAL_Driver/Src/stm32f4xx_hal_can.c ****     /* Return function status */
1589:Drivers/STM32F4xx_HAL_Driver/Src/stm32f4xx_hal_can.c ****     return HAL_OK;
 1863              		.loc 1 1589 5 is_stmt 1 view .LVU635
 1864              		.loc 1 1589 12 is_stmt 0 view .LVU636
 1865 012a 0020     		movs	r0, #0
 1866              	.LVL140:
 1867              	.L135:
1590:Drivers/STM32F4xx_HAL_Driver/Src/stm32f4xx_hal_can.c ****   }
1591:Drivers/STM32F4xx_HAL_Driver/Src/stm32f4xx_hal_can.c ****   else
1592:Drivers/STM32F4xx_HAL_Driver/Src/stm32f4xx_hal_can.c ****   {
1593:Drivers/STM32F4xx_HAL_Driver/Src/stm32f4xx_hal_can.c ****     /* Update error code */
1594:Drivers/STM32F4xx_HAL_Driver/Src/stm32f4xx_hal_can.c ****     hcan->ErrorCode |= HAL_CAN_ERROR_NOT_INITIALIZED;
1595:Drivers/STM32F4xx_HAL_Driver/Src/stm32f4xx_hal_can.c **** 
1596:Drivers/STM32F4xx_HAL_Driver/Src/stm32f4xx_hal_can.c ****     return HAL_ERROR;
1597:Drivers/STM32F4xx_HAL_Driver/Src/stm32f4xx_hal_can.c ****   }
1598:Drivers/STM32F4xx_HAL_Driver/Src/stm32f4xx_hal_can.c **** }
 1868              		.loc 1 1598 1 view .LVU637
 1869 012c 30BC     		pop	{r4, r5}
 1870              		.cfi_remember_state
 1871              		.cfi_restore 5
 1872              		.cfi_restore 4
 1873              		.cfi_def_cfa_offset 0
ARM GAS  C:\Users\Rick\AppData\Local\Temp\cck9vz6U.s 			page 74


 1874 012e 7047     		bx	lr
 1875              	.LVL141:
 1876              	.L136:
 1877              		.cfi_restore_state
1550:Drivers/STM32F4xx_HAL_Driver/Src/stm32f4xx_hal_can.c ****                         hcan->Instance->sFIFOMailBox[RxFifo].RIR) >> CAN_RI0R_EXID_Pos;
 1878              		.loc 1 1550 7 is_stmt 1 view .LVU638
1551:Drivers/STM32F4xx_HAL_Driver/Src/stm32f4xx_hal_can.c ****     }
 1879              		.loc 1 1551 29 is_stmt 0 view .LVU639
 1880 0130 0568     		ldr	r5, [r0]
1551:Drivers/STM32F4xx_HAL_Driver/Src/stm32f4xx_hal_can.c ****     }
 1881              		.loc 1 1551 61 view .LVU640
 1882 0132 01F11B04 		add	r4, r1, #27
 1883 0136 2401     		lsls	r4, r4, #4
 1884 0138 2C59     		ldr	r4, [r5, r4]
1551:Drivers/STM32F4xx_HAL_Driver/Src/stm32f4xx_hal_can.c ****     }
 1885              		.loc 1 1551 67 view .LVU641
 1886 013a E408     		lsrs	r4, r4, #3
1550:Drivers/STM32F4xx_HAL_Driver/Src/stm32f4xx_hal_can.c ****                         hcan->Instance->sFIFOMailBox[RxFifo].RIR) >> CAN_RI0R_EXID_Pos;
 1887              		.loc 1 1550 22 view .LVU642
 1888 013c 5460     		str	r4, [r2, #4]
 1889 013e 92E7     		b	.L137
 1890              	.L138:
1561:Drivers/STM32F4xx_HAL_Driver/Src/stm32f4xx_hal_can.c ****     }
 1891              		.loc 1 1561 7 is_stmt 1 view .LVU643
1561:Drivers/STM32F4xx_HAL_Driver/Src/stm32f4xx_hal_can.c ****     }
 1892              		.loc 1 1561 75 is_stmt 0 view .LVU644
 1893 0140 01F11B05 		add	r5, r1, #27
 1894 0144 04EB0514 		add	r4, r4, r5, lsl #4
 1895 0148 6468     		ldr	r4, [r4, #4]
1561:Drivers/STM32F4xx_HAL_Driver/Src/stm32f4xx_hal_can.c ****     }
 1896              		.loc 1 1561 82 view .LVU645
 1897 014a 04F00F04 		and	r4, r4, #15
1561:Drivers/STM32F4xx_HAL_Driver/Src/stm32f4xx_hal_can.c ****     }
 1898              		.loc 1 1561 20 view .LVU646
 1899 014e 1461     		str	r4, [r2, #16]
 1900 0150 9CE7     		b	.L139
 1901              	.LVL142:
 1902              	.L140:
1585:Drivers/STM32F4xx_HAL_Driver/Src/stm32f4xx_hal_can.c ****     }
 1903              		.loc 1 1585 7 is_stmt 1 view .LVU647
 1904 0152 0268     		ldr	r2, [r0]
 1905 0154 1369     		ldr	r3, [r2, #16]
 1906              	.LVL143:
1585:Drivers/STM32F4xx_HAL_Driver/Src/stm32f4xx_hal_can.c ****     }
 1907              		.loc 1 1585 7 is_stmt 0 view .LVU648
 1908 0156 43F02003 		orr	r3, r3, #32
 1909 015a 1361     		str	r3, [r2, #16]
 1910 015c E5E7     		b	.L141
 1911              	.LVL144:
 1912              	.L132:
 1913              		.cfi_def_cfa_offset 0
 1914              		.cfi_restore 4
 1915              		.cfi_restore 5
1594:Drivers/STM32F4xx_HAL_Driver/Src/stm32f4xx_hal_can.c **** 
 1916              		.loc 1 1594 5 is_stmt 1 view .LVU649
1594:Drivers/STM32F4xx_HAL_Driver/Src/stm32f4xx_hal_can.c **** 
 1917              		.loc 1 1594 9 is_stmt 0 view .LVU650
ARM GAS  C:\Users\Rick\AppData\Local\Temp\cck9vz6U.s 			page 75


 1918 015e 436A     		ldr	r3, [r0, #36]
 1919              	.LVL145:
1594:Drivers/STM32F4xx_HAL_Driver/Src/stm32f4xx_hal_can.c **** 
 1920              		.loc 1 1594 21 view .LVU651
 1921 0160 43F48023 		orr	r3, r3, #262144
 1922 0164 4362     		str	r3, [r0, #36]
1596:Drivers/STM32F4xx_HAL_Driver/Src/stm32f4xx_hal_can.c ****   }
 1923              		.loc 1 1596 5 is_stmt 1 view .LVU652
1596:Drivers/STM32F4xx_HAL_Driver/Src/stm32f4xx_hal_can.c ****   }
 1924              		.loc 1 1596 12 is_stmt 0 view .LVU653
 1925 0166 0120     		movs	r0, #1
 1926              	.LVL146:
 1927              		.loc 1 1598 1 view .LVU654
 1928 0168 7047     		bx	lr
 1929              		.cfi_endproc
 1930              	.LFE254:
 1932              		.section	.text.HAL_CAN_GetRxFifoFillLevel,"ax",%progbits
 1933              		.align	1
 1934              		.global	HAL_CAN_GetRxFifoFillLevel
 1935              		.syntax unified
 1936              		.thumb
 1937              		.thumb_func
 1939              	HAL_CAN_GetRxFifoFillLevel:
 1940              	.LVL147:
 1941              	.LFB255:
1599:Drivers/STM32F4xx_HAL_Driver/Src/stm32f4xx_hal_can.c **** 
1600:Drivers/STM32F4xx_HAL_Driver/Src/stm32f4xx_hal_can.c **** /**
1601:Drivers/STM32F4xx_HAL_Driver/Src/stm32f4xx_hal_can.c ****   * @brief  Return Rx FIFO fill level.
1602:Drivers/STM32F4xx_HAL_Driver/Src/stm32f4xx_hal_can.c ****   * @param  hcan pointer to an CAN_HandleTypeDef structure that contains
1603:Drivers/STM32F4xx_HAL_Driver/Src/stm32f4xx_hal_can.c ****   *         the configuration information for the specified CAN.
1604:Drivers/STM32F4xx_HAL_Driver/Src/stm32f4xx_hal_can.c ****   * @param  RxFifo Rx FIFO.
1605:Drivers/STM32F4xx_HAL_Driver/Src/stm32f4xx_hal_can.c ****   *         This parameter can be a value of @arg CAN_receive_FIFO_number.
1606:Drivers/STM32F4xx_HAL_Driver/Src/stm32f4xx_hal_can.c ****   * @retval Number of messages available in Rx FIFO.
1607:Drivers/STM32F4xx_HAL_Driver/Src/stm32f4xx_hal_can.c ****   */
1608:Drivers/STM32F4xx_HAL_Driver/Src/stm32f4xx_hal_can.c **** uint32_t HAL_CAN_GetRxFifoFillLevel(const CAN_HandleTypeDef *hcan, uint32_t RxFifo)
1609:Drivers/STM32F4xx_HAL_Driver/Src/stm32f4xx_hal_can.c **** {
 1942              		.loc 1 1609 1 is_stmt 1 view -0
 1943              		.cfi_startproc
 1944              		@ args = 0, pretend = 0, frame = 0
 1945              		@ frame_needed = 0, uses_anonymous_args = 0
 1946              		@ link register save eliminated.
1610:Drivers/STM32F4xx_HAL_Driver/Src/stm32f4xx_hal_can.c ****   uint32_t filllevel = 0U;
 1947              		.loc 1 1610 3 view .LVU656
1611:Drivers/STM32F4xx_HAL_Driver/Src/stm32f4xx_hal_can.c ****   HAL_CAN_StateTypeDef state = hcan->State;
 1948              		.loc 1 1611 3 view .LVU657
 1949              		.loc 1 1611 24 is_stmt 0 view .LVU658
 1950 0000 90F82030 		ldrb	r3, [r0, #32]	@ zero_extendqisi2
 1951              	.LVL148:
1612:Drivers/STM32F4xx_HAL_Driver/Src/stm32f4xx_hal_can.c **** 
1613:Drivers/STM32F4xx_HAL_Driver/Src/stm32f4xx_hal_can.c ****   /* Check function parameters */
1614:Drivers/STM32F4xx_HAL_Driver/Src/stm32f4xx_hal_can.c ****   assert_param(IS_CAN_RX_FIFO(RxFifo));
 1952              		.loc 1 1614 3 is_stmt 1 view .LVU659
1615:Drivers/STM32F4xx_HAL_Driver/Src/stm32f4xx_hal_can.c **** 
1616:Drivers/STM32F4xx_HAL_Driver/Src/stm32f4xx_hal_can.c ****   if ((state == HAL_CAN_STATE_READY) ||
 1953              		.loc 1 1616 3 view .LVU660
 1954              		.loc 1 1616 38 is_stmt 0 view .LVU661
 1955 0004 013B     		subs	r3, r3, #1
ARM GAS  C:\Users\Rick\AppData\Local\Temp\cck9vz6U.s 			page 76


 1956              	.LVL149:
 1957              		.loc 1 1616 38 view .LVU662
 1958 0006 DBB2     		uxtb	r3, r3
 1959              	.LVL150:
 1960              		.loc 1 1616 6 view .LVU663
 1961 0008 012B     		cmp	r3, #1
 1962 000a 01D9     		bls	.L150
1610:Drivers/STM32F4xx_HAL_Driver/Src/stm32f4xx_hal_can.c ****   HAL_CAN_StateTypeDef state = hcan->State;
 1963              		.loc 1 1610 12 view .LVU664
 1964 000c 0020     		movs	r0, #0
 1965              	.LVL151:
1617:Drivers/STM32F4xx_HAL_Driver/Src/stm32f4xx_hal_can.c ****       (state == HAL_CAN_STATE_LISTENING))
1618:Drivers/STM32F4xx_HAL_Driver/Src/stm32f4xx_hal_can.c ****   {
1619:Drivers/STM32F4xx_HAL_Driver/Src/stm32f4xx_hal_can.c ****     if (RxFifo == CAN_RX_FIFO0)
1620:Drivers/STM32F4xx_HAL_Driver/Src/stm32f4xx_hal_can.c ****     {
1621:Drivers/STM32F4xx_HAL_Driver/Src/stm32f4xx_hal_can.c ****       filllevel = hcan->Instance->RF0R & CAN_RF0R_FMP0;
1622:Drivers/STM32F4xx_HAL_Driver/Src/stm32f4xx_hal_can.c ****     }
1623:Drivers/STM32F4xx_HAL_Driver/Src/stm32f4xx_hal_can.c ****     else /* RxFifo == CAN_RX_FIFO1 */
1624:Drivers/STM32F4xx_HAL_Driver/Src/stm32f4xx_hal_can.c ****     {
1625:Drivers/STM32F4xx_HAL_Driver/Src/stm32f4xx_hal_can.c ****       filllevel = hcan->Instance->RF1R & CAN_RF1R_FMP1;
1626:Drivers/STM32F4xx_HAL_Driver/Src/stm32f4xx_hal_can.c ****     }
1627:Drivers/STM32F4xx_HAL_Driver/Src/stm32f4xx_hal_can.c ****   }
1628:Drivers/STM32F4xx_HAL_Driver/Src/stm32f4xx_hal_can.c **** 
1629:Drivers/STM32F4xx_HAL_Driver/Src/stm32f4xx_hal_can.c ****   /* Return Rx FIFO fill level */
1630:Drivers/STM32F4xx_HAL_Driver/Src/stm32f4xx_hal_can.c ****   return filllevel;
 1966              		.loc 1 1630 3 is_stmt 1 view .LVU665
1631:Drivers/STM32F4xx_HAL_Driver/Src/stm32f4xx_hal_can.c **** }
 1967              		.loc 1 1631 1 is_stmt 0 view .LVU666
 1968 000e 7047     		bx	lr
 1969              	.LVL152:
 1970              	.L150:
1619:Drivers/STM32F4xx_HAL_Driver/Src/stm32f4xx_hal_can.c ****     {
 1971              		.loc 1 1619 5 is_stmt 1 view .LVU667
1619:Drivers/STM32F4xx_HAL_Driver/Src/stm32f4xx_hal_can.c ****     {
 1972              		.loc 1 1619 8 is_stmt 0 view .LVU668
 1973 0010 21B9     		cbnz	r1, .L148
1621:Drivers/STM32F4xx_HAL_Driver/Src/stm32f4xx_hal_can.c ****     }
 1974              		.loc 1 1621 7 is_stmt 1 view .LVU669
1621:Drivers/STM32F4xx_HAL_Driver/Src/stm32f4xx_hal_can.c ****     }
 1975              		.loc 1 1621 23 is_stmt 0 view .LVU670
 1976 0012 0368     		ldr	r3, [r0]
1621:Drivers/STM32F4xx_HAL_Driver/Src/stm32f4xx_hal_can.c ****     }
 1977              		.loc 1 1621 33 view .LVU671
 1978 0014 D868     		ldr	r0, [r3, #12]
 1979              	.LVL153:
1621:Drivers/STM32F4xx_HAL_Driver/Src/stm32f4xx_hal_can.c ****     }
 1980              		.loc 1 1621 17 view .LVU672
 1981 0016 00F00300 		and	r0, r0, #3
 1982              	.LVL154:
1621:Drivers/STM32F4xx_HAL_Driver/Src/stm32f4xx_hal_can.c ****     }
 1983              		.loc 1 1621 17 view .LVU673
 1984 001a 7047     		bx	lr
 1985              	.LVL155:
 1986              	.L148:
1625:Drivers/STM32F4xx_HAL_Driver/Src/stm32f4xx_hal_can.c ****     }
 1987              		.loc 1 1625 7 is_stmt 1 view .LVU674
1625:Drivers/STM32F4xx_HAL_Driver/Src/stm32f4xx_hal_can.c ****     }
ARM GAS  C:\Users\Rick\AppData\Local\Temp\cck9vz6U.s 			page 77


 1988              		.loc 1 1625 23 is_stmt 0 view .LVU675
 1989 001c 0368     		ldr	r3, [r0]
1625:Drivers/STM32F4xx_HAL_Driver/Src/stm32f4xx_hal_can.c ****     }
 1990              		.loc 1 1625 33 view .LVU676
 1991 001e 1869     		ldr	r0, [r3, #16]
 1992              	.LVL156:
1625:Drivers/STM32F4xx_HAL_Driver/Src/stm32f4xx_hal_can.c ****     }
 1993              		.loc 1 1625 17 view .LVU677
 1994 0020 00F00300 		and	r0, r0, #3
 1995              	.LVL157:
1625:Drivers/STM32F4xx_HAL_Driver/Src/stm32f4xx_hal_can.c ****     }
 1996              		.loc 1 1625 17 view .LVU678
 1997 0024 7047     		bx	lr
 1998              		.cfi_endproc
 1999              	.LFE255:
 2001              		.section	.text.HAL_CAN_ActivateNotification,"ax",%progbits
 2002              		.align	1
 2003              		.global	HAL_CAN_ActivateNotification
 2004              		.syntax unified
 2005              		.thumb
 2006              		.thumb_func
 2008              	HAL_CAN_ActivateNotification:
 2009              	.LVL158:
 2010              	.LFB256:
1632:Drivers/STM32F4xx_HAL_Driver/Src/stm32f4xx_hal_can.c **** 
1633:Drivers/STM32F4xx_HAL_Driver/Src/stm32f4xx_hal_can.c **** /**
1634:Drivers/STM32F4xx_HAL_Driver/Src/stm32f4xx_hal_can.c ****   * @}
1635:Drivers/STM32F4xx_HAL_Driver/Src/stm32f4xx_hal_can.c ****   */
1636:Drivers/STM32F4xx_HAL_Driver/Src/stm32f4xx_hal_can.c **** 
1637:Drivers/STM32F4xx_HAL_Driver/Src/stm32f4xx_hal_can.c **** /** @defgroup CAN_Exported_Functions_Group4 Interrupts management
1638:Drivers/STM32F4xx_HAL_Driver/Src/stm32f4xx_hal_can.c ****   * @brief    Interrupts management
1639:Drivers/STM32F4xx_HAL_Driver/Src/stm32f4xx_hal_can.c ****   *
1640:Drivers/STM32F4xx_HAL_Driver/Src/stm32f4xx_hal_can.c **** @verbatim
1641:Drivers/STM32F4xx_HAL_Driver/Src/stm32f4xx_hal_can.c ****   ==============================================================================
1642:Drivers/STM32F4xx_HAL_Driver/Src/stm32f4xx_hal_can.c ****                        ##### Interrupts management #####
1643:Drivers/STM32F4xx_HAL_Driver/Src/stm32f4xx_hal_can.c ****   ==============================================================================
1644:Drivers/STM32F4xx_HAL_Driver/Src/stm32f4xx_hal_can.c ****     [..]  This section provides functions allowing to:
1645:Drivers/STM32F4xx_HAL_Driver/Src/stm32f4xx_hal_can.c ****       (+) HAL_CAN_ActivateNotification      : Enable interrupts
1646:Drivers/STM32F4xx_HAL_Driver/Src/stm32f4xx_hal_can.c ****       (+) HAL_CAN_DeactivateNotification    : Disable interrupts
1647:Drivers/STM32F4xx_HAL_Driver/Src/stm32f4xx_hal_can.c ****       (+) HAL_CAN_IRQHandler                : Handles CAN interrupt request
1648:Drivers/STM32F4xx_HAL_Driver/Src/stm32f4xx_hal_can.c **** 
1649:Drivers/STM32F4xx_HAL_Driver/Src/stm32f4xx_hal_can.c **** @endverbatim
1650:Drivers/STM32F4xx_HAL_Driver/Src/stm32f4xx_hal_can.c ****   * @{
1651:Drivers/STM32F4xx_HAL_Driver/Src/stm32f4xx_hal_can.c ****   */
1652:Drivers/STM32F4xx_HAL_Driver/Src/stm32f4xx_hal_can.c **** 
1653:Drivers/STM32F4xx_HAL_Driver/Src/stm32f4xx_hal_can.c **** /**
1654:Drivers/STM32F4xx_HAL_Driver/Src/stm32f4xx_hal_can.c ****   * @brief  Enable interrupts.
1655:Drivers/STM32F4xx_HAL_Driver/Src/stm32f4xx_hal_can.c ****   * @param  hcan pointer to an CAN_HandleTypeDef structure that contains
1656:Drivers/STM32F4xx_HAL_Driver/Src/stm32f4xx_hal_can.c ****   *         the configuration information for the specified CAN.
1657:Drivers/STM32F4xx_HAL_Driver/Src/stm32f4xx_hal_can.c ****   * @param  ActiveITs indicates which interrupts will be enabled.
1658:Drivers/STM32F4xx_HAL_Driver/Src/stm32f4xx_hal_can.c ****   *         This parameter can be any combination of @arg CAN_Interrupts.
1659:Drivers/STM32F4xx_HAL_Driver/Src/stm32f4xx_hal_can.c ****   * @retval HAL status
1660:Drivers/STM32F4xx_HAL_Driver/Src/stm32f4xx_hal_can.c ****   */
1661:Drivers/STM32F4xx_HAL_Driver/Src/stm32f4xx_hal_can.c **** HAL_StatusTypeDef HAL_CAN_ActivateNotification(CAN_HandleTypeDef *hcan, uint32_t ActiveITs)
1662:Drivers/STM32F4xx_HAL_Driver/Src/stm32f4xx_hal_can.c **** {
 2011              		.loc 1 1662 1 is_stmt 1 view -0
 2012              		.cfi_startproc
ARM GAS  C:\Users\Rick\AppData\Local\Temp\cck9vz6U.s 			page 78


 2013              		@ args = 0, pretend = 0, frame = 0
 2014              		@ frame_needed = 0, uses_anonymous_args = 0
 2015              		@ link register save eliminated.
1663:Drivers/STM32F4xx_HAL_Driver/Src/stm32f4xx_hal_can.c ****   HAL_CAN_StateTypeDef state = hcan->State;
 2016              		.loc 1 1663 3 view .LVU680
 2017              		.loc 1 1663 24 is_stmt 0 view .LVU681
 2018 0000 90F82030 		ldrb	r3, [r0, #32]	@ zero_extendqisi2
 2019              	.LVL159:
1664:Drivers/STM32F4xx_HAL_Driver/Src/stm32f4xx_hal_can.c **** 
1665:Drivers/STM32F4xx_HAL_Driver/Src/stm32f4xx_hal_can.c ****   /* Check function parameters */
1666:Drivers/STM32F4xx_HAL_Driver/Src/stm32f4xx_hal_can.c ****   assert_param(IS_CAN_IT(ActiveITs));
 2020              		.loc 1 1666 3 is_stmt 1 view .LVU682
1667:Drivers/STM32F4xx_HAL_Driver/Src/stm32f4xx_hal_can.c **** 
1668:Drivers/STM32F4xx_HAL_Driver/Src/stm32f4xx_hal_can.c ****   if ((state == HAL_CAN_STATE_READY) ||
 2021              		.loc 1 1668 3 view .LVU683
 2022              		.loc 1 1668 38 is_stmt 0 view .LVU684
 2023 0004 013B     		subs	r3, r3, #1
 2024              	.LVL160:
 2025              		.loc 1 1668 38 view .LVU685
 2026 0006 DBB2     		uxtb	r3, r3
 2027              	.LVL161:
 2028              		.loc 1 1668 6 view .LVU686
 2029 0008 012B     		cmp	r3, #1
 2030 000a 05D9     		bls	.L154
1669:Drivers/STM32F4xx_HAL_Driver/Src/stm32f4xx_hal_can.c ****       (state == HAL_CAN_STATE_LISTENING))
1670:Drivers/STM32F4xx_HAL_Driver/Src/stm32f4xx_hal_can.c ****   {
1671:Drivers/STM32F4xx_HAL_Driver/Src/stm32f4xx_hal_can.c ****     /* Enable the selected interrupts */
1672:Drivers/STM32F4xx_HAL_Driver/Src/stm32f4xx_hal_can.c ****     __HAL_CAN_ENABLE_IT(hcan, ActiveITs);
1673:Drivers/STM32F4xx_HAL_Driver/Src/stm32f4xx_hal_can.c **** 
1674:Drivers/STM32F4xx_HAL_Driver/Src/stm32f4xx_hal_can.c ****     /* Return function status */
1675:Drivers/STM32F4xx_HAL_Driver/Src/stm32f4xx_hal_can.c ****     return HAL_OK;
1676:Drivers/STM32F4xx_HAL_Driver/Src/stm32f4xx_hal_can.c ****   }
1677:Drivers/STM32F4xx_HAL_Driver/Src/stm32f4xx_hal_can.c ****   else
1678:Drivers/STM32F4xx_HAL_Driver/Src/stm32f4xx_hal_can.c ****   {
1679:Drivers/STM32F4xx_HAL_Driver/Src/stm32f4xx_hal_can.c ****     /* Update error code */
1680:Drivers/STM32F4xx_HAL_Driver/Src/stm32f4xx_hal_can.c ****     hcan->ErrorCode |= HAL_CAN_ERROR_NOT_INITIALIZED;
 2031              		.loc 1 1680 5 is_stmt 1 view .LVU687
 2032              		.loc 1 1680 9 is_stmt 0 view .LVU688
 2033 000c 436A     		ldr	r3, [r0, #36]
 2034              		.loc 1 1680 21 view .LVU689
 2035 000e 43F48023 		orr	r3, r3, #262144
 2036 0012 4362     		str	r3, [r0, #36]
1681:Drivers/STM32F4xx_HAL_Driver/Src/stm32f4xx_hal_can.c **** 
1682:Drivers/STM32F4xx_HAL_Driver/Src/stm32f4xx_hal_can.c ****     return HAL_ERROR;
 2037              		.loc 1 1682 5 is_stmt 1 view .LVU690
 2038              		.loc 1 1682 12 is_stmt 0 view .LVU691
 2039 0014 0120     		movs	r0, #1
 2040              	.LVL162:
1683:Drivers/STM32F4xx_HAL_Driver/Src/stm32f4xx_hal_can.c ****   }
1684:Drivers/STM32F4xx_HAL_Driver/Src/stm32f4xx_hal_can.c **** }
 2041              		.loc 1 1684 1 view .LVU692
 2042 0016 7047     		bx	lr
 2043              	.LVL163:
 2044              	.L154:
1672:Drivers/STM32F4xx_HAL_Driver/Src/stm32f4xx_hal_can.c **** 
 2045              		.loc 1 1672 5 is_stmt 1 view .LVU693
 2046 0018 0268     		ldr	r2, [r0]
ARM GAS  C:\Users\Rick\AppData\Local\Temp\cck9vz6U.s 			page 79


 2047 001a 5369     		ldr	r3, [r2, #20]
 2048 001c 0B43     		orrs	r3, r3, r1
 2049 001e 5361     		str	r3, [r2, #20]
1675:Drivers/STM32F4xx_HAL_Driver/Src/stm32f4xx_hal_can.c ****   }
 2050              		.loc 1 1675 5 view .LVU694
1675:Drivers/STM32F4xx_HAL_Driver/Src/stm32f4xx_hal_can.c ****   }
 2051              		.loc 1 1675 12 is_stmt 0 view .LVU695
 2052 0020 0020     		movs	r0, #0
 2053              	.LVL164:
1675:Drivers/STM32F4xx_HAL_Driver/Src/stm32f4xx_hal_can.c ****   }
 2054              		.loc 1 1675 12 view .LVU696
 2055 0022 7047     		bx	lr
 2056              		.cfi_endproc
 2057              	.LFE256:
 2059              		.section	.text.HAL_CAN_DeactivateNotification,"ax",%progbits
 2060              		.align	1
 2061              		.global	HAL_CAN_DeactivateNotification
 2062              		.syntax unified
 2063              		.thumb
 2064              		.thumb_func
 2066              	HAL_CAN_DeactivateNotification:
 2067              	.LVL165:
 2068              	.LFB257:
1685:Drivers/STM32F4xx_HAL_Driver/Src/stm32f4xx_hal_can.c **** 
1686:Drivers/STM32F4xx_HAL_Driver/Src/stm32f4xx_hal_can.c **** /**
1687:Drivers/STM32F4xx_HAL_Driver/Src/stm32f4xx_hal_can.c ****   * @brief  Disable interrupts.
1688:Drivers/STM32F4xx_HAL_Driver/Src/stm32f4xx_hal_can.c ****   * @param  hcan pointer to an CAN_HandleTypeDef structure that contains
1689:Drivers/STM32F4xx_HAL_Driver/Src/stm32f4xx_hal_can.c ****   *         the configuration information for the specified CAN.
1690:Drivers/STM32F4xx_HAL_Driver/Src/stm32f4xx_hal_can.c ****   * @param  InactiveITs indicates which interrupts will be disabled.
1691:Drivers/STM32F4xx_HAL_Driver/Src/stm32f4xx_hal_can.c ****   *         This parameter can be any combination of @arg CAN_Interrupts.
1692:Drivers/STM32F4xx_HAL_Driver/Src/stm32f4xx_hal_can.c ****   * @retval HAL status
1693:Drivers/STM32F4xx_HAL_Driver/Src/stm32f4xx_hal_can.c ****   */
1694:Drivers/STM32F4xx_HAL_Driver/Src/stm32f4xx_hal_can.c **** HAL_StatusTypeDef HAL_CAN_DeactivateNotification(CAN_HandleTypeDef *hcan, uint32_t InactiveITs)
1695:Drivers/STM32F4xx_HAL_Driver/Src/stm32f4xx_hal_can.c **** {
 2069              		.loc 1 1695 1 is_stmt 1 view -0
 2070              		.cfi_startproc
 2071              		@ args = 0, pretend = 0, frame = 0
 2072              		@ frame_needed = 0, uses_anonymous_args = 0
 2073              		@ link register save eliminated.
1696:Drivers/STM32F4xx_HAL_Driver/Src/stm32f4xx_hal_can.c ****   HAL_CAN_StateTypeDef state = hcan->State;
 2074              		.loc 1 1696 3 view .LVU698
 2075              		.loc 1 1696 24 is_stmt 0 view .LVU699
 2076 0000 90F82030 		ldrb	r3, [r0, #32]	@ zero_extendqisi2
 2077              	.LVL166:
1697:Drivers/STM32F4xx_HAL_Driver/Src/stm32f4xx_hal_can.c **** 
1698:Drivers/STM32F4xx_HAL_Driver/Src/stm32f4xx_hal_can.c ****   /* Check function parameters */
1699:Drivers/STM32F4xx_HAL_Driver/Src/stm32f4xx_hal_can.c ****   assert_param(IS_CAN_IT(InactiveITs));
 2078              		.loc 1 1699 3 is_stmt 1 view .LVU700
1700:Drivers/STM32F4xx_HAL_Driver/Src/stm32f4xx_hal_can.c **** 
1701:Drivers/STM32F4xx_HAL_Driver/Src/stm32f4xx_hal_can.c ****   if ((state == HAL_CAN_STATE_READY) ||
 2079              		.loc 1 1701 3 view .LVU701
 2080              		.loc 1 1701 38 is_stmt 0 view .LVU702
 2081 0004 013B     		subs	r3, r3, #1
 2082              	.LVL167:
 2083              		.loc 1 1701 38 view .LVU703
 2084 0006 DBB2     		uxtb	r3, r3
 2085              	.LVL168:
ARM GAS  C:\Users\Rick\AppData\Local\Temp\cck9vz6U.s 			page 80


 2086              		.loc 1 1701 6 view .LVU704
 2087 0008 012B     		cmp	r3, #1
 2088 000a 05D9     		bls	.L158
1702:Drivers/STM32F4xx_HAL_Driver/Src/stm32f4xx_hal_can.c ****       (state == HAL_CAN_STATE_LISTENING))
1703:Drivers/STM32F4xx_HAL_Driver/Src/stm32f4xx_hal_can.c ****   {
1704:Drivers/STM32F4xx_HAL_Driver/Src/stm32f4xx_hal_can.c ****     /* Disable the selected interrupts */
1705:Drivers/STM32F4xx_HAL_Driver/Src/stm32f4xx_hal_can.c ****     __HAL_CAN_DISABLE_IT(hcan, InactiveITs);
1706:Drivers/STM32F4xx_HAL_Driver/Src/stm32f4xx_hal_can.c **** 
1707:Drivers/STM32F4xx_HAL_Driver/Src/stm32f4xx_hal_can.c ****     /* Return function status */
1708:Drivers/STM32F4xx_HAL_Driver/Src/stm32f4xx_hal_can.c ****     return HAL_OK;
1709:Drivers/STM32F4xx_HAL_Driver/Src/stm32f4xx_hal_can.c ****   }
1710:Drivers/STM32F4xx_HAL_Driver/Src/stm32f4xx_hal_can.c ****   else
1711:Drivers/STM32F4xx_HAL_Driver/Src/stm32f4xx_hal_can.c ****   {
1712:Drivers/STM32F4xx_HAL_Driver/Src/stm32f4xx_hal_can.c ****     /* Update error code */
1713:Drivers/STM32F4xx_HAL_Driver/Src/stm32f4xx_hal_can.c ****     hcan->ErrorCode |= HAL_CAN_ERROR_NOT_INITIALIZED;
 2089              		.loc 1 1713 5 is_stmt 1 view .LVU705
 2090              		.loc 1 1713 9 is_stmt 0 view .LVU706
 2091 000c 436A     		ldr	r3, [r0, #36]
 2092              		.loc 1 1713 21 view .LVU707
 2093 000e 43F48023 		orr	r3, r3, #262144
 2094 0012 4362     		str	r3, [r0, #36]
1714:Drivers/STM32F4xx_HAL_Driver/Src/stm32f4xx_hal_can.c **** 
1715:Drivers/STM32F4xx_HAL_Driver/Src/stm32f4xx_hal_can.c ****     return HAL_ERROR;
 2095              		.loc 1 1715 5 is_stmt 1 view .LVU708
 2096              		.loc 1 1715 12 is_stmt 0 view .LVU709
 2097 0014 0120     		movs	r0, #1
 2098              	.LVL169:
1716:Drivers/STM32F4xx_HAL_Driver/Src/stm32f4xx_hal_can.c ****   }
1717:Drivers/STM32F4xx_HAL_Driver/Src/stm32f4xx_hal_can.c **** }
 2099              		.loc 1 1717 1 view .LVU710
 2100 0016 7047     		bx	lr
 2101              	.LVL170:
 2102              	.L158:
1705:Drivers/STM32F4xx_HAL_Driver/Src/stm32f4xx_hal_can.c **** 
 2103              		.loc 1 1705 5 is_stmt 1 view .LVU711
 2104 0018 0268     		ldr	r2, [r0]
 2105 001a 5369     		ldr	r3, [r2, #20]
 2106 001c 23EA0103 		bic	r3, r3, r1
 2107 0020 5361     		str	r3, [r2, #20]
1708:Drivers/STM32F4xx_HAL_Driver/Src/stm32f4xx_hal_can.c ****   }
 2108              		.loc 1 1708 5 view .LVU712
1708:Drivers/STM32F4xx_HAL_Driver/Src/stm32f4xx_hal_can.c ****   }
 2109              		.loc 1 1708 12 is_stmt 0 view .LVU713
 2110 0022 0020     		movs	r0, #0
 2111              	.LVL171:
1708:Drivers/STM32F4xx_HAL_Driver/Src/stm32f4xx_hal_can.c ****   }
 2112              		.loc 1 1708 12 view .LVU714
 2113 0024 7047     		bx	lr
 2114              		.cfi_endproc
 2115              	.LFE257:
 2117              		.section	.text.HAL_CAN_TxMailbox0CompleteCallback,"ax",%progbits
 2118              		.align	1
 2119              		.weak	HAL_CAN_TxMailbox0CompleteCallback
 2120              		.syntax unified
 2121              		.thumb
 2122              		.thumb_func
 2124              	HAL_CAN_TxMailbox0CompleteCallback:
ARM GAS  C:\Users\Rick\AppData\Local\Temp\cck9vz6U.s 			page 81


 2125              	.LVL172:
 2126              	.LFB259:
1718:Drivers/STM32F4xx_HAL_Driver/Src/stm32f4xx_hal_can.c **** 
1719:Drivers/STM32F4xx_HAL_Driver/Src/stm32f4xx_hal_can.c **** /**
1720:Drivers/STM32F4xx_HAL_Driver/Src/stm32f4xx_hal_can.c ****   * @brief  Handles CAN interrupt request
1721:Drivers/STM32F4xx_HAL_Driver/Src/stm32f4xx_hal_can.c ****   * @param  hcan pointer to a CAN_HandleTypeDef structure that contains
1722:Drivers/STM32F4xx_HAL_Driver/Src/stm32f4xx_hal_can.c ****   *         the configuration information for the specified CAN.
1723:Drivers/STM32F4xx_HAL_Driver/Src/stm32f4xx_hal_can.c ****   * @retval None
1724:Drivers/STM32F4xx_HAL_Driver/Src/stm32f4xx_hal_can.c ****   */
1725:Drivers/STM32F4xx_HAL_Driver/Src/stm32f4xx_hal_can.c **** void HAL_CAN_IRQHandler(CAN_HandleTypeDef *hcan)
1726:Drivers/STM32F4xx_HAL_Driver/Src/stm32f4xx_hal_can.c **** {
1727:Drivers/STM32F4xx_HAL_Driver/Src/stm32f4xx_hal_can.c ****   uint32_t errorcode = HAL_CAN_ERROR_NONE;
1728:Drivers/STM32F4xx_HAL_Driver/Src/stm32f4xx_hal_can.c ****   uint32_t interrupts = READ_REG(hcan->Instance->IER);
1729:Drivers/STM32F4xx_HAL_Driver/Src/stm32f4xx_hal_can.c ****   uint32_t msrflags = READ_REG(hcan->Instance->MSR);
1730:Drivers/STM32F4xx_HAL_Driver/Src/stm32f4xx_hal_can.c ****   uint32_t tsrflags = READ_REG(hcan->Instance->TSR);
1731:Drivers/STM32F4xx_HAL_Driver/Src/stm32f4xx_hal_can.c ****   uint32_t rf0rflags = READ_REG(hcan->Instance->RF0R);
1732:Drivers/STM32F4xx_HAL_Driver/Src/stm32f4xx_hal_can.c ****   uint32_t rf1rflags = READ_REG(hcan->Instance->RF1R);
1733:Drivers/STM32F4xx_HAL_Driver/Src/stm32f4xx_hal_can.c ****   uint32_t esrflags = READ_REG(hcan->Instance->ESR);
1734:Drivers/STM32F4xx_HAL_Driver/Src/stm32f4xx_hal_can.c **** 
1735:Drivers/STM32F4xx_HAL_Driver/Src/stm32f4xx_hal_can.c ****   /* Transmit Mailbox empty interrupt management *****************************/
1736:Drivers/STM32F4xx_HAL_Driver/Src/stm32f4xx_hal_can.c ****   if ((interrupts & CAN_IT_TX_MAILBOX_EMPTY) != 0U)
1737:Drivers/STM32F4xx_HAL_Driver/Src/stm32f4xx_hal_can.c ****   {
1738:Drivers/STM32F4xx_HAL_Driver/Src/stm32f4xx_hal_can.c ****     /* Transmit Mailbox 0 management *****************************************/
1739:Drivers/STM32F4xx_HAL_Driver/Src/stm32f4xx_hal_can.c ****     if ((tsrflags & CAN_TSR_RQCP0) != 0U)
1740:Drivers/STM32F4xx_HAL_Driver/Src/stm32f4xx_hal_can.c ****     {
1741:Drivers/STM32F4xx_HAL_Driver/Src/stm32f4xx_hal_can.c ****       /* Clear the Transmission Complete flag (and TXOK0,ALST0,TERR0 bits) */
1742:Drivers/STM32F4xx_HAL_Driver/Src/stm32f4xx_hal_can.c ****       __HAL_CAN_CLEAR_FLAG(hcan, CAN_FLAG_RQCP0);
1743:Drivers/STM32F4xx_HAL_Driver/Src/stm32f4xx_hal_can.c **** 
1744:Drivers/STM32F4xx_HAL_Driver/Src/stm32f4xx_hal_can.c ****       if ((tsrflags & CAN_TSR_TXOK0) != 0U)
1745:Drivers/STM32F4xx_HAL_Driver/Src/stm32f4xx_hal_can.c ****       {
1746:Drivers/STM32F4xx_HAL_Driver/Src/stm32f4xx_hal_can.c ****         /* Transmission Mailbox 0 complete callback */
1747:Drivers/STM32F4xx_HAL_Driver/Src/stm32f4xx_hal_can.c **** #if USE_HAL_CAN_REGISTER_CALLBACKS == 1
1748:Drivers/STM32F4xx_HAL_Driver/Src/stm32f4xx_hal_can.c ****         /* Call registered callback*/
1749:Drivers/STM32F4xx_HAL_Driver/Src/stm32f4xx_hal_can.c ****         hcan->TxMailbox0CompleteCallback(hcan);
1750:Drivers/STM32F4xx_HAL_Driver/Src/stm32f4xx_hal_can.c **** #else
1751:Drivers/STM32F4xx_HAL_Driver/Src/stm32f4xx_hal_can.c ****         /* Call weak (surcharged) callback */
1752:Drivers/STM32F4xx_HAL_Driver/Src/stm32f4xx_hal_can.c ****         HAL_CAN_TxMailbox0CompleteCallback(hcan);
1753:Drivers/STM32F4xx_HAL_Driver/Src/stm32f4xx_hal_can.c **** #endif /* USE_HAL_CAN_REGISTER_CALLBACKS */
1754:Drivers/STM32F4xx_HAL_Driver/Src/stm32f4xx_hal_can.c ****       }
1755:Drivers/STM32F4xx_HAL_Driver/Src/stm32f4xx_hal_can.c ****       else
1756:Drivers/STM32F4xx_HAL_Driver/Src/stm32f4xx_hal_can.c ****       {
1757:Drivers/STM32F4xx_HAL_Driver/Src/stm32f4xx_hal_can.c ****         if ((tsrflags & CAN_TSR_ALST0) != 0U)
1758:Drivers/STM32F4xx_HAL_Driver/Src/stm32f4xx_hal_can.c ****         {
1759:Drivers/STM32F4xx_HAL_Driver/Src/stm32f4xx_hal_can.c ****           /* Update error code */
1760:Drivers/STM32F4xx_HAL_Driver/Src/stm32f4xx_hal_can.c ****           errorcode |= HAL_CAN_ERROR_TX_ALST0;
1761:Drivers/STM32F4xx_HAL_Driver/Src/stm32f4xx_hal_can.c ****         }
1762:Drivers/STM32F4xx_HAL_Driver/Src/stm32f4xx_hal_can.c ****         else if ((tsrflags & CAN_TSR_TERR0) != 0U)
1763:Drivers/STM32F4xx_HAL_Driver/Src/stm32f4xx_hal_can.c ****         {
1764:Drivers/STM32F4xx_HAL_Driver/Src/stm32f4xx_hal_can.c ****           /* Update error code */
1765:Drivers/STM32F4xx_HAL_Driver/Src/stm32f4xx_hal_can.c ****           errorcode |= HAL_CAN_ERROR_TX_TERR0;
1766:Drivers/STM32F4xx_HAL_Driver/Src/stm32f4xx_hal_can.c ****         }
1767:Drivers/STM32F4xx_HAL_Driver/Src/stm32f4xx_hal_can.c ****         else
1768:Drivers/STM32F4xx_HAL_Driver/Src/stm32f4xx_hal_can.c ****         {
1769:Drivers/STM32F4xx_HAL_Driver/Src/stm32f4xx_hal_can.c ****           /* Transmission Mailbox 0 abort callback */
1770:Drivers/STM32F4xx_HAL_Driver/Src/stm32f4xx_hal_can.c **** #if USE_HAL_CAN_REGISTER_CALLBACKS == 1
1771:Drivers/STM32F4xx_HAL_Driver/Src/stm32f4xx_hal_can.c ****           /* Call registered callback*/
1772:Drivers/STM32F4xx_HAL_Driver/Src/stm32f4xx_hal_can.c ****           hcan->TxMailbox0AbortCallback(hcan);
ARM GAS  C:\Users\Rick\AppData\Local\Temp\cck9vz6U.s 			page 82


1773:Drivers/STM32F4xx_HAL_Driver/Src/stm32f4xx_hal_can.c **** #else
1774:Drivers/STM32F4xx_HAL_Driver/Src/stm32f4xx_hal_can.c ****           /* Call weak (surcharged) callback */
1775:Drivers/STM32F4xx_HAL_Driver/Src/stm32f4xx_hal_can.c ****           HAL_CAN_TxMailbox0AbortCallback(hcan);
1776:Drivers/STM32F4xx_HAL_Driver/Src/stm32f4xx_hal_can.c **** #endif /* USE_HAL_CAN_REGISTER_CALLBACKS */
1777:Drivers/STM32F4xx_HAL_Driver/Src/stm32f4xx_hal_can.c ****         }
1778:Drivers/STM32F4xx_HAL_Driver/Src/stm32f4xx_hal_can.c ****       }
1779:Drivers/STM32F4xx_HAL_Driver/Src/stm32f4xx_hal_can.c ****     }
1780:Drivers/STM32F4xx_HAL_Driver/Src/stm32f4xx_hal_can.c **** 
1781:Drivers/STM32F4xx_HAL_Driver/Src/stm32f4xx_hal_can.c ****     /* Transmit Mailbox 1 management *****************************************/
1782:Drivers/STM32F4xx_HAL_Driver/Src/stm32f4xx_hal_can.c ****     if ((tsrflags & CAN_TSR_RQCP1) != 0U)
1783:Drivers/STM32F4xx_HAL_Driver/Src/stm32f4xx_hal_can.c ****     {
1784:Drivers/STM32F4xx_HAL_Driver/Src/stm32f4xx_hal_can.c ****       /* Clear the Transmission Complete flag (and TXOK1,ALST1,TERR1 bits) */
1785:Drivers/STM32F4xx_HAL_Driver/Src/stm32f4xx_hal_can.c ****       __HAL_CAN_CLEAR_FLAG(hcan, CAN_FLAG_RQCP1);
1786:Drivers/STM32F4xx_HAL_Driver/Src/stm32f4xx_hal_can.c **** 
1787:Drivers/STM32F4xx_HAL_Driver/Src/stm32f4xx_hal_can.c ****       if ((tsrflags & CAN_TSR_TXOK1) != 0U)
1788:Drivers/STM32F4xx_HAL_Driver/Src/stm32f4xx_hal_can.c ****       {
1789:Drivers/STM32F4xx_HAL_Driver/Src/stm32f4xx_hal_can.c ****         /* Transmission Mailbox 1 complete callback */
1790:Drivers/STM32F4xx_HAL_Driver/Src/stm32f4xx_hal_can.c **** #if USE_HAL_CAN_REGISTER_CALLBACKS == 1
1791:Drivers/STM32F4xx_HAL_Driver/Src/stm32f4xx_hal_can.c ****         /* Call registered callback*/
1792:Drivers/STM32F4xx_HAL_Driver/Src/stm32f4xx_hal_can.c ****         hcan->TxMailbox1CompleteCallback(hcan);
1793:Drivers/STM32F4xx_HAL_Driver/Src/stm32f4xx_hal_can.c **** #else
1794:Drivers/STM32F4xx_HAL_Driver/Src/stm32f4xx_hal_can.c ****         /* Call weak (surcharged) callback */
1795:Drivers/STM32F4xx_HAL_Driver/Src/stm32f4xx_hal_can.c ****         HAL_CAN_TxMailbox1CompleteCallback(hcan);
1796:Drivers/STM32F4xx_HAL_Driver/Src/stm32f4xx_hal_can.c **** #endif /* USE_HAL_CAN_REGISTER_CALLBACKS */
1797:Drivers/STM32F4xx_HAL_Driver/Src/stm32f4xx_hal_can.c ****       }
1798:Drivers/STM32F4xx_HAL_Driver/Src/stm32f4xx_hal_can.c ****       else
1799:Drivers/STM32F4xx_HAL_Driver/Src/stm32f4xx_hal_can.c ****       {
1800:Drivers/STM32F4xx_HAL_Driver/Src/stm32f4xx_hal_can.c ****         if ((tsrflags & CAN_TSR_ALST1) != 0U)
1801:Drivers/STM32F4xx_HAL_Driver/Src/stm32f4xx_hal_can.c ****         {
1802:Drivers/STM32F4xx_HAL_Driver/Src/stm32f4xx_hal_can.c ****           /* Update error code */
1803:Drivers/STM32F4xx_HAL_Driver/Src/stm32f4xx_hal_can.c ****           errorcode |= HAL_CAN_ERROR_TX_ALST1;
1804:Drivers/STM32F4xx_HAL_Driver/Src/stm32f4xx_hal_can.c ****         }
1805:Drivers/STM32F4xx_HAL_Driver/Src/stm32f4xx_hal_can.c ****         else if ((tsrflags & CAN_TSR_TERR1) != 0U)
1806:Drivers/STM32F4xx_HAL_Driver/Src/stm32f4xx_hal_can.c ****         {
1807:Drivers/STM32F4xx_HAL_Driver/Src/stm32f4xx_hal_can.c ****           /* Update error code */
1808:Drivers/STM32F4xx_HAL_Driver/Src/stm32f4xx_hal_can.c ****           errorcode |= HAL_CAN_ERROR_TX_TERR1;
1809:Drivers/STM32F4xx_HAL_Driver/Src/stm32f4xx_hal_can.c ****         }
1810:Drivers/STM32F4xx_HAL_Driver/Src/stm32f4xx_hal_can.c ****         else
1811:Drivers/STM32F4xx_HAL_Driver/Src/stm32f4xx_hal_can.c ****         {
1812:Drivers/STM32F4xx_HAL_Driver/Src/stm32f4xx_hal_can.c ****           /* Transmission Mailbox 1 abort callback */
1813:Drivers/STM32F4xx_HAL_Driver/Src/stm32f4xx_hal_can.c **** #if USE_HAL_CAN_REGISTER_CALLBACKS == 1
1814:Drivers/STM32F4xx_HAL_Driver/Src/stm32f4xx_hal_can.c ****           /* Call registered callback*/
1815:Drivers/STM32F4xx_HAL_Driver/Src/stm32f4xx_hal_can.c ****           hcan->TxMailbox1AbortCallback(hcan);
1816:Drivers/STM32F4xx_HAL_Driver/Src/stm32f4xx_hal_can.c **** #else
1817:Drivers/STM32F4xx_HAL_Driver/Src/stm32f4xx_hal_can.c ****           /* Call weak (surcharged) callback */
1818:Drivers/STM32F4xx_HAL_Driver/Src/stm32f4xx_hal_can.c ****           HAL_CAN_TxMailbox1AbortCallback(hcan);
1819:Drivers/STM32F4xx_HAL_Driver/Src/stm32f4xx_hal_can.c **** #endif /* USE_HAL_CAN_REGISTER_CALLBACKS */
1820:Drivers/STM32F4xx_HAL_Driver/Src/stm32f4xx_hal_can.c ****         }
1821:Drivers/STM32F4xx_HAL_Driver/Src/stm32f4xx_hal_can.c ****       }
1822:Drivers/STM32F4xx_HAL_Driver/Src/stm32f4xx_hal_can.c ****     }
1823:Drivers/STM32F4xx_HAL_Driver/Src/stm32f4xx_hal_can.c **** 
1824:Drivers/STM32F4xx_HAL_Driver/Src/stm32f4xx_hal_can.c ****     /* Transmit Mailbox 2 management *****************************************/
1825:Drivers/STM32F4xx_HAL_Driver/Src/stm32f4xx_hal_can.c ****     if ((tsrflags & CAN_TSR_RQCP2) != 0U)
1826:Drivers/STM32F4xx_HAL_Driver/Src/stm32f4xx_hal_can.c ****     {
1827:Drivers/STM32F4xx_HAL_Driver/Src/stm32f4xx_hal_can.c ****       /* Clear the Transmission Complete flag (and TXOK2,ALST2,TERR2 bits) */
1828:Drivers/STM32F4xx_HAL_Driver/Src/stm32f4xx_hal_can.c ****       __HAL_CAN_CLEAR_FLAG(hcan, CAN_FLAG_RQCP2);
1829:Drivers/STM32F4xx_HAL_Driver/Src/stm32f4xx_hal_can.c **** 
ARM GAS  C:\Users\Rick\AppData\Local\Temp\cck9vz6U.s 			page 83


1830:Drivers/STM32F4xx_HAL_Driver/Src/stm32f4xx_hal_can.c ****       if ((tsrflags & CAN_TSR_TXOK2) != 0U)
1831:Drivers/STM32F4xx_HAL_Driver/Src/stm32f4xx_hal_can.c ****       {
1832:Drivers/STM32F4xx_HAL_Driver/Src/stm32f4xx_hal_can.c ****         /* Transmission Mailbox 2 complete callback */
1833:Drivers/STM32F4xx_HAL_Driver/Src/stm32f4xx_hal_can.c **** #if USE_HAL_CAN_REGISTER_CALLBACKS == 1
1834:Drivers/STM32F4xx_HAL_Driver/Src/stm32f4xx_hal_can.c ****         /* Call registered callback*/
1835:Drivers/STM32F4xx_HAL_Driver/Src/stm32f4xx_hal_can.c ****         hcan->TxMailbox2CompleteCallback(hcan);
1836:Drivers/STM32F4xx_HAL_Driver/Src/stm32f4xx_hal_can.c **** #else
1837:Drivers/STM32F4xx_HAL_Driver/Src/stm32f4xx_hal_can.c ****         /* Call weak (surcharged) callback */
1838:Drivers/STM32F4xx_HAL_Driver/Src/stm32f4xx_hal_can.c ****         HAL_CAN_TxMailbox2CompleteCallback(hcan);
1839:Drivers/STM32F4xx_HAL_Driver/Src/stm32f4xx_hal_can.c **** #endif /* USE_HAL_CAN_REGISTER_CALLBACKS */
1840:Drivers/STM32F4xx_HAL_Driver/Src/stm32f4xx_hal_can.c ****       }
1841:Drivers/STM32F4xx_HAL_Driver/Src/stm32f4xx_hal_can.c ****       else
1842:Drivers/STM32F4xx_HAL_Driver/Src/stm32f4xx_hal_can.c ****       {
1843:Drivers/STM32F4xx_HAL_Driver/Src/stm32f4xx_hal_can.c ****         if ((tsrflags & CAN_TSR_ALST2) != 0U)
1844:Drivers/STM32F4xx_HAL_Driver/Src/stm32f4xx_hal_can.c ****         {
1845:Drivers/STM32F4xx_HAL_Driver/Src/stm32f4xx_hal_can.c ****           /* Update error code */
1846:Drivers/STM32F4xx_HAL_Driver/Src/stm32f4xx_hal_can.c ****           errorcode |= HAL_CAN_ERROR_TX_ALST2;
1847:Drivers/STM32F4xx_HAL_Driver/Src/stm32f4xx_hal_can.c ****         }
1848:Drivers/STM32F4xx_HAL_Driver/Src/stm32f4xx_hal_can.c ****         else if ((tsrflags & CAN_TSR_TERR2) != 0U)
1849:Drivers/STM32F4xx_HAL_Driver/Src/stm32f4xx_hal_can.c ****         {
1850:Drivers/STM32F4xx_HAL_Driver/Src/stm32f4xx_hal_can.c ****           /* Update error code */
1851:Drivers/STM32F4xx_HAL_Driver/Src/stm32f4xx_hal_can.c ****           errorcode |= HAL_CAN_ERROR_TX_TERR2;
1852:Drivers/STM32F4xx_HAL_Driver/Src/stm32f4xx_hal_can.c ****         }
1853:Drivers/STM32F4xx_HAL_Driver/Src/stm32f4xx_hal_can.c ****         else
1854:Drivers/STM32F4xx_HAL_Driver/Src/stm32f4xx_hal_can.c ****         {
1855:Drivers/STM32F4xx_HAL_Driver/Src/stm32f4xx_hal_can.c ****           /* Transmission Mailbox 2 abort callback */
1856:Drivers/STM32F4xx_HAL_Driver/Src/stm32f4xx_hal_can.c **** #if USE_HAL_CAN_REGISTER_CALLBACKS == 1
1857:Drivers/STM32F4xx_HAL_Driver/Src/stm32f4xx_hal_can.c ****           /* Call registered callback*/
1858:Drivers/STM32F4xx_HAL_Driver/Src/stm32f4xx_hal_can.c ****           hcan->TxMailbox2AbortCallback(hcan);
1859:Drivers/STM32F4xx_HAL_Driver/Src/stm32f4xx_hal_can.c **** #else
1860:Drivers/STM32F4xx_HAL_Driver/Src/stm32f4xx_hal_can.c ****           /* Call weak (surcharged) callback */
1861:Drivers/STM32F4xx_HAL_Driver/Src/stm32f4xx_hal_can.c ****           HAL_CAN_TxMailbox2AbortCallback(hcan);
1862:Drivers/STM32F4xx_HAL_Driver/Src/stm32f4xx_hal_can.c **** #endif /* USE_HAL_CAN_REGISTER_CALLBACKS */
1863:Drivers/STM32F4xx_HAL_Driver/Src/stm32f4xx_hal_can.c ****         }
1864:Drivers/STM32F4xx_HAL_Driver/Src/stm32f4xx_hal_can.c ****       }
1865:Drivers/STM32F4xx_HAL_Driver/Src/stm32f4xx_hal_can.c ****     }
1866:Drivers/STM32F4xx_HAL_Driver/Src/stm32f4xx_hal_can.c ****   }
1867:Drivers/STM32F4xx_HAL_Driver/Src/stm32f4xx_hal_can.c **** 
1868:Drivers/STM32F4xx_HAL_Driver/Src/stm32f4xx_hal_can.c ****   /* Receive FIFO 0 overrun interrupt management *****************************/
1869:Drivers/STM32F4xx_HAL_Driver/Src/stm32f4xx_hal_can.c ****   if ((interrupts & CAN_IT_RX_FIFO0_OVERRUN) != 0U)
1870:Drivers/STM32F4xx_HAL_Driver/Src/stm32f4xx_hal_can.c ****   {
1871:Drivers/STM32F4xx_HAL_Driver/Src/stm32f4xx_hal_can.c ****     if ((rf0rflags & CAN_RF0R_FOVR0) != 0U)
1872:Drivers/STM32F4xx_HAL_Driver/Src/stm32f4xx_hal_can.c ****     {
1873:Drivers/STM32F4xx_HAL_Driver/Src/stm32f4xx_hal_can.c ****       /* Set CAN error code to Rx Fifo 0 overrun error */
1874:Drivers/STM32F4xx_HAL_Driver/Src/stm32f4xx_hal_can.c ****       errorcode |= HAL_CAN_ERROR_RX_FOV0;
1875:Drivers/STM32F4xx_HAL_Driver/Src/stm32f4xx_hal_can.c **** 
1876:Drivers/STM32F4xx_HAL_Driver/Src/stm32f4xx_hal_can.c ****       /* Clear FIFO0 Overrun Flag */
1877:Drivers/STM32F4xx_HAL_Driver/Src/stm32f4xx_hal_can.c ****       __HAL_CAN_CLEAR_FLAG(hcan, CAN_FLAG_FOV0);
1878:Drivers/STM32F4xx_HAL_Driver/Src/stm32f4xx_hal_can.c ****     }
1879:Drivers/STM32F4xx_HAL_Driver/Src/stm32f4xx_hal_can.c ****   }
1880:Drivers/STM32F4xx_HAL_Driver/Src/stm32f4xx_hal_can.c **** 
1881:Drivers/STM32F4xx_HAL_Driver/Src/stm32f4xx_hal_can.c ****   /* Receive FIFO 0 full interrupt management ********************************/
1882:Drivers/STM32F4xx_HAL_Driver/Src/stm32f4xx_hal_can.c ****   if ((interrupts & CAN_IT_RX_FIFO0_FULL) != 0U)
1883:Drivers/STM32F4xx_HAL_Driver/Src/stm32f4xx_hal_can.c ****   {
1884:Drivers/STM32F4xx_HAL_Driver/Src/stm32f4xx_hal_can.c ****     if ((rf0rflags & CAN_RF0R_FULL0) != 0U)
1885:Drivers/STM32F4xx_HAL_Driver/Src/stm32f4xx_hal_can.c ****     {
1886:Drivers/STM32F4xx_HAL_Driver/Src/stm32f4xx_hal_can.c ****       /* Clear FIFO 0 full Flag */
ARM GAS  C:\Users\Rick\AppData\Local\Temp\cck9vz6U.s 			page 84


1887:Drivers/STM32F4xx_HAL_Driver/Src/stm32f4xx_hal_can.c ****       __HAL_CAN_CLEAR_FLAG(hcan, CAN_FLAG_FF0);
1888:Drivers/STM32F4xx_HAL_Driver/Src/stm32f4xx_hal_can.c **** 
1889:Drivers/STM32F4xx_HAL_Driver/Src/stm32f4xx_hal_can.c ****       /* Receive FIFO 0 full Callback */
1890:Drivers/STM32F4xx_HAL_Driver/Src/stm32f4xx_hal_can.c **** #if USE_HAL_CAN_REGISTER_CALLBACKS == 1
1891:Drivers/STM32F4xx_HAL_Driver/Src/stm32f4xx_hal_can.c ****       /* Call registered callback*/
1892:Drivers/STM32F4xx_HAL_Driver/Src/stm32f4xx_hal_can.c ****       hcan->RxFifo0FullCallback(hcan);
1893:Drivers/STM32F4xx_HAL_Driver/Src/stm32f4xx_hal_can.c **** #else
1894:Drivers/STM32F4xx_HAL_Driver/Src/stm32f4xx_hal_can.c ****       /* Call weak (surcharged) callback */
1895:Drivers/STM32F4xx_HAL_Driver/Src/stm32f4xx_hal_can.c ****       HAL_CAN_RxFifo0FullCallback(hcan);
1896:Drivers/STM32F4xx_HAL_Driver/Src/stm32f4xx_hal_can.c **** #endif /* USE_HAL_CAN_REGISTER_CALLBACKS */
1897:Drivers/STM32F4xx_HAL_Driver/Src/stm32f4xx_hal_can.c ****     }
1898:Drivers/STM32F4xx_HAL_Driver/Src/stm32f4xx_hal_can.c ****   }
1899:Drivers/STM32F4xx_HAL_Driver/Src/stm32f4xx_hal_can.c **** 
1900:Drivers/STM32F4xx_HAL_Driver/Src/stm32f4xx_hal_can.c ****   /* Receive FIFO 0 message pending interrupt management *********************/
1901:Drivers/STM32F4xx_HAL_Driver/Src/stm32f4xx_hal_can.c ****   if ((interrupts & CAN_IT_RX_FIFO0_MSG_PENDING) != 0U)
1902:Drivers/STM32F4xx_HAL_Driver/Src/stm32f4xx_hal_can.c ****   {
1903:Drivers/STM32F4xx_HAL_Driver/Src/stm32f4xx_hal_can.c ****     /* Check if message is still pending */
1904:Drivers/STM32F4xx_HAL_Driver/Src/stm32f4xx_hal_can.c ****     if ((hcan->Instance->RF0R & CAN_RF0R_FMP0) != 0U)
1905:Drivers/STM32F4xx_HAL_Driver/Src/stm32f4xx_hal_can.c ****     {
1906:Drivers/STM32F4xx_HAL_Driver/Src/stm32f4xx_hal_can.c ****       /* Receive FIFO 0 message pending Callback */
1907:Drivers/STM32F4xx_HAL_Driver/Src/stm32f4xx_hal_can.c **** #if USE_HAL_CAN_REGISTER_CALLBACKS == 1
1908:Drivers/STM32F4xx_HAL_Driver/Src/stm32f4xx_hal_can.c ****       /* Call registered callback*/
1909:Drivers/STM32F4xx_HAL_Driver/Src/stm32f4xx_hal_can.c ****       hcan->RxFifo0MsgPendingCallback(hcan);
1910:Drivers/STM32F4xx_HAL_Driver/Src/stm32f4xx_hal_can.c **** #else
1911:Drivers/STM32F4xx_HAL_Driver/Src/stm32f4xx_hal_can.c ****       /* Call weak (surcharged) callback */
1912:Drivers/STM32F4xx_HAL_Driver/Src/stm32f4xx_hal_can.c ****       HAL_CAN_RxFifo0MsgPendingCallback(hcan);
1913:Drivers/STM32F4xx_HAL_Driver/Src/stm32f4xx_hal_can.c **** #endif /* USE_HAL_CAN_REGISTER_CALLBACKS */
1914:Drivers/STM32F4xx_HAL_Driver/Src/stm32f4xx_hal_can.c ****     }
1915:Drivers/STM32F4xx_HAL_Driver/Src/stm32f4xx_hal_can.c ****   }
1916:Drivers/STM32F4xx_HAL_Driver/Src/stm32f4xx_hal_can.c **** 
1917:Drivers/STM32F4xx_HAL_Driver/Src/stm32f4xx_hal_can.c ****   /* Receive FIFO 1 overrun interrupt management *****************************/
1918:Drivers/STM32F4xx_HAL_Driver/Src/stm32f4xx_hal_can.c ****   if ((interrupts & CAN_IT_RX_FIFO1_OVERRUN) != 0U)
1919:Drivers/STM32F4xx_HAL_Driver/Src/stm32f4xx_hal_can.c ****   {
1920:Drivers/STM32F4xx_HAL_Driver/Src/stm32f4xx_hal_can.c ****     if ((rf1rflags & CAN_RF1R_FOVR1) != 0U)
1921:Drivers/STM32F4xx_HAL_Driver/Src/stm32f4xx_hal_can.c ****     {
1922:Drivers/STM32F4xx_HAL_Driver/Src/stm32f4xx_hal_can.c ****       /* Set CAN error code to Rx Fifo 1 overrun error */
1923:Drivers/STM32F4xx_HAL_Driver/Src/stm32f4xx_hal_can.c ****       errorcode |= HAL_CAN_ERROR_RX_FOV1;
1924:Drivers/STM32F4xx_HAL_Driver/Src/stm32f4xx_hal_can.c **** 
1925:Drivers/STM32F4xx_HAL_Driver/Src/stm32f4xx_hal_can.c ****       /* Clear FIFO1 Overrun Flag */
1926:Drivers/STM32F4xx_HAL_Driver/Src/stm32f4xx_hal_can.c ****       __HAL_CAN_CLEAR_FLAG(hcan, CAN_FLAG_FOV1);
1927:Drivers/STM32F4xx_HAL_Driver/Src/stm32f4xx_hal_can.c ****     }
1928:Drivers/STM32F4xx_HAL_Driver/Src/stm32f4xx_hal_can.c ****   }
1929:Drivers/STM32F4xx_HAL_Driver/Src/stm32f4xx_hal_can.c **** 
1930:Drivers/STM32F4xx_HAL_Driver/Src/stm32f4xx_hal_can.c ****   /* Receive FIFO 1 full interrupt management ********************************/
1931:Drivers/STM32F4xx_HAL_Driver/Src/stm32f4xx_hal_can.c ****   if ((interrupts & CAN_IT_RX_FIFO1_FULL) != 0U)
1932:Drivers/STM32F4xx_HAL_Driver/Src/stm32f4xx_hal_can.c ****   {
1933:Drivers/STM32F4xx_HAL_Driver/Src/stm32f4xx_hal_can.c ****     if ((rf1rflags & CAN_RF1R_FULL1) != 0U)
1934:Drivers/STM32F4xx_HAL_Driver/Src/stm32f4xx_hal_can.c ****     {
1935:Drivers/STM32F4xx_HAL_Driver/Src/stm32f4xx_hal_can.c ****       /* Clear FIFO 1 full Flag */
1936:Drivers/STM32F4xx_HAL_Driver/Src/stm32f4xx_hal_can.c ****       __HAL_CAN_CLEAR_FLAG(hcan, CAN_FLAG_FF1);
1937:Drivers/STM32F4xx_HAL_Driver/Src/stm32f4xx_hal_can.c **** 
1938:Drivers/STM32F4xx_HAL_Driver/Src/stm32f4xx_hal_can.c ****       /* Receive FIFO 1 full Callback */
1939:Drivers/STM32F4xx_HAL_Driver/Src/stm32f4xx_hal_can.c **** #if USE_HAL_CAN_REGISTER_CALLBACKS == 1
1940:Drivers/STM32F4xx_HAL_Driver/Src/stm32f4xx_hal_can.c ****       /* Call registered callback*/
1941:Drivers/STM32F4xx_HAL_Driver/Src/stm32f4xx_hal_can.c ****       hcan->RxFifo1FullCallback(hcan);
1942:Drivers/STM32F4xx_HAL_Driver/Src/stm32f4xx_hal_can.c **** #else
1943:Drivers/STM32F4xx_HAL_Driver/Src/stm32f4xx_hal_can.c ****       /* Call weak (surcharged) callback */
ARM GAS  C:\Users\Rick\AppData\Local\Temp\cck9vz6U.s 			page 85


1944:Drivers/STM32F4xx_HAL_Driver/Src/stm32f4xx_hal_can.c ****       HAL_CAN_RxFifo1FullCallback(hcan);
1945:Drivers/STM32F4xx_HAL_Driver/Src/stm32f4xx_hal_can.c **** #endif /* USE_HAL_CAN_REGISTER_CALLBACKS */
1946:Drivers/STM32F4xx_HAL_Driver/Src/stm32f4xx_hal_can.c ****     }
1947:Drivers/STM32F4xx_HAL_Driver/Src/stm32f4xx_hal_can.c ****   }
1948:Drivers/STM32F4xx_HAL_Driver/Src/stm32f4xx_hal_can.c **** 
1949:Drivers/STM32F4xx_HAL_Driver/Src/stm32f4xx_hal_can.c ****   /* Receive FIFO 1 message pending interrupt management *********************/
1950:Drivers/STM32F4xx_HAL_Driver/Src/stm32f4xx_hal_can.c ****   if ((interrupts & CAN_IT_RX_FIFO1_MSG_PENDING) != 0U)
1951:Drivers/STM32F4xx_HAL_Driver/Src/stm32f4xx_hal_can.c ****   {
1952:Drivers/STM32F4xx_HAL_Driver/Src/stm32f4xx_hal_can.c ****     /* Check if message is still pending */
1953:Drivers/STM32F4xx_HAL_Driver/Src/stm32f4xx_hal_can.c ****     if ((hcan->Instance->RF1R & CAN_RF1R_FMP1) != 0U)
1954:Drivers/STM32F4xx_HAL_Driver/Src/stm32f4xx_hal_can.c ****     {
1955:Drivers/STM32F4xx_HAL_Driver/Src/stm32f4xx_hal_can.c ****       /* Receive FIFO 1 message pending Callback */
1956:Drivers/STM32F4xx_HAL_Driver/Src/stm32f4xx_hal_can.c **** #if USE_HAL_CAN_REGISTER_CALLBACKS == 1
1957:Drivers/STM32F4xx_HAL_Driver/Src/stm32f4xx_hal_can.c ****       /* Call registered callback*/
1958:Drivers/STM32F4xx_HAL_Driver/Src/stm32f4xx_hal_can.c ****       hcan->RxFifo1MsgPendingCallback(hcan);
1959:Drivers/STM32F4xx_HAL_Driver/Src/stm32f4xx_hal_can.c **** #else
1960:Drivers/STM32F4xx_HAL_Driver/Src/stm32f4xx_hal_can.c ****       /* Call weak (surcharged) callback */
1961:Drivers/STM32F4xx_HAL_Driver/Src/stm32f4xx_hal_can.c ****       HAL_CAN_RxFifo1MsgPendingCallback(hcan);
1962:Drivers/STM32F4xx_HAL_Driver/Src/stm32f4xx_hal_can.c **** #endif /* USE_HAL_CAN_REGISTER_CALLBACKS */
1963:Drivers/STM32F4xx_HAL_Driver/Src/stm32f4xx_hal_can.c ****     }
1964:Drivers/STM32F4xx_HAL_Driver/Src/stm32f4xx_hal_can.c ****   }
1965:Drivers/STM32F4xx_HAL_Driver/Src/stm32f4xx_hal_can.c **** 
1966:Drivers/STM32F4xx_HAL_Driver/Src/stm32f4xx_hal_can.c ****   /* Sleep interrupt management *********************************************/
1967:Drivers/STM32F4xx_HAL_Driver/Src/stm32f4xx_hal_can.c ****   if ((interrupts & CAN_IT_SLEEP_ACK) != 0U)
1968:Drivers/STM32F4xx_HAL_Driver/Src/stm32f4xx_hal_can.c ****   {
1969:Drivers/STM32F4xx_HAL_Driver/Src/stm32f4xx_hal_can.c ****     if ((msrflags & CAN_MSR_SLAKI) != 0U)
1970:Drivers/STM32F4xx_HAL_Driver/Src/stm32f4xx_hal_can.c ****     {
1971:Drivers/STM32F4xx_HAL_Driver/Src/stm32f4xx_hal_can.c ****       /* Clear Sleep interrupt Flag */
1972:Drivers/STM32F4xx_HAL_Driver/Src/stm32f4xx_hal_can.c ****       __HAL_CAN_CLEAR_FLAG(hcan, CAN_FLAG_SLAKI);
1973:Drivers/STM32F4xx_HAL_Driver/Src/stm32f4xx_hal_can.c **** 
1974:Drivers/STM32F4xx_HAL_Driver/Src/stm32f4xx_hal_can.c ****       /* Sleep Callback */
1975:Drivers/STM32F4xx_HAL_Driver/Src/stm32f4xx_hal_can.c **** #if USE_HAL_CAN_REGISTER_CALLBACKS == 1
1976:Drivers/STM32F4xx_HAL_Driver/Src/stm32f4xx_hal_can.c ****       /* Call registered callback*/
1977:Drivers/STM32F4xx_HAL_Driver/Src/stm32f4xx_hal_can.c ****       hcan->SleepCallback(hcan);
1978:Drivers/STM32F4xx_HAL_Driver/Src/stm32f4xx_hal_can.c **** #else
1979:Drivers/STM32F4xx_HAL_Driver/Src/stm32f4xx_hal_can.c ****       /* Call weak (surcharged) callback */
1980:Drivers/STM32F4xx_HAL_Driver/Src/stm32f4xx_hal_can.c ****       HAL_CAN_SleepCallback(hcan);
1981:Drivers/STM32F4xx_HAL_Driver/Src/stm32f4xx_hal_can.c **** #endif /* USE_HAL_CAN_REGISTER_CALLBACKS */
1982:Drivers/STM32F4xx_HAL_Driver/Src/stm32f4xx_hal_can.c ****     }
1983:Drivers/STM32F4xx_HAL_Driver/Src/stm32f4xx_hal_can.c ****   }
1984:Drivers/STM32F4xx_HAL_Driver/Src/stm32f4xx_hal_can.c **** 
1985:Drivers/STM32F4xx_HAL_Driver/Src/stm32f4xx_hal_can.c ****   /* WakeUp interrupt management *********************************************/
1986:Drivers/STM32F4xx_HAL_Driver/Src/stm32f4xx_hal_can.c ****   if ((interrupts & CAN_IT_WAKEUP) != 0U)
1987:Drivers/STM32F4xx_HAL_Driver/Src/stm32f4xx_hal_can.c ****   {
1988:Drivers/STM32F4xx_HAL_Driver/Src/stm32f4xx_hal_can.c ****     if ((msrflags & CAN_MSR_WKUI) != 0U)
1989:Drivers/STM32F4xx_HAL_Driver/Src/stm32f4xx_hal_can.c ****     {
1990:Drivers/STM32F4xx_HAL_Driver/Src/stm32f4xx_hal_can.c ****       /* Clear WakeUp Flag */
1991:Drivers/STM32F4xx_HAL_Driver/Src/stm32f4xx_hal_can.c ****       __HAL_CAN_CLEAR_FLAG(hcan, CAN_FLAG_WKU);
1992:Drivers/STM32F4xx_HAL_Driver/Src/stm32f4xx_hal_can.c **** 
1993:Drivers/STM32F4xx_HAL_Driver/Src/stm32f4xx_hal_can.c ****       /* WakeUp Callback */
1994:Drivers/STM32F4xx_HAL_Driver/Src/stm32f4xx_hal_can.c **** #if USE_HAL_CAN_REGISTER_CALLBACKS == 1
1995:Drivers/STM32F4xx_HAL_Driver/Src/stm32f4xx_hal_can.c ****       /* Call registered callback*/
1996:Drivers/STM32F4xx_HAL_Driver/Src/stm32f4xx_hal_can.c ****       hcan->WakeUpFromRxMsgCallback(hcan);
1997:Drivers/STM32F4xx_HAL_Driver/Src/stm32f4xx_hal_can.c **** #else
1998:Drivers/STM32F4xx_HAL_Driver/Src/stm32f4xx_hal_can.c ****       /* Call weak (surcharged) callback */
1999:Drivers/STM32F4xx_HAL_Driver/Src/stm32f4xx_hal_can.c ****       HAL_CAN_WakeUpFromRxMsgCallback(hcan);
2000:Drivers/STM32F4xx_HAL_Driver/Src/stm32f4xx_hal_can.c **** #endif /* USE_HAL_CAN_REGISTER_CALLBACKS */
ARM GAS  C:\Users\Rick\AppData\Local\Temp\cck9vz6U.s 			page 86


2001:Drivers/STM32F4xx_HAL_Driver/Src/stm32f4xx_hal_can.c ****     }
2002:Drivers/STM32F4xx_HAL_Driver/Src/stm32f4xx_hal_can.c ****   }
2003:Drivers/STM32F4xx_HAL_Driver/Src/stm32f4xx_hal_can.c **** 
2004:Drivers/STM32F4xx_HAL_Driver/Src/stm32f4xx_hal_can.c ****   /* Error interrupts management *********************************************/
2005:Drivers/STM32F4xx_HAL_Driver/Src/stm32f4xx_hal_can.c ****   if ((interrupts & CAN_IT_ERROR) != 0U)
2006:Drivers/STM32F4xx_HAL_Driver/Src/stm32f4xx_hal_can.c ****   {
2007:Drivers/STM32F4xx_HAL_Driver/Src/stm32f4xx_hal_can.c ****     if ((msrflags & CAN_MSR_ERRI) != 0U)
2008:Drivers/STM32F4xx_HAL_Driver/Src/stm32f4xx_hal_can.c ****     {
2009:Drivers/STM32F4xx_HAL_Driver/Src/stm32f4xx_hal_can.c ****       /* Check Error Warning Flag */
2010:Drivers/STM32F4xx_HAL_Driver/Src/stm32f4xx_hal_can.c ****       if (((interrupts & CAN_IT_ERROR_WARNING) != 0U) &&
2011:Drivers/STM32F4xx_HAL_Driver/Src/stm32f4xx_hal_can.c ****           ((esrflags & CAN_ESR_EWGF) != 0U))
2012:Drivers/STM32F4xx_HAL_Driver/Src/stm32f4xx_hal_can.c ****       {
2013:Drivers/STM32F4xx_HAL_Driver/Src/stm32f4xx_hal_can.c ****         /* Set CAN error code to Error Warning */
2014:Drivers/STM32F4xx_HAL_Driver/Src/stm32f4xx_hal_can.c ****         errorcode |= HAL_CAN_ERROR_EWG;
2015:Drivers/STM32F4xx_HAL_Driver/Src/stm32f4xx_hal_can.c **** 
2016:Drivers/STM32F4xx_HAL_Driver/Src/stm32f4xx_hal_can.c ****         /* No need for clear of Error Warning Flag as read-only */
2017:Drivers/STM32F4xx_HAL_Driver/Src/stm32f4xx_hal_can.c ****       }
2018:Drivers/STM32F4xx_HAL_Driver/Src/stm32f4xx_hal_can.c **** 
2019:Drivers/STM32F4xx_HAL_Driver/Src/stm32f4xx_hal_can.c ****       /* Check Error Passive Flag */
2020:Drivers/STM32F4xx_HAL_Driver/Src/stm32f4xx_hal_can.c ****       if (((interrupts & CAN_IT_ERROR_PASSIVE) != 0U) &&
2021:Drivers/STM32F4xx_HAL_Driver/Src/stm32f4xx_hal_can.c ****           ((esrflags & CAN_ESR_EPVF) != 0U))
2022:Drivers/STM32F4xx_HAL_Driver/Src/stm32f4xx_hal_can.c ****       {
2023:Drivers/STM32F4xx_HAL_Driver/Src/stm32f4xx_hal_can.c ****         /* Set CAN error code to Error Passive */
2024:Drivers/STM32F4xx_HAL_Driver/Src/stm32f4xx_hal_can.c ****         errorcode |= HAL_CAN_ERROR_EPV;
2025:Drivers/STM32F4xx_HAL_Driver/Src/stm32f4xx_hal_can.c **** 
2026:Drivers/STM32F4xx_HAL_Driver/Src/stm32f4xx_hal_can.c ****         /* No need for clear of Error Passive Flag as read-only */
2027:Drivers/STM32F4xx_HAL_Driver/Src/stm32f4xx_hal_can.c ****       }
2028:Drivers/STM32F4xx_HAL_Driver/Src/stm32f4xx_hal_can.c **** 
2029:Drivers/STM32F4xx_HAL_Driver/Src/stm32f4xx_hal_can.c ****       /* Check Bus-off Flag */
2030:Drivers/STM32F4xx_HAL_Driver/Src/stm32f4xx_hal_can.c ****       if (((interrupts & CAN_IT_BUSOFF) != 0U) &&
2031:Drivers/STM32F4xx_HAL_Driver/Src/stm32f4xx_hal_can.c ****           ((esrflags & CAN_ESR_BOFF) != 0U))
2032:Drivers/STM32F4xx_HAL_Driver/Src/stm32f4xx_hal_can.c ****       {
2033:Drivers/STM32F4xx_HAL_Driver/Src/stm32f4xx_hal_can.c ****         /* Set CAN error code to Bus-Off */
2034:Drivers/STM32F4xx_HAL_Driver/Src/stm32f4xx_hal_can.c ****         errorcode |= HAL_CAN_ERROR_BOF;
2035:Drivers/STM32F4xx_HAL_Driver/Src/stm32f4xx_hal_can.c **** 
2036:Drivers/STM32F4xx_HAL_Driver/Src/stm32f4xx_hal_can.c ****         /* No need for clear of Error Bus-Off as read-only */
2037:Drivers/STM32F4xx_HAL_Driver/Src/stm32f4xx_hal_can.c ****       }
2038:Drivers/STM32F4xx_HAL_Driver/Src/stm32f4xx_hal_can.c **** 
2039:Drivers/STM32F4xx_HAL_Driver/Src/stm32f4xx_hal_can.c ****       /* Check Last Error Code Flag */
2040:Drivers/STM32F4xx_HAL_Driver/Src/stm32f4xx_hal_can.c ****       if (((interrupts & CAN_IT_LAST_ERROR_CODE) != 0U) &&
2041:Drivers/STM32F4xx_HAL_Driver/Src/stm32f4xx_hal_can.c ****           ((esrflags & CAN_ESR_LEC) != 0U))
2042:Drivers/STM32F4xx_HAL_Driver/Src/stm32f4xx_hal_can.c ****       {
2043:Drivers/STM32F4xx_HAL_Driver/Src/stm32f4xx_hal_can.c ****         switch (esrflags & CAN_ESR_LEC)
2044:Drivers/STM32F4xx_HAL_Driver/Src/stm32f4xx_hal_can.c ****         {
2045:Drivers/STM32F4xx_HAL_Driver/Src/stm32f4xx_hal_can.c ****           case (CAN_ESR_LEC_0):
2046:Drivers/STM32F4xx_HAL_Driver/Src/stm32f4xx_hal_can.c ****             /* Set CAN error code to Stuff error */
2047:Drivers/STM32F4xx_HAL_Driver/Src/stm32f4xx_hal_can.c ****             errorcode |= HAL_CAN_ERROR_STF;
2048:Drivers/STM32F4xx_HAL_Driver/Src/stm32f4xx_hal_can.c ****             break;
2049:Drivers/STM32F4xx_HAL_Driver/Src/stm32f4xx_hal_can.c ****           case (CAN_ESR_LEC_1):
2050:Drivers/STM32F4xx_HAL_Driver/Src/stm32f4xx_hal_can.c ****             /* Set CAN error code to Form error */
2051:Drivers/STM32F4xx_HAL_Driver/Src/stm32f4xx_hal_can.c ****             errorcode |= HAL_CAN_ERROR_FOR;
2052:Drivers/STM32F4xx_HAL_Driver/Src/stm32f4xx_hal_can.c ****             break;
2053:Drivers/STM32F4xx_HAL_Driver/Src/stm32f4xx_hal_can.c ****           case (CAN_ESR_LEC_1 | CAN_ESR_LEC_0):
2054:Drivers/STM32F4xx_HAL_Driver/Src/stm32f4xx_hal_can.c ****             /* Set CAN error code to Acknowledgement error */
2055:Drivers/STM32F4xx_HAL_Driver/Src/stm32f4xx_hal_can.c ****             errorcode |= HAL_CAN_ERROR_ACK;
2056:Drivers/STM32F4xx_HAL_Driver/Src/stm32f4xx_hal_can.c ****             break;
2057:Drivers/STM32F4xx_HAL_Driver/Src/stm32f4xx_hal_can.c ****           case (CAN_ESR_LEC_2):
ARM GAS  C:\Users\Rick\AppData\Local\Temp\cck9vz6U.s 			page 87


2058:Drivers/STM32F4xx_HAL_Driver/Src/stm32f4xx_hal_can.c ****             /* Set CAN error code to Bit recessive error */
2059:Drivers/STM32F4xx_HAL_Driver/Src/stm32f4xx_hal_can.c ****             errorcode |= HAL_CAN_ERROR_BR;
2060:Drivers/STM32F4xx_HAL_Driver/Src/stm32f4xx_hal_can.c ****             break;
2061:Drivers/STM32F4xx_HAL_Driver/Src/stm32f4xx_hal_can.c ****           case (CAN_ESR_LEC_2 | CAN_ESR_LEC_0):
2062:Drivers/STM32F4xx_HAL_Driver/Src/stm32f4xx_hal_can.c ****             /* Set CAN error code to Bit Dominant error */
2063:Drivers/STM32F4xx_HAL_Driver/Src/stm32f4xx_hal_can.c ****             errorcode |= HAL_CAN_ERROR_BD;
2064:Drivers/STM32F4xx_HAL_Driver/Src/stm32f4xx_hal_can.c ****             break;
2065:Drivers/STM32F4xx_HAL_Driver/Src/stm32f4xx_hal_can.c ****           case (CAN_ESR_LEC_2 | CAN_ESR_LEC_1):
2066:Drivers/STM32F4xx_HAL_Driver/Src/stm32f4xx_hal_can.c ****             /* Set CAN error code to CRC error */
2067:Drivers/STM32F4xx_HAL_Driver/Src/stm32f4xx_hal_can.c ****             errorcode |= HAL_CAN_ERROR_CRC;
2068:Drivers/STM32F4xx_HAL_Driver/Src/stm32f4xx_hal_can.c ****             break;
2069:Drivers/STM32F4xx_HAL_Driver/Src/stm32f4xx_hal_can.c ****           default:
2070:Drivers/STM32F4xx_HAL_Driver/Src/stm32f4xx_hal_can.c ****             break;
2071:Drivers/STM32F4xx_HAL_Driver/Src/stm32f4xx_hal_can.c ****         }
2072:Drivers/STM32F4xx_HAL_Driver/Src/stm32f4xx_hal_can.c **** 
2073:Drivers/STM32F4xx_HAL_Driver/Src/stm32f4xx_hal_can.c ****         /* Clear Last error code Flag */
2074:Drivers/STM32F4xx_HAL_Driver/Src/stm32f4xx_hal_can.c ****         CLEAR_BIT(hcan->Instance->ESR, CAN_ESR_LEC);
2075:Drivers/STM32F4xx_HAL_Driver/Src/stm32f4xx_hal_can.c ****       }
2076:Drivers/STM32F4xx_HAL_Driver/Src/stm32f4xx_hal_can.c ****     }
2077:Drivers/STM32F4xx_HAL_Driver/Src/stm32f4xx_hal_can.c **** 
2078:Drivers/STM32F4xx_HAL_Driver/Src/stm32f4xx_hal_can.c ****     /* Clear ERRI Flag */
2079:Drivers/STM32F4xx_HAL_Driver/Src/stm32f4xx_hal_can.c ****     __HAL_CAN_CLEAR_FLAG(hcan, CAN_FLAG_ERRI);
2080:Drivers/STM32F4xx_HAL_Driver/Src/stm32f4xx_hal_can.c ****   }
2081:Drivers/STM32F4xx_HAL_Driver/Src/stm32f4xx_hal_can.c **** 
2082:Drivers/STM32F4xx_HAL_Driver/Src/stm32f4xx_hal_can.c ****   /* Call the Error call Back in case of Errors */
2083:Drivers/STM32F4xx_HAL_Driver/Src/stm32f4xx_hal_can.c ****   if (errorcode != HAL_CAN_ERROR_NONE)
2084:Drivers/STM32F4xx_HAL_Driver/Src/stm32f4xx_hal_can.c ****   {
2085:Drivers/STM32F4xx_HAL_Driver/Src/stm32f4xx_hal_can.c ****     /* Update error code in handle */
2086:Drivers/STM32F4xx_HAL_Driver/Src/stm32f4xx_hal_can.c ****     hcan->ErrorCode |= errorcode;
2087:Drivers/STM32F4xx_HAL_Driver/Src/stm32f4xx_hal_can.c **** 
2088:Drivers/STM32F4xx_HAL_Driver/Src/stm32f4xx_hal_can.c ****     /* Call Error callback function */
2089:Drivers/STM32F4xx_HAL_Driver/Src/stm32f4xx_hal_can.c **** #if USE_HAL_CAN_REGISTER_CALLBACKS == 1
2090:Drivers/STM32F4xx_HAL_Driver/Src/stm32f4xx_hal_can.c ****     /* Call registered callback*/
2091:Drivers/STM32F4xx_HAL_Driver/Src/stm32f4xx_hal_can.c ****     hcan->ErrorCallback(hcan);
2092:Drivers/STM32F4xx_HAL_Driver/Src/stm32f4xx_hal_can.c **** #else
2093:Drivers/STM32F4xx_HAL_Driver/Src/stm32f4xx_hal_can.c ****     /* Call weak (surcharged) callback */
2094:Drivers/STM32F4xx_HAL_Driver/Src/stm32f4xx_hal_can.c ****     HAL_CAN_ErrorCallback(hcan);
2095:Drivers/STM32F4xx_HAL_Driver/Src/stm32f4xx_hal_can.c **** #endif /* USE_HAL_CAN_REGISTER_CALLBACKS */
2096:Drivers/STM32F4xx_HAL_Driver/Src/stm32f4xx_hal_can.c ****   }
2097:Drivers/STM32F4xx_HAL_Driver/Src/stm32f4xx_hal_can.c **** }
2098:Drivers/STM32F4xx_HAL_Driver/Src/stm32f4xx_hal_can.c **** 
2099:Drivers/STM32F4xx_HAL_Driver/Src/stm32f4xx_hal_can.c **** /**
2100:Drivers/STM32F4xx_HAL_Driver/Src/stm32f4xx_hal_can.c ****   * @}
2101:Drivers/STM32F4xx_HAL_Driver/Src/stm32f4xx_hal_can.c ****   */
2102:Drivers/STM32F4xx_HAL_Driver/Src/stm32f4xx_hal_can.c **** 
2103:Drivers/STM32F4xx_HAL_Driver/Src/stm32f4xx_hal_can.c **** /** @defgroup CAN_Exported_Functions_Group5 Callback functions
2104:Drivers/STM32F4xx_HAL_Driver/Src/stm32f4xx_hal_can.c ****   * @brief   CAN Callback functions
2105:Drivers/STM32F4xx_HAL_Driver/Src/stm32f4xx_hal_can.c ****   *
2106:Drivers/STM32F4xx_HAL_Driver/Src/stm32f4xx_hal_can.c **** @verbatim
2107:Drivers/STM32F4xx_HAL_Driver/Src/stm32f4xx_hal_can.c ****   ==============================================================================
2108:Drivers/STM32F4xx_HAL_Driver/Src/stm32f4xx_hal_can.c ****                           ##### Callback functions #####
2109:Drivers/STM32F4xx_HAL_Driver/Src/stm32f4xx_hal_can.c ****   ==============================================================================
2110:Drivers/STM32F4xx_HAL_Driver/Src/stm32f4xx_hal_can.c ****     [..]
2111:Drivers/STM32F4xx_HAL_Driver/Src/stm32f4xx_hal_can.c ****     This subsection provides the following callback functions:
2112:Drivers/STM32F4xx_HAL_Driver/Src/stm32f4xx_hal_can.c ****       (+) HAL_CAN_TxMailbox0CompleteCallback
2113:Drivers/STM32F4xx_HAL_Driver/Src/stm32f4xx_hal_can.c ****       (+) HAL_CAN_TxMailbox1CompleteCallback
2114:Drivers/STM32F4xx_HAL_Driver/Src/stm32f4xx_hal_can.c ****       (+) HAL_CAN_TxMailbox2CompleteCallback
ARM GAS  C:\Users\Rick\AppData\Local\Temp\cck9vz6U.s 			page 88


2115:Drivers/STM32F4xx_HAL_Driver/Src/stm32f4xx_hal_can.c ****       (+) HAL_CAN_TxMailbox0AbortCallback
2116:Drivers/STM32F4xx_HAL_Driver/Src/stm32f4xx_hal_can.c ****       (+) HAL_CAN_TxMailbox1AbortCallback
2117:Drivers/STM32F4xx_HAL_Driver/Src/stm32f4xx_hal_can.c ****       (+) HAL_CAN_TxMailbox2AbortCallback
2118:Drivers/STM32F4xx_HAL_Driver/Src/stm32f4xx_hal_can.c ****       (+) HAL_CAN_RxFifo0MsgPendingCallback
2119:Drivers/STM32F4xx_HAL_Driver/Src/stm32f4xx_hal_can.c ****       (+) HAL_CAN_RxFifo0FullCallback
2120:Drivers/STM32F4xx_HAL_Driver/Src/stm32f4xx_hal_can.c ****       (+) HAL_CAN_RxFifo1MsgPendingCallback
2121:Drivers/STM32F4xx_HAL_Driver/Src/stm32f4xx_hal_can.c ****       (+) HAL_CAN_RxFifo1FullCallback
2122:Drivers/STM32F4xx_HAL_Driver/Src/stm32f4xx_hal_can.c ****       (+) HAL_CAN_SleepCallback
2123:Drivers/STM32F4xx_HAL_Driver/Src/stm32f4xx_hal_can.c ****       (+) HAL_CAN_WakeUpFromRxMsgCallback
2124:Drivers/STM32F4xx_HAL_Driver/Src/stm32f4xx_hal_can.c ****       (+) HAL_CAN_ErrorCallback
2125:Drivers/STM32F4xx_HAL_Driver/Src/stm32f4xx_hal_can.c **** 
2126:Drivers/STM32F4xx_HAL_Driver/Src/stm32f4xx_hal_can.c **** @endverbatim
2127:Drivers/STM32F4xx_HAL_Driver/Src/stm32f4xx_hal_can.c ****   * @{
2128:Drivers/STM32F4xx_HAL_Driver/Src/stm32f4xx_hal_can.c ****   */
2129:Drivers/STM32F4xx_HAL_Driver/Src/stm32f4xx_hal_can.c **** 
2130:Drivers/STM32F4xx_HAL_Driver/Src/stm32f4xx_hal_can.c **** /**
2131:Drivers/STM32F4xx_HAL_Driver/Src/stm32f4xx_hal_can.c ****   * @brief  Transmission Mailbox 0 complete callback.
2132:Drivers/STM32F4xx_HAL_Driver/Src/stm32f4xx_hal_can.c ****   * @param  hcan pointer to a CAN_HandleTypeDef structure that contains
2133:Drivers/STM32F4xx_HAL_Driver/Src/stm32f4xx_hal_can.c ****   *         the configuration information for the specified CAN.
2134:Drivers/STM32F4xx_HAL_Driver/Src/stm32f4xx_hal_can.c ****   * @retval None
2135:Drivers/STM32F4xx_HAL_Driver/Src/stm32f4xx_hal_can.c ****   */
2136:Drivers/STM32F4xx_HAL_Driver/Src/stm32f4xx_hal_can.c **** __weak void HAL_CAN_TxMailbox0CompleteCallback(CAN_HandleTypeDef *hcan)
2137:Drivers/STM32F4xx_HAL_Driver/Src/stm32f4xx_hal_can.c **** {
 2127              		.loc 1 2137 1 is_stmt 1 view -0
 2128              		.cfi_startproc
 2129              		@ args = 0, pretend = 0, frame = 0
 2130              		@ frame_needed = 0, uses_anonymous_args = 0
 2131              		@ link register save eliminated.
2138:Drivers/STM32F4xx_HAL_Driver/Src/stm32f4xx_hal_can.c ****   /* Prevent unused argument(s) compilation warning */
2139:Drivers/STM32F4xx_HAL_Driver/Src/stm32f4xx_hal_can.c ****   UNUSED(hcan);
 2132              		.loc 1 2139 3 view .LVU716
2140:Drivers/STM32F4xx_HAL_Driver/Src/stm32f4xx_hal_can.c **** 
2141:Drivers/STM32F4xx_HAL_Driver/Src/stm32f4xx_hal_can.c ****   /* NOTE : This function Should not be modified, when the callback is needed,
2142:Drivers/STM32F4xx_HAL_Driver/Src/stm32f4xx_hal_can.c ****             the HAL_CAN_TxMailbox0CompleteCallback could be implemented in the
2143:Drivers/STM32F4xx_HAL_Driver/Src/stm32f4xx_hal_can.c ****             user file
2144:Drivers/STM32F4xx_HAL_Driver/Src/stm32f4xx_hal_can.c ****    */
2145:Drivers/STM32F4xx_HAL_Driver/Src/stm32f4xx_hal_can.c **** }
 2133              		.loc 1 2145 1 is_stmt 0 view .LVU717
 2134 0000 7047     		bx	lr
 2135              		.cfi_endproc
 2136              	.LFE259:
 2138              		.section	.text.HAL_CAN_TxMailbox1CompleteCallback,"ax",%progbits
 2139              		.align	1
 2140              		.weak	HAL_CAN_TxMailbox1CompleteCallback
 2141              		.syntax unified
 2142              		.thumb
 2143              		.thumb_func
 2145              	HAL_CAN_TxMailbox1CompleteCallback:
 2146              	.LVL173:
 2147              	.LFB260:
2146:Drivers/STM32F4xx_HAL_Driver/Src/stm32f4xx_hal_can.c **** 
2147:Drivers/STM32F4xx_HAL_Driver/Src/stm32f4xx_hal_can.c **** /**
2148:Drivers/STM32F4xx_HAL_Driver/Src/stm32f4xx_hal_can.c ****   * @brief  Transmission Mailbox 1 complete callback.
2149:Drivers/STM32F4xx_HAL_Driver/Src/stm32f4xx_hal_can.c ****   * @param  hcan pointer to a CAN_HandleTypeDef structure that contains
2150:Drivers/STM32F4xx_HAL_Driver/Src/stm32f4xx_hal_can.c ****   *         the configuration information for the specified CAN.
2151:Drivers/STM32F4xx_HAL_Driver/Src/stm32f4xx_hal_can.c ****   * @retval None
2152:Drivers/STM32F4xx_HAL_Driver/Src/stm32f4xx_hal_can.c ****   */
ARM GAS  C:\Users\Rick\AppData\Local\Temp\cck9vz6U.s 			page 89


2153:Drivers/STM32F4xx_HAL_Driver/Src/stm32f4xx_hal_can.c **** __weak void HAL_CAN_TxMailbox1CompleteCallback(CAN_HandleTypeDef *hcan)
2154:Drivers/STM32F4xx_HAL_Driver/Src/stm32f4xx_hal_can.c **** {
 2148              		.loc 1 2154 1 is_stmt 1 view -0
 2149              		.cfi_startproc
 2150              		@ args = 0, pretend = 0, frame = 0
 2151              		@ frame_needed = 0, uses_anonymous_args = 0
 2152              		@ link register save eliminated.
2155:Drivers/STM32F4xx_HAL_Driver/Src/stm32f4xx_hal_can.c ****   /* Prevent unused argument(s) compilation warning */
2156:Drivers/STM32F4xx_HAL_Driver/Src/stm32f4xx_hal_can.c ****   UNUSED(hcan);
 2153              		.loc 1 2156 3 view .LVU719
2157:Drivers/STM32F4xx_HAL_Driver/Src/stm32f4xx_hal_can.c **** 
2158:Drivers/STM32F4xx_HAL_Driver/Src/stm32f4xx_hal_can.c ****   /* NOTE : This function Should not be modified, when the callback is needed,
2159:Drivers/STM32F4xx_HAL_Driver/Src/stm32f4xx_hal_can.c ****             the HAL_CAN_TxMailbox1CompleteCallback could be implemented in the
2160:Drivers/STM32F4xx_HAL_Driver/Src/stm32f4xx_hal_can.c ****             user file
2161:Drivers/STM32F4xx_HAL_Driver/Src/stm32f4xx_hal_can.c ****    */
2162:Drivers/STM32F4xx_HAL_Driver/Src/stm32f4xx_hal_can.c **** }
 2154              		.loc 1 2162 1 is_stmt 0 view .LVU720
 2155 0000 7047     		bx	lr
 2156              		.cfi_endproc
 2157              	.LFE260:
 2159              		.section	.text.HAL_CAN_TxMailbox2CompleteCallback,"ax",%progbits
 2160              		.align	1
 2161              		.weak	HAL_CAN_TxMailbox2CompleteCallback
 2162              		.syntax unified
 2163              		.thumb
 2164              		.thumb_func
 2166              	HAL_CAN_TxMailbox2CompleteCallback:
 2167              	.LVL174:
 2168              	.LFB261:
2163:Drivers/STM32F4xx_HAL_Driver/Src/stm32f4xx_hal_can.c **** 
2164:Drivers/STM32F4xx_HAL_Driver/Src/stm32f4xx_hal_can.c **** /**
2165:Drivers/STM32F4xx_HAL_Driver/Src/stm32f4xx_hal_can.c ****   * @brief  Transmission Mailbox 2 complete callback.
2166:Drivers/STM32F4xx_HAL_Driver/Src/stm32f4xx_hal_can.c ****   * @param  hcan pointer to a CAN_HandleTypeDef structure that contains
2167:Drivers/STM32F4xx_HAL_Driver/Src/stm32f4xx_hal_can.c ****   *         the configuration information for the specified CAN.
2168:Drivers/STM32F4xx_HAL_Driver/Src/stm32f4xx_hal_can.c ****   * @retval None
2169:Drivers/STM32F4xx_HAL_Driver/Src/stm32f4xx_hal_can.c ****   */
2170:Drivers/STM32F4xx_HAL_Driver/Src/stm32f4xx_hal_can.c **** __weak void HAL_CAN_TxMailbox2CompleteCallback(CAN_HandleTypeDef *hcan)
2171:Drivers/STM32F4xx_HAL_Driver/Src/stm32f4xx_hal_can.c **** {
 2169              		.loc 1 2171 1 is_stmt 1 view -0
 2170              		.cfi_startproc
 2171              		@ args = 0, pretend = 0, frame = 0
 2172              		@ frame_needed = 0, uses_anonymous_args = 0
 2173              		@ link register save eliminated.
2172:Drivers/STM32F4xx_HAL_Driver/Src/stm32f4xx_hal_can.c ****   /* Prevent unused argument(s) compilation warning */
2173:Drivers/STM32F4xx_HAL_Driver/Src/stm32f4xx_hal_can.c ****   UNUSED(hcan);
 2174              		.loc 1 2173 3 view .LVU722
2174:Drivers/STM32F4xx_HAL_Driver/Src/stm32f4xx_hal_can.c **** 
2175:Drivers/STM32F4xx_HAL_Driver/Src/stm32f4xx_hal_can.c ****   /* NOTE : This function Should not be modified, when the callback is needed,
2176:Drivers/STM32F4xx_HAL_Driver/Src/stm32f4xx_hal_can.c ****             the HAL_CAN_TxMailbox2CompleteCallback could be implemented in the
2177:Drivers/STM32F4xx_HAL_Driver/Src/stm32f4xx_hal_can.c ****             user file
2178:Drivers/STM32F4xx_HAL_Driver/Src/stm32f4xx_hal_can.c ****    */
2179:Drivers/STM32F4xx_HAL_Driver/Src/stm32f4xx_hal_can.c **** }
 2175              		.loc 1 2179 1 is_stmt 0 view .LVU723
 2176 0000 7047     		bx	lr
 2177              		.cfi_endproc
 2178              	.LFE261:
 2180              		.section	.text.HAL_CAN_TxMailbox0AbortCallback,"ax",%progbits
ARM GAS  C:\Users\Rick\AppData\Local\Temp\cck9vz6U.s 			page 90


 2181              		.align	1
 2182              		.weak	HAL_CAN_TxMailbox0AbortCallback
 2183              		.syntax unified
 2184              		.thumb
 2185              		.thumb_func
 2187              	HAL_CAN_TxMailbox0AbortCallback:
 2188              	.LVL175:
 2189              	.LFB262:
2180:Drivers/STM32F4xx_HAL_Driver/Src/stm32f4xx_hal_can.c **** 
2181:Drivers/STM32F4xx_HAL_Driver/Src/stm32f4xx_hal_can.c **** /**
2182:Drivers/STM32F4xx_HAL_Driver/Src/stm32f4xx_hal_can.c ****   * @brief  Transmission Mailbox 0 Cancellation callback.
2183:Drivers/STM32F4xx_HAL_Driver/Src/stm32f4xx_hal_can.c ****   * @param  hcan pointer to an CAN_HandleTypeDef structure that contains
2184:Drivers/STM32F4xx_HAL_Driver/Src/stm32f4xx_hal_can.c ****   *         the configuration information for the specified CAN.
2185:Drivers/STM32F4xx_HAL_Driver/Src/stm32f4xx_hal_can.c ****   * @retval None
2186:Drivers/STM32F4xx_HAL_Driver/Src/stm32f4xx_hal_can.c ****   */
2187:Drivers/STM32F4xx_HAL_Driver/Src/stm32f4xx_hal_can.c **** __weak void HAL_CAN_TxMailbox0AbortCallback(CAN_HandleTypeDef *hcan)
2188:Drivers/STM32F4xx_HAL_Driver/Src/stm32f4xx_hal_can.c **** {
 2190              		.loc 1 2188 1 is_stmt 1 view -0
 2191              		.cfi_startproc
 2192              		@ args = 0, pretend = 0, frame = 0
 2193              		@ frame_needed = 0, uses_anonymous_args = 0
 2194              		@ link register save eliminated.
2189:Drivers/STM32F4xx_HAL_Driver/Src/stm32f4xx_hal_can.c ****   /* Prevent unused argument(s) compilation warning */
2190:Drivers/STM32F4xx_HAL_Driver/Src/stm32f4xx_hal_can.c ****   UNUSED(hcan);
 2195              		.loc 1 2190 3 view .LVU725
2191:Drivers/STM32F4xx_HAL_Driver/Src/stm32f4xx_hal_can.c **** 
2192:Drivers/STM32F4xx_HAL_Driver/Src/stm32f4xx_hal_can.c ****   /* NOTE : This function Should not be modified, when the callback is needed,
2193:Drivers/STM32F4xx_HAL_Driver/Src/stm32f4xx_hal_can.c ****             the HAL_CAN_TxMailbox0AbortCallback could be implemented in the
2194:Drivers/STM32F4xx_HAL_Driver/Src/stm32f4xx_hal_can.c ****             user file
2195:Drivers/STM32F4xx_HAL_Driver/Src/stm32f4xx_hal_can.c ****    */
2196:Drivers/STM32F4xx_HAL_Driver/Src/stm32f4xx_hal_can.c **** }
 2196              		.loc 1 2196 1 is_stmt 0 view .LVU726
 2197 0000 7047     		bx	lr
 2198              		.cfi_endproc
 2199              	.LFE262:
 2201              		.section	.text.HAL_CAN_TxMailbox1AbortCallback,"ax",%progbits
 2202              		.align	1
 2203              		.weak	HAL_CAN_TxMailbox1AbortCallback
 2204              		.syntax unified
 2205              		.thumb
 2206              		.thumb_func
 2208              	HAL_CAN_TxMailbox1AbortCallback:
 2209              	.LVL176:
 2210              	.LFB263:
2197:Drivers/STM32F4xx_HAL_Driver/Src/stm32f4xx_hal_can.c **** 
2198:Drivers/STM32F4xx_HAL_Driver/Src/stm32f4xx_hal_can.c **** /**
2199:Drivers/STM32F4xx_HAL_Driver/Src/stm32f4xx_hal_can.c ****   * @brief  Transmission Mailbox 1 Cancellation callback.
2200:Drivers/STM32F4xx_HAL_Driver/Src/stm32f4xx_hal_can.c ****   * @param  hcan pointer to an CAN_HandleTypeDef structure that contains
2201:Drivers/STM32F4xx_HAL_Driver/Src/stm32f4xx_hal_can.c ****   *         the configuration information for the specified CAN.
2202:Drivers/STM32F4xx_HAL_Driver/Src/stm32f4xx_hal_can.c ****   * @retval None
2203:Drivers/STM32F4xx_HAL_Driver/Src/stm32f4xx_hal_can.c ****   */
2204:Drivers/STM32F4xx_HAL_Driver/Src/stm32f4xx_hal_can.c **** __weak void HAL_CAN_TxMailbox1AbortCallback(CAN_HandleTypeDef *hcan)
2205:Drivers/STM32F4xx_HAL_Driver/Src/stm32f4xx_hal_can.c **** {
 2211              		.loc 1 2205 1 is_stmt 1 view -0
 2212              		.cfi_startproc
 2213              		@ args = 0, pretend = 0, frame = 0
 2214              		@ frame_needed = 0, uses_anonymous_args = 0
ARM GAS  C:\Users\Rick\AppData\Local\Temp\cck9vz6U.s 			page 91


 2215              		@ link register save eliminated.
2206:Drivers/STM32F4xx_HAL_Driver/Src/stm32f4xx_hal_can.c ****   /* Prevent unused argument(s) compilation warning */
2207:Drivers/STM32F4xx_HAL_Driver/Src/stm32f4xx_hal_can.c ****   UNUSED(hcan);
 2216              		.loc 1 2207 3 view .LVU728
2208:Drivers/STM32F4xx_HAL_Driver/Src/stm32f4xx_hal_can.c **** 
2209:Drivers/STM32F4xx_HAL_Driver/Src/stm32f4xx_hal_can.c ****   /* NOTE : This function Should not be modified, when the callback is needed,
2210:Drivers/STM32F4xx_HAL_Driver/Src/stm32f4xx_hal_can.c ****             the HAL_CAN_TxMailbox1AbortCallback could be implemented in the
2211:Drivers/STM32F4xx_HAL_Driver/Src/stm32f4xx_hal_can.c ****             user file
2212:Drivers/STM32F4xx_HAL_Driver/Src/stm32f4xx_hal_can.c ****    */
2213:Drivers/STM32F4xx_HAL_Driver/Src/stm32f4xx_hal_can.c **** }
 2217              		.loc 1 2213 1 is_stmt 0 view .LVU729
 2218 0000 7047     		bx	lr
 2219              		.cfi_endproc
 2220              	.LFE263:
 2222              		.section	.text.HAL_CAN_TxMailbox2AbortCallback,"ax",%progbits
 2223              		.align	1
 2224              		.weak	HAL_CAN_TxMailbox2AbortCallback
 2225              		.syntax unified
 2226              		.thumb
 2227              		.thumb_func
 2229              	HAL_CAN_TxMailbox2AbortCallback:
 2230              	.LVL177:
 2231              	.LFB264:
2214:Drivers/STM32F4xx_HAL_Driver/Src/stm32f4xx_hal_can.c **** 
2215:Drivers/STM32F4xx_HAL_Driver/Src/stm32f4xx_hal_can.c **** /**
2216:Drivers/STM32F4xx_HAL_Driver/Src/stm32f4xx_hal_can.c ****   * @brief  Transmission Mailbox 2 Cancellation callback.
2217:Drivers/STM32F4xx_HAL_Driver/Src/stm32f4xx_hal_can.c ****   * @param  hcan pointer to an CAN_HandleTypeDef structure that contains
2218:Drivers/STM32F4xx_HAL_Driver/Src/stm32f4xx_hal_can.c ****   *         the configuration information for the specified CAN.
2219:Drivers/STM32F4xx_HAL_Driver/Src/stm32f4xx_hal_can.c ****   * @retval None
2220:Drivers/STM32F4xx_HAL_Driver/Src/stm32f4xx_hal_can.c ****   */
2221:Drivers/STM32F4xx_HAL_Driver/Src/stm32f4xx_hal_can.c **** __weak void HAL_CAN_TxMailbox2AbortCallback(CAN_HandleTypeDef *hcan)
2222:Drivers/STM32F4xx_HAL_Driver/Src/stm32f4xx_hal_can.c **** {
 2232              		.loc 1 2222 1 is_stmt 1 view -0
 2233              		.cfi_startproc
 2234              		@ args = 0, pretend = 0, frame = 0
 2235              		@ frame_needed = 0, uses_anonymous_args = 0
 2236              		@ link register save eliminated.
2223:Drivers/STM32F4xx_HAL_Driver/Src/stm32f4xx_hal_can.c ****   /* Prevent unused argument(s) compilation warning */
2224:Drivers/STM32F4xx_HAL_Driver/Src/stm32f4xx_hal_can.c ****   UNUSED(hcan);
 2237              		.loc 1 2224 3 view .LVU731
2225:Drivers/STM32F4xx_HAL_Driver/Src/stm32f4xx_hal_can.c **** 
2226:Drivers/STM32F4xx_HAL_Driver/Src/stm32f4xx_hal_can.c ****   /* NOTE : This function Should not be modified, when the callback is needed,
2227:Drivers/STM32F4xx_HAL_Driver/Src/stm32f4xx_hal_can.c ****             the HAL_CAN_TxMailbox2AbortCallback could be implemented in the
2228:Drivers/STM32F4xx_HAL_Driver/Src/stm32f4xx_hal_can.c ****             user file
2229:Drivers/STM32F4xx_HAL_Driver/Src/stm32f4xx_hal_can.c ****    */
2230:Drivers/STM32F4xx_HAL_Driver/Src/stm32f4xx_hal_can.c **** }
 2238              		.loc 1 2230 1 is_stmt 0 view .LVU732
 2239 0000 7047     		bx	lr
 2240              		.cfi_endproc
 2241              	.LFE264:
 2243              		.section	.text.HAL_CAN_RxFifo0MsgPendingCallback,"ax",%progbits
 2244              		.align	1
 2245              		.weak	HAL_CAN_RxFifo0MsgPendingCallback
 2246              		.syntax unified
 2247              		.thumb
 2248              		.thumb_func
 2250              	HAL_CAN_RxFifo0MsgPendingCallback:
ARM GAS  C:\Users\Rick\AppData\Local\Temp\cck9vz6U.s 			page 92


 2251              	.LVL178:
 2252              	.LFB265:
2231:Drivers/STM32F4xx_HAL_Driver/Src/stm32f4xx_hal_can.c **** 
2232:Drivers/STM32F4xx_HAL_Driver/Src/stm32f4xx_hal_can.c **** /**
2233:Drivers/STM32F4xx_HAL_Driver/Src/stm32f4xx_hal_can.c ****   * @brief  Rx FIFO 0 message pending callback.
2234:Drivers/STM32F4xx_HAL_Driver/Src/stm32f4xx_hal_can.c ****   * @param  hcan pointer to a CAN_HandleTypeDef structure that contains
2235:Drivers/STM32F4xx_HAL_Driver/Src/stm32f4xx_hal_can.c ****   *         the configuration information for the specified CAN.
2236:Drivers/STM32F4xx_HAL_Driver/Src/stm32f4xx_hal_can.c ****   * @retval None
2237:Drivers/STM32F4xx_HAL_Driver/Src/stm32f4xx_hal_can.c ****   */
2238:Drivers/STM32F4xx_HAL_Driver/Src/stm32f4xx_hal_can.c **** __weak void HAL_CAN_RxFifo0MsgPendingCallback(CAN_HandleTypeDef *hcan)
2239:Drivers/STM32F4xx_HAL_Driver/Src/stm32f4xx_hal_can.c **** {
 2253              		.loc 1 2239 1 is_stmt 1 view -0
 2254              		.cfi_startproc
 2255              		@ args = 0, pretend = 0, frame = 0
 2256              		@ frame_needed = 0, uses_anonymous_args = 0
 2257              		@ link register save eliminated.
2240:Drivers/STM32F4xx_HAL_Driver/Src/stm32f4xx_hal_can.c ****   /* Prevent unused argument(s) compilation warning */
2241:Drivers/STM32F4xx_HAL_Driver/Src/stm32f4xx_hal_can.c ****   UNUSED(hcan);
 2258              		.loc 1 2241 3 view .LVU734
2242:Drivers/STM32F4xx_HAL_Driver/Src/stm32f4xx_hal_can.c **** 
2243:Drivers/STM32F4xx_HAL_Driver/Src/stm32f4xx_hal_can.c ****   /* NOTE : This function Should not be modified, when the callback is needed,
2244:Drivers/STM32F4xx_HAL_Driver/Src/stm32f4xx_hal_can.c ****             the HAL_CAN_RxFifo0MsgPendingCallback could be implemented in the
2245:Drivers/STM32F4xx_HAL_Driver/Src/stm32f4xx_hal_can.c ****             user file
2246:Drivers/STM32F4xx_HAL_Driver/Src/stm32f4xx_hal_can.c ****    */
2247:Drivers/STM32F4xx_HAL_Driver/Src/stm32f4xx_hal_can.c **** }
 2259              		.loc 1 2247 1 is_stmt 0 view .LVU735
 2260 0000 7047     		bx	lr
 2261              		.cfi_endproc
 2262              	.LFE265:
 2264              		.section	.text.HAL_CAN_RxFifo0FullCallback,"ax",%progbits
 2265              		.align	1
 2266              		.weak	HAL_CAN_RxFifo0FullCallback
 2267              		.syntax unified
 2268              		.thumb
 2269              		.thumb_func
 2271              	HAL_CAN_RxFifo0FullCallback:
 2272              	.LVL179:
 2273              	.LFB266:
2248:Drivers/STM32F4xx_HAL_Driver/Src/stm32f4xx_hal_can.c **** 
2249:Drivers/STM32F4xx_HAL_Driver/Src/stm32f4xx_hal_can.c **** /**
2250:Drivers/STM32F4xx_HAL_Driver/Src/stm32f4xx_hal_can.c ****   * @brief  Rx FIFO 0 full callback.
2251:Drivers/STM32F4xx_HAL_Driver/Src/stm32f4xx_hal_can.c ****   * @param  hcan pointer to a CAN_HandleTypeDef structure that contains
2252:Drivers/STM32F4xx_HAL_Driver/Src/stm32f4xx_hal_can.c ****   *         the configuration information for the specified CAN.
2253:Drivers/STM32F4xx_HAL_Driver/Src/stm32f4xx_hal_can.c ****   * @retval None
2254:Drivers/STM32F4xx_HAL_Driver/Src/stm32f4xx_hal_can.c ****   */
2255:Drivers/STM32F4xx_HAL_Driver/Src/stm32f4xx_hal_can.c **** __weak void HAL_CAN_RxFifo0FullCallback(CAN_HandleTypeDef *hcan)
2256:Drivers/STM32F4xx_HAL_Driver/Src/stm32f4xx_hal_can.c **** {
 2274              		.loc 1 2256 1 is_stmt 1 view -0
 2275              		.cfi_startproc
 2276              		@ args = 0, pretend = 0, frame = 0
 2277              		@ frame_needed = 0, uses_anonymous_args = 0
 2278              		@ link register save eliminated.
2257:Drivers/STM32F4xx_HAL_Driver/Src/stm32f4xx_hal_can.c ****   /* Prevent unused argument(s) compilation warning */
2258:Drivers/STM32F4xx_HAL_Driver/Src/stm32f4xx_hal_can.c ****   UNUSED(hcan);
 2279              		.loc 1 2258 3 view .LVU737
2259:Drivers/STM32F4xx_HAL_Driver/Src/stm32f4xx_hal_can.c **** 
2260:Drivers/STM32F4xx_HAL_Driver/Src/stm32f4xx_hal_can.c ****   /* NOTE : This function Should not be modified, when the callback is needed,
ARM GAS  C:\Users\Rick\AppData\Local\Temp\cck9vz6U.s 			page 93


2261:Drivers/STM32F4xx_HAL_Driver/Src/stm32f4xx_hal_can.c ****             the HAL_CAN_RxFifo0FullCallback could be implemented in the user
2262:Drivers/STM32F4xx_HAL_Driver/Src/stm32f4xx_hal_can.c ****             file
2263:Drivers/STM32F4xx_HAL_Driver/Src/stm32f4xx_hal_can.c ****    */
2264:Drivers/STM32F4xx_HAL_Driver/Src/stm32f4xx_hal_can.c **** }
 2280              		.loc 1 2264 1 is_stmt 0 view .LVU738
 2281 0000 7047     		bx	lr
 2282              		.cfi_endproc
 2283              	.LFE266:
 2285              		.section	.text.HAL_CAN_RxFifo1MsgPendingCallback,"ax",%progbits
 2286              		.align	1
 2287              		.weak	HAL_CAN_RxFifo1MsgPendingCallback
 2288              		.syntax unified
 2289              		.thumb
 2290              		.thumb_func
 2292              	HAL_CAN_RxFifo1MsgPendingCallback:
 2293              	.LVL180:
 2294              	.LFB267:
2265:Drivers/STM32F4xx_HAL_Driver/Src/stm32f4xx_hal_can.c **** 
2266:Drivers/STM32F4xx_HAL_Driver/Src/stm32f4xx_hal_can.c **** /**
2267:Drivers/STM32F4xx_HAL_Driver/Src/stm32f4xx_hal_can.c ****   * @brief  Rx FIFO 1 message pending callback.
2268:Drivers/STM32F4xx_HAL_Driver/Src/stm32f4xx_hal_can.c ****   * @param  hcan pointer to a CAN_HandleTypeDef structure that contains
2269:Drivers/STM32F4xx_HAL_Driver/Src/stm32f4xx_hal_can.c ****   *         the configuration information for the specified CAN.
2270:Drivers/STM32F4xx_HAL_Driver/Src/stm32f4xx_hal_can.c ****   * @retval None
2271:Drivers/STM32F4xx_HAL_Driver/Src/stm32f4xx_hal_can.c ****   */
2272:Drivers/STM32F4xx_HAL_Driver/Src/stm32f4xx_hal_can.c **** __weak void HAL_CAN_RxFifo1MsgPendingCallback(CAN_HandleTypeDef *hcan)
2273:Drivers/STM32F4xx_HAL_Driver/Src/stm32f4xx_hal_can.c **** {
 2295              		.loc 1 2273 1 is_stmt 1 view -0
 2296              		.cfi_startproc
 2297              		@ args = 0, pretend = 0, frame = 0
 2298              		@ frame_needed = 0, uses_anonymous_args = 0
 2299              		@ link register save eliminated.
2274:Drivers/STM32F4xx_HAL_Driver/Src/stm32f4xx_hal_can.c ****   /* Prevent unused argument(s) compilation warning */
2275:Drivers/STM32F4xx_HAL_Driver/Src/stm32f4xx_hal_can.c ****   UNUSED(hcan);
 2300              		.loc 1 2275 3 view .LVU740
2276:Drivers/STM32F4xx_HAL_Driver/Src/stm32f4xx_hal_can.c **** 
2277:Drivers/STM32F4xx_HAL_Driver/Src/stm32f4xx_hal_can.c ****   /* NOTE : This function Should not be modified, when the callback is needed,
2278:Drivers/STM32F4xx_HAL_Driver/Src/stm32f4xx_hal_can.c ****             the HAL_CAN_RxFifo1MsgPendingCallback could be implemented in the
2279:Drivers/STM32F4xx_HAL_Driver/Src/stm32f4xx_hal_can.c ****             user file
2280:Drivers/STM32F4xx_HAL_Driver/Src/stm32f4xx_hal_can.c ****    */
2281:Drivers/STM32F4xx_HAL_Driver/Src/stm32f4xx_hal_can.c **** }
 2301              		.loc 1 2281 1 is_stmt 0 view .LVU741
 2302 0000 7047     		bx	lr
 2303              		.cfi_endproc
 2304              	.LFE267:
 2306              		.section	.text.HAL_CAN_RxFifo1FullCallback,"ax",%progbits
 2307              		.align	1
 2308              		.weak	HAL_CAN_RxFifo1FullCallback
 2309              		.syntax unified
 2310              		.thumb
 2311              		.thumb_func
 2313              	HAL_CAN_RxFifo1FullCallback:
 2314              	.LVL181:
 2315              	.LFB268:
2282:Drivers/STM32F4xx_HAL_Driver/Src/stm32f4xx_hal_can.c **** 
2283:Drivers/STM32F4xx_HAL_Driver/Src/stm32f4xx_hal_can.c **** /**
2284:Drivers/STM32F4xx_HAL_Driver/Src/stm32f4xx_hal_can.c ****   * @brief  Rx FIFO 1 full callback.
2285:Drivers/STM32F4xx_HAL_Driver/Src/stm32f4xx_hal_can.c ****   * @param  hcan pointer to a CAN_HandleTypeDef structure that contains
ARM GAS  C:\Users\Rick\AppData\Local\Temp\cck9vz6U.s 			page 94


2286:Drivers/STM32F4xx_HAL_Driver/Src/stm32f4xx_hal_can.c ****   *         the configuration information for the specified CAN.
2287:Drivers/STM32F4xx_HAL_Driver/Src/stm32f4xx_hal_can.c ****   * @retval None
2288:Drivers/STM32F4xx_HAL_Driver/Src/stm32f4xx_hal_can.c ****   */
2289:Drivers/STM32F4xx_HAL_Driver/Src/stm32f4xx_hal_can.c **** __weak void HAL_CAN_RxFifo1FullCallback(CAN_HandleTypeDef *hcan)
2290:Drivers/STM32F4xx_HAL_Driver/Src/stm32f4xx_hal_can.c **** {
 2316              		.loc 1 2290 1 is_stmt 1 view -0
 2317              		.cfi_startproc
 2318              		@ args = 0, pretend = 0, frame = 0
 2319              		@ frame_needed = 0, uses_anonymous_args = 0
 2320              		@ link register save eliminated.
2291:Drivers/STM32F4xx_HAL_Driver/Src/stm32f4xx_hal_can.c ****   /* Prevent unused argument(s) compilation warning */
2292:Drivers/STM32F4xx_HAL_Driver/Src/stm32f4xx_hal_can.c ****   UNUSED(hcan);
 2321              		.loc 1 2292 3 view .LVU743
2293:Drivers/STM32F4xx_HAL_Driver/Src/stm32f4xx_hal_can.c **** 
2294:Drivers/STM32F4xx_HAL_Driver/Src/stm32f4xx_hal_can.c ****   /* NOTE : This function Should not be modified, when the callback is needed,
2295:Drivers/STM32F4xx_HAL_Driver/Src/stm32f4xx_hal_can.c ****             the HAL_CAN_RxFifo1FullCallback could be implemented in the user
2296:Drivers/STM32F4xx_HAL_Driver/Src/stm32f4xx_hal_can.c ****             file
2297:Drivers/STM32F4xx_HAL_Driver/Src/stm32f4xx_hal_can.c ****    */
2298:Drivers/STM32F4xx_HAL_Driver/Src/stm32f4xx_hal_can.c **** }
 2322              		.loc 1 2298 1 is_stmt 0 view .LVU744
 2323 0000 7047     		bx	lr
 2324              		.cfi_endproc
 2325              	.LFE268:
 2327              		.section	.text.HAL_CAN_SleepCallback,"ax",%progbits
 2328              		.align	1
 2329              		.weak	HAL_CAN_SleepCallback
 2330              		.syntax unified
 2331              		.thumb
 2332              		.thumb_func
 2334              	HAL_CAN_SleepCallback:
 2335              	.LVL182:
 2336              	.LFB269:
2299:Drivers/STM32F4xx_HAL_Driver/Src/stm32f4xx_hal_can.c **** 
2300:Drivers/STM32F4xx_HAL_Driver/Src/stm32f4xx_hal_can.c **** /**
2301:Drivers/STM32F4xx_HAL_Driver/Src/stm32f4xx_hal_can.c ****   * @brief  Sleep callback.
2302:Drivers/STM32F4xx_HAL_Driver/Src/stm32f4xx_hal_can.c ****   * @param  hcan pointer to a CAN_HandleTypeDef structure that contains
2303:Drivers/STM32F4xx_HAL_Driver/Src/stm32f4xx_hal_can.c ****   *         the configuration information for the specified CAN.
2304:Drivers/STM32F4xx_HAL_Driver/Src/stm32f4xx_hal_can.c ****   * @retval None
2305:Drivers/STM32F4xx_HAL_Driver/Src/stm32f4xx_hal_can.c ****   */
2306:Drivers/STM32F4xx_HAL_Driver/Src/stm32f4xx_hal_can.c **** __weak void HAL_CAN_SleepCallback(CAN_HandleTypeDef *hcan)
2307:Drivers/STM32F4xx_HAL_Driver/Src/stm32f4xx_hal_can.c **** {
 2337              		.loc 1 2307 1 is_stmt 1 view -0
 2338              		.cfi_startproc
 2339              		@ args = 0, pretend = 0, frame = 0
 2340              		@ frame_needed = 0, uses_anonymous_args = 0
 2341              		@ link register save eliminated.
2308:Drivers/STM32F4xx_HAL_Driver/Src/stm32f4xx_hal_can.c ****   /* Prevent unused argument(s) compilation warning */
2309:Drivers/STM32F4xx_HAL_Driver/Src/stm32f4xx_hal_can.c ****   UNUSED(hcan);
 2342              		.loc 1 2309 3 view .LVU746
2310:Drivers/STM32F4xx_HAL_Driver/Src/stm32f4xx_hal_can.c **** 
2311:Drivers/STM32F4xx_HAL_Driver/Src/stm32f4xx_hal_can.c ****   /* NOTE : This function Should not be modified, when the callback is needed,
2312:Drivers/STM32F4xx_HAL_Driver/Src/stm32f4xx_hal_can.c ****             the HAL_CAN_SleepCallback could be implemented in the user file
2313:Drivers/STM32F4xx_HAL_Driver/Src/stm32f4xx_hal_can.c ****    */
2314:Drivers/STM32F4xx_HAL_Driver/Src/stm32f4xx_hal_can.c **** }
 2343              		.loc 1 2314 1 is_stmt 0 view .LVU747
 2344 0000 7047     		bx	lr
 2345              		.cfi_endproc
ARM GAS  C:\Users\Rick\AppData\Local\Temp\cck9vz6U.s 			page 95


 2346              	.LFE269:
 2348              		.section	.text.HAL_CAN_WakeUpFromRxMsgCallback,"ax",%progbits
 2349              		.align	1
 2350              		.weak	HAL_CAN_WakeUpFromRxMsgCallback
 2351              		.syntax unified
 2352              		.thumb
 2353              		.thumb_func
 2355              	HAL_CAN_WakeUpFromRxMsgCallback:
 2356              	.LVL183:
 2357              	.LFB270:
2315:Drivers/STM32F4xx_HAL_Driver/Src/stm32f4xx_hal_can.c **** 
2316:Drivers/STM32F4xx_HAL_Driver/Src/stm32f4xx_hal_can.c **** /**
2317:Drivers/STM32F4xx_HAL_Driver/Src/stm32f4xx_hal_can.c ****   * @brief  WakeUp from Rx message callback.
2318:Drivers/STM32F4xx_HAL_Driver/Src/stm32f4xx_hal_can.c ****   * @param  hcan pointer to a CAN_HandleTypeDef structure that contains
2319:Drivers/STM32F4xx_HAL_Driver/Src/stm32f4xx_hal_can.c ****   *         the configuration information for the specified CAN.
2320:Drivers/STM32F4xx_HAL_Driver/Src/stm32f4xx_hal_can.c ****   * @retval None
2321:Drivers/STM32F4xx_HAL_Driver/Src/stm32f4xx_hal_can.c ****   */
2322:Drivers/STM32F4xx_HAL_Driver/Src/stm32f4xx_hal_can.c **** __weak void HAL_CAN_WakeUpFromRxMsgCallback(CAN_HandleTypeDef *hcan)
2323:Drivers/STM32F4xx_HAL_Driver/Src/stm32f4xx_hal_can.c **** {
 2358              		.loc 1 2323 1 is_stmt 1 view -0
 2359              		.cfi_startproc
 2360              		@ args = 0, pretend = 0, frame = 0
 2361              		@ frame_needed = 0, uses_anonymous_args = 0
 2362              		@ link register save eliminated.
2324:Drivers/STM32F4xx_HAL_Driver/Src/stm32f4xx_hal_can.c ****   /* Prevent unused argument(s) compilation warning */
2325:Drivers/STM32F4xx_HAL_Driver/Src/stm32f4xx_hal_can.c ****   UNUSED(hcan);
 2363              		.loc 1 2325 3 view .LVU749
2326:Drivers/STM32F4xx_HAL_Driver/Src/stm32f4xx_hal_can.c **** 
2327:Drivers/STM32F4xx_HAL_Driver/Src/stm32f4xx_hal_can.c ****   /* NOTE : This function Should not be modified, when the callback is needed,
2328:Drivers/STM32F4xx_HAL_Driver/Src/stm32f4xx_hal_can.c ****             the HAL_CAN_WakeUpFromRxMsgCallback could be implemented in the
2329:Drivers/STM32F4xx_HAL_Driver/Src/stm32f4xx_hal_can.c ****             user file
2330:Drivers/STM32F4xx_HAL_Driver/Src/stm32f4xx_hal_can.c ****    */
2331:Drivers/STM32F4xx_HAL_Driver/Src/stm32f4xx_hal_can.c **** }
 2364              		.loc 1 2331 1 is_stmt 0 view .LVU750
 2365 0000 7047     		bx	lr
 2366              		.cfi_endproc
 2367              	.LFE270:
 2369              		.section	.text.HAL_CAN_ErrorCallback,"ax",%progbits
 2370              		.align	1
 2371              		.weak	HAL_CAN_ErrorCallback
 2372              		.syntax unified
 2373              		.thumb
 2374              		.thumb_func
 2376              	HAL_CAN_ErrorCallback:
 2377              	.LVL184:
 2378              	.LFB271:
2332:Drivers/STM32F4xx_HAL_Driver/Src/stm32f4xx_hal_can.c **** 
2333:Drivers/STM32F4xx_HAL_Driver/Src/stm32f4xx_hal_can.c **** /**
2334:Drivers/STM32F4xx_HAL_Driver/Src/stm32f4xx_hal_can.c ****   * @brief  Error CAN callback.
2335:Drivers/STM32F4xx_HAL_Driver/Src/stm32f4xx_hal_can.c ****   * @param  hcan pointer to a CAN_HandleTypeDef structure that contains
2336:Drivers/STM32F4xx_HAL_Driver/Src/stm32f4xx_hal_can.c ****   *         the configuration information for the specified CAN.
2337:Drivers/STM32F4xx_HAL_Driver/Src/stm32f4xx_hal_can.c ****   * @retval None
2338:Drivers/STM32F4xx_HAL_Driver/Src/stm32f4xx_hal_can.c ****   */
2339:Drivers/STM32F4xx_HAL_Driver/Src/stm32f4xx_hal_can.c **** __weak void HAL_CAN_ErrorCallback(CAN_HandleTypeDef *hcan)
2340:Drivers/STM32F4xx_HAL_Driver/Src/stm32f4xx_hal_can.c **** {
 2379              		.loc 1 2340 1 is_stmt 1 view -0
 2380              		.cfi_startproc
ARM GAS  C:\Users\Rick\AppData\Local\Temp\cck9vz6U.s 			page 96


 2381              		@ args = 0, pretend = 0, frame = 0
 2382              		@ frame_needed = 0, uses_anonymous_args = 0
 2383              		@ link register save eliminated.
2341:Drivers/STM32F4xx_HAL_Driver/Src/stm32f4xx_hal_can.c ****   /* Prevent unused argument(s) compilation warning */
2342:Drivers/STM32F4xx_HAL_Driver/Src/stm32f4xx_hal_can.c ****   UNUSED(hcan);
 2384              		.loc 1 2342 3 view .LVU752
2343:Drivers/STM32F4xx_HAL_Driver/Src/stm32f4xx_hal_can.c **** 
2344:Drivers/STM32F4xx_HAL_Driver/Src/stm32f4xx_hal_can.c ****   /* NOTE : This function Should not be modified, when the callback is needed,
2345:Drivers/STM32F4xx_HAL_Driver/Src/stm32f4xx_hal_can.c ****             the HAL_CAN_ErrorCallback could be implemented in the user file
2346:Drivers/STM32F4xx_HAL_Driver/Src/stm32f4xx_hal_can.c ****    */
2347:Drivers/STM32F4xx_HAL_Driver/Src/stm32f4xx_hal_can.c **** }
 2385              		.loc 1 2347 1 is_stmt 0 view .LVU753
 2386 0000 7047     		bx	lr
 2387              		.cfi_endproc
 2388              	.LFE271:
 2390              		.section	.text.HAL_CAN_IRQHandler,"ax",%progbits
 2391              		.align	1
 2392              		.global	HAL_CAN_IRQHandler
 2393              		.syntax unified
 2394              		.thumb
 2395              		.thumb_func
 2397              	HAL_CAN_IRQHandler:
 2398              	.LVL185:
 2399              	.LFB258:
1726:Drivers/STM32F4xx_HAL_Driver/Src/stm32f4xx_hal_can.c ****   uint32_t errorcode = HAL_CAN_ERROR_NONE;
 2400              		.loc 1 1726 1 is_stmt 1 view -0
 2401              		.cfi_startproc
 2402              		@ args = 0, pretend = 0, frame = 0
 2403              		@ frame_needed = 0, uses_anonymous_args = 0
1726:Drivers/STM32F4xx_HAL_Driver/Src/stm32f4xx_hal_can.c ****   uint32_t errorcode = HAL_CAN_ERROR_NONE;
 2404              		.loc 1 1726 1 is_stmt 0 view .LVU755
 2405 0000 2DE9F84F 		push	{r3, r4, r5, r6, r7, r8, r9, r10, fp, lr}
 2406              		.cfi_def_cfa_offset 40
 2407              		.cfi_offset 3, -40
 2408              		.cfi_offset 4, -36
 2409              		.cfi_offset 5, -32
 2410              		.cfi_offset 6, -28
 2411              		.cfi_offset 7, -24
 2412              		.cfi_offset 8, -20
 2413              		.cfi_offset 9, -16
 2414              		.cfi_offset 10, -12
 2415              		.cfi_offset 11, -8
 2416              		.cfi_offset 14, -4
 2417 0004 0546     		mov	r5, r0
1727:Drivers/STM32F4xx_HAL_Driver/Src/stm32f4xx_hal_can.c ****   uint32_t interrupts = READ_REG(hcan->Instance->IER);
 2418              		.loc 1 1727 3 is_stmt 1 view .LVU756
 2419              	.LVL186:
1728:Drivers/STM32F4xx_HAL_Driver/Src/stm32f4xx_hal_can.c ****   uint32_t msrflags = READ_REG(hcan->Instance->MSR);
 2420              		.loc 1 1728 3 view .LVU757
1728:Drivers/STM32F4xx_HAL_Driver/Src/stm32f4xx_hal_can.c ****   uint32_t msrflags = READ_REG(hcan->Instance->MSR);
 2421              		.loc 1 1728 25 is_stmt 0 view .LVU758
 2422 0006 0368     		ldr	r3, [r0]
1728:Drivers/STM32F4xx_HAL_Driver/Src/stm32f4xx_hal_can.c ****   uint32_t msrflags = READ_REG(hcan->Instance->MSR);
 2423              		.loc 1 1728 12 view .LVU759
 2424 0008 5C69     		ldr	r4, [r3, #20]
 2425              	.LVL187:
1729:Drivers/STM32F4xx_HAL_Driver/Src/stm32f4xx_hal_can.c ****   uint32_t tsrflags = READ_REG(hcan->Instance->TSR);
ARM GAS  C:\Users\Rick\AppData\Local\Temp\cck9vz6U.s 			page 97


 2426              		.loc 1 1729 3 is_stmt 1 view .LVU760
1729:Drivers/STM32F4xx_HAL_Driver/Src/stm32f4xx_hal_can.c ****   uint32_t tsrflags = READ_REG(hcan->Instance->TSR);
 2427              		.loc 1 1729 12 is_stmt 0 view .LVU761
 2428 000a D3F80480 		ldr	r8, [r3, #4]
 2429              	.LVL188:
1730:Drivers/STM32F4xx_HAL_Driver/Src/stm32f4xx_hal_can.c ****   uint32_t rf0rflags = READ_REG(hcan->Instance->RF0R);
 2430              		.loc 1 1730 3 is_stmt 1 view .LVU762
1730:Drivers/STM32F4xx_HAL_Driver/Src/stm32f4xx_hal_can.c ****   uint32_t rf0rflags = READ_REG(hcan->Instance->RF0R);
 2431              		.loc 1 1730 12 is_stmt 0 view .LVU763
 2432 000e 9F68     		ldr	r7, [r3, #8]
 2433              	.LVL189:
1731:Drivers/STM32F4xx_HAL_Driver/Src/stm32f4xx_hal_can.c ****   uint32_t rf1rflags = READ_REG(hcan->Instance->RF1R);
 2434              		.loc 1 1731 3 is_stmt 1 view .LVU764
1731:Drivers/STM32F4xx_HAL_Driver/Src/stm32f4xx_hal_can.c ****   uint32_t rf1rflags = READ_REG(hcan->Instance->RF1R);
 2435              		.loc 1 1731 12 is_stmt 0 view .LVU765
 2436 0010 D3F80CA0 		ldr	r10, [r3, #12]
 2437              	.LVL190:
1732:Drivers/STM32F4xx_HAL_Driver/Src/stm32f4xx_hal_can.c ****   uint32_t esrflags = READ_REG(hcan->Instance->ESR);
 2438              		.loc 1 1732 3 is_stmt 1 view .LVU766
1732:Drivers/STM32F4xx_HAL_Driver/Src/stm32f4xx_hal_can.c ****   uint32_t esrflags = READ_REG(hcan->Instance->ESR);
 2439              		.loc 1 1732 12 is_stmt 0 view .LVU767
 2440 0014 D3F81090 		ldr	r9, [r3, #16]
 2441              	.LVL191:
1733:Drivers/STM32F4xx_HAL_Driver/Src/stm32f4xx_hal_can.c **** 
 2442              		.loc 1 1733 3 is_stmt 1 view .LVU768
1733:Drivers/STM32F4xx_HAL_Driver/Src/stm32f4xx_hal_can.c **** 
 2443              		.loc 1 1733 12 is_stmt 0 view .LVU769
 2444 0018 D3F818B0 		ldr	fp, [r3, #24]
 2445              	.LVL192:
1736:Drivers/STM32F4xx_HAL_Driver/Src/stm32f4xx_hal_can.c ****   {
 2446              		.loc 1 1736 3 is_stmt 1 view .LVU770
1736:Drivers/STM32F4xx_HAL_Driver/Src/stm32f4xx_hal_can.c ****   {
 2447              		.loc 1 1736 6 is_stmt 0 view .LVU771
 2448 001c 14F00106 		ands	r6, r4, #1
 2449 0020 3BD0     		beq	.L173
1739:Drivers/STM32F4xx_HAL_Driver/Src/stm32f4xx_hal_can.c ****     {
 2450              		.loc 1 1739 5 is_stmt 1 view .LVU772
1739:Drivers/STM32F4xx_HAL_Driver/Src/stm32f4xx_hal_can.c ****     {
 2451              		.loc 1 1739 8 is_stmt 0 view .LVU773
 2452 0022 17F00106 		ands	r6, r7, #1
 2453 0026 16D0     		beq	.L174
1742:Drivers/STM32F4xx_HAL_Driver/Src/stm32f4xx_hal_can.c **** 
 2454              		.loc 1 1742 7 is_stmt 1 view .LVU774
 2455 0028 0122     		movs	r2, #1
 2456 002a 9A60     		str	r2, [r3, #8]
1744:Drivers/STM32F4xx_HAL_Driver/Src/stm32f4xx_hal_can.c ****       {
 2457              		.loc 1 1744 7 view .LVU775
1744:Drivers/STM32F4xx_HAL_Driver/Src/stm32f4xx_hal_can.c ****       {
 2458              		.loc 1 1744 10 is_stmt 0 view .LVU776
 2459 002c 17F0020F 		tst	r7, #2
 2460 0030 08D1     		bne	.L208
1757:Drivers/STM32F4xx_HAL_Driver/Src/stm32f4xx_hal_can.c ****         {
 2461              		.loc 1 1757 9 is_stmt 1 view .LVU777
1757:Drivers/STM32F4xx_HAL_Driver/Src/stm32f4xx_hal_can.c ****         {
 2462              		.loc 1 1757 12 is_stmt 0 view .LVU778
 2463 0032 17F0040F 		tst	r7, #4
 2464 0036 0CD1     		bne	.L205
ARM GAS  C:\Users\Rick\AppData\Local\Temp\cck9vz6U.s 			page 98


1762:Drivers/STM32F4xx_HAL_Driver/Src/stm32f4xx_hal_can.c ****         {
 2465              		.loc 1 1762 14 is_stmt 1 view .LVU779
1762:Drivers/STM32F4xx_HAL_Driver/Src/stm32f4xx_hal_can.c ****         {
 2466              		.loc 1 1762 17 is_stmt 0 view .LVU780
 2467 0038 17F00806 		ands	r6, r7, #8
 2468 003c 06D0     		beq	.L209
1765:Drivers/STM32F4xx_HAL_Driver/Src/stm32f4xx_hal_can.c ****         }
 2469              		.loc 1 1765 21 view .LVU781
 2470 003e 4FF48056 		mov	r6, #4096
 2471 0042 08E0     		b	.L174
 2472              	.L208:
1752:Drivers/STM32F4xx_HAL_Driver/Src/stm32f4xx_hal_can.c **** #endif /* USE_HAL_CAN_REGISTER_CALLBACKS */
 2473              		.loc 1 1752 9 is_stmt 1 view .LVU782
 2474 0044 FFF7FEFF 		bl	HAL_CAN_TxMailbox0CompleteCallback
 2475              	.LVL193:
1727:Drivers/STM32F4xx_HAL_Driver/Src/stm32f4xx_hal_can.c ****   uint32_t interrupts = READ_REG(hcan->Instance->IER);
 2476              		.loc 1 1727 12 is_stmt 0 view .LVU783
 2477 0048 0026     		movs	r6, #0
 2478 004a 04E0     		b	.L174
 2479              	.LVL194:
 2480              	.L209:
1775:Drivers/STM32F4xx_HAL_Driver/Src/stm32f4xx_hal_can.c **** #endif /* USE_HAL_CAN_REGISTER_CALLBACKS */
 2481              		.loc 1 1775 11 is_stmt 1 view .LVU784
 2482 004c FFF7FEFF 		bl	HAL_CAN_TxMailbox0AbortCallback
 2483              	.LVL195:
1775:Drivers/STM32F4xx_HAL_Driver/Src/stm32f4xx_hal_can.c **** #endif /* USE_HAL_CAN_REGISTER_CALLBACKS */
 2484              		.loc 1 1775 11 is_stmt 0 view .LVU785
 2485 0050 01E0     		b	.L174
 2486              	.LVL196:
 2487              	.L205:
1760:Drivers/STM32F4xx_HAL_Driver/Src/stm32f4xx_hal_can.c ****         }
 2488              		.loc 1 1760 21 view .LVU786
 2489 0052 4FF40066 		mov	r6, #2048
 2490              	.LVL197:
 2491              	.L174:
1782:Drivers/STM32F4xx_HAL_Driver/Src/stm32f4xx_hal_can.c ****     {
 2492              		.loc 1 1782 5 is_stmt 1 view .LVU787
1782:Drivers/STM32F4xx_HAL_Driver/Src/stm32f4xx_hal_can.c ****     {
 2493              		.loc 1 1782 8 is_stmt 0 view .LVU788
 2494 0056 17F4807F 		tst	r7, #256
 2495 005a 0DD0     		beq	.L176
1785:Drivers/STM32F4xx_HAL_Driver/Src/stm32f4xx_hal_can.c **** 
 2496              		.loc 1 1785 7 is_stmt 1 view .LVU789
 2497 005c 2B68     		ldr	r3, [r5]
 2498 005e 4FF48072 		mov	r2, #256
 2499 0062 9A60     		str	r2, [r3, #8]
1787:Drivers/STM32F4xx_HAL_Driver/Src/stm32f4xx_hal_can.c ****       {
 2500              		.loc 1 1787 7 view .LVU790
1787:Drivers/STM32F4xx_HAL_Driver/Src/stm32f4xx_hal_can.c ****       {
 2501              		.loc 1 1787 10 is_stmt 0 view .LVU791
 2502 0064 17F4007F 		tst	r7, #512
 2503 0068 40F09680 		bne	.L210
1800:Drivers/STM32F4xx_HAL_Driver/Src/stm32f4xx_hal_can.c ****         {
 2504              		.loc 1 1800 9 is_stmt 1 view .LVU792
1800:Drivers/STM32F4xx_HAL_Driver/Src/stm32f4xx_hal_can.c ****         {
 2505              		.loc 1 1800 12 is_stmt 0 view .LVU793
 2506 006c 17F4806F 		tst	r7, #1024
ARM GAS  C:\Users\Rick\AppData\Local\Temp\cck9vz6U.s 			page 99


 2507 0070 00F09680 		beq	.L178
1803:Drivers/STM32F4xx_HAL_Driver/Src/stm32f4xx_hal_can.c ****         }
 2508              		.loc 1 1803 11 is_stmt 1 view .LVU794
1803:Drivers/STM32F4xx_HAL_Driver/Src/stm32f4xx_hal_can.c ****         }
 2509              		.loc 1 1803 21 is_stmt 0 view .LVU795
 2510 0074 46F40056 		orr	r6, r6, #8192
 2511              	.LVL198:
 2512              	.L176:
1825:Drivers/STM32F4xx_HAL_Driver/Src/stm32f4xx_hal_can.c ****     {
 2513              		.loc 1 1825 5 is_stmt 1 view .LVU796
1825:Drivers/STM32F4xx_HAL_Driver/Src/stm32f4xx_hal_can.c ****     {
 2514              		.loc 1 1825 8 is_stmt 0 view .LVU797
 2515 0078 17F4803F 		tst	r7, #65536
 2516 007c 0DD0     		beq	.L173
1828:Drivers/STM32F4xx_HAL_Driver/Src/stm32f4xx_hal_can.c **** 
 2517              		.loc 1 1828 7 is_stmt 1 view .LVU798
 2518 007e 2B68     		ldr	r3, [r5]
 2519 0080 4FF48032 		mov	r2, #65536
 2520 0084 9A60     		str	r2, [r3, #8]
1830:Drivers/STM32F4xx_HAL_Driver/Src/stm32f4xx_hal_can.c ****       {
 2521              		.loc 1 1830 7 view .LVU799
1830:Drivers/STM32F4xx_HAL_Driver/Src/stm32f4xx_hal_can.c ****       {
 2522              		.loc 1 1830 10 is_stmt 0 view .LVU800
 2523 0086 17F4003F 		tst	r7, #131072
 2524 008a 40F09380 		bne	.L211
1843:Drivers/STM32F4xx_HAL_Driver/Src/stm32f4xx_hal_can.c ****         {
 2525              		.loc 1 1843 9 is_stmt 1 view .LVU801
1843:Drivers/STM32F4xx_HAL_Driver/Src/stm32f4xx_hal_can.c ****         {
 2526              		.loc 1 1843 12 is_stmt 0 view .LVU802
 2527 008e 17F4802F 		tst	r7, #262144
 2528 0092 00F09380 		beq	.L181
1846:Drivers/STM32F4xx_HAL_Driver/Src/stm32f4xx_hal_can.c ****         }
 2529              		.loc 1 1846 11 is_stmt 1 view .LVU803
1846:Drivers/STM32F4xx_HAL_Driver/Src/stm32f4xx_hal_can.c ****         }
 2530              		.loc 1 1846 21 is_stmt 0 view .LVU804
 2531 0096 46F40046 		orr	r6, r6, #32768
 2532              	.LVL199:
 2533              	.L173:
1869:Drivers/STM32F4xx_HAL_Driver/Src/stm32f4xx_hal_can.c ****   {
 2534              		.loc 1 1869 3 is_stmt 1 view .LVU805
1869:Drivers/STM32F4xx_HAL_Driver/Src/stm32f4xx_hal_can.c ****   {
 2535              		.loc 1 1869 6 is_stmt 0 view .LVU806
 2536 009a 14F0080F 		tst	r4, #8
 2537 009e 07D0     		beq	.L183
1871:Drivers/STM32F4xx_HAL_Driver/Src/stm32f4xx_hal_can.c ****     {
 2538              		.loc 1 1871 5 is_stmt 1 view .LVU807
1871:Drivers/STM32F4xx_HAL_Driver/Src/stm32f4xx_hal_can.c ****     {
 2539              		.loc 1 1871 8 is_stmt 0 view .LVU808
 2540 00a0 1AF0100F 		tst	r10, #16
 2541 00a4 04D0     		beq	.L183
1874:Drivers/STM32F4xx_HAL_Driver/Src/stm32f4xx_hal_can.c **** 
 2542              		.loc 1 1874 7 is_stmt 1 view .LVU809
1874:Drivers/STM32F4xx_HAL_Driver/Src/stm32f4xx_hal_can.c **** 
 2543              		.loc 1 1874 17 is_stmt 0 view .LVU810
 2544 00a6 46F40076 		orr	r6, r6, #512
 2545              	.LVL200:
1877:Drivers/STM32F4xx_HAL_Driver/Src/stm32f4xx_hal_can.c ****     }
ARM GAS  C:\Users\Rick\AppData\Local\Temp\cck9vz6U.s 			page 100


 2546              		.loc 1 1877 7 is_stmt 1 view .LVU811
 2547 00aa 2B68     		ldr	r3, [r5]
 2548 00ac 1022     		movs	r2, #16
 2549 00ae DA60     		str	r2, [r3, #12]
 2550              	.L183:
1882:Drivers/STM32F4xx_HAL_Driver/Src/stm32f4xx_hal_can.c ****   {
 2551              		.loc 1 1882 3 view .LVU812
1882:Drivers/STM32F4xx_HAL_Driver/Src/stm32f4xx_hal_can.c ****   {
 2552              		.loc 1 1882 6 is_stmt 0 view .LVU813
 2553 00b0 14F0040F 		tst	r4, #4
 2554 00b4 03D0     		beq	.L184
1884:Drivers/STM32F4xx_HAL_Driver/Src/stm32f4xx_hal_can.c ****     {
 2555              		.loc 1 1884 5 is_stmt 1 view .LVU814
1884:Drivers/STM32F4xx_HAL_Driver/Src/stm32f4xx_hal_can.c ****     {
 2556              		.loc 1 1884 8 is_stmt 0 view .LVU815
 2557 00b6 1AF0080F 		tst	r10, #8
 2558 00ba 40F08980 		bne	.L212
 2559              	.L184:
1901:Drivers/STM32F4xx_HAL_Driver/Src/stm32f4xx_hal_can.c ****   {
 2560              		.loc 1 1901 3 is_stmt 1 view .LVU816
1901:Drivers/STM32F4xx_HAL_Driver/Src/stm32f4xx_hal_can.c ****   {
 2561              		.loc 1 1901 6 is_stmt 0 view .LVU817
 2562 00be 14F0020F 		tst	r4, #2
 2563 00c2 05D0     		beq	.L185
1904:Drivers/STM32F4xx_HAL_Driver/Src/stm32f4xx_hal_can.c ****     {
 2564              		.loc 1 1904 5 is_stmt 1 view .LVU818
1904:Drivers/STM32F4xx_HAL_Driver/Src/stm32f4xx_hal_can.c ****     {
 2565              		.loc 1 1904 14 is_stmt 0 view .LVU819
 2566 00c4 2B68     		ldr	r3, [r5]
1904:Drivers/STM32F4xx_HAL_Driver/Src/stm32f4xx_hal_can.c ****     {
 2567              		.loc 1 1904 24 view .LVU820
 2568 00c6 DB68     		ldr	r3, [r3, #12]
1904:Drivers/STM32F4xx_HAL_Driver/Src/stm32f4xx_hal_can.c ****     {
 2569              		.loc 1 1904 8 view .LVU821
 2570 00c8 13F0030F 		tst	r3, #3
 2571 00cc 40F08780 		bne	.L213
 2572              	.L185:
1918:Drivers/STM32F4xx_HAL_Driver/Src/stm32f4xx_hal_can.c ****   {
 2573              		.loc 1 1918 3 is_stmt 1 view .LVU822
1918:Drivers/STM32F4xx_HAL_Driver/Src/stm32f4xx_hal_can.c ****   {
 2574              		.loc 1 1918 6 is_stmt 0 view .LVU823
 2575 00d0 14F0400F 		tst	r4, #64
 2576 00d4 07D0     		beq	.L186
1920:Drivers/STM32F4xx_HAL_Driver/Src/stm32f4xx_hal_can.c ****     {
 2577              		.loc 1 1920 5 is_stmt 1 view .LVU824
1920:Drivers/STM32F4xx_HAL_Driver/Src/stm32f4xx_hal_can.c ****     {
 2578              		.loc 1 1920 8 is_stmt 0 view .LVU825
 2579 00d6 19F0100F 		tst	r9, #16
 2580 00da 04D0     		beq	.L186
1923:Drivers/STM32F4xx_HAL_Driver/Src/stm32f4xx_hal_can.c **** 
 2581              		.loc 1 1923 7 is_stmt 1 view .LVU826
1923:Drivers/STM32F4xx_HAL_Driver/Src/stm32f4xx_hal_can.c **** 
 2582              		.loc 1 1923 17 is_stmt 0 view .LVU827
 2583 00dc 46F48066 		orr	r6, r6, #1024
 2584              	.LVL201:
1926:Drivers/STM32F4xx_HAL_Driver/Src/stm32f4xx_hal_can.c ****     }
 2585              		.loc 1 1926 7 is_stmt 1 view .LVU828
ARM GAS  C:\Users\Rick\AppData\Local\Temp\cck9vz6U.s 			page 101


 2586 00e0 2B68     		ldr	r3, [r5]
 2587 00e2 1022     		movs	r2, #16
 2588 00e4 1A61     		str	r2, [r3, #16]
 2589              	.L186:
1931:Drivers/STM32F4xx_HAL_Driver/Src/stm32f4xx_hal_can.c ****   {
 2590              		.loc 1 1931 3 view .LVU829
1931:Drivers/STM32F4xx_HAL_Driver/Src/stm32f4xx_hal_can.c ****   {
 2591              		.loc 1 1931 6 is_stmt 0 view .LVU830
 2592 00e6 14F0200F 		tst	r4, #32
 2593 00ea 02D0     		beq	.L187
1933:Drivers/STM32F4xx_HAL_Driver/Src/stm32f4xx_hal_can.c ****     {
 2594              		.loc 1 1933 5 is_stmt 1 view .LVU831
1933:Drivers/STM32F4xx_HAL_Driver/Src/stm32f4xx_hal_can.c ****     {
 2595              		.loc 1 1933 8 is_stmt 0 view .LVU832
 2596 00ec 19F0080F 		tst	r9, #8
 2597 00f0 79D1     		bne	.L214
 2598              	.L187:
1950:Drivers/STM32F4xx_HAL_Driver/Src/stm32f4xx_hal_can.c ****   {
 2599              		.loc 1 1950 3 is_stmt 1 view .LVU833
1950:Drivers/STM32F4xx_HAL_Driver/Src/stm32f4xx_hal_can.c ****   {
 2600              		.loc 1 1950 6 is_stmt 0 view .LVU834
 2601 00f2 14F0100F 		tst	r4, #16
 2602 00f6 04D0     		beq	.L188
1953:Drivers/STM32F4xx_HAL_Driver/Src/stm32f4xx_hal_can.c ****     {
 2603              		.loc 1 1953 5 is_stmt 1 view .LVU835
1953:Drivers/STM32F4xx_HAL_Driver/Src/stm32f4xx_hal_can.c ****     {
 2604              		.loc 1 1953 14 is_stmt 0 view .LVU836
 2605 00f8 2B68     		ldr	r3, [r5]
1953:Drivers/STM32F4xx_HAL_Driver/Src/stm32f4xx_hal_can.c ****     {
 2606              		.loc 1 1953 24 view .LVU837
 2607 00fa 1B69     		ldr	r3, [r3, #16]
1953:Drivers/STM32F4xx_HAL_Driver/Src/stm32f4xx_hal_can.c ****     {
 2608              		.loc 1 1953 8 view .LVU838
 2609 00fc 13F0030F 		tst	r3, #3
 2610 0100 78D1     		bne	.L215
 2611              	.L188:
1967:Drivers/STM32F4xx_HAL_Driver/Src/stm32f4xx_hal_can.c ****   {
 2612              		.loc 1 1967 3 is_stmt 1 view .LVU839
1967:Drivers/STM32F4xx_HAL_Driver/Src/stm32f4xx_hal_can.c ****   {
 2613              		.loc 1 1967 6 is_stmt 0 view .LVU840
 2614 0102 14F4003F 		tst	r4, #131072
 2615 0106 02D0     		beq	.L189
1969:Drivers/STM32F4xx_HAL_Driver/Src/stm32f4xx_hal_can.c ****     {
 2616              		.loc 1 1969 5 is_stmt 1 view .LVU841
1969:Drivers/STM32F4xx_HAL_Driver/Src/stm32f4xx_hal_can.c ****     {
 2617              		.loc 1 1969 8 is_stmt 0 view .LVU842
 2618 0108 18F0100F 		tst	r8, #16
 2619 010c 76D1     		bne	.L216
 2620              	.L189:
1986:Drivers/STM32F4xx_HAL_Driver/Src/stm32f4xx_hal_can.c ****   {
 2621              		.loc 1 1986 3 is_stmt 1 view .LVU843
1986:Drivers/STM32F4xx_HAL_Driver/Src/stm32f4xx_hal_can.c ****   {
 2622              		.loc 1 1986 6 is_stmt 0 view .LVU844
 2623 010e 14F4803F 		tst	r4, #65536
 2624 0112 02D0     		beq	.L190
1988:Drivers/STM32F4xx_HAL_Driver/Src/stm32f4xx_hal_can.c ****     {
 2625              		.loc 1 1988 5 is_stmt 1 view .LVU845
ARM GAS  C:\Users\Rick\AppData\Local\Temp\cck9vz6U.s 			page 102


1988:Drivers/STM32F4xx_HAL_Driver/Src/stm32f4xx_hal_can.c ****     {
 2626              		.loc 1 1988 8 is_stmt 0 view .LVU846
 2627 0114 18F0080F 		tst	r8, #8
 2628 0118 77D1     		bne	.L217
 2629              	.L190:
2005:Drivers/STM32F4xx_HAL_Driver/Src/stm32f4xx_hal_can.c ****   {
 2630              		.loc 1 2005 3 is_stmt 1 view .LVU847
2005:Drivers/STM32F4xx_HAL_Driver/Src/stm32f4xx_hal_can.c ****   {
 2631              		.loc 1 2005 6 is_stmt 0 view .LVU848
 2632 011a 14F4004F 		tst	r4, #32768
 2633 011e 37D0     		beq	.L191
2007:Drivers/STM32F4xx_HAL_Driver/Src/stm32f4xx_hal_can.c ****     {
 2634              		.loc 1 2007 5 is_stmt 1 view .LVU849
2007:Drivers/STM32F4xx_HAL_Driver/Src/stm32f4xx_hal_can.c ****     {
 2635              		.loc 1 2007 8 is_stmt 0 view .LVU850
 2636 0120 18F0040F 		tst	r8, #4
 2637 0124 31D0     		beq	.L192
2010:Drivers/STM32F4xx_HAL_Driver/Src/stm32f4xx_hal_can.c ****           ((esrflags & CAN_ESR_EWGF) != 0U))
 2638              		.loc 1 2010 7 is_stmt 1 view .LVU851
2010:Drivers/STM32F4xx_HAL_Driver/Src/stm32f4xx_hal_can.c ****           ((esrflags & CAN_ESR_EWGF) != 0U))
 2639              		.loc 1 2010 10 is_stmt 0 view .LVU852
 2640 0126 14F4807F 		tst	r4, #256
 2641 012a 04D0     		beq	.L193
2010:Drivers/STM32F4xx_HAL_Driver/Src/stm32f4xx_hal_can.c ****           ((esrflags & CAN_ESR_EWGF) != 0U))
 2642              		.loc 1 2010 55 discriminator 1 view .LVU853
 2643 012c 1BF0010F 		tst	fp, #1
 2644 0130 01D0     		beq	.L193
2014:Drivers/STM32F4xx_HAL_Driver/Src/stm32f4xx_hal_can.c **** 
 2645              		.loc 1 2014 9 is_stmt 1 view .LVU854
2014:Drivers/STM32F4xx_HAL_Driver/Src/stm32f4xx_hal_can.c **** 
 2646              		.loc 1 2014 19 is_stmt 0 view .LVU855
 2647 0132 46F00106 		orr	r6, r6, #1
 2648              	.LVL202:
 2649              	.L193:
2020:Drivers/STM32F4xx_HAL_Driver/Src/stm32f4xx_hal_can.c ****           ((esrflags & CAN_ESR_EPVF) != 0U))
 2650              		.loc 1 2020 7 is_stmt 1 view .LVU856
2020:Drivers/STM32F4xx_HAL_Driver/Src/stm32f4xx_hal_can.c ****           ((esrflags & CAN_ESR_EPVF) != 0U))
 2651              		.loc 1 2020 10 is_stmt 0 view .LVU857
 2652 0136 14F4007F 		tst	r4, #512
 2653 013a 04D0     		beq	.L194
2020:Drivers/STM32F4xx_HAL_Driver/Src/stm32f4xx_hal_can.c ****           ((esrflags & CAN_ESR_EPVF) != 0U))
 2654              		.loc 1 2020 55 discriminator 1 view .LVU858
 2655 013c 1BF0020F 		tst	fp, #2
 2656 0140 01D0     		beq	.L194
2024:Drivers/STM32F4xx_HAL_Driver/Src/stm32f4xx_hal_can.c **** 
 2657              		.loc 1 2024 9 is_stmt 1 view .LVU859
2024:Drivers/STM32F4xx_HAL_Driver/Src/stm32f4xx_hal_can.c **** 
 2658              		.loc 1 2024 19 is_stmt 0 view .LVU860
 2659 0142 46F00206 		orr	r6, r6, #2
 2660              	.LVL203:
 2661              	.L194:
2030:Drivers/STM32F4xx_HAL_Driver/Src/stm32f4xx_hal_can.c ****           ((esrflags & CAN_ESR_BOFF) != 0U))
 2662              		.loc 1 2030 7 is_stmt 1 view .LVU861
2030:Drivers/STM32F4xx_HAL_Driver/Src/stm32f4xx_hal_can.c ****           ((esrflags & CAN_ESR_BOFF) != 0U))
 2663              		.loc 1 2030 10 is_stmt 0 view .LVU862
 2664 0146 14F4806F 		tst	r4, #1024
 2665 014a 04D0     		beq	.L195
ARM GAS  C:\Users\Rick\AppData\Local\Temp\cck9vz6U.s 			page 103


2030:Drivers/STM32F4xx_HAL_Driver/Src/stm32f4xx_hal_can.c ****           ((esrflags & CAN_ESR_BOFF) != 0U))
 2666              		.loc 1 2030 48 discriminator 1 view .LVU863
 2667 014c 1BF0040F 		tst	fp, #4
 2668 0150 01D0     		beq	.L195
2034:Drivers/STM32F4xx_HAL_Driver/Src/stm32f4xx_hal_can.c **** 
 2669              		.loc 1 2034 9 is_stmt 1 view .LVU864
2034:Drivers/STM32F4xx_HAL_Driver/Src/stm32f4xx_hal_can.c **** 
 2670              		.loc 1 2034 19 is_stmt 0 view .LVU865
 2671 0152 46F00406 		orr	r6, r6, #4
 2672              	.LVL204:
 2673              	.L195:
2040:Drivers/STM32F4xx_HAL_Driver/Src/stm32f4xx_hal_can.c ****           ((esrflags & CAN_ESR_LEC) != 0U))
 2674              		.loc 1 2040 7 is_stmt 1 view .LVU866
2040:Drivers/STM32F4xx_HAL_Driver/Src/stm32f4xx_hal_can.c ****           ((esrflags & CAN_ESR_LEC) != 0U))
 2675              		.loc 1 2040 10 is_stmt 0 view .LVU867
 2676 0156 14F4006F 		tst	r4, #2048
 2677 015a 16D0     		beq	.L192
2040:Drivers/STM32F4xx_HAL_Driver/Src/stm32f4xx_hal_can.c ****           ((esrflags & CAN_ESR_LEC) != 0U))
 2678              		.loc 1 2040 57 discriminator 1 view .LVU868
 2679 015c 1BF0700B 		ands	fp, fp, #112
 2680              	.LVL205:
2040:Drivers/STM32F4xx_HAL_Driver/Src/stm32f4xx_hal_can.c ****           ((esrflags & CAN_ESR_LEC) != 0U))
 2681              		.loc 1 2040 57 discriminator 1 view .LVU869
 2682 0160 13D0     		beq	.L192
2043:Drivers/STM32F4xx_HAL_Driver/Src/stm32f4xx_hal_can.c ****         {
 2683              		.loc 1 2043 9 is_stmt 1 view .LVU870
 2684 0162 BBF1400F 		cmp	fp, #64
 2685 0166 66D0     		beq	.L196
 2686 0168 56D8     		bhi	.L197
 2687 016a BBF1200F 		cmp	fp, #32
 2688 016e 5CD0     		beq	.L198
 2689 0170 BBF1300F 		cmp	fp, #48
 2690 0174 5CD0     		beq	.L199
 2691 0176 BBF1100F 		cmp	fp, #16
 2692 017a 01D1     		bne	.L201
2047:Drivers/STM32F4xx_HAL_Driver/Src/stm32f4xx_hal_can.c ****             break;
 2693              		.loc 1 2047 13 view .LVU871
2047:Drivers/STM32F4xx_HAL_Driver/Src/stm32f4xx_hal_can.c ****             break;
 2694              		.loc 1 2047 23 is_stmt 0 view .LVU872
 2695 017c 46F00806 		orr	r6, r6, #8
 2696              	.LVL206:
2048:Drivers/STM32F4xx_HAL_Driver/Src/stm32f4xx_hal_can.c ****           case (CAN_ESR_LEC_1):
 2697              		.loc 1 2048 13 is_stmt 1 view .LVU873
 2698              	.L201:
2074:Drivers/STM32F4xx_HAL_Driver/Src/stm32f4xx_hal_can.c ****       }
 2699              		.loc 1 2074 9 view .LVU874
 2700 0180 2A68     		ldr	r2, [r5]
 2701 0182 9369     		ldr	r3, [r2, #24]
 2702 0184 23F07003 		bic	r3, r3, #112
 2703 0188 9361     		str	r3, [r2, #24]
 2704              	.L192:
2079:Drivers/STM32F4xx_HAL_Driver/Src/stm32f4xx_hal_can.c ****   }
 2705              		.loc 1 2079 5 view .LVU875
 2706 018a 2B68     		ldr	r3, [r5]
 2707 018c 0422     		movs	r2, #4
 2708 018e 5A60     		str	r2, [r3, #4]
 2709              	.L191:
ARM GAS  C:\Users\Rick\AppData\Local\Temp\cck9vz6U.s 			page 104


2083:Drivers/STM32F4xx_HAL_Driver/Src/stm32f4xx_hal_can.c ****   {
 2710              		.loc 1 2083 3 view .LVU876
2083:Drivers/STM32F4xx_HAL_Driver/Src/stm32f4xx_hal_can.c ****   {
 2711              		.loc 1 2083 6 is_stmt 0 view .LVU877
 2712 0190 002E     		cmp	r6, #0
 2713 0192 56D1     		bne	.L218
 2714              	.L172:
2097:Drivers/STM32F4xx_HAL_Driver/Src/stm32f4xx_hal_can.c **** 
 2715              		.loc 1 2097 1 view .LVU878
 2716 0194 BDE8F88F 		pop	{r3, r4, r5, r6, r7, r8, r9, r10, fp, pc}
 2717              	.LVL207:
 2718              	.L210:
1795:Drivers/STM32F4xx_HAL_Driver/Src/stm32f4xx_hal_can.c **** #endif /* USE_HAL_CAN_REGISTER_CALLBACKS */
 2719              		.loc 1 1795 9 is_stmt 1 view .LVU879
 2720 0198 2846     		mov	r0, r5
 2721 019a FFF7FEFF 		bl	HAL_CAN_TxMailbox1CompleteCallback
 2722              	.LVL208:
 2723 019e 6BE7     		b	.L176
 2724              	.L178:
1805:Drivers/STM32F4xx_HAL_Driver/Src/stm32f4xx_hal_can.c ****         {
 2725              		.loc 1 1805 14 view .LVU880
1805:Drivers/STM32F4xx_HAL_Driver/Src/stm32f4xx_hal_can.c ****         {
 2726              		.loc 1 1805 17 is_stmt 0 view .LVU881
 2727 01a0 17F4006F 		tst	r7, #2048
 2728 01a4 02D0     		beq	.L179
1808:Drivers/STM32F4xx_HAL_Driver/Src/stm32f4xx_hal_can.c ****         }
 2729              		.loc 1 1808 11 is_stmt 1 view .LVU882
1808:Drivers/STM32F4xx_HAL_Driver/Src/stm32f4xx_hal_can.c ****         }
 2730              		.loc 1 1808 21 is_stmt 0 view .LVU883
 2731 01a6 46F48046 		orr	r6, r6, #16384
 2732              	.LVL209:
1808:Drivers/STM32F4xx_HAL_Driver/Src/stm32f4xx_hal_can.c ****         }
 2733              		.loc 1 1808 21 view .LVU884
 2734 01aa 65E7     		b	.L176
 2735              	.L179:
1818:Drivers/STM32F4xx_HAL_Driver/Src/stm32f4xx_hal_can.c **** #endif /* USE_HAL_CAN_REGISTER_CALLBACKS */
 2736              		.loc 1 1818 11 is_stmt 1 view .LVU885
 2737 01ac 2846     		mov	r0, r5
 2738 01ae FFF7FEFF 		bl	HAL_CAN_TxMailbox1AbortCallback
 2739              	.LVL210:
 2740 01b2 61E7     		b	.L176
 2741              	.L211:
1838:Drivers/STM32F4xx_HAL_Driver/Src/stm32f4xx_hal_can.c **** #endif /* USE_HAL_CAN_REGISTER_CALLBACKS */
 2742              		.loc 1 1838 9 view .LVU886
 2743 01b4 2846     		mov	r0, r5
 2744 01b6 FFF7FEFF 		bl	HAL_CAN_TxMailbox2CompleteCallback
 2745              	.LVL211:
 2746 01ba 6EE7     		b	.L173
 2747              	.L181:
1848:Drivers/STM32F4xx_HAL_Driver/Src/stm32f4xx_hal_can.c ****         {
 2748              		.loc 1 1848 14 view .LVU887
1848:Drivers/STM32F4xx_HAL_Driver/Src/stm32f4xx_hal_can.c ****         {
 2749              		.loc 1 1848 17 is_stmt 0 view .LVU888
 2750 01bc 17F4002F 		tst	r7, #524288
 2751 01c0 02D0     		beq	.L182
1851:Drivers/STM32F4xx_HAL_Driver/Src/stm32f4xx_hal_can.c ****         }
 2752              		.loc 1 1851 11 is_stmt 1 view .LVU889
ARM GAS  C:\Users\Rick\AppData\Local\Temp\cck9vz6U.s 			page 105


1851:Drivers/STM32F4xx_HAL_Driver/Src/stm32f4xx_hal_can.c ****         }
 2753              		.loc 1 1851 21 is_stmt 0 view .LVU890
 2754 01c2 46F48036 		orr	r6, r6, #65536
 2755              	.LVL212:
1851:Drivers/STM32F4xx_HAL_Driver/Src/stm32f4xx_hal_can.c ****         }
 2756              		.loc 1 1851 21 view .LVU891
 2757 01c6 68E7     		b	.L173
 2758              	.L182:
1861:Drivers/STM32F4xx_HAL_Driver/Src/stm32f4xx_hal_can.c **** #endif /* USE_HAL_CAN_REGISTER_CALLBACKS */
 2759              		.loc 1 1861 11 is_stmt 1 view .LVU892
 2760 01c8 2846     		mov	r0, r5
 2761 01ca FFF7FEFF 		bl	HAL_CAN_TxMailbox2AbortCallback
 2762              	.LVL213:
 2763 01ce 64E7     		b	.L173
 2764              	.L212:
1887:Drivers/STM32F4xx_HAL_Driver/Src/stm32f4xx_hal_can.c **** 
 2765              		.loc 1 1887 7 view .LVU893
 2766 01d0 2B68     		ldr	r3, [r5]
 2767 01d2 0822     		movs	r2, #8
 2768 01d4 DA60     		str	r2, [r3, #12]
1895:Drivers/STM32F4xx_HAL_Driver/Src/stm32f4xx_hal_can.c **** #endif /* USE_HAL_CAN_REGISTER_CALLBACKS */
 2769              		.loc 1 1895 7 view .LVU894
 2770 01d6 2846     		mov	r0, r5
 2771 01d8 FFF7FEFF 		bl	HAL_CAN_RxFifo0FullCallback
 2772              	.LVL214:
 2773 01dc 6FE7     		b	.L184
 2774              	.L213:
1912:Drivers/STM32F4xx_HAL_Driver/Src/stm32f4xx_hal_can.c **** #endif /* USE_HAL_CAN_REGISTER_CALLBACKS */
 2775              		.loc 1 1912 7 view .LVU895
 2776 01de 2846     		mov	r0, r5
 2777 01e0 FFF7FEFF 		bl	HAL_CAN_RxFifo0MsgPendingCallback
 2778              	.LVL215:
 2779 01e4 74E7     		b	.L185
 2780              	.L214:
1936:Drivers/STM32F4xx_HAL_Driver/Src/stm32f4xx_hal_can.c **** 
 2781              		.loc 1 1936 7 view .LVU896
 2782 01e6 2B68     		ldr	r3, [r5]
 2783 01e8 0822     		movs	r2, #8
 2784 01ea 1A61     		str	r2, [r3, #16]
1944:Drivers/STM32F4xx_HAL_Driver/Src/stm32f4xx_hal_can.c **** #endif /* USE_HAL_CAN_REGISTER_CALLBACKS */
 2785              		.loc 1 1944 7 view .LVU897
 2786 01ec 2846     		mov	r0, r5
 2787 01ee FFF7FEFF 		bl	HAL_CAN_RxFifo1FullCallback
 2788              	.LVL216:
 2789 01f2 7EE7     		b	.L187
 2790              	.L215:
1961:Drivers/STM32F4xx_HAL_Driver/Src/stm32f4xx_hal_can.c **** #endif /* USE_HAL_CAN_REGISTER_CALLBACKS */
 2791              		.loc 1 1961 7 view .LVU898
 2792 01f4 2846     		mov	r0, r5
 2793 01f6 FFF7FEFF 		bl	HAL_CAN_RxFifo1MsgPendingCallback
 2794              	.LVL217:
 2795 01fa 82E7     		b	.L188
 2796              	.L216:
1972:Drivers/STM32F4xx_HAL_Driver/Src/stm32f4xx_hal_can.c **** 
 2797              		.loc 1 1972 7 view .LVU899
 2798 01fc 2B68     		ldr	r3, [r5]
 2799 01fe 1022     		movs	r2, #16
ARM GAS  C:\Users\Rick\AppData\Local\Temp\cck9vz6U.s 			page 106


 2800 0200 5A60     		str	r2, [r3, #4]
1980:Drivers/STM32F4xx_HAL_Driver/Src/stm32f4xx_hal_can.c **** #endif /* USE_HAL_CAN_REGISTER_CALLBACKS */
 2801              		.loc 1 1980 7 view .LVU900
 2802 0202 2846     		mov	r0, r5
 2803 0204 FFF7FEFF 		bl	HAL_CAN_SleepCallback
 2804              	.LVL218:
 2805 0208 81E7     		b	.L189
 2806              	.L217:
1991:Drivers/STM32F4xx_HAL_Driver/Src/stm32f4xx_hal_can.c **** 
 2807              		.loc 1 1991 7 view .LVU901
 2808 020a 2B68     		ldr	r3, [r5]
 2809 020c 0822     		movs	r2, #8
 2810 020e 5A60     		str	r2, [r3, #4]
1999:Drivers/STM32F4xx_HAL_Driver/Src/stm32f4xx_hal_can.c **** #endif /* USE_HAL_CAN_REGISTER_CALLBACKS */
 2811              		.loc 1 1999 7 view .LVU902
 2812 0210 2846     		mov	r0, r5
 2813 0212 FFF7FEFF 		bl	HAL_CAN_WakeUpFromRxMsgCallback
 2814              	.LVL219:
 2815 0216 80E7     		b	.L190
 2816              	.LVL220:
 2817              	.L197:
2043:Drivers/STM32F4xx_HAL_Driver/Src/stm32f4xx_hal_can.c ****         {
 2818              		.loc 1 2043 9 is_stmt 0 view .LVU903
 2819 0218 BBF1500F 		cmp	fp, #80
 2820 021c 0ED0     		beq	.L202
 2821 021e BBF1600F 		cmp	fp, #96
 2822 0222 ADD1     		bne	.L201
2067:Drivers/STM32F4xx_HAL_Driver/Src/stm32f4xx_hal_can.c ****             break;
 2823              		.loc 1 2067 13 is_stmt 1 view .LVU904
2067:Drivers/STM32F4xx_HAL_Driver/Src/stm32f4xx_hal_can.c ****             break;
 2824              		.loc 1 2067 23 is_stmt 0 view .LVU905
 2825 0224 46F48076 		orr	r6, r6, #256
 2826              	.LVL221:
2068:Drivers/STM32F4xx_HAL_Driver/Src/stm32f4xx_hal_can.c ****           default:
 2827              		.loc 1 2068 13 is_stmt 1 view .LVU906
 2828 0228 AAE7     		b	.L201
 2829              	.L198:
2051:Drivers/STM32F4xx_HAL_Driver/Src/stm32f4xx_hal_can.c ****             break;
 2830              		.loc 1 2051 13 view .LVU907
2051:Drivers/STM32F4xx_HAL_Driver/Src/stm32f4xx_hal_can.c ****             break;
 2831              		.loc 1 2051 23 is_stmt 0 view .LVU908
 2832 022a 46F01006 		orr	r6, r6, #16
 2833              	.LVL222:
2052:Drivers/STM32F4xx_HAL_Driver/Src/stm32f4xx_hal_can.c ****           case (CAN_ESR_LEC_1 | CAN_ESR_LEC_0):
 2834              		.loc 1 2052 13 is_stmt 1 view .LVU909
 2835 022e A7E7     		b	.L201
 2836              	.L199:
2055:Drivers/STM32F4xx_HAL_Driver/Src/stm32f4xx_hal_can.c ****             break;
 2837              		.loc 1 2055 13 view .LVU910
2055:Drivers/STM32F4xx_HAL_Driver/Src/stm32f4xx_hal_can.c ****             break;
 2838              		.loc 1 2055 23 is_stmt 0 view .LVU911
 2839 0230 46F02006 		orr	r6, r6, #32
 2840              	.LVL223:
2056:Drivers/STM32F4xx_HAL_Driver/Src/stm32f4xx_hal_can.c ****           case (CAN_ESR_LEC_2):
 2841              		.loc 1 2056 13 is_stmt 1 view .LVU912
 2842 0234 A4E7     		b	.L201
 2843              	.L196:
ARM GAS  C:\Users\Rick\AppData\Local\Temp\cck9vz6U.s 			page 107


2059:Drivers/STM32F4xx_HAL_Driver/Src/stm32f4xx_hal_can.c ****             break;
 2844              		.loc 1 2059 13 view .LVU913
2059:Drivers/STM32F4xx_HAL_Driver/Src/stm32f4xx_hal_can.c ****             break;
 2845              		.loc 1 2059 23 is_stmt 0 view .LVU914
 2846 0236 46F04006 		orr	r6, r6, #64
 2847              	.LVL224:
2060:Drivers/STM32F4xx_HAL_Driver/Src/stm32f4xx_hal_can.c ****           case (CAN_ESR_LEC_2 | CAN_ESR_LEC_0):
 2848              		.loc 1 2060 13 is_stmt 1 view .LVU915
 2849 023a A1E7     		b	.L201
 2850              	.L202:
2063:Drivers/STM32F4xx_HAL_Driver/Src/stm32f4xx_hal_can.c ****             break;
 2851              		.loc 1 2063 13 view .LVU916
2063:Drivers/STM32F4xx_HAL_Driver/Src/stm32f4xx_hal_can.c ****             break;
 2852              		.loc 1 2063 23 is_stmt 0 view .LVU917
 2853 023c 46F08006 		orr	r6, r6, #128
 2854              	.LVL225:
2064:Drivers/STM32F4xx_HAL_Driver/Src/stm32f4xx_hal_can.c ****           case (CAN_ESR_LEC_2 | CAN_ESR_LEC_1):
 2855              		.loc 1 2064 13 is_stmt 1 view .LVU918
 2856 0240 9EE7     		b	.L201
 2857              	.L218:
2086:Drivers/STM32F4xx_HAL_Driver/Src/stm32f4xx_hal_can.c **** 
 2858              		.loc 1 2086 5 view .LVU919
2086:Drivers/STM32F4xx_HAL_Driver/Src/stm32f4xx_hal_can.c **** 
 2859              		.loc 1 2086 9 is_stmt 0 view .LVU920
 2860 0242 6B6A     		ldr	r3, [r5, #36]
2086:Drivers/STM32F4xx_HAL_Driver/Src/stm32f4xx_hal_can.c **** 
 2861              		.loc 1 2086 21 view .LVU921
 2862 0244 3343     		orrs	r3, r3, r6
 2863 0246 6B62     		str	r3, [r5, #36]
2094:Drivers/STM32F4xx_HAL_Driver/Src/stm32f4xx_hal_can.c **** #endif /* USE_HAL_CAN_REGISTER_CALLBACKS */
 2864              		.loc 1 2094 5 is_stmt 1 view .LVU922
 2865 0248 2846     		mov	r0, r5
 2866 024a FFF7FEFF 		bl	HAL_CAN_ErrorCallback
 2867              	.LVL226:
2097:Drivers/STM32F4xx_HAL_Driver/Src/stm32f4xx_hal_can.c **** 
 2868              		.loc 1 2097 1 is_stmt 0 view .LVU923
 2869 024e A1E7     		b	.L172
 2870              		.cfi_endproc
 2871              	.LFE258:
 2873              		.section	.text.HAL_CAN_GetState,"ax",%progbits
 2874              		.align	1
 2875              		.global	HAL_CAN_GetState
 2876              		.syntax unified
 2877              		.thumb
 2878              		.thumb_func
 2880              	HAL_CAN_GetState:
 2881              	.LVL227:
 2882              	.LFB272:
2348:Drivers/STM32F4xx_HAL_Driver/Src/stm32f4xx_hal_can.c **** 
2349:Drivers/STM32F4xx_HAL_Driver/Src/stm32f4xx_hal_can.c **** /**
2350:Drivers/STM32F4xx_HAL_Driver/Src/stm32f4xx_hal_can.c ****   * @}
2351:Drivers/STM32F4xx_HAL_Driver/Src/stm32f4xx_hal_can.c ****   */
2352:Drivers/STM32F4xx_HAL_Driver/Src/stm32f4xx_hal_can.c **** 
2353:Drivers/STM32F4xx_HAL_Driver/Src/stm32f4xx_hal_can.c **** /** @defgroup CAN_Exported_Functions_Group6 Peripheral State and Error functions
2354:Drivers/STM32F4xx_HAL_Driver/Src/stm32f4xx_hal_can.c ****   * @brief   CAN Peripheral State functions
2355:Drivers/STM32F4xx_HAL_Driver/Src/stm32f4xx_hal_can.c ****   *
2356:Drivers/STM32F4xx_HAL_Driver/Src/stm32f4xx_hal_can.c **** @verbatim
ARM GAS  C:\Users\Rick\AppData\Local\Temp\cck9vz6U.s 			page 108


2357:Drivers/STM32F4xx_HAL_Driver/Src/stm32f4xx_hal_can.c ****   ==============================================================================
2358:Drivers/STM32F4xx_HAL_Driver/Src/stm32f4xx_hal_can.c ****             ##### Peripheral State and Error functions #####
2359:Drivers/STM32F4xx_HAL_Driver/Src/stm32f4xx_hal_can.c ****   ==============================================================================
2360:Drivers/STM32F4xx_HAL_Driver/Src/stm32f4xx_hal_can.c ****     [..]
2361:Drivers/STM32F4xx_HAL_Driver/Src/stm32f4xx_hal_can.c ****     This subsection provides functions allowing to :
2362:Drivers/STM32F4xx_HAL_Driver/Src/stm32f4xx_hal_can.c ****       (+) HAL_CAN_GetState()  : Return the CAN state.
2363:Drivers/STM32F4xx_HAL_Driver/Src/stm32f4xx_hal_can.c ****       (+) HAL_CAN_GetError()  : Return the CAN error codes if any.
2364:Drivers/STM32F4xx_HAL_Driver/Src/stm32f4xx_hal_can.c ****       (+) HAL_CAN_ResetError(): Reset the CAN error codes if any.
2365:Drivers/STM32F4xx_HAL_Driver/Src/stm32f4xx_hal_can.c **** 
2366:Drivers/STM32F4xx_HAL_Driver/Src/stm32f4xx_hal_can.c **** @endverbatim
2367:Drivers/STM32F4xx_HAL_Driver/Src/stm32f4xx_hal_can.c ****   * @{
2368:Drivers/STM32F4xx_HAL_Driver/Src/stm32f4xx_hal_can.c ****   */
2369:Drivers/STM32F4xx_HAL_Driver/Src/stm32f4xx_hal_can.c **** 
2370:Drivers/STM32F4xx_HAL_Driver/Src/stm32f4xx_hal_can.c **** /**
2371:Drivers/STM32F4xx_HAL_Driver/Src/stm32f4xx_hal_can.c ****   * @brief  Return the CAN state.
2372:Drivers/STM32F4xx_HAL_Driver/Src/stm32f4xx_hal_can.c ****   * @param  hcan pointer to a CAN_HandleTypeDef structure that contains
2373:Drivers/STM32F4xx_HAL_Driver/Src/stm32f4xx_hal_can.c ****   *         the configuration information for the specified CAN.
2374:Drivers/STM32F4xx_HAL_Driver/Src/stm32f4xx_hal_can.c ****   * @retval HAL state
2375:Drivers/STM32F4xx_HAL_Driver/Src/stm32f4xx_hal_can.c ****   */
2376:Drivers/STM32F4xx_HAL_Driver/Src/stm32f4xx_hal_can.c **** HAL_CAN_StateTypeDef HAL_CAN_GetState(const CAN_HandleTypeDef *hcan)
2377:Drivers/STM32F4xx_HAL_Driver/Src/stm32f4xx_hal_can.c **** {
 2883              		.loc 1 2377 1 is_stmt 1 view -0
 2884              		.cfi_startproc
 2885              		@ args = 0, pretend = 0, frame = 0
 2886              		@ frame_needed = 0, uses_anonymous_args = 0
 2887              		@ link register save eliminated.
 2888              		.loc 1 2377 1 is_stmt 0 view .LVU925
 2889 0000 0246     		mov	r2, r0
2378:Drivers/STM32F4xx_HAL_Driver/Src/stm32f4xx_hal_can.c ****   HAL_CAN_StateTypeDef state = hcan->State;
 2890              		.loc 1 2378 3 is_stmt 1 view .LVU926
 2891              		.loc 1 2378 24 is_stmt 0 view .LVU927
 2892 0002 90F82030 		ldrb	r3, [r0, #32]	@ zero_extendqisi2
 2893 0006 D8B2     		uxtb	r0, r3
 2894              	.LVL228:
2379:Drivers/STM32F4xx_HAL_Driver/Src/stm32f4xx_hal_can.c **** 
2380:Drivers/STM32F4xx_HAL_Driver/Src/stm32f4xx_hal_can.c ****   if ((state == HAL_CAN_STATE_READY) ||
 2895              		.loc 1 2380 3 is_stmt 1 view .LVU928
 2896              		.loc 1 2380 38 is_stmt 0 view .LVU929
 2897 0008 013B     		subs	r3, r3, #1
 2898 000a DBB2     		uxtb	r3, r3
 2899              		.loc 1 2380 6 view .LVU930
 2900 000c 012B     		cmp	r3, #1
 2901 000e 00D9     		bls	.L223
 2902              	.LVL229:
 2903              	.L220:
2381:Drivers/STM32F4xx_HAL_Driver/Src/stm32f4xx_hal_can.c ****       (state == HAL_CAN_STATE_LISTENING))
2382:Drivers/STM32F4xx_HAL_Driver/Src/stm32f4xx_hal_can.c ****   {
2383:Drivers/STM32F4xx_HAL_Driver/Src/stm32f4xx_hal_can.c ****     /* Check sleep mode acknowledge flag */
2384:Drivers/STM32F4xx_HAL_Driver/Src/stm32f4xx_hal_can.c ****     if ((hcan->Instance->MSR & CAN_MSR_SLAK) != 0U)
2385:Drivers/STM32F4xx_HAL_Driver/Src/stm32f4xx_hal_can.c ****     {
2386:Drivers/STM32F4xx_HAL_Driver/Src/stm32f4xx_hal_can.c ****       /* Sleep mode is active */
2387:Drivers/STM32F4xx_HAL_Driver/Src/stm32f4xx_hal_can.c ****       state = HAL_CAN_STATE_SLEEP_ACTIVE;
2388:Drivers/STM32F4xx_HAL_Driver/Src/stm32f4xx_hal_can.c ****     }
2389:Drivers/STM32F4xx_HAL_Driver/Src/stm32f4xx_hal_can.c ****     /* Check sleep mode request flag */
2390:Drivers/STM32F4xx_HAL_Driver/Src/stm32f4xx_hal_can.c ****     else if ((hcan->Instance->MCR & CAN_MCR_SLEEP) != 0U)
2391:Drivers/STM32F4xx_HAL_Driver/Src/stm32f4xx_hal_can.c ****     {
2392:Drivers/STM32F4xx_HAL_Driver/Src/stm32f4xx_hal_can.c ****       /* Sleep mode request is pending */
ARM GAS  C:\Users\Rick\AppData\Local\Temp\cck9vz6U.s 			page 109


2393:Drivers/STM32F4xx_HAL_Driver/Src/stm32f4xx_hal_can.c ****       state = HAL_CAN_STATE_SLEEP_PENDING;
2394:Drivers/STM32F4xx_HAL_Driver/Src/stm32f4xx_hal_can.c ****     }
2395:Drivers/STM32F4xx_HAL_Driver/Src/stm32f4xx_hal_can.c ****     else
2396:Drivers/STM32F4xx_HAL_Driver/Src/stm32f4xx_hal_can.c ****     {
2397:Drivers/STM32F4xx_HAL_Driver/Src/stm32f4xx_hal_can.c ****       /* Neither sleep mode request nor sleep mode acknowledge */
2398:Drivers/STM32F4xx_HAL_Driver/Src/stm32f4xx_hal_can.c ****     }
 2904              		.loc 1 2398 5 is_stmt 1 view .LVU931
2399:Drivers/STM32F4xx_HAL_Driver/Src/stm32f4xx_hal_can.c ****   }
2400:Drivers/STM32F4xx_HAL_Driver/Src/stm32f4xx_hal_can.c **** 
2401:Drivers/STM32F4xx_HAL_Driver/Src/stm32f4xx_hal_can.c ****   /* Return CAN state */
2402:Drivers/STM32F4xx_HAL_Driver/Src/stm32f4xx_hal_can.c ****   return state;
 2905              		.loc 1 2402 3 view .LVU932
2403:Drivers/STM32F4xx_HAL_Driver/Src/stm32f4xx_hal_can.c **** }
 2906              		.loc 1 2403 1 is_stmt 0 view .LVU933
 2907 0010 7047     		bx	lr
 2908              	.LVL230:
 2909              	.L223:
2384:Drivers/STM32F4xx_HAL_Driver/Src/stm32f4xx_hal_can.c ****     {
 2910              		.loc 1 2384 5 is_stmt 1 view .LVU934
2384:Drivers/STM32F4xx_HAL_Driver/Src/stm32f4xx_hal_can.c ****     {
 2911              		.loc 1 2384 14 is_stmt 0 view .LVU935
 2912 0012 1368     		ldr	r3, [r2]
2384:Drivers/STM32F4xx_HAL_Driver/Src/stm32f4xx_hal_can.c ****     {
 2913              		.loc 1 2384 24 view .LVU936
 2914 0014 5A68     		ldr	r2, [r3, #4]
 2915              	.LVL231:
2384:Drivers/STM32F4xx_HAL_Driver/Src/stm32f4xx_hal_can.c ****     {
 2916              		.loc 1 2384 8 view .LVU937
 2917 0016 12F0020F 		tst	r2, #2
 2918 001a 05D1     		bne	.L221
2390:Drivers/STM32F4xx_HAL_Driver/Src/stm32f4xx_hal_can.c ****     {
 2919              		.loc 1 2390 10 is_stmt 1 view .LVU938
2390:Drivers/STM32F4xx_HAL_Driver/Src/stm32f4xx_hal_can.c ****     {
 2920              		.loc 1 2390 29 is_stmt 0 view .LVU939
 2921 001c 1B68     		ldr	r3, [r3]
2390:Drivers/STM32F4xx_HAL_Driver/Src/stm32f4xx_hal_can.c ****     {
 2922              		.loc 1 2390 13 view .LVU940
 2923 001e 13F0020F 		tst	r3, #2
 2924 0022 F5D0     		beq	.L220
2393:Drivers/STM32F4xx_HAL_Driver/Src/stm32f4xx_hal_can.c ****     }
 2925              		.loc 1 2393 13 view .LVU941
 2926 0024 0320     		movs	r0, #3
 2927              	.LVL232:
2393:Drivers/STM32F4xx_HAL_Driver/Src/stm32f4xx_hal_can.c ****     }
 2928              		.loc 1 2393 13 view .LVU942
 2929 0026 F3E7     		b	.L220
 2930              	.LVL233:
 2931              	.L221:
2387:Drivers/STM32F4xx_HAL_Driver/Src/stm32f4xx_hal_can.c ****     }
 2932              		.loc 1 2387 13 view .LVU943
 2933 0028 0420     		movs	r0, #4
 2934              	.LVL234:
2387:Drivers/STM32F4xx_HAL_Driver/Src/stm32f4xx_hal_can.c ****     }
 2935              		.loc 1 2387 13 view .LVU944
 2936 002a 7047     		bx	lr
 2937              		.cfi_endproc
 2938              	.LFE272:
ARM GAS  C:\Users\Rick\AppData\Local\Temp\cck9vz6U.s 			page 110


 2940              		.section	.text.HAL_CAN_GetError,"ax",%progbits
 2941              		.align	1
 2942              		.global	HAL_CAN_GetError
 2943              		.syntax unified
 2944              		.thumb
 2945              		.thumb_func
 2947              	HAL_CAN_GetError:
 2948              	.LVL235:
 2949              	.LFB273:
2404:Drivers/STM32F4xx_HAL_Driver/Src/stm32f4xx_hal_can.c **** 
2405:Drivers/STM32F4xx_HAL_Driver/Src/stm32f4xx_hal_can.c **** /**
2406:Drivers/STM32F4xx_HAL_Driver/Src/stm32f4xx_hal_can.c ****   * @brief  Return the CAN error code.
2407:Drivers/STM32F4xx_HAL_Driver/Src/stm32f4xx_hal_can.c ****   * @param  hcan pointer to a CAN_HandleTypeDef structure that contains
2408:Drivers/STM32F4xx_HAL_Driver/Src/stm32f4xx_hal_can.c ****   *         the configuration information for the specified CAN.
2409:Drivers/STM32F4xx_HAL_Driver/Src/stm32f4xx_hal_can.c ****   * @retval CAN Error Code
2410:Drivers/STM32F4xx_HAL_Driver/Src/stm32f4xx_hal_can.c ****   */
2411:Drivers/STM32F4xx_HAL_Driver/Src/stm32f4xx_hal_can.c **** uint32_t HAL_CAN_GetError(const CAN_HandleTypeDef *hcan)
2412:Drivers/STM32F4xx_HAL_Driver/Src/stm32f4xx_hal_can.c **** {
 2950              		.loc 1 2412 1 is_stmt 1 view -0
 2951              		.cfi_startproc
 2952              		@ args = 0, pretend = 0, frame = 0
 2953              		@ frame_needed = 0, uses_anonymous_args = 0
 2954              		@ link register save eliminated.
2413:Drivers/STM32F4xx_HAL_Driver/Src/stm32f4xx_hal_can.c ****   /* Return CAN error code */
2414:Drivers/STM32F4xx_HAL_Driver/Src/stm32f4xx_hal_can.c ****   return hcan->ErrorCode;
 2955              		.loc 1 2414 3 view .LVU946
 2956              		.loc 1 2414 14 is_stmt 0 view .LVU947
 2957 0000 406A     		ldr	r0, [r0, #36]
 2958              	.LVL236:
2415:Drivers/STM32F4xx_HAL_Driver/Src/stm32f4xx_hal_can.c **** }
 2959              		.loc 1 2415 1 view .LVU948
 2960 0002 7047     		bx	lr
 2961              		.cfi_endproc
 2962              	.LFE273:
 2964              		.section	.text.HAL_CAN_ResetError,"ax",%progbits
 2965              		.align	1
 2966              		.global	HAL_CAN_ResetError
 2967              		.syntax unified
 2968              		.thumb
 2969              		.thumb_func
 2971              	HAL_CAN_ResetError:
 2972              	.LVL237:
 2973              	.LFB274:
2416:Drivers/STM32F4xx_HAL_Driver/Src/stm32f4xx_hal_can.c **** 
2417:Drivers/STM32F4xx_HAL_Driver/Src/stm32f4xx_hal_can.c **** /**
2418:Drivers/STM32F4xx_HAL_Driver/Src/stm32f4xx_hal_can.c ****   * @brief  Reset the CAN error code.
2419:Drivers/STM32F4xx_HAL_Driver/Src/stm32f4xx_hal_can.c ****   * @param  hcan pointer to a CAN_HandleTypeDef structure that contains
2420:Drivers/STM32F4xx_HAL_Driver/Src/stm32f4xx_hal_can.c ****   *         the configuration information for the specified CAN.
2421:Drivers/STM32F4xx_HAL_Driver/Src/stm32f4xx_hal_can.c ****   * @retval HAL status
2422:Drivers/STM32F4xx_HAL_Driver/Src/stm32f4xx_hal_can.c ****   */
2423:Drivers/STM32F4xx_HAL_Driver/Src/stm32f4xx_hal_can.c **** HAL_StatusTypeDef HAL_CAN_ResetError(CAN_HandleTypeDef *hcan)
2424:Drivers/STM32F4xx_HAL_Driver/Src/stm32f4xx_hal_can.c **** {
 2974              		.loc 1 2424 1 is_stmt 1 view -0
 2975              		.cfi_startproc
 2976              		@ args = 0, pretend = 0, frame = 0
 2977              		@ frame_needed = 0, uses_anonymous_args = 0
 2978              		@ link register save eliminated.
ARM GAS  C:\Users\Rick\AppData\Local\Temp\cck9vz6U.s 			page 111


2425:Drivers/STM32F4xx_HAL_Driver/Src/stm32f4xx_hal_can.c ****   HAL_StatusTypeDef status = HAL_OK;
 2979              		.loc 1 2425 3 view .LVU950
2426:Drivers/STM32F4xx_HAL_Driver/Src/stm32f4xx_hal_can.c ****   HAL_CAN_StateTypeDef state = hcan->State;
 2980              		.loc 1 2426 3 view .LVU951
 2981              		.loc 1 2426 24 is_stmt 0 view .LVU952
 2982 0000 90F82030 		ldrb	r3, [r0, #32]	@ zero_extendqisi2
 2983              	.LVL238:
2427:Drivers/STM32F4xx_HAL_Driver/Src/stm32f4xx_hal_can.c **** 
2428:Drivers/STM32F4xx_HAL_Driver/Src/stm32f4xx_hal_can.c ****   if ((state == HAL_CAN_STATE_READY) ||
 2984              		.loc 1 2428 3 is_stmt 1 view .LVU953
 2985              		.loc 1 2428 38 is_stmt 0 view .LVU954
 2986 0004 013B     		subs	r3, r3, #1
 2987              	.LVL239:
 2988              		.loc 1 2428 38 view .LVU955
 2989 0006 DBB2     		uxtb	r3, r3
 2990              	.LVL240:
 2991              		.loc 1 2428 6 view .LVU956
 2992 0008 012B     		cmp	r3, #1
 2993 000a 05D9     		bls	.L228
2429:Drivers/STM32F4xx_HAL_Driver/Src/stm32f4xx_hal_can.c ****       (state == HAL_CAN_STATE_LISTENING))
2430:Drivers/STM32F4xx_HAL_Driver/Src/stm32f4xx_hal_can.c ****   {
2431:Drivers/STM32F4xx_HAL_Driver/Src/stm32f4xx_hal_can.c ****     /* Reset CAN error code */
2432:Drivers/STM32F4xx_HAL_Driver/Src/stm32f4xx_hal_can.c ****     hcan->ErrorCode = 0U;
2433:Drivers/STM32F4xx_HAL_Driver/Src/stm32f4xx_hal_can.c ****   }
2434:Drivers/STM32F4xx_HAL_Driver/Src/stm32f4xx_hal_can.c ****   else
2435:Drivers/STM32F4xx_HAL_Driver/Src/stm32f4xx_hal_can.c ****   {
2436:Drivers/STM32F4xx_HAL_Driver/Src/stm32f4xx_hal_can.c ****     /* Update error code */
2437:Drivers/STM32F4xx_HAL_Driver/Src/stm32f4xx_hal_can.c ****     hcan->ErrorCode |= HAL_CAN_ERROR_NOT_INITIALIZED;
 2994              		.loc 1 2437 5 is_stmt 1 view .LVU957
 2995              		.loc 1 2437 9 is_stmt 0 view .LVU958
 2996 000c 436A     		ldr	r3, [r0, #36]
 2997              		.loc 1 2437 21 view .LVU959
 2998 000e 43F48023 		orr	r3, r3, #262144
 2999 0012 4362     		str	r3, [r0, #36]
2438:Drivers/STM32F4xx_HAL_Driver/Src/stm32f4xx_hal_can.c **** 
2439:Drivers/STM32F4xx_HAL_Driver/Src/stm32f4xx_hal_can.c ****     status = HAL_ERROR;
 3000              		.loc 1 2439 5 is_stmt 1 view .LVU960
 3001              	.LVL241:
 3002              		.loc 1 2439 12 is_stmt 0 view .LVU961
 3003 0014 0120     		movs	r0, #1
 3004              	.LVL242:
2440:Drivers/STM32F4xx_HAL_Driver/Src/stm32f4xx_hal_can.c ****   }
2441:Drivers/STM32F4xx_HAL_Driver/Src/stm32f4xx_hal_can.c **** 
2442:Drivers/STM32F4xx_HAL_Driver/Src/stm32f4xx_hal_can.c ****   /* Return the status */
2443:Drivers/STM32F4xx_HAL_Driver/Src/stm32f4xx_hal_can.c ****   return status;
 3005              		.loc 1 2443 3 is_stmt 1 view .LVU962
2444:Drivers/STM32F4xx_HAL_Driver/Src/stm32f4xx_hal_can.c **** }
 3006              		.loc 1 2444 1 is_stmt 0 view .LVU963
 3007 0016 7047     		bx	lr
 3008              	.LVL243:
 3009              	.L228:
2432:Drivers/STM32F4xx_HAL_Driver/Src/stm32f4xx_hal_can.c ****   }
 3010              		.loc 1 2432 5 is_stmt 1 view .LVU964
2432:Drivers/STM32F4xx_HAL_Driver/Src/stm32f4xx_hal_can.c ****   }
 3011              		.loc 1 2432 21 is_stmt 0 view .LVU965
 3012 0018 0023     		movs	r3, #0
 3013 001a 4362     		str	r3, [r0, #36]
ARM GAS  C:\Users\Rick\AppData\Local\Temp\cck9vz6U.s 			page 112


2425:Drivers/STM32F4xx_HAL_Driver/Src/stm32f4xx_hal_can.c ****   HAL_CAN_StateTypeDef state = hcan->State;
 3014              		.loc 1 2425 21 view .LVU966
 3015 001c 1846     		mov	r0, r3
 3016              	.LVL244:
2425:Drivers/STM32F4xx_HAL_Driver/Src/stm32f4xx_hal_can.c ****   HAL_CAN_StateTypeDef state = hcan->State;
 3017              		.loc 1 2425 21 view .LVU967
 3018 001e 7047     		bx	lr
 3019              		.cfi_endproc
 3020              	.LFE274:
 3022              		.text
 3023              	.Letext0:
 3024              		.file 3 "C:/Users/Rick/AppData/Roaming/Code/User/globalStorage/bmd.stm32-for-vscode/@xpack-dev-too
 3025              		.file 4 "C:/Users/Rick/AppData/Roaming/Code/User/globalStorage/bmd.stm32-for-vscode/@xpack-dev-too
 3026              		.file 5 "Drivers/CMSIS/Device/ST/STM32F4xx/Include/stm32f446xx.h"
 3027              		.file 6 "Drivers/CMSIS/Device/ST/STM32F4xx/Include/stm32f4xx.h"
 3028              		.file 7 "Drivers/STM32F4xx_HAL_Driver/Inc/stm32f4xx_hal_def.h"
 3029              		.file 8 "Drivers/STM32F4xx_HAL_Driver/Inc/stm32f4xx_hal_can.h"
 3030              		.file 9 "Drivers/STM32F4xx_HAL_Driver/Inc/stm32f4xx_hal.h"
ARM GAS  C:\Users\Rick\AppData\Local\Temp\cck9vz6U.s 			page 113


DEFINED SYMBOLS
                            *ABS*:00000000 stm32f4xx_hal_can.c
C:\Users\Rick\AppData\Local\Temp\cck9vz6U.s:21     .text.HAL_CAN_MspInit:00000000 $t
C:\Users\Rick\AppData\Local\Temp\cck9vz6U.s:27     .text.HAL_CAN_MspInit:00000000 HAL_CAN_MspInit
C:\Users\Rick\AppData\Local\Temp\cck9vz6U.s:42     .text.HAL_CAN_Init:00000000 $t
C:\Users\Rick\AppData\Local\Temp\cck9vz6U.s:48     .text.HAL_CAN_Init:00000000 HAL_CAN_Init
C:\Users\Rick\AppData\Local\Temp\cck9vz6U.s:338    .text.HAL_CAN_MspDeInit:00000000 $t
C:\Users\Rick\AppData\Local\Temp\cck9vz6U.s:344    .text.HAL_CAN_MspDeInit:00000000 HAL_CAN_MspDeInit
C:\Users\Rick\AppData\Local\Temp\cck9vz6U.s:359    .text.HAL_CAN_ConfigFilter:00000000 $t
C:\Users\Rick\AppData\Local\Temp\cck9vz6U.s:365    .text.HAL_CAN_ConfigFilter:00000000 HAL_CAN_ConfigFilter
C:\Users\Rick\AppData\Local\Temp\cck9vz6U.s:591    .text.HAL_CAN_ConfigFilter:00000134 $d
C:\Users\Rick\AppData\Local\Temp\cck9vz6U.s:596    .text.HAL_CAN_Start:00000000 $t
C:\Users\Rick\AppData\Local\Temp\cck9vz6U.s:602    .text.HAL_CAN_Start:00000000 HAL_CAN_Start
C:\Users\Rick\AppData\Local\Temp\cck9vz6U.s:702    .text.HAL_CAN_Stop:00000000 $t
C:\Users\Rick\AppData\Local\Temp\cck9vz6U.s:708    .text.HAL_CAN_Stop:00000000 HAL_CAN_Stop
C:\Users\Rick\AppData\Local\Temp\cck9vz6U.s:807    .text.HAL_CAN_DeInit:00000000 $t
C:\Users\Rick\AppData\Local\Temp\cck9vz6U.s:813    .text.HAL_CAN_DeInit:00000000 HAL_CAN_DeInit
C:\Users\Rick\AppData\Local\Temp\cck9vz6U.s:867    .text.HAL_CAN_RequestSleep:00000000 $t
C:\Users\Rick\AppData\Local\Temp\cck9vz6U.s:873    .text.HAL_CAN_RequestSleep:00000000 HAL_CAN_RequestSleep
C:\Users\Rick\AppData\Local\Temp\cck9vz6U.s:924    .text.HAL_CAN_WakeUp:00000000 $t
C:\Users\Rick\AppData\Local\Temp\cck9vz6U.s:930    .text.HAL_CAN_WakeUp:00000000 HAL_CAN_WakeUp
C:\Users\Rick\AppData\Local\Temp\cck9vz6U.s:1026   .text.HAL_CAN_WakeUp:00000054 $d
C:\Users\Rick\AppData\Local\Temp\cck9vz6U.s:1031   .text.HAL_CAN_IsSleepActive:00000000 $t
C:\Users\Rick\AppData\Local\Temp\cck9vz6U.s:1037   .text.HAL_CAN_IsSleepActive:00000000 HAL_CAN_IsSleepActive
C:\Users\Rick\AppData\Local\Temp\cck9vz6U.s:1088   .text.HAL_CAN_AddTxMessage:00000000 $t
C:\Users\Rick\AppData\Local\Temp\cck9vz6U.s:1094   .text.HAL_CAN_AddTxMessage:00000000 HAL_CAN_AddTxMessage
C:\Users\Rick\AppData\Local\Temp\cck9vz6U.s:1291   .text.HAL_CAN_AbortTxRequest:00000000 $t
C:\Users\Rick\AppData\Local\Temp\cck9vz6U.s:1297   .text.HAL_CAN_AbortTxRequest:00000000 HAL_CAN_AbortTxRequest
C:\Users\Rick\AppData\Local\Temp\cck9vz6U.s:1374   .text.HAL_CAN_GetTxMailboxesFreeLevel:00000000 $t
C:\Users\Rick\AppData\Local\Temp\cck9vz6U.s:1380   .text.HAL_CAN_GetTxMailboxesFreeLevel:00000000 HAL_CAN_GetTxMailboxesFreeLevel
C:\Users\Rick\AppData\Local\Temp\cck9vz6U.s:1452   .text.HAL_CAN_IsTxMessagePending:00000000 $t
C:\Users\Rick\AppData\Local\Temp\cck9vz6U.s:1458   .text.HAL_CAN_IsTxMessagePending:00000000 HAL_CAN_IsTxMessagePending
C:\Users\Rick\AppData\Local\Temp\cck9vz6U.s:1516   .text.HAL_CAN_GetTxTimestamp:00000000 $t
C:\Users\Rick\AppData\Local\Temp\cck9vz6U.s:1522   .text.HAL_CAN_GetTxTimestamp:00000000 HAL_CAN_GetTxTimestamp
C:\Users\Rick\AppData\Local\Temp\cck9vz6U.s:1619   .text.HAL_CAN_GetRxMessage:00000000 $t
C:\Users\Rick\AppData\Local\Temp\cck9vz6U.s:1625   .text.HAL_CAN_GetRxMessage:00000000 HAL_CAN_GetRxMessage
C:\Users\Rick\AppData\Local\Temp\cck9vz6U.s:1933   .text.HAL_CAN_GetRxFifoFillLevel:00000000 $t
C:\Users\Rick\AppData\Local\Temp\cck9vz6U.s:1939   .text.HAL_CAN_GetRxFifoFillLevel:00000000 HAL_CAN_GetRxFifoFillLevel
C:\Users\Rick\AppData\Local\Temp\cck9vz6U.s:2002   .text.HAL_CAN_ActivateNotification:00000000 $t
C:\Users\Rick\AppData\Local\Temp\cck9vz6U.s:2008   .text.HAL_CAN_ActivateNotification:00000000 HAL_CAN_ActivateNotification
C:\Users\Rick\AppData\Local\Temp\cck9vz6U.s:2060   .text.HAL_CAN_DeactivateNotification:00000000 $t
C:\Users\Rick\AppData\Local\Temp\cck9vz6U.s:2066   .text.HAL_CAN_DeactivateNotification:00000000 HAL_CAN_DeactivateNotification
C:\Users\Rick\AppData\Local\Temp\cck9vz6U.s:2118   .text.HAL_CAN_TxMailbox0CompleteCallback:00000000 $t
C:\Users\Rick\AppData\Local\Temp\cck9vz6U.s:2124   .text.HAL_CAN_TxMailbox0CompleteCallback:00000000 HAL_CAN_TxMailbox0CompleteCallback
C:\Users\Rick\AppData\Local\Temp\cck9vz6U.s:2139   .text.HAL_CAN_TxMailbox1CompleteCallback:00000000 $t
C:\Users\Rick\AppData\Local\Temp\cck9vz6U.s:2145   .text.HAL_CAN_TxMailbox1CompleteCallback:00000000 HAL_CAN_TxMailbox1CompleteCallback
C:\Users\Rick\AppData\Local\Temp\cck9vz6U.s:2160   .text.HAL_CAN_TxMailbox2CompleteCallback:00000000 $t
C:\Users\Rick\AppData\Local\Temp\cck9vz6U.s:2166   .text.HAL_CAN_TxMailbox2CompleteCallback:00000000 HAL_CAN_TxMailbox2CompleteCallback
C:\Users\Rick\AppData\Local\Temp\cck9vz6U.s:2181   .text.HAL_CAN_TxMailbox0AbortCallback:00000000 $t
C:\Users\Rick\AppData\Local\Temp\cck9vz6U.s:2187   .text.HAL_CAN_TxMailbox0AbortCallback:00000000 HAL_CAN_TxMailbox0AbortCallback
C:\Users\Rick\AppData\Local\Temp\cck9vz6U.s:2202   .text.HAL_CAN_TxMailbox1AbortCallback:00000000 $t
C:\Users\Rick\AppData\Local\Temp\cck9vz6U.s:2208   .text.HAL_CAN_TxMailbox1AbortCallback:00000000 HAL_CAN_TxMailbox1AbortCallback
C:\Users\Rick\AppData\Local\Temp\cck9vz6U.s:2223   .text.HAL_CAN_TxMailbox2AbortCallback:00000000 $t
C:\Users\Rick\AppData\Local\Temp\cck9vz6U.s:2229   .text.HAL_CAN_TxMailbox2AbortCallback:00000000 HAL_CAN_TxMailbox2AbortCallback
C:\Users\Rick\AppData\Local\Temp\cck9vz6U.s:2244   .text.HAL_CAN_RxFifo0MsgPendingCallback:00000000 $t
C:\Users\Rick\AppData\Local\Temp\cck9vz6U.s:2250   .text.HAL_CAN_RxFifo0MsgPendingCallback:00000000 HAL_CAN_RxFifo0MsgPendingCallback
C:\Users\Rick\AppData\Local\Temp\cck9vz6U.s:2265   .text.HAL_CAN_RxFifo0FullCallback:00000000 $t
ARM GAS  C:\Users\Rick\AppData\Local\Temp\cck9vz6U.s 			page 114


C:\Users\Rick\AppData\Local\Temp\cck9vz6U.s:2271   .text.HAL_CAN_RxFifo0FullCallback:00000000 HAL_CAN_RxFifo0FullCallback
C:\Users\Rick\AppData\Local\Temp\cck9vz6U.s:2286   .text.HAL_CAN_RxFifo1MsgPendingCallback:00000000 $t
C:\Users\Rick\AppData\Local\Temp\cck9vz6U.s:2292   .text.HAL_CAN_RxFifo1MsgPendingCallback:00000000 HAL_CAN_RxFifo1MsgPendingCallback
C:\Users\Rick\AppData\Local\Temp\cck9vz6U.s:2307   .text.HAL_CAN_RxFifo1FullCallback:00000000 $t
C:\Users\Rick\AppData\Local\Temp\cck9vz6U.s:2313   .text.HAL_CAN_RxFifo1FullCallback:00000000 HAL_CAN_RxFifo1FullCallback
C:\Users\Rick\AppData\Local\Temp\cck9vz6U.s:2328   .text.HAL_CAN_SleepCallback:00000000 $t
C:\Users\Rick\AppData\Local\Temp\cck9vz6U.s:2334   .text.HAL_CAN_SleepCallback:00000000 HAL_CAN_SleepCallback
C:\Users\Rick\AppData\Local\Temp\cck9vz6U.s:2349   .text.HAL_CAN_WakeUpFromRxMsgCallback:00000000 $t
C:\Users\Rick\AppData\Local\Temp\cck9vz6U.s:2355   .text.HAL_CAN_WakeUpFromRxMsgCallback:00000000 HAL_CAN_WakeUpFromRxMsgCallback
C:\Users\Rick\AppData\Local\Temp\cck9vz6U.s:2370   .text.HAL_CAN_ErrorCallback:00000000 $t
C:\Users\Rick\AppData\Local\Temp\cck9vz6U.s:2376   .text.HAL_CAN_ErrorCallback:00000000 HAL_CAN_ErrorCallback
C:\Users\Rick\AppData\Local\Temp\cck9vz6U.s:2391   .text.HAL_CAN_IRQHandler:00000000 $t
C:\Users\Rick\AppData\Local\Temp\cck9vz6U.s:2397   .text.HAL_CAN_IRQHandler:00000000 HAL_CAN_IRQHandler
C:\Users\Rick\AppData\Local\Temp\cck9vz6U.s:2874   .text.HAL_CAN_GetState:00000000 $t
C:\Users\Rick\AppData\Local\Temp\cck9vz6U.s:2880   .text.HAL_CAN_GetState:00000000 HAL_CAN_GetState
C:\Users\Rick\AppData\Local\Temp\cck9vz6U.s:2941   .text.HAL_CAN_GetError:00000000 $t
C:\Users\Rick\AppData\Local\Temp\cck9vz6U.s:2947   .text.HAL_CAN_GetError:00000000 HAL_CAN_GetError
C:\Users\Rick\AppData\Local\Temp\cck9vz6U.s:2965   .text.HAL_CAN_ResetError:00000000 $t
C:\Users\Rick\AppData\Local\Temp\cck9vz6U.s:2971   .text.HAL_CAN_ResetError:00000000 HAL_CAN_ResetError

UNDEFINED SYMBOLS
HAL_GetTick
