ARM GAS  C:\Users\Rick\AppData\Local\Temp\ccWRFpbY.s 			page 1


   1              		.cpu cortex-m4
   2              		.arch armv7e-m
   3              		.fpu fpv4-sp-d16
   4              		.eabi_attribute 27, 1
   5              		.eabi_attribute 28, 1
   6              		.eabi_attribute 20, 1
   7              		.eabi_attribute 21, 1
   8              		.eabi_attribute 23, 3
   9              		.eabi_attribute 24, 1
  10              		.eabi_attribute 25, 1
  11              		.eabi_attribute 26, 1
  12              		.eabi_attribute 30, 1
  13              		.eabi_attribute 34, 1
  14              		.eabi_attribute 18, 4
  15              		.file	"stm32f4xx_hal_rcc.c"
  16              		.text
  17              	.Ltext0:
  18              		.cfi_sections	.debug_frame
  19              		.file 1 "Drivers/STM32F4xx_HAL_Driver/Src/stm32f4xx_hal_rcc.c"
  20              		.section	.text.HAL_RCC_DeInit,"ax",%progbits
  21              		.align	1
  22              		.weak	HAL_RCC_DeInit
  23              		.syntax unified
  24              		.thumb
  25              		.thumb_func
  27              	HAL_RCC_DeInit:
  28              	.LFB239:
   1:Drivers/STM32F4xx_HAL_Driver/Src/stm32f4xx_hal_rcc.c **** /**
   2:Drivers/STM32F4xx_HAL_Driver/Src/stm32f4xx_hal_rcc.c ****   ******************************************************************************
   3:Drivers/STM32F4xx_HAL_Driver/Src/stm32f4xx_hal_rcc.c ****   * @file    stm32f4xx_hal_rcc.c
   4:Drivers/STM32F4xx_HAL_Driver/Src/stm32f4xx_hal_rcc.c ****   * @author  MCD Application Team
   5:Drivers/STM32F4xx_HAL_Driver/Src/stm32f4xx_hal_rcc.c ****   * @brief   RCC HAL module driver.
   6:Drivers/STM32F4xx_HAL_Driver/Src/stm32f4xx_hal_rcc.c ****   *          This file provides firmware functions to manage the following
   7:Drivers/STM32F4xx_HAL_Driver/Src/stm32f4xx_hal_rcc.c ****   *          functionalities of the Reset and Clock Control (RCC) peripheral:
   8:Drivers/STM32F4xx_HAL_Driver/Src/stm32f4xx_hal_rcc.c ****   *           + Initialization and de-initialization functions
   9:Drivers/STM32F4xx_HAL_Driver/Src/stm32f4xx_hal_rcc.c ****   *           + Peripheral Control functions
  10:Drivers/STM32F4xx_HAL_Driver/Src/stm32f4xx_hal_rcc.c ****   *
  11:Drivers/STM32F4xx_HAL_Driver/Src/stm32f4xx_hal_rcc.c ****   @verbatim
  12:Drivers/STM32F4xx_HAL_Driver/Src/stm32f4xx_hal_rcc.c ****   ==============================================================================
  13:Drivers/STM32F4xx_HAL_Driver/Src/stm32f4xx_hal_rcc.c ****                       ##### RCC specific features #####
  14:Drivers/STM32F4xx_HAL_Driver/Src/stm32f4xx_hal_rcc.c ****   ==============================================================================
  15:Drivers/STM32F4xx_HAL_Driver/Src/stm32f4xx_hal_rcc.c ****     [..]
  16:Drivers/STM32F4xx_HAL_Driver/Src/stm32f4xx_hal_rcc.c ****       After reset the device is running from Internal High Speed oscillator
  17:Drivers/STM32F4xx_HAL_Driver/Src/stm32f4xx_hal_rcc.c ****       (HSI 16MHz) with Flash 0 wait state, Flash prefetch buffer, D-Cache
  18:Drivers/STM32F4xx_HAL_Driver/Src/stm32f4xx_hal_rcc.c ****       and I-Cache are disabled, and all peripherals are off except internal
  19:Drivers/STM32F4xx_HAL_Driver/Src/stm32f4xx_hal_rcc.c ****       SRAM, Flash and JTAG.
  20:Drivers/STM32F4xx_HAL_Driver/Src/stm32f4xx_hal_rcc.c ****       (+) There is no prescaler on High speed (AHB) and Low speed (APB) busses;
  21:Drivers/STM32F4xx_HAL_Driver/Src/stm32f4xx_hal_rcc.c ****           all peripherals mapped on these busses are running at HSI speed.
  22:Drivers/STM32F4xx_HAL_Driver/Src/stm32f4xx_hal_rcc.c ****       (+) The clock for all peripherals is switched off, except the SRAM and FLASH.
  23:Drivers/STM32F4xx_HAL_Driver/Src/stm32f4xx_hal_rcc.c ****       (+) All GPIOs are in input floating state, except the JTAG pins which
  24:Drivers/STM32F4xx_HAL_Driver/Src/stm32f4xx_hal_rcc.c ****           are assigned to be used for debug purpose.
  25:Drivers/STM32F4xx_HAL_Driver/Src/stm32f4xx_hal_rcc.c **** 
  26:Drivers/STM32F4xx_HAL_Driver/Src/stm32f4xx_hal_rcc.c ****     [..]
  27:Drivers/STM32F4xx_HAL_Driver/Src/stm32f4xx_hal_rcc.c ****       Once the device started from reset, the user application has to:
  28:Drivers/STM32F4xx_HAL_Driver/Src/stm32f4xx_hal_rcc.c ****       (+) Configure the clock source to be used to drive the System clock
  29:Drivers/STM32F4xx_HAL_Driver/Src/stm32f4xx_hal_rcc.c ****           (if the application needs higher frequency/performance)
  30:Drivers/STM32F4xx_HAL_Driver/Src/stm32f4xx_hal_rcc.c ****       (+) Configure the System clock frequency and Flash settings
ARM GAS  C:\Users\Rick\AppData\Local\Temp\ccWRFpbY.s 			page 2


  31:Drivers/STM32F4xx_HAL_Driver/Src/stm32f4xx_hal_rcc.c ****       (+) Configure the AHB and APB busses prescalers
  32:Drivers/STM32F4xx_HAL_Driver/Src/stm32f4xx_hal_rcc.c ****       (+) Enable the clock for the peripheral(s) to be used
  33:Drivers/STM32F4xx_HAL_Driver/Src/stm32f4xx_hal_rcc.c ****       (+) Configure the clock source(s) for peripherals which clocks are not
  34:Drivers/STM32F4xx_HAL_Driver/Src/stm32f4xx_hal_rcc.c ****           derived from the System clock (I2S, RTC, ADC, USB OTG FS/SDIO/RNG)
  35:Drivers/STM32F4xx_HAL_Driver/Src/stm32f4xx_hal_rcc.c **** 
  36:Drivers/STM32F4xx_HAL_Driver/Src/stm32f4xx_hal_rcc.c ****                       ##### RCC Limitations #####
  37:Drivers/STM32F4xx_HAL_Driver/Src/stm32f4xx_hal_rcc.c ****   ==============================================================================
  38:Drivers/STM32F4xx_HAL_Driver/Src/stm32f4xx_hal_rcc.c ****     [..]
  39:Drivers/STM32F4xx_HAL_Driver/Src/stm32f4xx_hal_rcc.c ****       A delay between an RCC peripheral clock enable and the effective peripheral
  40:Drivers/STM32F4xx_HAL_Driver/Src/stm32f4xx_hal_rcc.c ****       enabling should be taken into account in order to manage the peripheral read/write
  41:Drivers/STM32F4xx_HAL_Driver/Src/stm32f4xx_hal_rcc.c ****       from/to registers.
  42:Drivers/STM32F4xx_HAL_Driver/Src/stm32f4xx_hal_rcc.c ****       (+) This delay depends on the peripheral mapping.
  43:Drivers/STM32F4xx_HAL_Driver/Src/stm32f4xx_hal_rcc.c ****       (+) If peripheral is mapped on AHB: the delay is 2 AHB clock cycle
  44:Drivers/STM32F4xx_HAL_Driver/Src/stm32f4xx_hal_rcc.c ****           after the clock enable bit is set on the hardware register
  45:Drivers/STM32F4xx_HAL_Driver/Src/stm32f4xx_hal_rcc.c ****       (+) If peripheral is mapped on APB: the delay is 2 APB clock cycle
  46:Drivers/STM32F4xx_HAL_Driver/Src/stm32f4xx_hal_rcc.c ****           after the clock enable bit is set on the hardware register
  47:Drivers/STM32F4xx_HAL_Driver/Src/stm32f4xx_hal_rcc.c **** 
  48:Drivers/STM32F4xx_HAL_Driver/Src/stm32f4xx_hal_rcc.c ****     [..]
  49:Drivers/STM32F4xx_HAL_Driver/Src/stm32f4xx_hal_rcc.c ****       Implemented Workaround:
  50:Drivers/STM32F4xx_HAL_Driver/Src/stm32f4xx_hal_rcc.c ****       (+) For AHB & APB peripherals, a dummy read to the peripheral register has been
  51:Drivers/STM32F4xx_HAL_Driver/Src/stm32f4xx_hal_rcc.c ****           inserted in each __HAL_RCC_PPP_CLK_ENABLE() macro.
  52:Drivers/STM32F4xx_HAL_Driver/Src/stm32f4xx_hal_rcc.c **** 
  53:Drivers/STM32F4xx_HAL_Driver/Src/stm32f4xx_hal_rcc.c ****   @endverbatim
  54:Drivers/STM32F4xx_HAL_Driver/Src/stm32f4xx_hal_rcc.c ****   ******************************************************************************
  55:Drivers/STM32F4xx_HAL_Driver/Src/stm32f4xx_hal_rcc.c ****   * @attention
  56:Drivers/STM32F4xx_HAL_Driver/Src/stm32f4xx_hal_rcc.c ****   *
  57:Drivers/STM32F4xx_HAL_Driver/Src/stm32f4xx_hal_rcc.c ****   * Copyright (c) 2017 STMicroelectronics.
  58:Drivers/STM32F4xx_HAL_Driver/Src/stm32f4xx_hal_rcc.c ****   * All rights reserved.
  59:Drivers/STM32F4xx_HAL_Driver/Src/stm32f4xx_hal_rcc.c ****   *
  60:Drivers/STM32F4xx_HAL_Driver/Src/stm32f4xx_hal_rcc.c ****   * This software is licensed under terms that can be found in the LICENSE file in
  61:Drivers/STM32F4xx_HAL_Driver/Src/stm32f4xx_hal_rcc.c ****   * the root directory of this software component.
  62:Drivers/STM32F4xx_HAL_Driver/Src/stm32f4xx_hal_rcc.c ****   * If no LICENSE file comes with this software, it is provided AS-IS.
  63:Drivers/STM32F4xx_HAL_Driver/Src/stm32f4xx_hal_rcc.c ****   ******************************************************************************
  64:Drivers/STM32F4xx_HAL_Driver/Src/stm32f4xx_hal_rcc.c ****   */
  65:Drivers/STM32F4xx_HAL_Driver/Src/stm32f4xx_hal_rcc.c **** 
  66:Drivers/STM32F4xx_HAL_Driver/Src/stm32f4xx_hal_rcc.c **** /* Includes ------------------------------------------------------------------*/
  67:Drivers/STM32F4xx_HAL_Driver/Src/stm32f4xx_hal_rcc.c **** #include "stm32f4xx_hal.h"
  68:Drivers/STM32F4xx_HAL_Driver/Src/stm32f4xx_hal_rcc.c **** 
  69:Drivers/STM32F4xx_HAL_Driver/Src/stm32f4xx_hal_rcc.c **** /** @addtogroup STM32F4xx_HAL_Driver
  70:Drivers/STM32F4xx_HAL_Driver/Src/stm32f4xx_hal_rcc.c ****   * @{
  71:Drivers/STM32F4xx_HAL_Driver/Src/stm32f4xx_hal_rcc.c ****   */
  72:Drivers/STM32F4xx_HAL_Driver/Src/stm32f4xx_hal_rcc.c **** 
  73:Drivers/STM32F4xx_HAL_Driver/Src/stm32f4xx_hal_rcc.c **** /** @defgroup RCC RCC
  74:Drivers/STM32F4xx_HAL_Driver/Src/stm32f4xx_hal_rcc.c ****   * @brief RCC HAL module driver
  75:Drivers/STM32F4xx_HAL_Driver/Src/stm32f4xx_hal_rcc.c ****   * @{
  76:Drivers/STM32F4xx_HAL_Driver/Src/stm32f4xx_hal_rcc.c ****   */
  77:Drivers/STM32F4xx_HAL_Driver/Src/stm32f4xx_hal_rcc.c **** 
  78:Drivers/STM32F4xx_HAL_Driver/Src/stm32f4xx_hal_rcc.c **** #ifdef HAL_RCC_MODULE_ENABLED
  79:Drivers/STM32F4xx_HAL_Driver/Src/stm32f4xx_hal_rcc.c **** 
  80:Drivers/STM32F4xx_HAL_Driver/Src/stm32f4xx_hal_rcc.c **** /* Private typedef -----------------------------------------------------------*/
  81:Drivers/STM32F4xx_HAL_Driver/Src/stm32f4xx_hal_rcc.c **** /* Private define ------------------------------------------------------------*/
  82:Drivers/STM32F4xx_HAL_Driver/Src/stm32f4xx_hal_rcc.c **** /** @addtogroup RCC_Private_Constants
  83:Drivers/STM32F4xx_HAL_Driver/Src/stm32f4xx_hal_rcc.c ****   * @{
  84:Drivers/STM32F4xx_HAL_Driver/Src/stm32f4xx_hal_rcc.c ****   */
  85:Drivers/STM32F4xx_HAL_Driver/Src/stm32f4xx_hal_rcc.c **** 
  86:Drivers/STM32F4xx_HAL_Driver/Src/stm32f4xx_hal_rcc.c **** /* Private macro -------------------------------------------------------------*/
  87:Drivers/STM32F4xx_HAL_Driver/Src/stm32f4xx_hal_rcc.c **** #define __MCO1_CLK_ENABLE()   __HAL_RCC_GPIOA_CLK_ENABLE()
ARM GAS  C:\Users\Rick\AppData\Local\Temp\ccWRFpbY.s 			page 3


  88:Drivers/STM32F4xx_HAL_Driver/Src/stm32f4xx_hal_rcc.c **** #define MCO1_GPIO_PORT        GPIOA
  89:Drivers/STM32F4xx_HAL_Driver/Src/stm32f4xx_hal_rcc.c **** #define MCO1_PIN              GPIO_PIN_8
  90:Drivers/STM32F4xx_HAL_Driver/Src/stm32f4xx_hal_rcc.c **** 
  91:Drivers/STM32F4xx_HAL_Driver/Src/stm32f4xx_hal_rcc.c **** #define __MCO2_CLK_ENABLE()   __HAL_RCC_GPIOC_CLK_ENABLE()
  92:Drivers/STM32F4xx_HAL_Driver/Src/stm32f4xx_hal_rcc.c **** #define MCO2_GPIO_PORT         GPIOC
  93:Drivers/STM32F4xx_HAL_Driver/Src/stm32f4xx_hal_rcc.c **** #define MCO2_PIN               GPIO_PIN_9
  94:Drivers/STM32F4xx_HAL_Driver/Src/stm32f4xx_hal_rcc.c **** /**
  95:Drivers/STM32F4xx_HAL_Driver/Src/stm32f4xx_hal_rcc.c ****   * @}
  96:Drivers/STM32F4xx_HAL_Driver/Src/stm32f4xx_hal_rcc.c ****   */
  97:Drivers/STM32F4xx_HAL_Driver/Src/stm32f4xx_hal_rcc.c **** 
  98:Drivers/STM32F4xx_HAL_Driver/Src/stm32f4xx_hal_rcc.c **** /* Private variables ---------------------------------------------------------*/
  99:Drivers/STM32F4xx_HAL_Driver/Src/stm32f4xx_hal_rcc.c **** /** @defgroup RCC_Private_Variables RCC Private Variables
 100:Drivers/STM32F4xx_HAL_Driver/Src/stm32f4xx_hal_rcc.c ****   * @{
 101:Drivers/STM32F4xx_HAL_Driver/Src/stm32f4xx_hal_rcc.c ****   */
 102:Drivers/STM32F4xx_HAL_Driver/Src/stm32f4xx_hal_rcc.c **** /**
 103:Drivers/STM32F4xx_HAL_Driver/Src/stm32f4xx_hal_rcc.c ****   * @}
 104:Drivers/STM32F4xx_HAL_Driver/Src/stm32f4xx_hal_rcc.c ****   */
 105:Drivers/STM32F4xx_HAL_Driver/Src/stm32f4xx_hal_rcc.c **** /* Private function prototypes -----------------------------------------------*/
 106:Drivers/STM32F4xx_HAL_Driver/Src/stm32f4xx_hal_rcc.c **** /* Private functions ---------------------------------------------------------*/
 107:Drivers/STM32F4xx_HAL_Driver/Src/stm32f4xx_hal_rcc.c **** 
 108:Drivers/STM32F4xx_HAL_Driver/Src/stm32f4xx_hal_rcc.c **** /** @defgroup RCC_Exported_Functions RCC Exported Functions
 109:Drivers/STM32F4xx_HAL_Driver/Src/stm32f4xx_hal_rcc.c ****   *  @{
 110:Drivers/STM32F4xx_HAL_Driver/Src/stm32f4xx_hal_rcc.c ****   */
 111:Drivers/STM32F4xx_HAL_Driver/Src/stm32f4xx_hal_rcc.c **** 
 112:Drivers/STM32F4xx_HAL_Driver/Src/stm32f4xx_hal_rcc.c **** /** @defgroup RCC_Exported_Functions_Group1 Initialization and de-initialization functions
 113:Drivers/STM32F4xx_HAL_Driver/Src/stm32f4xx_hal_rcc.c ****   *  @brief    Initialization and Configuration functions
 114:Drivers/STM32F4xx_HAL_Driver/Src/stm32f4xx_hal_rcc.c ****   *
 115:Drivers/STM32F4xx_HAL_Driver/Src/stm32f4xx_hal_rcc.c **** @verbatim
 116:Drivers/STM32F4xx_HAL_Driver/Src/stm32f4xx_hal_rcc.c ****  ===============================================================================
 117:Drivers/STM32F4xx_HAL_Driver/Src/stm32f4xx_hal_rcc.c ****            ##### Initialization and de-initialization functions #####
 118:Drivers/STM32F4xx_HAL_Driver/Src/stm32f4xx_hal_rcc.c ****  ===============================================================================
 119:Drivers/STM32F4xx_HAL_Driver/Src/stm32f4xx_hal_rcc.c ****     [..]
 120:Drivers/STM32F4xx_HAL_Driver/Src/stm32f4xx_hal_rcc.c ****       This section provides functions allowing to configure the internal/external oscillators
 121:Drivers/STM32F4xx_HAL_Driver/Src/stm32f4xx_hal_rcc.c ****       (HSE, HSI, LSE, LSI, PLL, CSS and MCO) and the System busses clocks (SYSCLK, AHB, APB1
 122:Drivers/STM32F4xx_HAL_Driver/Src/stm32f4xx_hal_rcc.c ****        and APB2).
 123:Drivers/STM32F4xx_HAL_Driver/Src/stm32f4xx_hal_rcc.c **** 
 124:Drivers/STM32F4xx_HAL_Driver/Src/stm32f4xx_hal_rcc.c ****     [..] Internal/external clock and PLL configuration
 125:Drivers/STM32F4xx_HAL_Driver/Src/stm32f4xx_hal_rcc.c ****          (#) HSI (high-speed internal), 16 MHz factory-trimmed RC used directly or through
 126:Drivers/STM32F4xx_HAL_Driver/Src/stm32f4xx_hal_rcc.c ****              the PLL as System clock source.
 127:Drivers/STM32F4xx_HAL_Driver/Src/stm32f4xx_hal_rcc.c **** 
 128:Drivers/STM32F4xx_HAL_Driver/Src/stm32f4xx_hal_rcc.c ****          (#) LSI (low-speed internal), 32 KHz low consumption RC used as IWDG and/or RTC
 129:Drivers/STM32F4xx_HAL_Driver/Src/stm32f4xx_hal_rcc.c ****              clock source.
 130:Drivers/STM32F4xx_HAL_Driver/Src/stm32f4xx_hal_rcc.c **** 
 131:Drivers/STM32F4xx_HAL_Driver/Src/stm32f4xx_hal_rcc.c ****          (#) HSE (high-speed external), 4 to 26 MHz crystal oscillator used directly or
 132:Drivers/STM32F4xx_HAL_Driver/Src/stm32f4xx_hal_rcc.c ****              through the PLL as System clock source. Can be used also as RTC clock source.
 133:Drivers/STM32F4xx_HAL_Driver/Src/stm32f4xx_hal_rcc.c **** 
 134:Drivers/STM32F4xx_HAL_Driver/Src/stm32f4xx_hal_rcc.c ****          (#) LSE (low-speed external), 32 KHz oscillator used as RTC clock source.
 135:Drivers/STM32F4xx_HAL_Driver/Src/stm32f4xx_hal_rcc.c **** 
 136:Drivers/STM32F4xx_HAL_Driver/Src/stm32f4xx_hal_rcc.c ****          (#) PLL (clocked by HSI or HSE), featuring two different output clocks:
 137:Drivers/STM32F4xx_HAL_Driver/Src/stm32f4xx_hal_rcc.c ****            (++) The first output is used to generate the high speed system clock (up to 168 MHz)
 138:Drivers/STM32F4xx_HAL_Driver/Src/stm32f4xx_hal_rcc.c ****            (++) The second output is used to generate the clock for the USB OTG FS (48 MHz),
 139:Drivers/STM32F4xx_HAL_Driver/Src/stm32f4xx_hal_rcc.c ****                 the random analog generator (<=48 MHz) and the SDIO (<= 48 MHz).
 140:Drivers/STM32F4xx_HAL_Driver/Src/stm32f4xx_hal_rcc.c **** 
 141:Drivers/STM32F4xx_HAL_Driver/Src/stm32f4xx_hal_rcc.c ****          (#) CSS (Clock security system), once enable using the macro __HAL_RCC_CSS_ENABLE()
 142:Drivers/STM32F4xx_HAL_Driver/Src/stm32f4xx_hal_rcc.c ****              and if a HSE clock failure occurs(HSE used directly or through PLL as System
 143:Drivers/STM32F4xx_HAL_Driver/Src/stm32f4xx_hal_rcc.c ****              clock source), the System clocks automatically switched to HSI and an interrupt
 144:Drivers/STM32F4xx_HAL_Driver/Src/stm32f4xx_hal_rcc.c ****              is generated if enabled. The interrupt is linked to the Cortex-M4 NMI
ARM GAS  C:\Users\Rick\AppData\Local\Temp\ccWRFpbY.s 			page 4


 145:Drivers/STM32F4xx_HAL_Driver/Src/stm32f4xx_hal_rcc.c ****              (Non-Maskable Interrupt) exception vector.
 146:Drivers/STM32F4xx_HAL_Driver/Src/stm32f4xx_hal_rcc.c **** 
 147:Drivers/STM32F4xx_HAL_Driver/Src/stm32f4xx_hal_rcc.c ****          (#) MCO1 (microcontroller clock output), used to output HSI, LSE, HSE or PLL
 148:Drivers/STM32F4xx_HAL_Driver/Src/stm32f4xx_hal_rcc.c ****              clock (through a configurable prescaler) on PA8 pin.
 149:Drivers/STM32F4xx_HAL_Driver/Src/stm32f4xx_hal_rcc.c **** 
 150:Drivers/STM32F4xx_HAL_Driver/Src/stm32f4xx_hal_rcc.c ****          (#) MCO2 (microcontroller clock output), used to output HSE, PLL, SYSCLK or PLLI2S
 151:Drivers/STM32F4xx_HAL_Driver/Src/stm32f4xx_hal_rcc.c ****              clock (through a configurable prescaler) on PC9 pin.
 152:Drivers/STM32F4xx_HAL_Driver/Src/stm32f4xx_hal_rcc.c **** 
 153:Drivers/STM32F4xx_HAL_Driver/Src/stm32f4xx_hal_rcc.c ****     [..] System, AHB and APB busses clocks configuration
 154:Drivers/STM32F4xx_HAL_Driver/Src/stm32f4xx_hal_rcc.c ****          (#) Several clock sources can be used to drive the System clock (SYSCLK): HSI,
 155:Drivers/STM32F4xx_HAL_Driver/Src/stm32f4xx_hal_rcc.c ****              HSE and PLL.
 156:Drivers/STM32F4xx_HAL_Driver/Src/stm32f4xx_hal_rcc.c ****              The AHB clock (HCLK) is derived from System clock through configurable
 157:Drivers/STM32F4xx_HAL_Driver/Src/stm32f4xx_hal_rcc.c ****              prescaler and used to clock the CPU, memory and peripherals mapped
 158:Drivers/STM32F4xx_HAL_Driver/Src/stm32f4xx_hal_rcc.c ****              on AHB bus (DMA, GPIO...). APB1 (PCLK1) and APB2 (PCLK2) clocks are derived
 159:Drivers/STM32F4xx_HAL_Driver/Src/stm32f4xx_hal_rcc.c ****              from AHB clock through configurable prescalers and used to clock
 160:Drivers/STM32F4xx_HAL_Driver/Src/stm32f4xx_hal_rcc.c ****              the peripherals mapped on these busses. You can use
 161:Drivers/STM32F4xx_HAL_Driver/Src/stm32f4xx_hal_rcc.c ****              "HAL_RCC_GetSysClockFreq()" function to retrieve the frequencies of these clocks.
 162:Drivers/STM32F4xx_HAL_Driver/Src/stm32f4xx_hal_rcc.c **** 
 163:Drivers/STM32F4xx_HAL_Driver/Src/stm32f4xx_hal_rcc.c ****          (#) For the STM32F405xx/07xx and STM32F415xx/17xx devices, the maximum
 164:Drivers/STM32F4xx_HAL_Driver/Src/stm32f4xx_hal_rcc.c ****              frequency of the SYSCLK and HCLK is 168 MHz, PCLK2 84 MHz and PCLK1 42 MHz.
 165:Drivers/STM32F4xx_HAL_Driver/Src/stm32f4xx_hal_rcc.c ****              Depending on the device voltage range, the maximum frequency should
 166:Drivers/STM32F4xx_HAL_Driver/Src/stm32f4xx_hal_rcc.c ****              be adapted accordingly (refer to the product datasheets for more details).
 167:Drivers/STM32F4xx_HAL_Driver/Src/stm32f4xx_hal_rcc.c **** 
 168:Drivers/STM32F4xx_HAL_Driver/Src/stm32f4xx_hal_rcc.c ****          (#) For the STM32F42xxx, STM32F43xxx, STM32F446xx, STM32F469xx and STM32F479xx devices,
 169:Drivers/STM32F4xx_HAL_Driver/Src/stm32f4xx_hal_rcc.c ****              the maximum frequency of the SYSCLK and HCLK is 180 MHz, PCLK2 90 MHz and PCLK1 45 MHz
 170:Drivers/STM32F4xx_HAL_Driver/Src/stm32f4xx_hal_rcc.c ****              Depending on the device voltage range, the maximum frequency should
 171:Drivers/STM32F4xx_HAL_Driver/Src/stm32f4xx_hal_rcc.c ****              be adapted accordingly (refer to the product datasheets for more details).
 172:Drivers/STM32F4xx_HAL_Driver/Src/stm32f4xx_hal_rcc.c **** 
 173:Drivers/STM32F4xx_HAL_Driver/Src/stm32f4xx_hal_rcc.c ****          (#) For the STM32F401xx, the maximum frequency of the SYSCLK and HCLK is 84 MHz,
 174:Drivers/STM32F4xx_HAL_Driver/Src/stm32f4xx_hal_rcc.c ****              PCLK2 84 MHz and PCLK1 42 MHz.
 175:Drivers/STM32F4xx_HAL_Driver/Src/stm32f4xx_hal_rcc.c ****              Depending on the device voltage range, the maximum frequency should
 176:Drivers/STM32F4xx_HAL_Driver/Src/stm32f4xx_hal_rcc.c ****              be adapted accordingly (refer to the product datasheets for more details).
 177:Drivers/STM32F4xx_HAL_Driver/Src/stm32f4xx_hal_rcc.c **** 
 178:Drivers/STM32F4xx_HAL_Driver/Src/stm32f4xx_hal_rcc.c ****          (#) For the STM32F41xxx, the maximum frequency of the SYSCLK and HCLK is 100 MHz,
 179:Drivers/STM32F4xx_HAL_Driver/Src/stm32f4xx_hal_rcc.c ****              PCLK2 100 MHz and PCLK1 50 MHz.
 180:Drivers/STM32F4xx_HAL_Driver/Src/stm32f4xx_hal_rcc.c ****              Depending on the device voltage range, the maximum frequency should
 181:Drivers/STM32F4xx_HAL_Driver/Src/stm32f4xx_hal_rcc.c ****              be adapted accordingly (refer to the product datasheets for more details).
 182:Drivers/STM32F4xx_HAL_Driver/Src/stm32f4xx_hal_rcc.c **** 
 183:Drivers/STM32F4xx_HAL_Driver/Src/stm32f4xx_hal_rcc.c **** @endverbatim
 184:Drivers/STM32F4xx_HAL_Driver/Src/stm32f4xx_hal_rcc.c ****   * @{
 185:Drivers/STM32F4xx_HAL_Driver/Src/stm32f4xx_hal_rcc.c ****   */
 186:Drivers/STM32F4xx_HAL_Driver/Src/stm32f4xx_hal_rcc.c **** 
 187:Drivers/STM32F4xx_HAL_Driver/Src/stm32f4xx_hal_rcc.c **** /**
 188:Drivers/STM32F4xx_HAL_Driver/Src/stm32f4xx_hal_rcc.c ****   * @brief  Resets the RCC clock configuration to the default reset state.
 189:Drivers/STM32F4xx_HAL_Driver/Src/stm32f4xx_hal_rcc.c ****   * @note   The default reset state of the clock configuration is given below:
 190:Drivers/STM32F4xx_HAL_Driver/Src/stm32f4xx_hal_rcc.c ****   *            - HSI ON and used as system clock source
 191:Drivers/STM32F4xx_HAL_Driver/Src/stm32f4xx_hal_rcc.c ****   *            - HSE and PLL OFF
 192:Drivers/STM32F4xx_HAL_Driver/Src/stm32f4xx_hal_rcc.c ****   *            - AHB, APB1 and APB2 prescaler set to 1.
 193:Drivers/STM32F4xx_HAL_Driver/Src/stm32f4xx_hal_rcc.c ****   *            - CSS, MCO1 and MCO2 OFF
 194:Drivers/STM32F4xx_HAL_Driver/Src/stm32f4xx_hal_rcc.c ****   *            - All interrupts disabled
 195:Drivers/STM32F4xx_HAL_Driver/Src/stm32f4xx_hal_rcc.c ****   * @note   This function doesn't modify the configuration of the
 196:Drivers/STM32F4xx_HAL_Driver/Src/stm32f4xx_hal_rcc.c ****   *            - Peripheral clocks
 197:Drivers/STM32F4xx_HAL_Driver/Src/stm32f4xx_hal_rcc.c ****   *            - LSI, LSE and RTC clocks
 198:Drivers/STM32F4xx_HAL_Driver/Src/stm32f4xx_hal_rcc.c ****   * @retval HAL status
 199:Drivers/STM32F4xx_HAL_Driver/Src/stm32f4xx_hal_rcc.c ****   */
 200:Drivers/STM32F4xx_HAL_Driver/Src/stm32f4xx_hal_rcc.c **** __weak HAL_StatusTypeDef HAL_RCC_DeInit(void)
 201:Drivers/STM32F4xx_HAL_Driver/Src/stm32f4xx_hal_rcc.c **** {
ARM GAS  C:\Users\Rick\AppData\Local\Temp\ccWRFpbY.s 			page 5


  29              		.loc 1 201 1 view -0
  30              		.cfi_startproc
  31              		@ args = 0, pretend = 0, frame = 0
  32              		@ frame_needed = 0, uses_anonymous_args = 0
  33              		@ link register save eliminated.
 202:Drivers/STM32F4xx_HAL_Driver/Src/stm32f4xx_hal_rcc.c ****   return HAL_OK;
  34              		.loc 1 202 3 view .LVU1
 203:Drivers/STM32F4xx_HAL_Driver/Src/stm32f4xx_hal_rcc.c **** }
  35              		.loc 1 203 1 is_stmt 0 view .LVU2
  36 0000 0020     		movs	r0, #0
  37 0002 7047     		bx	lr
  38              		.cfi_endproc
  39              	.LFE239:
  41              		.section	.text.HAL_RCC_OscConfig,"ax",%progbits
  42              		.align	1
  43              		.weak	HAL_RCC_OscConfig
  44              		.syntax unified
  45              		.thumb
  46              		.thumb_func
  48              	HAL_RCC_OscConfig:
  49              	.LVL0:
  50              	.LFB240:
 204:Drivers/STM32F4xx_HAL_Driver/Src/stm32f4xx_hal_rcc.c **** 
 205:Drivers/STM32F4xx_HAL_Driver/Src/stm32f4xx_hal_rcc.c **** /**
 206:Drivers/STM32F4xx_HAL_Driver/Src/stm32f4xx_hal_rcc.c ****   * @brief  Initializes the RCC Oscillators according to the specified parameters in the
 207:Drivers/STM32F4xx_HAL_Driver/Src/stm32f4xx_hal_rcc.c ****   *         RCC_OscInitTypeDef.
 208:Drivers/STM32F4xx_HAL_Driver/Src/stm32f4xx_hal_rcc.c ****   * @param  RCC_OscInitStruct pointer to an RCC_OscInitTypeDef structure that
 209:Drivers/STM32F4xx_HAL_Driver/Src/stm32f4xx_hal_rcc.c ****   *         contains the configuration information for the RCC Oscillators.
 210:Drivers/STM32F4xx_HAL_Driver/Src/stm32f4xx_hal_rcc.c ****   * @note   The PLL is not disabled when used as system clock.
 211:Drivers/STM32F4xx_HAL_Driver/Src/stm32f4xx_hal_rcc.c ****   * @note   Transitions LSE Bypass to LSE On and LSE On to LSE Bypass are not
 212:Drivers/STM32F4xx_HAL_Driver/Src/stm32f4xx_hal_rcc.c ****   *         supported by this API. User should request a transition to LSE Off
 213:Drivers/STM32F4xx_HAL_Driver/Src/stm32f4xx_hal_rcc.c ****   *         first and then LSE On or LSE Bypass.
 214:Drivers/STM32F4xx_HAL_Driver/Src/stm32f4xx_hal_rcc.c ****   * @note   Transition HSE Bypass to HSE On and HSE On to HSE Bypass are not
 215:Drivers/STM32F4xx_HAL_Driver/Src/stm32f4xx_hal_rcc.c ****   *         supported by this API. User should request a transition to HSE Off
 216:Drivers/STM32F4xx_HAL_Driver/Src/stm32f4xx_hal_rcc.c ****   *         first and then HSE On or HSE Bypass.
 217:Drivers/STM32F4xx_HAL_Driver/Src/stm32f4xx_hal_rcc.c ****   * @retval HAL status
 218:Drivers/STM32F4xx_HAL_Driver/Src/stm32f4xx_hal_rcc.c ****   */
 219:Drivers/STM32F4xx_HAL_Driver/Src/stm32f4xx_hal_rcc.c **** __weak HAL_StatusTypeDef HAL_RCC_OscConfig(RCC_OscInitTypeDef  *RCC_OscInitStruct)
 220:Drivers/STM32F4xx_HAL_Driver/Src/stm32f4xx_hal_rcc.c **** {
  51              		.loc 1 220 1 is_stmt 1 view -0
  52              		.cfi_startproc
  53              		@ args = 0, pretend = 0, frame = 8
  54              		@ frame_needed = 0, uses_anonymous_args = 0
 221:Drivers/STM32F4xx_HAL_Driver/Src/stm32f4xx_hal_rcc.c ****   uint32_t tickstart;
  55              		.loc 1 221 3 view .LVU4
 222:Drivers/STM32F4xx_HAL_Driver/Src/stm32f4xx_hal_rcc.c ****   uint32_t pll_config;
  56              		.loc 1 222 3 view .LVU5
 223:Drivers/STM32F4xx_HAL_Driver/Src/stm32f4xx_hal_rcc.c ****   /* Check Null pointer */
 224:Drivers/STM32F4xx_HAL_Driver/Src/stm32f4xx_hal_rcc.c ****   if (RCC_OscInitStruct == NULL)
  57              		.loc 1 224 3 view .LVU6
  58              		.loc 1 224 6 is_stmt 0 view .LVU7
  59 0000 0028     		cmp	r0, #0
  60 0002 00F0E681 		beq	.L52
 220:Drivers/STM32F4xx_HAL_Driver/Src/stm32f4xx_hal_rcc.c ****   uint32_t tickstart;
  61              		.loc 1 220 1 view .LVU8
  62 0006 70B5     		push	{r4, r5, r6, lr}
  63              		.cfi_def_cfa_offset 16
ARM GAS  C:\Users\Rick\AppData\Local\Temp\ccWRFpbY.s 			page 6


  64              		.cfi_offset 4, -16
  65              		.cfi_offset 5, -12
  66              		.cfi_offset 6, -8
  67              		.cfi_offset 14, -4
  68 0008 82B0     		sub	sp, sp, #8
  69              		.cfi_def_cfa_offset 24
  70 000a 0446     		mov	r4, r0
 225:Drivers/STM32F4xx_HAL_Driver/Src/stm32f4xx_hal_rcc.c ****   {
 226:Drivers/STM32F4xx_HAL_Driver/Src/stm32f4xx_hal_rcc.c ****     return HAL_ERROR;
 227:Drivers/STM32F4xx_HAL_Driver/Src/stm32f4xx_hal_rcc.c ****   }
 228:Drivers/STM32F4xx_HAL_Driver/Src/stm32f4xx_hal_rcc.c **** 
 229:Drivers/STM32F4xx_HAL_Driver/Src/stm32f4xx_hal_rcc.c ****   /* Check the parameters */
 230:Drivers/STM32F4xx_HAL_Driver/Src/stm32f4xx_hal_rcc.c ****   assert_param(IS_RCC_OSCILLATORTYPE(RCC_OscInitStruct->OscillatorType));
  71              		.loc 1 230 3 is_stmt 1 view .LVU9
 231:Drivers/STM32F4xx_HAL_Driver/Src/stm32f4xx_hal_rcc.c ****   /*------------------------------- HSE Configuration ------------------------*/
 232:Drivers/STM32F4xx_HAL_Driver/Src/stm32f4xx_hal_rcc.c ****   if (((RCC_OscInitStruct->OscillatorType) & RCC_OSCILLATORTYPE_HSE) == RCC_OSCILLATORTYPE_HSE)
  72              		.loc 1 232 3 view .LVU10
  73              		.loc 1 232 26 is_stmt 0 view .LVU11
  74 000c 0368     		ldr	r3, [r0]
  75              		.loc 1 232 6 view .LVU12
  76 000e 13F0010F 		tst	r3, #1
  77 0012 3BD0     		beq	.L4
 233:Drivers/STM32F4xx_HAL_Driver/Src/stm32f4xx_hal_rcc.c ****   {
 234:Drivers/STM32F4xx_HAL_Driver/Src/stm32f4xx_hal_rcc.c ****     /* Check the parameters */
 235:Drivers/STM32F4xx_HAL_Driver/Src/stm32f4xx_hal_rcc.c ****     assert_param(IS_RCC_HSE(RCC_OscInitStruct->HSEState));
  78              		.loc 1 235 5 is_stmt 1 view .LVU13
 236:Drivers/STM32F4xx_HAL_Driver/Src/stm32f4xx_hal_rcc.c ****     /* When the HSE is used as system clock or clock source for PLL in these cases HSE will not dis
 237:Drivers/STM32F4xx_HAL_Driver/Src/stm32f4xx_hal_rcc.c ****     if ((__HAL_RCC_GET_SYSCLK_SOURCE() == RCC_CFGR_SWS_HSE) || \
  79              		.loc 1 237 5 view .LVU14
  80              		.loc 1 237 10 is_stmt 0 view .LVU15
  81 0014 9F4B     		ldr	r3, .L94
  82 0016 9B68     		ldr	r3, [r3, #8]
  83 0018 03F00C03 		and	r3, r3, #12
  84              		.loc 1 237 8 view .LVU16
  85 001c 042B     		cmp	r3, #4
  86 001e 2CD0     		beq	.L5
 238:Drivers/STM32F4xx_HAL_Driver/Src/stm32f4xx_hal_rcc.c ****         ((__HAL_RCC_GET_SYSCLK_SOURCE() == RCC_CFGR_SWS_PLL) && ((RCC->PLLCFGR & RCC_PLLCFGR_PLLSRC
  87              		.loc 1 238 11 view .LVU17
  88 0020 9C4B     		ldr	r3, .L94
  89 0022 9B68     		ldr	r3, [r3, #8]
  90 0024 03F00C03 		and	r3, r3, #12
 237:Drivers/STM32F4xx_HAL_Driver/Src/stm32f4xx_hal_rcc.c ****         ((__HAL_RCC_GET_SYSCLK_SOURCE() == RCC_CFGR_SWS_PLL) && ((RCC->PLLCFGR & RCC_PLLCFGR_PLLSRC
  91              		.loc 1 237 61 discriminator 1 view .LVU18
  92 0028 082B     		cmp	r3, #8
  93 002a 21D0     		beq	.L80
  94              	.L6:
 239:Drivers/STM32F4xx_HAL_Driver/Src/stm32f4xx_hal_rcc.c ****     {
 240:Drivers/STM32F4xx_HAL_Driver/Src/stm32f4xx_hal_rcc.c ****       if ((__HAL_RCC_GET_FLAG(RCC_FLAG_HSERDY) != RESET) && (RCC_OscInitStruct->HSEState == RCC_HSE
 241:Drivers/STM32F4xx_HAL_Driver/Src/stm32f4xx_hal_rcc.c ****       {
 242:Drivers/STM32F4xx_HAL_Driver/Src/stm32f4xx_hal_rcc.c ****         return HAL_ERROR;
 243:Drivers/STM32F4xx_HAL_Driver/Src/stm32f4xx_hal_rcc.c ****       }
 244:Drivers/STM32F4xx_HAL_Driver/Src/stm32f4xx_hal_rcc.c ****     }
 245:Drivers/STM32F4xx_HAL_Driver/Src/stm32f4xx_hal_rcc.c ****     else
 246:Drivers/STM32F4xx_HAL_Driver/Src/stm32f4xx_hal_rcc.c ****     {
 247:Drivers/STM32F4xx_HAL_Driver/Src/stm32f4xx_hal_rcc.c ****       /* Set the new HSE configuration ---------------------------------------*/
 248:Drivers/STM32F4xx_HAL_Driver/Src/stm32f4xx_hal_rcc.c ****       __HAL_RCC_HSE_CONFIG(RCC_OscInitStruct->HSEState);
  95              		.loc 1 248 7 is_stmt 1 view .LVU19
ARM GAS  C:\Users\Rick\AppData\Local\Temp\ccWRFpbY.s 			page 7


  96              		.loc 1 248 7 view .LVU20
  97 002c 6368     		ldr	r3, [r4, #4]
  98 002e B3F5803F 		cmp	r3, #65536
  99 0032 4FD0     		beq	.L81
 100              		.loc 1 248 7 discriminator 2 view .LVU21
 101 0034 B3F5A02F 		cmp	r3, #327680
 102 0038 52D0     		beq	.L82
 103              		.loc 1 248 7 discriminator 5 view .LVU22
 104 003a 964B     		ldr	r3, .L94
 105 003c 1A68     		ldr	r2, [r3]
 106 003e 22F48032 		bic	r2, r2, #65536
 107 0042 1A60     		str	r2, [r3]
 108              		.loc 1 248 7 view .LVU23
 109              		.loc 1 248 7 is_stmt 0 discriminator 5 view .LVU24
 110 0044 1A68     		ldr	r2, [r3]
 111 0046 22F48022 		bic	r2, r2, #262144
 112 004a 1A60     		str	r2, [r3]
 113              	.L8:
 114              		.loc 1 248 7 is_stmt 1 discriminator 7 view .LVU25
 249:Drivers/STM32F4xx_HAL_Driver/Src/stm32f4xx_hal_rcc.c **** 
 250:Drivers/STM32F4xx_HAL_Driver/Src/stm32f4xx_hal_rcc.c ****       /* Check the HSE State */
 251:Drivers/STM32F4xx_HAL_Driver/Src/stm32f4xx_hal_rcc.c ****       if ((RCC_OscInitStruct->HSEState) != RCC_HSE_OFF)
 115              		.loc 1 251 7 view .LVU26
 116              		.loc 1 251 29 is_stmt 0 view .LVU27
 117 004c 6368     		ldr	r3, [r4, #4]
 118              		.loc 1 251 10 view .LVU28
 119 004e 002B     		cmp	r3, #0
 120 0050 50D0     		beq	.L10
 252:Drivers/STM32F4xx_HAL_Driver/Src/stm32f4xx_hal_rcc.c ****       {
 253:Drivers/STM32F4xx_HAL_Driver/Src/stm32f4xx_hal_rcc.c ****         /* Get Start Tick */
 254:Drivers/STM32F4xx_HAL_Driver/Src/stm32f4xx_hal_rcc.c ****         tickstart = HAL_GetTick();
 121              		.loc 1 254 9 is_stmt 1 view .LVU29
 122              		.loc 1 254 21 is_stmt 0 view .LVU30
 123 0052 FFF7FEFF 		bl	HAL_GetTick
 124              	.LVL1:
 125              		.loc 1 254 21 view .LVU31
 126 0056 0546     		mov	r5, r0
 127              	.LVL2:
 255:Drivers/STM32F4xx_HAL_Driver/Src/stm32f4xx_hal_rcc.c **** 
 256:Drivers/STM32F4xx_HAL_Driver/Src/stm32f4xx_hal_rcc.c ****         /* Wait till HSE is ready */
 257:Drivers/STM32F4xx_HAL_Driver/Src/stm32f4xx_hal_rcc.c ****         while (__HAL_RCC_GET_FLAG(RCC_FLAG_HSERDY) == RESET)
 128              		.loc 1 257 9 is_stmt 1 view .LVU32
 129              	.L11:
 130              		.loc 1 257 52 view .LVU33
 131              		.loc 1 257 16 is_stmt 0 view .LVU34
 132 0058 8E4B     		ldr	r3, .L94
 133 005a 1B68     		ldr	r3, [r3]
 134              		.loc 1 257 52 view .LVU35
 135 005c 13F4003F 		tst	r3, #131072
 136 0060 14D1     		bne	.L4
 258:Drivers/STM32F4xx_HAL_Driver/Src/stm32f4xx_hal_rcc.c ****         {
 259:Drivers/STM32F4xx_HAL_Driver/Src/stm32f4xx_hal_rcc.c ****           if ((HAL_GetTick() - tickstart) > HSE_TIMEOUT_VALUE)
 137              		.loc 1 259 11 is_stmt 1 view .LVU36
 138              		.loc 1 259 16 is_stmt 0 view .LVU37
 139 0062 FFF7FEFF 		bl	HAL_GetTick
 140              	.LVL3:
 141              		.loc 1 259 30 discriminator 1 view .LVU38
ARM GAS  C:\Users\Rick\AppData\Local\Temp\ccWRFpbY.s 			page 8


 142 0066 401B     		subs	r0, r0, r5
 143              		.loc 1 259 14 discriminator 1 view .LVU39
 144 0068 6428     		cmp	r0, #100
 145 006a F5D9     		bls	.L11
 260:Drivers/STM32F4xx_HAL_Driver/Src/stm32f4xx_hal_rcc.c ****           {
 261:Drivers/STM32F4xx_HAL_Driver/Src/stm32f4xx_hal_rcc.c ****             return HAL_TIMEOUT;
 146              		.loc 1 261 20 view .LVU40
 147 006c 0320     		movs	r0, #3
 148 006e B7E1     		b	.L3
 149              	.LVL4:
 150              	.L80:
 238:Drivers/STM32F4xx_HAL_Driver/Src/stm32f4xx_hal_rcc.c ****     {
 151              		.loc 1 238 70 view .LVU41
 152 0070 884B     		ldr	r3, .L94
 153 0072 5B68     		ldr	r3, [r3, #4]
 238:Drivers/STM32F4xx_HAL_Driver/Src/stm32f4xx_hal_rcc.c ****     {
 154              		.loc 1 238 62 view .LVU42
 155 0074 13F4800F 		tst	r3, #4194304
 156 0078 D8D0     		beq	.L6
 157              	.L5:
 240:Drivers/STM32F4xx_HAL_Driver/Src/stm32f4xx_hal_rcc.c ****       {
 158              		.loc 1 240 7 is_stmt 1 view .LVU43
 240:Drivers/STM32F4xx_HAL_Driver/Src/stm32f4xx_hal_rcc.c ****       {
 159              		.loc 1 240 12 is_stmt 0 view .LVU44
 160 007a 864B     		ldr	r3, .L94
 161 007c 1B68     		ldr	r3, [r3]
 240:Drivers/STM32F4xx_HAL_Driver/Src/stm32f4xx_hal_rcc.c ****       {
 162              		.loc 1 240 10 view .LVU45
 163 007e 13F4003F 		tst	r3, #131072
 164 0082 03D0     		beq	.L4
 240:Drivers/STM32F4xx_HAL_Driver/Src/stm32f4xx_hal_rcc.c ****       {
 165              		.loc 1 240 79 discriminator 1 view .LVU46
 166 0084 6368     		ldr	r3, [r4, #4]
 240:Drivers/STM32F4xx_HAL_Driver/Src/stm32f4xx_hal_rcc.c ****       {
 167              		.loc 1 240 58 discriminator 1 view .LVU47
 168 0086 002B     		cmp	r3, #0
 169 0088 00F0A581 		beq	.L83
 170              	.LVL5:
 171              	.L4:
 262:Drivers/STM32F4xx_HAL_Driver/Src/stm32f4xx_hal_rcc.c ****           }
 263:Drivers/STM32F4xx_HAL_Driver/Src/stm32f4xx_hal_rcc.c ****         }
 264:Drivers/STM32F4xx_HAL_Driver/Src/stm32f4xx_hal_rcc.c ****       }
 265:Drivers/STM32F4xx_HAL_Driver/Src/stm32f4xx_hal_rcc.c ****       else
 266:Drivers/STM32F4xx_HAL_Driver/Src/stm32f4xx_hal_rcc.c ****       {
 267:Drivers/STM32F4xx_HAL_Driver/Src/stm32f4xx_hal_rcc.c ****         /* Get Start Tick */
 268:Drivers/STM32F4xx_HAL_Driver/Src/stm32f4xx_hal_rcc.c ****         tickstart = HAL_GetTick();
 269:Drivers/STM32F4xx_HAL_Driver/Src/stm32f4xx_hal_rcc.c **** 
 270:Drivers/STM32F4xx_HAL_Driver/Src/stm32f4xx_hal_rcc.c ****         /* Wait till HSE is bypassed or disabled */
 271:Drivers/STM32F4xx_HAL_Driver/Src/stm32f4xx_hal_rcc.c ****         while (__HAL_RCC_GET_FLAG(RCC_FLAG_HSERDY) != RESET)
 272:Drivers/STM32F4xx_HAL_Driver/Src/stm32f4xx_hal_rcc.c ****         {
 273:Drivers/STM32F4xx_HAL_Driver/Src/stm32f4xx_hal_rcc.c ****           if ((HAL_GetTick() - tickstart) > HSE_TIMEOUT_VALUE)
 274:Drivers/STM32F4xx_HAL_Driver/Src/stm32f4xx_hal_rcc.c ****           {
 275:Drivers/STM32F4xx_HAL_Driver/Src/stm32f4xx_hal_rcc.c ****             return HAL_TIMEOUT;
 276:Drivers/STM32F4xx_HAL_Driver/Src/stm32f4xx_hal_rcc.c ****           }
 277:Drivers/STM32F4xx_HAL_Driver/Src/stm32f4xx_hal_rcc.c ****         }
 278:Drivers/STM32F4xx_HAL_Driver/Src/stm32f4xx_hal_rcc.c ****       }
 279:Drivers/STM32F4xx_HAL_Driver/Src/stm32f4xx_hal_rcc.c ****     }
ARM GAS  C:\Users\Rick\AppData\Local\Temp\ccWRFpbY.s 			page 9


 280:Drivers/STM32F4xx_HAL_Driver/Src/stm32f4xx_hal_rcc.c ****   }
 281:Drivers/STM32F4xx_HAL_Driver/Src/stm32f4xx_hal_rcc.c ****   /*----------------------------- HSI Configuration --------------------------*/
 282:Drivers/STM32F4xx_HAL_Driver/Src/stm32f4xx_hal_rcc.c ****   if (((RCC_OscInitStruct->OscillatorType) & RCC_OSCILLATORTYPE_HSI) == RCC_OSCILLATORTYPE_HSI)
 172              		.loc 1 282 3 is_stmt 1 view .LVU48
 173              		.loc 1 282 26 is_stmt 0 view .LVU49
 174 008c 2368     		ldr	r3, [r4]
 175              		.loc 1 282 6 view .LVU50
 176 008e 13F0020F 		tst	r3, #2
 177 0092 54D0     		beq	.L15
 283:Drivers/STM32F4xx_HAL_Driver/Src/stm32f4xx_hal_rcc.c ****   {
 284:Drivers/STM32F4xx_HAL_Driver/Src/stm32f4xx_hal_rcc.c ****     /* Check the parameters */
 285:Drivers/STM32F4xx_HAL_Driver/Src/stm32f4xx_hal_rcc.c ****     assert_param(IS_RCC_HSI(RCC_OscInitStruct->HSIState));
 178              		.loc 1 285 5 is_stmt 1 view .LVU51
 286:Drivers/STM32F4xx_HAL_Driver/Src/stm32f4xx_hal_rcc.c ****     assert_param(IS_RCC_CALIBRATION_VALUE(RCC_OscInitStruct->HSICalibrationValue));
 179              		.loc 1 286 5 view .LVU52
 287:Drivers/STM32F4xx_HAL_Driver/Src/stm32f4xx_hal_rcc.c **** 
 288:Drivers/STM32F4xx_HAL_Driver/Src/stm32f4xx_hal_rcc.c ****     /* Check if HSI is used as system clock or as PLL source when PLL is selected as system clock *
 289:Drivers/STM32F4xx_HAL_Driver/Src/stm32f4xx_hal_rcc.c ****     if ((__HAL_RCC_GET_SYSCLK_SOURCE() == RCC_CFGR_SWS_HSI) || \
 180              		.loc 1 289 5 view .LVU53
 181              		.loc 1 289 10 is_stmt 0 view .LVU54
 182 0094 7F4B     		ldr	r3, .L94
 183 0096 9B68     		ldr	r3, [r3, #8]
 184              		.loc 1 289 8 view .LVU55
 185 0098 13F00C0F 		tst	r3, #12
 186 009c 3ED0     		beq	.L16
 290:Drivers/STM32F4xx_HAL_Driver/Src/stm32f4xx_hal_rcc.c ****         ((__HAL_RCC_GET_SYSCLK_SOURCE() == RCC_CFGR_SWS_PLL) && ((RCC->PLLCFGR & RCC_PLLCFGR_PLLSRC
 187              		.loc 1 290 11 view .LVU56
 188 009e 7D4B     		ldr	r3, .L94
 189 00a0 9B68     		ldr	r3, [r3, #8]
 190 00a2 03F00C03 		and	r3, r3, #12
 289:Drivers/STM32F4xx_HAL_Driver/Src/stm32f4xx_hal_rcc.c ****         ((__HAL_RCC_GET_SYSCLK_SOURCE() == RCC_CFGR_SWS_PLL) && ((RCC->PLLCFGR & RCC_PLLCFGR_PLLSRC
 191              		.loc 1 289 61 discriminator 1 view .LVU57
 192 00a6 082B     		cmp	r3, #8
 193 00a8 33D0     		beq	.L84
 194              	.L17:
 291:Drivers/STM32F4xx_HAL_Driver/Src/stm32f4xx_hal_rcc.c ****     {
 292:Drivers/STM32F4xx_HAL_Driver/Src/stm32f4xx_hal_rcc.c ****       /* When HSI is used as system clock it will not disabled */
 293:Drivers/STM32F4xx_HAL_Driver/Src/stm32f4xx_hal_rcc.c ****       if ((__HAL_RCC_GET_FLAG(RCC_FLAG_HSIRDY) != RESET) && (RCC_OscInitStruct->HSIState != RCC_HSI
 294:Drivers/STM32F4xx_HAL_Driver/Src/stm32f4xx_hal_rcc.c ****       {
 295:Drivers/STM32F4xx_HAL_Driver/Src/stm32f4xx_hal_rcc.c ****         return HAL_ERROR;
 296:Drivers/STM32F4xx_HAL_Driver/Src/stm32f4xx_hal_rcc.c ****       }
 297:Drivers/STM32F4xx_HAL_Driver/Src/stm32f4xx_hal_rcc.c ****       /* Otherwise, just the calibration is allowed */
 298:Drivers/STM32F4xx_HAL_Driver/Src/stm32f4xx_hal_rcc.c ****       else
 299:Drivers/STM32F4xx_HAL_Driver/Src/stm32f4xx_hal_rcc.c ****       {
 300:Drivers/STM32F4xx_HAL_Driver/Src/stm32f4xx_hal_rcc.c ****         /* Adjusts the Internal High Speed oscillator (HSI) calibration value.*/
 301:Drivers/STM32F4xx_HAL_Driver/Src/stm32f4xx_hal_rcc.c ****         __HAL_RCC_HSI_CALIBRATIONVALUE_ADJUST(RCC_OscInitStruct->HSICalibrationValue);
 302:Drivers/STM32F4xx_HAL_Driver/Src/stm32f4xx_hal_rcc.c ****       }
 303:Drivers/STM32F4xx_HAL_Driver/Src/stm32f4xx_hal_rcc.c ****     }
 304:Drivers/STM32F4xx_HAL_Driver/Src/stm32f4xx_hal_rcc.c ****     else
 305:Drivers/STM32F4xx_HAL_Driver/Src/stm32f4xx_hal_rcc.c ****     {
 306:Drivers/STM32F4xx_HAL_Driver/Src/stm32f4xx_hal_rcc.c ****       /* Check the HSI State */
 307:Drivers/STM32F4xx_HAL_Driver/Src/stm32f4xx_hal_rcc.c ****       if ((RCC_OscInitStruct->HSIState) != RCC_HSI_OFF)
 195              		.loc 1 307 7 is_stmt 1 view .LVU58
 196              		.loc 1 307 29 is_stmt 0 view .LVU59
 197 00aa E368     		ldr	r3, [r4, #12]
 198              		.loc 1 307 10 view .LVU60
 199 00ac 002B     		cmp	r3, #0
ARM GAS  C:\Users\Rick\AppData\Local\Temp\ccWRFpbY.s 			page 10


 200 00ae 68D0     		beq	.L19
 308:Drivers/STM32F4xx_HAL_Driver/Src/stm32f4xx_hal_rcc.c ****       {
 309:Drivers/STM32F4xx_HAL_Driver/Src/stm32f4xx_hal_rcc.c ****         /* Enable the Internal High Speed oscillator (HSI). */
 310:Drivers/STM32F4xx_HAL_Driver/Src/stm32f4xx_hal_rcc.c ****         __HAL_RCC_HSI_ENABLE();
 201              		.loc 1 310 9 is_stmt 1 view .LVU61
 202 00b0 794B     		ldr	r3, .L94+4
 203 00b2 0122     		movs	r2, #1
 204 00b4 1A60     		str	r2, [r3]
 311:Drivers/STM32F4xx_HAL_Driver/Src/stm32f4xx_hal_rcc.c **** 
 312:Drivers/STM32F4xx_HAL_Driver/Src/stm32f4xx_hal_rcc.c ****         /* Get Start Tick*/
 313:Drivers/STM32F4xx_HAL_Driver/Src/stm32f4xx_hal_rcc.c ****         tickstart = HAL_GetTick();
 205              		.loc 1 313 9 view .LVU62
 206              		.loc 1 313 21 is_stmt 0 view .LVU63
 207 00b6 FFF7FEFF 		bl	HAL_GetTick
 208              	.LVL6:
 209 00ba 0546     		mov	r5, r0
 210              	.LVL7:
 314:Drivers/STM32F4xx_HAL_Driver/Src/stm32f4xx_hal_rcc.c **** 
 315:Drivers/STM32F4xx_HAL_Driver/Src/stm32f4xx_hal_rcc.c ****         /* Wait till HSI is ready */
 316:Drivers/STM32F4xx_HAL_Driver/Src/stm32f4xx_hal_rcc.c ****         while (__HAL_RCC_GET_FLAG(RCC_FLAG_HSIRDY) == RESET)
 211              		.loc 1 316 9 is_stmt 1 view .LVU64
 212              	.L20:
 213              		.loc 1 316 52 view .LVU65
 214              		.loc 1 316 16 is_stmt 0 view .LVU66
 215 00bc 754B     		ldr	r3, .L94
 216 00be 1B68     		ldr	r3, [r3]
 217              		.loc 1 316 52 view .LVU67
 218 00c0 13F0020F 		tst	r3, #2
 219 00c4 54D1     		bne	.L85
 317:Drivers/STM32F4xx_HAL_Driver/Src/stm32f4xx_hal_rcc.c ****         {
 318:Drivers/STM32F4xx_HAL_Driver/Src/stm32f4xx_hal_rcc.c ****           if ((HAL_GetTick() - tickstart) > HSI_TIMEOUT_VALUE)
 220              		.loc 1 318 11 is_stmt 1 view .LVU68
 221              		.loc 1 318 16 is_stmt 0 view .LVU69
 222 00c6 FFF7FEFF 		bl	HAL_GetTick
 223              	.LVL8:
 224              		.loc 1 318 30 discriminator 1 view .LVU70
 225 00ca 401B     		subs	r0, r0, r5
 226              		.loc 1 318 14 discriminator 1 view .LVU71
 227 00cc 0228     		cmp	r0, #2
 228 00ce F5D9     		bls	.L20
 319:Drivers/STM32F4xx_HAL_Driver/Src/stm32f4xx_hal_rcc.c ****           {
 320:Drivers/STM32F4xx_HAL_Driver/Src/stm32f4xx_hal_rcc.c ****             return HAL_TIMEOUT;
 229              		.loc 1 320 20 view .LVU72
 230 00d0 0320     		movs	r0, #3
 231 00d2 85E1     		b	.L3
 232              	.LVL9:
 233              	.L81:
 248:Drivers/STM32F4xx_HAL_Driver/Src/stm32f4xx_hal_rcc.c **** 
 234              		.loc 1 248 7 is_stmt 1 discriminator 1 view .LVU73
 235 00d4 6F4A     		ldr	r2, .L94
 236 00d6 1368     		ldr	r3, [r2]
 237 00d8 43F48033 		orr	r3, r3, #65536
 238 00dc 1360     		str	r3, [r2]
 239 00de B5E7     		b	.L8
 240              	.L82:
 248:Drivers/STM32F4xx_HAL_Driver/Src/stm32f4xx_hal_rcc.c **** 
 241              		.loc 1 248 7 discriminator 4 view .LVU74
ARM GAS  C:\Users\Rick\AppData\Local\Temp\ccWRFpbY.s 			page 11


 242 00e0 6C4B     		ldr	r3, .L94
 243 00e2 1A68     		ldr	r2, [r3]
 244 00e4 42F48022 		orr	r2, r2, #262144
 245 00e8 1A60     		str	r2, [r3]
 248:Drivers/STM32F4xx_HAL_Driver/Src/stm32f4xx_hal_rcc.c **** 
 246              		.loc 1 248 7 view .LVU75
 248:Drivers/STM32F4xx_HAL_Driver/Src/stm32f4xx_hal_rcc.c **** 
 247              		.loc 1 248 7 is_stmt 0 discriminator 4 view .LVU76
 248 00ea 1A68     		ldr	r2, [r3]
 249 00ec 42F48032 		orr	r2, r2, #65536
 250 00f0 1A60     		str	r2, [r3]
 251 00f2 ABE7     		b	.L8
 252              	.L10:
 268:Drivers/STM32F4xx_HAL_Driver/Src/stm32f4xx_hal_rcc.c **** 
 253              		.loc 1 268 9 is_stmt 1 view .LVU77
 268:Drivers/STM32F4xx_HAL_Driver/Src/stm32f4xx_hal_rcc.c **** 
 254              		.loc 1 268 21 is_stmt 0 view .LVU78
 255 00f4 FFF7FEFF 		bl	HAL_GetTick
 256              	.LVL10:
 268:Drivers/STM32F4xx_HAL_Driver/Src/stm32f4xx_hal_rcc.c **** 
 257              		.loc 1 268 21 view .LVU79
 258 00f8 0546     		mov	r5, r0
 259              	.LVL11:
 271:Drivers/STM32F4xx_HAL_Driver/Src/stm32f4xx_hal_rcc.c ****         {
 260              		.loc 1 271 9 is_stmt 1 view .LVU80
 261              	.L13:
 271:Drivers/STM32F4xx_HAL_Driver/Src/stm32f4xx_hal_rcc.c ****         {
 262              		.loc 1 271 52 view .LVU81
 271:Drivers/STM32F4xx_HAL_Driver/Src/stm32f4xx_hal_rcc.c ****         {
 263              		.loc 1 271 16 is_stmt 0 view .LVU82
 264 00fa 664B     		ldr	r3, .L94
 265 00fc 1B68     		ldr	r3, [r3]
 271:Drivers/STM32F4xx_HAL_Driver/Src/stm32f4xx_hal_rcc.c ****         {
 266              		.loc 1 271 52 view .LVU83
 267 00fe 13F4003F 		tst	r3, #131072
 268 0102 C3D0     		beq	.L4
 273:Drivers/STM32F4xx_HAL_Driver/Src/stm32f4xx_hal_rcc.c ****           {
 269              		.loc 1 273 11 is_stmt 1 view .LVU84
 273:Drivers/STM32F4xx_HAL_Driver/Src/stm32f4xx_hal_rcc.c ****           {
 270              		.loc 1 273 16 is_stmt 0 view .LVU85
 271 0104 FFF7FEFF 		bl	HAL_GetTick
 272              	.LVL12:
 273:Drivers/STM32F4xx_HAL_Driver/Src/stm32f4xx_hal_rcc.c ****           {
 273              		.loc 1 273 30 discriminator 1 view .LVU86
 274 0108 401B     		subs	r0, r0, r5
 273:Drivers/STM32F4xx_HAL_Driver/Src/stm32f4xx_hal_rcc.c ****           {
 275              		.loc 1 273 14 discriminator 1 view .LVU87
 276 010a 6428     		cmp	r0, #100
 277 010c F5D9     		bls	.L13
 275:Drivers/STM32F4xx_HAL_Driver/Src/stm32f4xx_hal_rcc.c ****           }
 278              		.loc 1 275 20 view .LVU88
 279 010e 0320     		movs	r0, #3
 280 0110 66E1     		b	.L3
 281              	.LVL13:
 282              	.L84:
 290:Drivers/STM32F4xx_HAL_Driver/Src/stm32f4xx_hal_rcc.c ****     {
 283              		.loc 1 290 70 view .LVU89
ARM GAS  C:\Users\Rick\AppData\Local\Temp\ccWRFpbY.s 			page 12


 284 0112 604B     		ldr	r3, .L94
 285 0114 5B68     		ldr	r3, [r3, #4]
 290:Drivers/STM32F4xx_HAL_Driver/Src/stm32f4xx_hal_rcc.c ****     {
 286              		.loc 1 290 62 view .LVU90
 287 0116 13F4800F 		tst	r3, #4194304
 288 011a C6D1     		bne	.L17
 289              	.L16:
 293:Drivers/STM32F4xx_HAL_Driver/Src/stm32f4xx_hal_rcc.c ****       {
 290              		.loc 1 293 7 is_stmt 1 view .LVU91
 293:Drivers/STM32F4xx_HAL_Driver/Src/stm32f4xx_hal_rcc.c ****       {
 291              		.loc 1 293 12 is_stmt 0 view .LVU92
 292 011c 5D4B     		ldr	r3, .L94
 293 011e 1B68     		ldr	r3, [r3]
 293:Drivers/STM32F4xx_HAL_Driver/Src/stm32f4xx_hal_rcc.c ****       {
 294              		.loc 1 293 10 view .LVU93
 295 0120 13F0020F 		tst	r3, #2
 296 0124 03D0     		beq	.L18
 293:Drivers/STM32F4xx_HAL_Driver/Src/stm32f4xx_hal_rcc.c ****       {
 297              		.loc 1 293 79 discriminator 1 view .LVU94
 298 0126 E368     		ldr	r3, [r4, #12]
 293:Drivers/STM32F4xx_HAL_Driver/Src/stm32f4xx_hal_rcc.c ****       {
 299              		.loc 1 293 58 discriminator 1 view .LVU95
 300 0128 012B     		cmp	r3, #1
 301 012a 40F05681 		bne	.L56
 302              	.L18:
 301:Drivers/STM32F4xx_HAL_Driver/Src/stm32f4xx_hal_rcc.c ****       }
 303              		.loc 1 301 9 is_stmt 1 view .LVU96
 304 012e 594A     		ldr	r2, .L94
 305 0130 1368     		ldr	r3, [r2]
 306 0132 23F0F803 		bic	r3, r3, #248
 307 0136 2169     		ldr	r1, [r4, #16]
 308 0138 43EAC103 		orr	r3, r3, r1, lsl #3
 309 013c 1360     		str	r3, [r2]
 310              	.L15:
 321:Drivers/STM32F4xx_HAL_Driver/Src/stm32f4xx_hal_rcc.c ****           }
 322:Drivers/STM32F4xx_HAL_Driver/Src/stm32f4xx_hal_rcc.c ****         }
 323:Drivers/STM32F4xx_HAL_Driver/Src/stm32f4xx_hal_rcc.c **** 
 324:Drivers/STM32F4xx_HAL_Driver/Src/stm32f4xx_hal_rcc.c ****         /* Adjusts the Internal High Speed oscillator (HSI) calibration value. */
 325:Drivers/STM32F4xx_HAL_Driver/Src/stm32f4xx_hal_rcc.c ****         __HAL_RCC_HSI_CALIBRATIONVALUE_ADJUST(RCC_OscInitStruct->HSICalibrationValue);
 326:Drivers/STM32F4xx_HAL_Driver/Src/stm32f4xx_hal_rcc.c ****       }
 327:Drivers/STM32F4xx_HAL_Driver/Src/stm32f4xx_hal_rcc.c ****       else
 328:Drivers/STM32F4xx_HAL_Driver/Src/stm32f4xx_hal_rcc.c ****       {
 329:Drivers/STM32F4xx_HAL_Driver/Src/stm32f4xx_hal_rcc.c ****         /* Disable the Internal High Speed oscillator (HSI). */
 330:Drivers/STM32F4xx_HAL_Driver/Src/stm32f4xx_hal_rcc.c ****         __HAL_RCC_HSI_DISABLE();
 331:Drivers/STM32F4xx_HAL_Driver/Src/stm32f4xx_hal_rcc.c **** 
 332:Drivers/STM32F4xx_HAL_Driver/Src/stm32f4xx_hal_rcc.c ****         /* Get Start Tick*/
 333:Drivers/STM32F4xx_HAL_Driver/Src/stm32f4xx_hal_rcc.c ****         tickstart = HAL_GetTick();
 334:Drivers/STM32F4xx_HAL_Driver/Src/stm32f4xx_hal_rcc.c **** 
 335:Drivers/STM32F4xx_HAL_Driver/Src/stm32f4xx_hal_rcc.c ****         /* Wait till HSI is ready */
 336:Drivers/STM32F4xx_HAL_Driver/Src/stm32f4xx_hal_rcc.c ****         while (__HAL_RCC_GET_FLAG(RCC_FLAG_HSIRDY) != RESET)
 337:Drivers/STM32F4xx_HAL_Driver/Src/stm32f4xx_hal_rcc.c ****         {
 338:Drivers/STM32F4xx_HAL_Driver/Src/stm32f4xx_hal_rcc.c ****           if ((HAL_GetTick() - tickstart) > HSI_TIMEOUT_VALUE)
 339:Drivers/STM32F4xx_HAL_Driver/Src/stm32f4xx_hal_rcc.c ****           {
 340:Drivers/STM32F4xx_HAL_Driver/Src/stm32f4xx_hal_rcc.c ****             return HAL_TIMEOUT;
 341:Drivers/STM32F4xx_HAL_Driver/Src/stm32f4xx_hal_rcc.c ****           }
 342:Drivers/STM32F4xx_HAL_Driver/Src/stm32f4xx_hal_rcc.c ****         }
 343:Drivers/STM32F4xx_HAL_Driver/Src/stm32f4xx_hal_rcc.c ****       }
ARM GAS  C:\Users\Rick\AppData\Local\Temp\ccWRFpbY.s 			page 13


 344:Drivers/STM32F4xx_HAL_Driver/Src/stm32f4xx_hal_rcc.c ****     }
 345:Drivers/STM32F4xx_HAL_Driver/Src/stm32f4xx_hal_rcc.c ****   }
 346:Drivers/STM32F4xx_HAL_Driver/Src/stm32f4xx_hal_rcc.c ****   /*------------------------------ LSI Configuration -------------------------*/
 347:Drivers/STM32F4xx_HAL_Driver/Src/stm32f4xx_hal_rcc.c ****   if (((RCC_OscInitStruct->OscillatorType) & RCC_OSCILLATORTYPE_LSI) == RCC_OSCILLATORTYPE_LSI)
 311              		.loc 1 347 3 view .LVU97
 312              		.loc 1 347 26 is_stmt 0 view .LVU98
 313 013e 2368     		ldr	r3, [r4]
 314              		.loc 1 347 6 view .LVU99
 315 0140 13F0080F 		tst	r3, #8
 316 0144 42D0     		beq	.L24
 348:Drivers/STM32F4xx_HAL_Driver/Src/stm32f4xx_hal_rcc.c ****   {
 349:Drivers/STM32F4xx_HAL_Driver/Src/stm32f4xx_hal_rcc.c ****     /* Check the parameters */
 350:Drivers/STM32F4xx_HAL_Driver/Src/stm32f4xx_hal_rcc.c ****     assert_param(IS_RCC_LSI(RCC_OscInitStruct->LSIState));
 317              		.loc 1 350 5 is_stmt 1 view .LVU100
 351:Drivers/STM32F4xx_HAL_Driver/Src/stm32f4xx_hal_rcc.c **** 
 352:Drivers/STM32F4xx_HAL_Driver/Src/stm32f4xx_hal_rcc.c ****     /* Check the LSI State */
 353:Drivers/STM32F4xx_HAL_Driver/Src/stm32f4xx_hal_rcc.c ****     if ((RCC_OscInitStruct->LSIState) != RCC_LSI_OFF)
 318              		.loc 1 353 5 view .LVU101
 319              		.loc 1 353 27 is_stmt 0 view .LVU102
 320 0146 6369     		ldr	r3, [r4, #20]
 321              		.loc 1 353 8 view .LVU103
 322 0148 6BB3     		cbz	r3, .L25
 354:Drivers/STM32F4xx_HAL_Driver/Src/stm32f4xx_hal_rcc.c ****     {
 355:Drivers/STM32F4xx_HAL_Driver/Src/stm32f4xx_hal_rcc.c ****       /* Enable the Internal Low Speed oscillator (LSI). */
 356:Drivers/STM32F4xx_HAL_Driver/Src/stm32f4xx_hal_rcc.c ****       __HAL_RCC_LSI_ENABLE();
 323              		.loc 1 356 7 is_stmt 1 view .LVU104
 324 014a 534B     		ldr	r3, .L94+4
 325 014c 0122     		movs	r2, #1
 326 014e C3F8802E 		str	r2, [r3, #3712]
 357:Drivers/STM32F4xx_HAL_Driver/Src/stm32f4xx_hal_rcc.c **** 
 358:Drivers/STM32F4xx_HAL_Driver/Src/stm32f4xx_hal_rcc.c ****       /* Get Start Tick*/
 359:Drivers/STM32F4xx_HAL_Driver/Src/stm32f4xx_hal_rcc.c ****       tickstart = HAL_GetTick();
 327              		.loc 1 359 7 view .LVU105
 328              		.loc 1 359 19 is_stmt 0 view .LVU106
 329 0152 FFF7FEFF 		bl	HAL_GetTick
 330              	.LVL14:
 331 0156 0546     		mov	r5, r0
 332              	.LVL15:
 360:Drivers/STM32F4xx_HAL_Driver/Src/stm32f4xx_hal_rcc.c **** 
 361:Drivers/STM32F4xx_HAL_Driver/Src/stm32f4xx_hal_rcc.c ****       /* Wait till LSI is ready */
 362:Drivers/STM32F4xx_HAL_Driver/Src/stm32f4xx_hal_rcc.c ****       while (__HAL_RCC_GET_FLAG(RCC_FLAG_LSIRDY) == RESET)
 333              		.loc 1 362 7 is_stmt 1 view .LVU107
 334              	.L26:
 335              		.loc 1 362 50 view .LVU108
 336              		.loc 1 362 14 is_stmt 0 view .LVU109
 337 0158 4E4B     		ldr	r3, .L94
 338 015a 5B6F     		ldr	r3, [r3, #116]
 339              		.loc 1 362 50 view .LVU110
 340 015c 13F0020F 		tst	r3, #2
 341 0160 34D1     		bne	.L24
 363:Drivers/STM32F4xx_HAL_Driver/Src/stm32f4xx_hal_rcc.c ****       {
 364:Drivers/STM32F4xx_HAL_Driver/Src/stm32f4xx_hal_rcc.c ****         if ((HAL_GetTick() - tickstart) > LSI_TIMEOUT_VALUE)
 342              		.loc 1 364 9 is_stmt 1 view .LVU111
 343              		.loc 1 364 14 is_stmt 0 view .LVU112
 344 0162 FFF7FEFF 		bl	HAL_GetTick
 345              	.LVL16:
 346              		.loc 1 364 28 discriminator 1 view .LVU113
ARM GAS  C:\Users\Rick\AppData\Local\Temp\ccWRFpbY.s 			page 14


 347 0166 401B     		subs	r0, r0, r5
 348              		.loc 1 364 12 discriminator 1 view .LVU114
 349 0168 0228     		cmp	r0, #2
 350 016a F5D9     		bls	.L26
 365:Drivers/STM32F4xx_HAL_Driver/Src/stm32f4xx_hal_rcc.c ****         {
 366:Drivers/STM32F4xx_HAL_Driver/Src/stm32f4xx_hal_rcc.c ****           return HAL_TIMEOUT;
 351              		.loc 1 366 18 view .LVU115
 352 016c 0320     		movs	r0, #3
 353 016e 37E1     		b	.L3
 354              	.L85:
 325:Drivers/STM32F4xx_HAL_Driver/Src/stm32f4xx_hal_rcc.c ****       }
 355              		.loc 1 325 9 is_stmt 1 view .LVU116
 356 0170 484A     		ldr	r2, .L94
 357 0172 1368     		ldr	r3, [r2]
 358 0174 23F0F803 		bic	r3, r3, #248
 359 0178 2169     		ldr	r1, [r4, #16]
 360 017a 43EAC103 		orr	r3, r3, r1, lsl #3
 361 017e 1360     		str	r3, [r2]
 362 0180 DDE7     		b	.L15
 363              	.LVL17:
 364              	.L19:
 330:Drivers/STM32F4xx_HAL_Driver/Src/stm32f4xx_hal_rcc.c **** 
 365              		.loc 1 330 9 view .LVU117
 366 0182 454B     		ldr	r3, .L94+4
 367 0184 0022     		movs	r2, #0
 368 0186 1A60     		str	r2, [r3]
 333:Drivers/STM32F4xx_HAL_Driver/Src/stm32f4xx_hal_rcc.c **** 
 369              		.loc 1 333 9 view .LVU118
 333:Drivers/STM32F4xx_HAL_Driver/Src/stm32f4xx_hal_rcc.c **** 
 370              		.loc 1 333 21 is_stmt 0 view .LVU119
 371 0188 FFF7FEFF 		bl	HAL_GetTick
 372              	.LVL18:
 373 018c 0546     		mov	r5, r0
 374              	.LVL19:
 336:Drivers/STM32F4xx_HAL_Driver/Src/stm32f4xx_hal_rcc.c ****         {
 375              		.loc 1 336 9 is_stmt 1 view .LVU120
 376              	.L22:
 336:Drivers/STM32F4xx_HAL_Driver/Src/stm32f4xx_hal_rcc.c ****         {
 377              		.loc 1 336 52 view .LVU121
 336:Drivers/STM32F4xx_HAL_Driver/Src/stm32f4xx_hal_rcc.c ****         {
 378              		.loc 1 336 16 is_stmt 0 view .LVU122
 379 018e 414B     		ldr	r3, .L94
 380 0190 1B68     		ldr	r3, [r3]
 336:Drivers/STM32F4xx_HAL_Driver/Src/stm32f4xx_hal_rcc.c ****         {
 381              		.loc 1 336 52 view .LVU123
 382 0192 13F0020F 		tst	r3, #2
 383 0196 D2D0     		beq	.L15
 338:Drivers/STM32F4xx_HAL_Driver/Src/stm32f4xx_hal_rcc.c ****           {
 384              		.loc 1 338 11 is_stmt 1 view .LVU124
 338:Drivers/STM32F4xx_HAL_Driver/Src/stm32f4xx_hal_rcc.c ****           {
 385              		.loc 1 338 16 is_stmt 0 view .LVU125
 386 0198 FFF7FEFF 		bl	HAL_GetTick
 387              	.LVL20:
 338:Drivers/STM32F4xx_HAL_Driver/Src/stm32f4xx_hal_rcc.c ****           {
 388              		.loc 1 338 30 discriminator 1 view .LVU126
 389 019c 401B     		subs	r0, r0, r5
 338:Drivers/STM32F4xx_HAL_Driver/Src/stm32f4xx_hal_rcc.c ****           {
ARM GAS  C:\Users\Rick\AppData\Local\Temp\ccWRFpbY.s 			page 15


 390              		.loc 1 338 14 discriminator 1 view .LVU127
 391 019e 0228     		cmp	r0, #2
 392 01a0 F5D9     		bls	.L22
 340:Drivers/STM32F4xx_HAL_Driver/Src/stm32f4xx_hal_rcc.c ****           }
 393              		.loc 1 340 20 view .LVU128
 394 01a2 0320     		movs	r0, #3
 395 01a4 1CE1     		b	.L3
 396              	.LVL21:
 397              	.L25:
 367:Drivers/STM32F4xx_HAL_Driver/Src/stm32f4xx_hal_rcc.c ****         }
 368:Drivers/STM32F4xx_HAL_Driver/Src/stm32f4xx_hal_rcc.c ****       }
 369:Drivers/STM32F4xx_HAL_Driver/Src/stm32f4xx_hal_rcc.c ****     }
 370:Drivers/STM32F4xx_HAL_Driver/Src/stm32f4xx_hal_rcc.c ****     else
 371:Drivers/STM32F4xx_HAL_Driver/Src/stm32f4xx_hal_rcc.c ****     {
 372:Drivers/STM32F4xx_HAL_Driver/Src/stm32f4xx_hal_rcc.c ****       /* Disable the Internal Low Speed oscillator (LSI). */
 373:Drivers/STM32F4xx_HAL_Driver/Src/stm32f4xx_hal_rcc.c ****       __HAL_RCC_LSI_DISABLE();
 398              		.loc 1 373 7 is_stmt 1 view .LVU129
 399 01a6 3C4B     		ldr	r3, .L94+4
 400 01a8 0022     		movs	r2, #0
 401 01aa C3F8802E 		str	r2, [r3, #3712]
 374:Drivers/STM32F4xx_HAL_Driver/Src/stm32f4xx_hal_rcc.c **** 
 375:Drivers/STM32F4xx_HAL_Driver/Src/stm32f4xx_hal_rcc.c ****       /* Get Start Tick */
 376:Drivers/STM32F4xx_HAL_Driver/Src/stm32f4xx_hal_rcc.c ****       tickstart = HAL_GetTick();
 402              		.loc 1 376 7 view .LVU130
 403              		.loc 1 376 19 is_stmt 0 view .LVU131
 404 01ae FFF7FEFF 		bl	HAL_GetTick
 405              	.LVL22:
 406 01b2 0546     		mov	r5, r0
 407              	.LVL23:
 377:Drivers/STM32F4xx_HAL_Driver/Src/stm32f4xx_hal_rcc.c **** 
 378:Drivers/STM32F4xx_HAL_Driver/Src/stm32f4xx_hal_rcc.c ****       /* Wait till LSI is ready */
 379:Drivers/STM32F4xx_HAL_Driver/Src/stm32f4xx_hal_rcc.c ****       while (__HAL_RCC_GET_FLAG(RCC_FLAG_LSIRDY) != RESET)
 408              		.loc 1 379 7 is_stmt 1 view .LVU132
 409              	.L28:
 410              		.loc 1 379 50 view .LVU133
 411              		.loc 1 379 14 is_stmt 0 view .LVU134
 412 01b4 374B     		ldr	r3, .L94
 413 01b6 5B6F     		ldr	r3, [r3, #116]
 414              		.loc 1 379 50 view .LVU135
 415 01b8 13F0020F 		tst	r3, #2
 416 01bc 06D0     		beq	.L24
 380:Drivers/STM32F4xx_HAL_Driver/Src/stm32f4xx_hal_rcc.c ****       {
 381:Drivers/STM32F4xx_HAL_Driver/Src/stm32f4xx_hal_rcc.c ****         if ((HAL_GetTick() - tickstart) > LSI_TIMEOUT_VALUE)
 417              		.loc 1 381 9 is_stmt 1 view .LVU136
 418              		.loc 1 381 14 is_stmt 0 view .LVU137
 419 01be FFF7FEFF 		bl	HAL_GetTick
 420              	.LVL24:
 421              		.loc 1 381 28 discriminator 1 view .LVU138
 422 01c2 401B     		subs	r0, r0, r5
 423              		.loc 1 381 12 discriminator 1 view .LVU139
 424 01c4 0228     		cmp	r0, #2
 425 01c6 F5D9     		bls	.L28
 382:Drivers/STM32F4xx_HAL_Driver/Src/stm32f4xx_hal_rcc.c ****         {
 383:Drivers/STM32F4xx_HAL_Driver/Src/stm32f4xx_hal_rcc.c ****           return HAL_TIMEOUT;
 426              		.loc 1 383 18 view .LVU140
 427 01c8 0320     		movs	r0, #3
 428 01ca 09E1     		b	.L3
ARM GAS  C:\Users\Rick\AppData\Local\Temp\ccWRFpbY.s 			page 16


 429              	.LVL25:
 430              	.L24:
 384:Drivers/STM32F4xx_HAL_Driver/Src/stm32f4xx_hal_rcc.c ****         }
 385:Drivers/STM32F4xx_HAL_Driver/Src/stm32f4xx_hal_rcc.c ****       }
 386:Drivers/STM32F4xx_HAL_Driver/Src/stm32f4xx_hal_rcc.c ****     }
 387:Drivers/STM32F4xx_HAL_Driver/Src/stm32f4xx_hal_rcc.c ****   }
 388:Drivers/STM32F4xx_HAL_Driver/Src/stm32f4xx_hal_rcc.c ****   /*------------------------------ LSE Configuration -------------------------*/
 389:Drivers/STM32F4xx_HAL_Driver/Src/stm32f4xx_hal_rcc.c ****   if (((RCC_OscInitStruct->OscillatorType) & RCC_OSCILLATORTYPE_LSE) == RCC_OSCILLATORTYPE_LSE)
 431              		.loc 1 389 3 is_stmt 1 view .LVU141
 432              		.loc 1 389 26 is_stmt 0 view .LVU142
 433 01cc 2368     		ldr	r3, [r4]
 434              		.loc 1 389 6 view .LVU143
 435 01ce 13F0040F 		tst	r3, #4
 436 01d2 77D0     		beq	.L30
 437              	.LBB2:
 390:Drivers/STM32F4xx_HAL_Driver/Src/stm32f4xx_hal_rcc.c ****   {
 391:Drivers/STM32F4xx_HAL_Driver/Src/stm32f4xx_hal_rcc.c ****     FlagStatus       pwrclkchanged = RESET;
 438              		.loc 1 391 5 is_stmt 1 view .LVU144
 439              	.LVL26:
 392:Drivers/STM32F4xx_HAL_Driver/Src/stm32f4xx_hal_rcc.c **** 
 393:Drivers/STM32F4xx_HAL_Driver/Src/stm32f4xx_hal_rcc.c ****     /* Check the parameters */
 394:Drivers/STM32F4xx_HAL_Driver/Src/stm32f4xx_hal_rcc.c ****     assert_param(IS_RCC_LSE(RCC_OscInitStruct->LSEState));
 440              		.loc 1 394 5 view .LVU145
 395:Drivers/STM32F4xx_HAL_Driver/Src/stm32f4xx_hal_rcc.c **** 
 396:Drivers/STM32F4xx_HAL_Driver/Src/stm32f4xx_hal_rcc.c ****     /* Update LSE configuration in Backup Domain control register    */
 397:Drivers/STM32F4xx_HAL_Driver/Src/stm32f4xx_hal_rcc.c ****     /* Requires to enable write access to Backup Domain of necessary */
 398:Drivers/STM32F4xx_HAL_Driver/Src/stm32f4xx_hal_rcc.c ****     if (__HAL_RCC_PWR_IS_CLK_DISABLED())
 441              		.loc 1 398 5 view .LVU146
 442              		.loc 1 398 9 is_stmt 0 view .LVU147
 443 01d4 2F4B     		ldr	r3, .L94
 444 01d6 1B6C     		ldr	r3, [r3, #64]
 445              		.loc 1 398 8 view .LVU148
 446 01d8 13F0805F 		tst	r3, #268435456
 447 01dc 33D1     		bne	.L61
 399:Drivers/STM32F4xx_HAL_Driver/Src/stm32f4xx_hal_rcc.c ****     {
 400:Drivers/STM32F4xx_HAL_Driver/Src/stm32f4xx_hal_rcc.c ****       __HAL_RCC_PWR_CLK_ENABLE();
 448              		.loc 1 400 7 is_stmt 1 view .LVU149
 449              	.LBB3:
 450              		.loc 1 400 7 view .LVU150
 451 01de 0023     		movs	r3, #0
 452 01e0 0193     		str	r3, [sp, #4]
 453              		.loc 1 400 7 view .LVU151
 454 01e2 2C4B     		ldr	r3, .L94
 455 01e4 1A6C     		ldr	r2, [r3, #64]
 456 01e6 42F08052 		orr	r2, r2, #268435456
 457 01ea 1A64     		str	r2, [r3, #64]
 458              		.loc 1 400 7 view .LVU152
 459 01ec 1B6C     		ldr	r3, [r3, #64]
 460 01ee 03F08053 		and	r3, r3, #268435456
 461 01f2 0193     		str	r3, [sp, #4]
 462              		.loc 1 400 7 view .LVU153
 463 01f4 019B     		ldr	r3, [sp, #4]
 464              	.LBE3:
 465              		.loc 1 400 7 view .LVU154
 401:Drivers/STM32F4xx_HAL_Driver/Src/stm32f4xx_hal_rcc.c ****       pwrclkchanged = SET;
 466              		.loc 1 401 7 view .LVU155
 467              	.LVL27:
ARM GAS  C:\Users\Rick\AppData\Local\Temp\ccWRFpbY.s 			page 17


 468              		.loc 1 401 21 is_stmt 0 view .LVU156
 469 01f6 0125     		movs	r5, #1
 470              	.LVL28:
 471              	.L31:
 402:Drivers/STM32F4xx_HAL_Driver/Src/stm32f4xx_hal_rcc.c ****     }
 403:Drivers/STM32F4xx_HAL_Driver/Src/stm32f4xx_hal_rcc.c **** 
 404:Drivers/STM32F4xx_HAL_Driver/Src/stm32f4xx_hal_rcc.c ****     if (HAL_IS_BIT_CLR(PWR->CR, PWR_CR_DBP))
 472              		.loc 1 404 5 is_stmt 1 view .LVU157
 473              		.loc 1 404 9 is_stmt 0 view .LVU158
 474 01f8 284B     		ldr	r3, .L94+8
 475 01fa 1B68     		ldr	r3, [r3]
 476              		.loc 1 404 8 view .LVU159
 477 01fc 13F4807F 		tst	r3, #256
 478 0200 23D0     		beq	.L86
 479              	.L32:
 405:Drivers/STM32F4xx_HAL_Driver/Src/stm32f4xx_hal_rcc.c ****     {
 406:Drivers/STM32F4xx_HAL_Driver/Src/stm32f4xx_hal_rcc.c ****       /* Enable write access to Backup domain */
 407:Drivers/STM32F4xx_HAL_Driver/Src/stm32f4xx_hal_rcc.c ****       SET_BIT(PWR->CR, PWR_CR_DBP);
 408:Drivers/STM32F4xx_HAL_Driver/Src/stm32f4xx_hal_rcc.c **** 
 409:Drivers/STM32F4xx_HAL_Driver/Src/stm32f4xx_hal_rcc.c ****       /* Wait for Backup domain Write protection disable */
 410:Drivers/STM32F4xx_HAL_Driver/Src/stm32f4xx_hal_rcc.c ****       tickstart = HAL_GetTick();
 411:Drivers/STM32F4xx_HAL_Driver/Src/stm32f4xx_hal_rcc.c **** 
 412:Drivers/STM32F4xx_HAL_Driver/Src/stm32f4xx_hal_rcc.c ****       while (HAL_IS_BIT_CLR(PWR->CR, PWR_CR_DBP))
 413:Drivers/STM32F4xx_HAL_Driver/Src/stm32f4xx_hal_rcc.c ****       {
 414:Drivers/STM32F4xx_HAL_Driver/Src/stm32f4xx_hal_rcc.c ****         if ((HAL_GetTick() - tickstart) > RCC_DBP_TIMEOUT_VALUE)
 415:Drivers/STM32F4xx_HAL_Driver/Src/stm32f4xx_hal_rcc.c ****         {
 416:Drivers/STM32F4xx_HAL_Driver/Src/stm32f4xx_hal_rcc.c ****           return HAL_TIMEOUT;
 417:Drivers/STM32F4xx_HAL_Driver/Src/stm32f4xx_hal_rcc.c ****         }
 418:Drivers/STM32F4xx_HAL_Driver/Src/stm32f4xx_hal_rcc.c ****       }
 419:Drivers/STM32F4xx_HAL_Driver/Src/stm32f4xx_hal_rcc.c ****     }
 420:Drivers/STM32F4xx_HAL_Driver/Src/stm32f4xx_hal_rcc.c **** 
 421:Drivers/STM32F4xx_HAL_Driver/Src/stm32f4xx_hal_rcc.c ****     /* Set the new LSE configuration -----------------------------------------*/
 422:Drivers/STM32F4xx_HAL_Driver/Src/stm32f4xx_hal_rcc.c ****     __HAL_RCC_LSE_CONFIG(RCC_OscInitStruct->LSEState);
 480              		.loc 1 422 5 is_stmt 1 view .LVU160
 481              		.loc 1 422 5 view .LVU161
 482 0202 A368     		ldr	r3, [r4, #8]
 483 0204 012B     		cmp	r3, #1
 484 0206 34D0     		beq	.L87
 485              		.loc 1 422 5 discriminator 2 view .LVU162
 486 0208 052B     		cmp	r3, #5
 487 020a 38D0     		beq	.L88
 488              		.loc 1 422 5 discriminator 5 view .LVU163
 489 020c 214B     		ldr	r3, .L94
 490 020e 1A6F     		ldr	r2, [r3, #112]
 491 0210 22F00102 		bic	r2, r2, #1
 492 0214 1A67     		str	r2, [r3, #112]
 493              		.loc 1 422 5 view .LVU164
 494              		.loc 1 422 5 is_stmt 0 discriminator 5 view .LVU165
 495 0216 1A6F     		ldr	r2, [r3, #112]
 496 0218 22F00402 		bic	r2, r2, #4
 497 021c 1A67     		str	r2, [r3, #112]
 498              	.L36:
 499              		.loc 1 422 5 is_stmt 1 discriminator 7 view .LVU166
 423:Drivers/STM32F4xx_HAL_Driver/Src/stm32f4xx_hal_rcc.c ****     /* Check the LSE State */
 424:Drivers/STM32F4xx_HAL_Driver/Src/stm32f4xx_hal_rcc.c ****     if ((RCC_OscInitStruct->LSEState) != RCC_LSE_OFF)
 500              		.loc 1 424 5 view .LVU167
 501              		.loc 1 424 27 is_stmt 0 view .LVU168
ARM GAS  C:\Users\Rick\AppData\Local\Temp\ccWRFpbY.s 			page 18


 502 021e A368     		ldr	r3, [r4, #8]
 503              		.loc 1 424 8 view .LVU169
 504 0220 002B     		cmp	r3, #0
 505 0222 3DD0     		beq	.L38
 425:Drivers/STM32F4xx_HAL_Driver/Src/stm32f4xx_hal_rcc.c ****     {
 426:Drivers/STM32F4xx_HAL_Driver/Src/stm32f4xx_hal_rcc.c ****       /* Get Start Tick*/
 427:Drivers/STM32F4xx_HAL_Driver/Src/stm32f4xx_hal_rcc.c ****       tickstart = HAL_GetTick();
 506              		.loc 1 427 7 is_stmt 1 view .LVU170
 507              		.loc 1 427 19 is_stmt 0 view .LVU171
 508 0224 FFF7FEFF 		bl	HAL_GetTick
 509              	.LVL29:
 510 0228 0646     		mov	r6, r0
 511              	.LVL30:
 428:Drivers/STM32F4xx_HAL_Driver/Src/stm32f4xx_hal_rcc.c **** 
 429:Drivers/STM32F4xx_HAL_Driver/Src/stm32f4xx_hal_rcc.c ****       /* Wait till LSE is ready */
 430:Drivers/STM32F4xx_HAL_Driver/Src/stm32f4xx_hal_rcc.c ****       while (__HAL_RCC_GET_FLAG(RCC_FLAG_LSERDY) == RESET)
 512              		.loc 1 430 7 is_stmt 1 view .LVU172
 513              	.L39:
 514              		.loc 1 430 50 view .LVU173
 515              		.loc 1 430 14 is_stmt 0 view .LVU174
 516 022a 1A4B     		ldr	r3, .L94
 517 022c 1B6F     		ldr	r3, [r3, #112]
 518              		.loc 1 430 50 view .LVU175
 519 022e 13F0020F 		tst	r3, #2
 520 0232 46D1     		bne	.L41
 431:Drivers/STM32F4xx_HAL_Driver/Src/stm32f4xx_hal_rcc.c ****       {
 432:Drivers/STM32F4xx_HAL_Driver/Src/stm32f4xx_hal_rcc.c ****         if ((HAL_GetTick() - tickstart) > RCC_LSE_TIMEOUT_VALUE)
 521              		.loc 1 432 9 is_stmt 1 view .LVU176
 522              		.loc 1 432 14 is_stmt 0 view .LVU177
 523 0234 FFF7FEFF 		bl	HAL_GetTick
 524              	.LVL31:
 525              		.loc 1 432 28 discriminator 1 view .LVU178
 526 0238 801B     		subs	r0, r0, r6
 527              		.loc 1 432 12 discriminator 1 view .LVU179
 528 023a 41F28833 		movw	r3, #5000
 529 023e 9842     		cmp	r0, r3
 530 0240 F3D9     		bls	.L39
 433:Drivers/STM32F4xx_HAL_Driver/Src/stm32f4xx_hal_rcc.c ****         {
 434:Drivers/STM32F4xx_HAL_Driver/Src/stm32f4xx_hal_rcc.c ****           return HAL_TIMEOUT;
 531              		.loc 1 434 18 view .LVU180
 532 0242 0320     		movs	r0, #3
 533 0244 CCE0     		b	.L3
 534              	.LVL32:
 535              	.L61:
 391:Drivers/STM32F4xx_HAL_Driver/Src/stm32f4xx_hal_rcc.c **** 
 536              		.loc 1 391 22 view .LVU181
 537 0246 0025     		movs	r5, #0
 538 0248 D6E7     		b	.L31
 539              	.LVL33:
 540              	.L86:
 407:Drivers/STM32F4xx_HAL_Driver/Src/stm32f4xx_hal_rcc.c **** 
 541              		.loc 1 407 7 is_stmt 1 view .LVU182
 542 024a 144A     		ldr	r2, .L94+8
 543 024c 1368     		ldr	r3, [r2]
 544 024e 43F48073 		orr	r3, r3, #256
 545 0252 1360     		str	r3, [r2]
 410:Drivers/STM32F4xx_HAL_Driver/Src/stm32f4xx_hal_rcc.c **** 
ARM GAS  C:\Users\Rick\AppData\Local\Temp\ccWRFpbY.s 			page 19


 546              		.loc 1 410 7 view .LVU183
 410:Drivers/STM32F4xx_HAL_Driver/Src/stm32f4xx_hal_rcc.c **** 
 547              		.loc 1 410 19 is_stmt 0 view .LVU184
 548 0254 FFF7FEFF 		bl	HAL_GetTick
 549              	.LVL34:
 550 0258 0646     		mov	r6, r0
 551              	.LVL35:
 412:Drivers/STM32F4xx_HAL_Driver/Src/stm32f4xx_hal_rcc.c ****       {
 552              		.loc 1 412 7 is_stmt 1 view .LVU185
 553              	.L33:
 412:Drivers/STM32F4xx_HAL_Driver/Src/stm32f4xx_hal_rcc.c ****       {
 554              		.loc 1 412 14 view .LVU186
 555 025a 104B     		ldr	r3, .L94+8
 556 025c 1B68     		ldr	r3, [r3]
 557 025e 13F4807F 		tst	r3, #256
 558 0262 CED1     		bne	.L32
 414:Drivers/STM32F4xx_HAL_Driver/Src/stm32f4xx_hal_rcc.c ****         {
 559              		.loc 1 414 9 view .LVU187
 414:Drivers/STM32F4xx_HAL_Driver/Src/stm32f4xx_hal_rcc.c ****         {
 560              		.loc 1 414 14 is_stmt 0 view .LVU188
 561 0264 FFF7FEFF 		bl	HAL_GetTick
 562              	.LVL36:
 414:Drivers/STM32F4xx_HAL_Driver/Src/stm32f4xx_hal_rcc.c ****         {
 563              		.loc 1 414 28 discriminator 1 view .LVU189
 564 0268 801B     		subs	r0, r0, r6
 414:Drivers/STM32F4xx_HAL_Driver/Src/stm32f4xx_hal_rcc.c ****         {
 565              		.loc 1 414 12 discriminator 1 view .LVU190
 566 026a 0228     		cmp	r0, #2
 567 026c F5D9     		bls	.L33
 416:Drivers/STM32F4xx_HAL_Driver/Src/stm32f4xx_hal_rcc.c ****         }
 568              		.loc 1 416 18 view .LVU191
 569 026e 0320     		movs	r0, #3
 570 0270 B6E0     		b	.L3
 571              	.LVL37:
 572              	.L87:
 422:Drivers/STM32F4xx_HAL_Driver/Src/stm32f4xx_hal_rcc.c ****     /* Check the LSE State */
 573              		.loc 1 422 5 is_stmt 1 discriminator 1 view .LVU192
 574 0272 084A     		ldr	r2, .L94
 575 0274 136F     		ldr	r3, [r2, #112]
 576 0276 43F00103 		orr	r3, r3, #1
 577 027a 1367     		str	r3, [r2, #112]
 578 027c CFE7     		b	.L36
 579              	.L88:
 422:Drivers/STM32F4xx_HAL_Driver/Src/stm32f4xx_hal_rcc.c ****     /* Check the LSE State */
 580              		.loc 1 422 5 discriminator 4 view .LVU193
 581 027e 054B     		ldr	r3, .L94
 582 0280 1A6F     		ldr	r2, [r3, #112]
 583 0282 42F00402 		orr	r2, r2, #4
 584 0286 1A67     		str	r2, [r3, #112]
 422:Drivers/STM32F4xx_HAL_Driver/Src/stm32f4xx_hal_rcc.c ****     /* Check the LSE State */
 585              		.loc 1 422 5 view .LVU194
 422:Drivers/STM32F4xx_HAL_Driver/Src/stm32f4xx_hal_rcc.c ****     /* Check the LSE State */
 586              		.loc 1 422 5 is_stmt 0 discriminator 4 view .LVU195
 587 0288 1A6F     		ldr	r2, [r3, #112]
 588 028a 42F00102 		orr	r2, r2, #1
 589 028e 1A67     		str	r2, [r3, #112]
 590 0290 C5E7     		b	.L36
ARM GAS  C:\Users\Rick\AppData\Local\Temp\ccWRFpbY.s 			page 20


 591              	.L95:
 592 0292 00BF     		.align	2
 593              	.L94:
 594 0294 00380240 		.word	1073887232
 595 0298 00004742 		.word	1111949312
 596 029c 00700040 		.word	1073770496
 597              	.L38:
 435:Drivers/STM32F4xx_HAL_Driver/Src/stm32f4xx_hal_rcc.c ****         }
 436:Drivers/STM32F4xx_HAL_Driver/Src/stm32f4xx_hal_rcc.c ****       }
 437:Drivers/STM32F4xx_HAL_Driver/Src/stm32f4xx_hal_rcc.c ****     }
 438:Drivers/STM32F4xx_HAL_Driver/Src/stm32f4xx_hal_rcc.c ****     else
 439:Drivers/STM32F4xx_HAL_Driver/Src/stm32f4xx_hal_rcc.c ****     {
 440:Drivers/STM32F4xx_HAL_Driver/Src/stm32f4xx_hal_rcc.c ****       /* Get Start Tick */
 441:Drivers/STM32F4xx_HAL_Driver/Src/stm32f4xx_hal_rcc.c ****       tickstart = HAL_GetTick();
 598              		.loc 1 441 7 is_stmt 1 view .LVU196
 599              		.loc 1 441 19 is_stmt 0 view .LVU197
 600 02a0 FFF7FEFF 		bl	HAL_GetTick
 601              	.LVL38:
 602 02a4 0646     		mov	r6, r0
 603              	.LVL39:
 442:Drivers/STM32F4xx_HAL_Driver/Src/stm32f4xx_hal_rcc.c **** 
 443:Drivers/STM32F4xx_HAL_Driver/Src/stm32f4xx_hal_rcc.c ****       /* Wait till LSE is ready */
 444:Drivers/STM32F4xx_HAL_Driver/Src/stm32f4xx_hal_rcc.c ****       while (__HAL_RCC_GET_FLAG(RCC_FLAG_LSERDY) != RESET)
 604              		.loc 1 444 7 is_stmt 1 view .LVU198
 605              	.L42:
 606              		.loc 1 444 50 view .LVU199
 607              		.loc 1 444 14 is_stmt 0 view .LVU200
 608 02a6 564B     		ldr	r3, .L96
 609 02a8 1B6F     		ldr	r3, [r3, #112]
 610              		.loc 1 444 50 view .LVU201
 611 02aa 13F0020F 		tst	r3, #2
 612 02ae 08D0     		beq	.L41
 445:Drivers/STM32F4xx_HAL_Driver/Src/stm32f4xx_hal_rcc.c ****       {
 446:Drivers/STM32F4xx_HAL_Driver/Src/stm32f4xx_hal_rcc.c ****         if ((HAL_GetTick() - tickstart) > RCC_LSE_TIMEOUT_VALUE)
 613              		.loc 1 446 9 is_stmt 1 view .LVU202
 614              		.loc 1 446 14 is_stmt 0 view .LVU203
 615 02b0 FFF7FEFF 		bl	HAL_GetTick
 616              	.LVL40:
 617              		.loc 1 446 28 discriminator 1 view .LVU204
 618 02b4 801B     		subs	r0, r0, r6
 619              		.loc 1 446 12 discriminator 1 view .LVU205
 620 02b6 41F28833 		movw	r3, #5000
 621 02ba 9842     		cmp	r0, r3
 622 02bc F3D9     		bls	.L42
 447:Drivers/STM32F4xx_HAL_Driver/Src/stm32f4xx_hal_rcc.c ****         {
 448:Drivers/STM32F4xx_HAL_Driver/Src/stm32f4xx_hal_rcc.c ****           return HAL_TIMEOUT;
 623              		.loc 1 448 18 view .LVU206
 624 02be 0320     		movs	r0, #3
 625 02c0 8EE0     		b	.L3
 626              	.L41:
 449:Drivers/STM32F4xx_HAL_Driver/Src/stm32f4xx_hal_rcc.c ****         }
 450:Drivers/STM32F4xx_HAL_Driver/Src/stm32f4xx_hal_rcc.c ****       }
 451:Drivers/STM32F4xx_HAL_Driver/Src/stm32f4xx_hal_rcc.c ****     }
 452:Drivers/STM32F4xx_HAL_Driver/Src/stm32f4xx_hal_rcc.c **** 
 453:Drivers/STM32F4xx_HAL_Driver/Src/stm32f4xx_hal_rcc.c ****     /* Restore clock configuration if changed */
 454:Drivers/STM32F4xx_HAL_Driver/Src/stm32f4xx_hal_rcc.c ****     if (pwrclkchanged == SET)
 627              		.loc 1 454 5 is_stmt 1 view .LVU207
ARM GAS  C:\Users\Rick\AppData\Local\Temp\ccWRFpbY.s 			page 21


 628              		.loc 1 454 8 is_stmt 0 view .LVU208
 629 02c2 EDB9     		cbnz	r5, .L89
 630              	.LVL41:
 631              	.L30:
 632              		.loc 1 454 8 view .LVU209
 633              	.LBE2:
 455:Drivers/STM32F4xx_HAL_Driver/Src/stm32f4xx_hal_rcc.c ****     {
 456:Drivers/STM32F4xx_HAL_Driver/Src/stm32f4xx_hal_rcc.c ****       __HAL_RCC_PWR_CLK_DISABLE();
 457:Drivers/STM32F4xx_HAL_Driver/Src/stm32f4xx_hal_rcc.c ****     }
 458:Drivers/STM32F4xx_HAL_Driver/Src/stm32f4xx_hal_rcc.c ****   }
 459:Drivers/STM32F4xx_HAL_Driver/Src/stm32f4xx_hal_rcc.c ****   /*-------------------------------- PLL Configuration -----------------------*/
 460:Drivers/STM32F4xx_HAL_Driver/Src/stm32f4xx_hal_rcc.c ****   /* Check the parameters */
 461:Drivers/STM32F4xx_HAL_Driver/Src/stm32f4xx_hal_rcc.c ****   assert_param(IS_RCC_PLL(RCC_OscInitStruct->PLL.PLLState));
 634              		.loc 1 461 3 is_stmt 1 view .LVU210
 462:Drivers/STM32F4xx_HAL_Driver/Src/stm32f4xx_hal_rcc.c ****   if ((RCC_OscInitStruct->PLL.PLLState) != RCC_PLL_NONE)
 635              		.loc 1 462 3 view .LVU211
 636              		.loc 1 462 30 is_stmt 0 view .LVU212
 637 02c4 A369     		ldr	r3, [r4, #24]
 638              		.loc 1 462 6 view .LVU213
 639 02c6 002B     		cmp	r3, #0
 640 02c8 00F08980 		beq	.L65
 463:Drivers/STM32F4xx_HAL_Driver/Src/stm32f4xx_hal_rcc.c ****   {
 464:Drivers/STM32F4xx_HAL_Driver/Src/stm32f4xx_hal_rcc.c ****     /* Check if the PLL is used as system clock or not */
 465:Drivers/STM32F4xx_HAL_Driver/Src/stm32f4xx_hal_rcc.c ****     if (__HAL_RCC_GET_SYSCLK_SOURCE() != RCC_CFGR_SWS_PLL)
 641              		.loc 1 465 5 is_stmt 1 view .LVU214
 642              		.loc 1 465 9 is_stmt 0 view .LVU215
 643 02cc 4C4A     		ldr	r2, .L96
 644 02ce 9268     		ldr	r2, [r2, #8]
 645 02d0 02F00C02 		and	r2, r2, #12
 646              		.loc 1 465 8 view .LVU216
 647 02d4 082A     		cmp	r2, #8
 648 02d6 51D0     		beq	.L44
 466:Drivers/STM32F4xx_HAL_Driver/Src/stm32f4xx_hal_rcc.c ****     {
 467:Drivers/STM32F4xx_HAL_Driver/Src/stm32f4xx_hal_rcc.c ****       if ((RCC_OscInitStruct->PLL.PLLState) == RCC_PLL_ON)
 649              		.loc 1 467 7 is_stmt 1 view .LVU217
 650              		.loc 1 467 10 is_stmt 0 view .LVU218
 651 02d8 022B     		cmp	r3, #2
 652 02da 17D0     		beq	.L90
 468:Drivers/STM32F4xx_HAL_Driver/Src/stm32f4xx_hal_rcc.c ****       {
 469:Drivers/STM32F4xx_HAL_Driver/Src/stm32f4xx_hal_rcc.c ****         /* Check the parameters */
 470:Drivers/STM32F4xx_HAL_Driver/Src/stm32f4xx_hal_rcc.c ****         assert_param(IS_RCC_PLLSOURCE(RCC_OscInitStruct->PLL.PLLSource));
 471:Drivers/STM32F4xx_HAL_Driver/Src/stm32f4xx_hal_rcc.c ****         assert_param(IS_RCC_PLLM_VALUE(RCC_OscInitStruct->PLL.PLLM));
 472:Drivers/STM32F4xx_HAL_Driver/Src/stm32f4xx_hal_rcc.c ****         assert_param(IS_RCC_PLLN_VALUE(RCC_OscInitStruct->PLL.PLLN));
 473:Drivers/STM32F4xx_HAL_Driver/Src/stm32f4xx_hal_rcc.c ****         assert_param(IS_RCC_PLLP_VALUE(RCC_OscInitStruct->PLL.PLLP));
 474:Drivers/STM32F4xx_HAL_Driver/Src/stm32f4xx_hal_rcc.c ****         assert_param(IS_RCC_PLLQ_VALUE(RCC_OscInitStruct->PLL.PLLQ));
 475:Drivers/STM32F4xx_HAL_Driver/Src/stm32f4xx_hal_rcc.c **** 
 476:Drivers/STM32F4xx_HAL_Driver/Src/stm32f4xx_hal_rcc.c ****         /* Disable the main PLL. */
 477:Drivers/STM32F4xx_HAL_Driver/Src/stm32f4xx_hal_rcc.c ****         __HAL_RCC_PLL_DISABLE();
 478:Drivers/STM32F4xx_HAL_Driver/Src/stm32f4xx_hal_rcc.c **** 
 479:Drivers/STM32F4xx_HAL_Driver/Src/stm32f4xx_hal_rcc.c ****         /* Get Start Tick */
 480:Drivers/STM32F4xx_HAL_Driver/Src/stm32f4xx_hal_rcc.c ****         tickstart = HAL_GetTick();
 481:Drivers/STM32F4xx_HAL_Driver/Src/stm32f4xx_hal_rcc.c **** 
 482:Drivers/STM32F4xx_HAL_Driver/Src/stm32f4xx_hal_rcc.c ****         /* Wait till PLL is disabled */
 483:Drivers/STM32F4xx_HAL_Driver/Src/stm32f4xx_hal_rcc.c ****         while (__HAL_RCC_GET_FLAG(RCC_FLAG_PLLRDY) != RESET)
 484:Drivers/STM32F4xx_HAL_Driver/Src/stm32f4xx_hal_rcc.c ****         {
 485:Drivers/STM32F4xx_HAL_Driver/Src/stm32f4xx_hal_rcc.c ****           if ((HAL_GetTick() - tickstart) > PLL_TIMEOUT_VALUE)
 486:Drivers/STM32F4xx_HAL_Driver/Src/stm32f4xx_hal_rcc.c ****           {
ARM GAS  C:\Users\Rick\AppData\Local\Temp\ccWRFpbY.s 			page 22


 487:Drivers/STM32F4xx_HAL_Driver/Src/stm32f4xx_hal_rcc.c ****             return HAL_TIMEOUT;
 488:Drivers/STM32F4xx_HAL_Driver/Src/stm32f4xx_hal_rcc.c ****           }
 489:Drivers/STM32F4xx_HAL_Driver/Src/stm32f4xx_hal_rcc.c ****         }
 490:Drivers/STM32F4xx_HAL_Driver/Src/stm32f4xx_hal_rcc.c **** 
 491:Drivers/STM32F4xx_HAL_Driver/Src/stm32f4xx_hal_rcc.c ****         /* Configure the main PLL clock source, multiplication and division factors. */
 492:Drivers/STM32F4xx_HAL_Driver/Src/stm32f4xx_hal_rcc.c ****         WRITE_REG(RCC->PLLCFGR, (RCC_OscInitStruct->PLL.PLLSource                                  
 493:Drivers/STM32F4xx_HAL_Driver/Src/stm32f4xx_hal_rcc.c ****                                  RCC_OscInitStruct->PLL.PLLM                                       
 494:Drivers/STM32F4xx_HAL_Driver/Src/stm32f4xx_hal_rcc.c ****                                  (RCC_OscInitStruct->PLL.PLLN << RCC_PLLCFGR_PLLN_Pos)             
 495:Drivers/STM32F4xx_HAL_Driver/Src/stm32f4xx_hal_rcc.c ****                                  (((RCC_OscInitStruct->PLL.PLLP >> 1U) - 1U) << RCC_PLLCFGR_PLLP_Po
 496:Drivers/STM32F4xx_HAL_Driver/Src/stm32f4xx_hal_rcc.c ****                                  (RCC_OscInitStruct->PLL.PLLQ << RCC_PLLCFGR_PLLQ_Pos)));
 497:Drivers/STM32F4xx_HAL_Driver/Src/stm32f4xx_hal_rcc.c ****         /* Enable the main PLL. */
 498:Drivers/STM32F4xx_HAL_Driver/Src/stm32f4xx_hal_rcc.c ****         __HAL_RCC_PLL_ENABLE();
 499:Drivers/STM32F4xx_HAL_Driver/Src/stm32f4xx_hal_rcc.c **** 
 500:Drivers/STM32F4xx_HAL_Driver/Src/stm32f4xx_hal_rcc.c ****         /* Get Start Tick */
 501:Drivers/STM32F4xx_HAL_Driver/Src/stm32f4xx_hal_rcc.c ****         tickstart = HAL_GetTick();
 502:Drivers/STM32F4xx_HAL_Driver/Src/stm32f4xx_hal_rcc.c **** 
 503:Drivers/STM32F4xx_HAL_Driver/Src/stm32f4xx_hal_rcc.c ****         /* Wait till PLL is ready */
 504:Drivers/STM32F4xx_HAL_Driver/Src/stm32f4xx_hal_rcc.c ****         while (__HAL_RCC_GET_FLAG(RCC_FLAG_PLLRDY) == RESET)
 505:Drivers/STM32F4xx_HAL_Driver/Src/stm32f4xx_hal_rcc.c ****         {
 506:Drivers/STM32F4xx_HAL_Driver/Src/stm32f4xx_hal_rcc.c ****           if ((HAL_GetTick() - tickstart) > PLL_TIMEOUT_VALUE)
 507:Drivers/STM32F4xx_HAL_Driver/Src/stm32f4xx_hal_rcc.c ****           {
 508:Drivers/STM32F4xx_HAL_Driver/Src/stm32f4xx_hal_rcc.c ****             return HAL_TIMEOUT;
 509:Drivers/STM32F4xx_HAL_Driver/Src/stm32f4xx_hal_rcc.c ****           }
 510:Drivers/STM32F4xx_HAL_Driver/Src/stm32f4xx_hal_rcc.c ****         }
 511:Drivers/STM32F4xx_HAL_Driver/Src/stm32f4xx_hal_rcc.c ****       }
 512:Drivers/STM32F4xx_HAL_Driver/Src/stm32f4xx_hal_rcc.c ****       else
 513:Drivers/STM32F4xx_HAL_Driver/Src/stm32f4xx_hal_rcc.c ****       {
 514:Drivers/STM32F4xx_HAL_Driver/Src/stm32f4xx_hal_rcc.c ****         /* Disable the main PLL. */
 515:Drivers/STM32F4xx_HAL_Driver/Src/stm32f4xx_hal_rcc.c ****         __HAL_RCC_PLL_DISABLE();
 653              		.loc 1 515 9 is_stmt 1 view .LVU219
 654 02dc 494B     		ldr	r3, .L96+4
 655 02de 0022     		movs	r2, #0
 656 02e0 1A66     		str	r2, [r3, #96]
 516:Drivers/STM32F4xx_HAL_Driver/Src/stm32f4xx_hal_rcc.c **** 
 517:Drivers/STM32F4xx_HAL_Driver/Src/stm32f4xx_hal_rcc.c ****         /* Get Start Tick */
 518:Drivers/STM32F4xx_HAL_Driver/Src/stm32f4xx_hal_rcc.c ****         tickstart = HAL_GetTick();
 657              		.loc 1 518 9 view .LVU220
 658              		.loc 1 518 21 is_stmt 0 view .LVU221
 659 02e2 FFF7FEFF 		bl	HAL_GetTick
 660              	.LVL42:
 661 02e6 0446     		mov	r4, r0
 662              	.LVL43:
 519:Drivers/STM32F4xx_HAL_Driver/Src/stm32f4xx_hal_rcc.c **** 
 520:Drivers/STM32F4xx_HAL_Driver/Src/stm32f4xx_hal_rcc.c ****         /* Wait till PLL is disabled */
 521:Drivers/STM32F4xx_HAL_Driver/Src/stm32f4xx_hal_rcc.c ****         while (__HAL_RCC_GET_FLAG(RCC_FLAG_PLLRDY) != RESET)
 663              		.loc 1 521 9 is_stmt 1 view .LVU222
 664              	.L50:
 665              		.loc 1 521 52 view .LVU223
 666              		.loc 1 521 16 is_stmt 0 view .LVU224
 667 02e8 454B     		ldr	r3, .L96
 668 02ea 1B68     		ldr	r3, [r3]
 669              		.loc 1 521 52 view .LVU225
 670 02ec 13F0007F 		tst	r3, #33554432
 671 02f0 42D0     		beq	.L91
 522:Drivers/STM32F4xx_HAL_Driver/Src/stm32f4xx_hal_rcc.c ****         {
 523:Drivers/STM32F4xx_HAL_Driver/Src/stm32f4xx_hal_rcc.c ****           if ((HAL_GetTick() - tickstart) > PLL_TIMEOUT_VALUE)
 672              		.loc 1 523 11 is_stmt 1 view .LVU226
ARM GAS  C:\Users\Rick\AppData\Local\Temp\ccWRFpbY.s 			page 23


 673              		.loc 1 523 16 is_stmt 0 view .LVU227
 674 02f2 FFF7FEFF 		bl	HAL_GetTick
 675              	.LVL44:
 676              		.loc 1 523 30 discriminator 1 view .LVU228
 677 02f6 001B     		subs	r0, r0, r4
 678              		.loc 1 523 14 discriminator 1 view .LVU229
 679 02f8 0228     		cmp	r0, #2
 680 02fa F5D9     		bls	.L50
 524:Drivers/STM32F4xx_HAL_Driver/Src/stm32f4xx_hal_rcc.c ****           {
 525:Drivers/STM32F4xx_HAL_Driver/Src/stm32f4xx_hal_rcc.c ****             return HAL_TIMEOUT;
 681              		.loc 1 525 20 view .LVU230
 682 02fc 0320     		movs	r0, #3
 683 02fe 6FE0     		b	.L3
 684              	.LVL45:
 685              	.L89:
 686              	.LBB4:
 456:Drivers/STM32F4xx_HAL_Driver/Src/stm32f4xx_hal_rcc.c ****     }
 687              		.loc 1 456 7 is_stmt 1 view .LVU231
 688 0300 3F4A     		ldr	r2, .L96
 689 0302 136C     		ldr	r3, [r2, #64]
 690 0304 23F08053 		bic	r3, r3, #268435456
 691 0308 1364     		str	r3, [r2, #64]
 692 030a DBE7     		b	.L30
 693              	.LVL46:
 694              	.L90:
 456:Drivers/STM32F4xx_HAL_Driver/Src/stm32f4xx_hal_rcc.c ****     }
 695              		.loc 1 456 7 is_stmt 0 view .LVU232
 696              	.LBE4:
 470:Drivers/STM32F4xx_HAL_Driver/Src/stm32f4xx_hal_rcc.c ****         assert_param(IS_RCC_PLLM_VALUE(RCC_OscInitStruct->PLL.PLLM));
 697              		.loc 1 470 9 is_stmt 1 view .LVU233
 471:Drivers/STM32F4xx_HAL_Driver/Src/stm32f4xx_hal_rcc.c ****         assert_param(IS_RCC_PLLN_VALUE(RCC_OscInitStruct->PLL.PLLN));
 698              		.loc 1 471 9 view .LVU234
 472:Drivers/STM32F4xx_HAL_Driver/Src/stm32f4xx_hal_rcc.c ****         assert_param(IS_RCC_PLLP_VALUE(RCC_OscInitStruct->PLL.PLLP));
 699              		.loc 1 472 9 view .LVU235
 473:Drivers/STM32F4xx_HAL_Driver/Src/stm32f4xx_hal_rcc.c ****         assert_param(IS_RCC_PLLQ_VALUE(RCC_OscInitStruct->PLL.PLLQ));
 700              		.loc 1 473 9 view .LVU236
 474:Drivers/STM32F4xx_HAL_Driver/Src/stm32f4xx_hal_rcc.c **** 
 701              		.loc 1 474 9 view .LVU237
 477:Drivers/STM32F4xx_HAL_Driver/Src/stm32f4xx_hal_rcc.c **** 
 702              		.loc 1 477 9 view .LVU238
 703 030c 3D4B     		ldr	r3, .L96+4
 704 030e 0022     		movs	r2, #0
 705 0310 1A66     		str	r2, [r3, #96]
 480:Drivers/STM32F4xx_HAL_Driver/Src/stm32f4xx_hal_rcc.c **** 
 706              		.loc 1 480 9 view .LVU239
 480:Drivers/STM32F4xx_HAL_Driver/Src/stm32f4xx_hal_rcc.c **** 
 707              		.loc 1 480 21 is_stmt 0 view .LVU240
 708 0312 FFF7FEFF 		bl	HAL_GetTick
 709              	.LVL47:
 710 0316 0546     		mov	r5, r0
 711              	.LVL48:
 483:Drivers/STM32F4xx_HAL_Driver/Src/stm32f4xx_hal_rcc.c ****         {
 712              		.loc 1 483 9 is_stmt 1 view .LVU241
 713              	.L46:
 483:Drivers/STM32F4xx_HAL_Driver/Src/stm32f4xx_hal_rcc.c ****         {
 714              		.loc 1 483 52 view .LVU242
 483:Drivers/STM32F4xx_HAL_Driver/Src/stm32f4xx_hal_rcc.c ****         {
ARM GAS  C:\Users\Rick\AppData\Local\Temp\ccWRFpbY.s 			page 24


 715              		.loc 1 483 16 is_stmt 0 view .LVU243
 716 0318 394B     		ldr	r3, .L96
 717 031a 1B68     		ldr	r3, [r3]
 483:Drivers/STM32F4xx_HAL_Driver/Src/stm32f4xx_hal_rcc.c ****         {
 718              		.loc 1 483 52 view .LVU244
 719 031c 13F0007F 		tst	r3, #33554432
 720 0320 06D0     		beq	.L92
 485:Drivers/STM32F4xx_HAL_Driver/Src/stm32f4xx_hal_rcc.c ****           {
 721              		.loc 1 485 11 is_stmt 1 view .LVU245
 485:Drivers/STM32F4xx_HAL_Driver/Src/stm32f4xx_hal_rcc.c ****           {
 722              		.loc 1 485 16 is_stmt 0 view .LVU246
 723 0322 FFF7FEFF 		bl	HAL_GetTick
 724              	.LVL49:
 485:Drivers/STM32F4xx_HAL_Driver/Src/stm32f4xx_hal_rcc.c ****           {
 725              		.loc 1 485 30 discriminator 1 view .LVU247
 726 0326 401B     		subs	r0, r0, r5
 485:Drivers/STM32F4xx_HAL_Driver/Src/stm32f4xx_hal_rcc.c ****           {
 727              		.loc 1 485 14 discriminator 1 view .LVU248
 728 0328 0228     		cmp	r0, #2
 729 032a F5D9     		bls	.L46
 487:Drivers/STM32F4xx_HAL_Driver/Src/stm32f4xx_hal_rcc.c ****           }
 730              		.loc 1 487 20 view .LVU249
 731 032c 0320     		movs	r0, #3
 732 032e 57E0     		b	.L3
 733              	.L92:
 492:Drivers/STM32F4xx_HAL_Driver/Src/stm32f4xx_hal_rcc.c ****                                  RCC_OscInitStruct->PLL.PLLM                                       
 734              		.loc 1 492 9 is_stmt 1 view .LVU250
 735 0330 E369     		ldr	r3, [r4, #28]
 736 0332 226A     		ldr	r2, [r4, #32]
 737 0334 1343     		orrs	r3, r3, r2
 738 0336 626A     		ldr	r2, [r4, #36]
 739 0338 43EA8213 		orr	r3, r3, r2, lsl #6
 740 033c A26A     		ldr	r2, [r4, #40]
 741 033e 5208     		lsrs	r2, r2, #1
 742 0340 013A     		subs	r2, r2, #1
 743 0342 43EA0243 		orr	r3, r3, r2, lsl #16
 744 0346 E26A     		ldr	r2, [r4, #44]
 745 0348 43EA0263 		orr	r3, r3, r2, lsl #24
 746 034c 2C4A     		ldr	r2, .L96
 747 034e 5360     		str	r3, [r2, #4]
 498:Drivers/STM32F4xx_HAL_Driver/Src/stm32f4xx_hal_rcc.c **** 
 748              		.loc 1 498 9 view .LVU251
 749 0350 2C4B     		ldr	r3, .L96+4
 750 0352 0122     		movs	r2, #1
 751 0354 1A66     		str	r2, [r3, #96]
 501:Drivers/STM32F4xx_HAL_Driver/Src/stm32f4xx_hal_rcc.c **** 
 752              		.loc 1 501 9 view .LVU252
 501:Drivers/STM32F4xx_HAL_Driver/Src/stm32f4xx_hal_rcc.c **** 
 753              		.loc 1 501 21 is_stmt 0 view .LVU253
 754 0356 FFF7FEFF 		bl	HAL_GetTick
 755              	.LVL50:
 756 035a 0446     		mov	r4, r0
 757              	.LVL51:
 504:Drivers/STM32F4xx_HAL_Driver/Src/stm32f4xx_hal_rcc.c ****         {
 758              		.loc 1 504 9 is_stmt 1 view .LVU254
 759              	.L48:
 504:Drivers/STM32F4xx_HAL_Driver/Src/stm32f4xx_hal_rcc.c ****         {
ARM GAS  C:\Users\Rick\AppData\Local\Temp\ccWRFpbY.s 			page 25


 760              		.loc 1 504 52 view .LVU255
 504:Drivers/STM32F4xx_HAL_Driver/Src/stm32f4xx_hal_rcc.c ****         {
 761              		.loc 1 504 16 is_stmt 0 view .LVU256
 762 035c 284B     		ldr	r3, .L96
 763 035e 1B68     		ldr	r3, [r3]
 504:Drivers/STM32F4xx_HAL_Driver/Src/stm32f4xx_hal_rcc.c ****         {
 764              		.loc 1 504 52 view .LVU257
 765 0360 13F0007F 		tst	r3, #33554432
 766 0364 06D1     		bne	.L93
 506:Drivers/STM32F4xx_HAL_Driver/Src/stm32f4xx_hal_rcc.c ****           {
 767              		.loc 1 506 11 is_stmt 1 view .LVU258
 506:Drivers/STM32F4xx_HAL_Driver/Src/stm32f4xx_hal_rcc.c ****           {
 768              		.loc 1 506 16 is_stmt 0 view .LVU259
 769 0366 FFF7FEFF 		bl	HAL_GetTick
 770              	.LVL52:
 506:Drivers/STM32F4xx_HAL_Driver/Src/stm32f4xx_hal_rcc.c ****           {
 771              		.loc 1 506 30 discriminator 1 view .LVU260
 772 036a 001B     		subs	r0, r0, r4
 506:Drivers/STM32F4xx_HAL_Driver/Src/stm32f4xx_hal_rcc.c ****           {
 773              		.loc 1 506 14 discriminator 1 view .LVU261
 774 036c 0228     		cmp	r0, #2
 775 036e F5D9     		bls	.L48
 508:Drivers/STM32F4xx_HAL_Driver/Src/stm32f4xx_hal_rcc.c ****           }
 776              		.loc 1 508 20 view .LVU262
 777 0370 0320     		movs	r0, #3
 778 0372 35E0     		b	.L3
 779              	.L93:
 526:Drivers/STM32F4xx_HAL_Driver/Src/stm32f4xx_hal_rcc.c ****           }
 527:Drivers/STM32F4xx_HAL_Driver/Src/stm32f4xx_hal_rcc.c ****         }
 528:Drivers/STM32F4xx_HAL_Driver/Src/stm32f4xx_hal_rcc.c ****       }
 529:Drivers/STM32F4xx_HAL_Driver/Src/stm32f4xx_hal_rcc.c ****     }
 530:Drivers/STM32F4xx_HAL_Driver/Src/stm32f4xx_hal_rcc.c ****     else
 531:Drivers/STM32F4xx_HAL_Driver/Src/stm32f4xx_hal_rcc.c ****     {
 532:Drivers/STM32F4xx_HAL_Driver/Src/stm32f4xx_hal_rcc.c ****       /* Check if there is a request to disable the PLL used as System clock source */
 533:Drivers/STM32F4xx_HAL_Driver/Src/stm32f4xx_hal_rcc.c ****       if ((RCC_OscInitStruct->PLL.PLLState) == RCC_PLL_OFF)
 534:Drivers/STM32F4xx_HAL_Driver/Src/stm32f4xx_hal_rcc.c ****       {
 535:Drivers/STM32F4xx_HAL_Driver/Src/stm32f4xx_hal_rcc.c ****         return HAL_ERROR;
 536:Drivers/STM32F4xx_HAL_Driver/Src/stm32f4xx_hal_rcc.c ****       }
 537:Drivers/STM32F4xx_HAL_Driver/Src/stm32f4xx_hal_rcc.c ****       else
 538:Drivers/STM32F4xx_HAL_Driver/Src/stm32f4xx_hal_rcc.c ****       {
 539:Drivers/STM32F4xx_HAL_Driver/Src/stm32f4xx_hal_rcc.c ****         /* Do not return HAL_ERROR if request repeats the current configuration */
 540:Drivers/STM32F4xx_HAL_Driver/Src/stm32f4xx_hal_rcc.c ****         pll_config = RCC->PLLCFGR;
 541:Drivers/STM32F4xx_HAL_Driver/Src/stm32f4xx_hal_rcc.c **** #if defined (RCC_PLLCFGR_PLLR)
 542:Drivers/STM32F4xx_HAL_Driver/Src/stm32f4xx_hal_rcc.c ****         if (((RCC_OscInitStruct->PLL.PLLState) == RCC_PLL_OFF) ||
 543:Drivers/STM32F4xx_HAL_Driver/Src/stm32f4xx_hal_rcc.c ****             (READ_BIT(pll_config, RCC_PLLCFGR_PLLSRC) != RCC_OscInitStruct->PLL.PLLSource) ||
 544:Drivers/STM32F4xx_HAL_Driver/Src/stm32f4xx_hal_rcc.c ****             (READ_BIT(pll_config, RCC_PLLCFGR_PLLM) != (RCC_OscInitStruct->PLL.PLLM) << RCC_PLLCFGR
 545:Drivers/STM32F4xx_HAL_Driver/Src/stm32f4xx_hal_rcc.c ****             (READ_BIT(pll_config, RCC_PLLCFGR_PLLN) != (RCC_OscInitStruct->PLL.PLLN) << RCC_PLLCFGR
 546:Drivers/STM32F4xx_HAL_Driver/Src/stm32f4xx_hal_rcc.c ****             (READ_BIT(pll_config, RCC_PLLCFGR_PLLP) != (((RCC_OscInitStruct->PLL.PLLP >> 1U) - 1U))
 547:Drivers/STM32F4xx_HAL_Driver/Src/stm32f4xx_hal_rcc.c ****             (READ_BIT(pll_config, RCC_PLLCFGR_PLLQ) != (RCC_OscInitStruct->PLL.PLLQ << RCC_PLLCFGR_
 548:Drivers/STM32F4xx_HAL_Driver/Src/stm32f4xx_hal_rcc.c ****             (READ_BIT(pll_config, RCC_PLLCFGR_PLLR) != (RCC_OscInitStruct->PLL.PLLR << RCC_PLLCFGR_
 549:Drivers/STM32F4xx_HAL_Driver/Src/stm32f4xx_hal_rcc.c **** #else
 550:Drivers/STM32F4xx_HAL_Driver/Src/stm32f4xx_hal_rcc.c ****         if (((RCC_OscInitStruct->PLL.PLLState) == RCC_PLL_OFF) ||
 551:Drivers/STM32F4xx_HAL_Driver/Src/stm32f4xx_hal_rcc.c ****             (READ_BIT(pll_config, RCC_PLLCFGR_PLLSRC) != RCC_OscInitStruct->PLL.PLLSource) ||
 552:Drivers/STM32F4xx_HAL_Driver/Src/stm32f4xx_hal_rcc.c ****             (READ_BIT(pll_config, RCC_PLLCFGR_PLLM) != (RCC_OscInitStruct->PLL.PLLM) << RCC_PLLCFGR
 553:Drivers/STM32F4xx_HAL_Driver/Src/stm32f4xx_hal_rcc.c ****             (READ_BIT(pll_config, RCC_PLLCFGR_PLLN) != (RCC_OscInitStruct->PLL.PLLN) << RCC_PLLCFGR
 554:Drivers/STM32F4xx_HAL_Driver/Src/stm32f4xx_hal_rcc.c ****             (READ_BIT(pll_config, RCC_PLLCFGR_PLLP) != (((RCC_OscInitStruct->PLL.PLLP >> 1U) - 1U))
 555:Drivers/STM32F4xx_HAL_Driver/Src/stm32f4xx_hal_rcc.c ****             (READ_BIT(pll_config, RCC_PLLCFGR_PLLQ) != (RCC_OscInitStruct->PLL.PLLQ << RCC_PLLCFGR_
ARM GAS  C:\Users\Rick\AppData\Local\Temp\ccWRFpbY.s 			page 26


 556:Drivers/STM32F4xx_HAL_Driver/Src/stm32f4xx_hal_rcc.c **** #endif /* RCC_PLLCFGR_PLLR */
 557:Drivers/STM32F4xx_HAL_Driver/Src/stm32f4xx_hal_rcc.c ****         {
 558:Drivers/STM32F4xx_HAL_Driver/Src/stm32f4xx_hal_rcc.c ****           return HAL_ERROR;
 559:Drivers/STM32F4xx_HAL_Driver/Src/stm32f4xx_hal_rcc.c ****         }
 560:Drivers/STM32F4xx_HAL_Driver/Src/stm32f4xx_hal_rcc.c ****       }
 561:Drivers/STM32F4xx_HAL_Driver/Src/stm32f4xx_hal_rcc.c ****     }
 562:Drivers/STM32F4xx_HAL_Driver/Src/stm32f4xx_hal_rcc.c ****   }
 563:Drivers/STM32F4xx_HAL_Driver/Src/stm32f4xx_hal_rcc.c ****   return HAL_OK;
 780              		.loc 1 563 10 view .LVU263
 781 0374 0020     		movs	r0, #0
 782 0376 33E0     		b	.L3
 783              	.L91:
 784              		.loc 1 563 10 view .LVU264
 785 0378 0020     		movs	r0, #0
 786 037a 31E0     		b	.L3
 787              	.LVL53:
 788              	.L44:
 533:Drivers/STM32F4xx_HAL_Driver/Src/stm32f4xx_hal_rcc.c ****       {
 789              		.loc 1 533 7 is_stmt 1 view .LVU265
 533:Drivers/STM32F4xx_HAL_Driver/Src/stm32f4xx_hal_rcc.c ****       {
 790              		.loc 1 533 10 is_stmt 0 view .LVU266
 791 037c 012B     		cmp	r3, #1
 792 037e 31D0     		beq	.L69
 540:Drivers/STM32F4xx_HAL_Driver/Src/stm32f4xx_hal_rcc.c **** #if defined (RCC_PLLCFGR_PLLR)
 793              		.loc 1 540 9 is_stmt 1 view .LVU267
 540:Drivers/STM32F4xx_HAL_Driver/Src/stm32f4xx_hal_rcc.c **** #if defined (RCC_PLLCFGR_PLLR)
 794              		.loc 1 540 20 is_stmt 0 view .LVU268
 795 0380 1F4B     		ldr	r3, .L96
 796 0382 5B68     		ldr	r3, [r3, #4]
 797              	.LVL54:
 542:Drivers/STM32F4xx_HAL_Driver/Src/stm32f4xx_hal_rcc.c ****             (READ_BIT(pll_config, RCC_PLLCFGR_PLLSRC) != RCC_OscInitStruct->PLL.PLLSource) ||
 798              		.loc 1 542 9 is_stmt 1 view .LVU269
 543:Drivers/STM32F4xx_HAL_Driver/Src/stm32f4xx_hal_rcc.c ****             (READ_BIT(pll_config, RCC_PLLCFGR_PLLM) != (RCC_OscInitStruct->PLL.PLLM) << RCC_PLLCFGR
 799              		.loc 1 543 14 is_stmt 0 view .LVU270
 800 0384 03F48001 		and	r1, r3, #4194304
 543:Drivers/STM32F4xx_HAL_Driver/Src/stm32f4xx_hal_rcc.c ****             (READ_BIT(pll_config, RCC_PLLCFGR_PLLM) != (RCC_OscInitStruct->PLL.PLLM) << RCC_PLLCFGR
 801              		.loc 1 543 80 view .LVU271
 802 0388 E269     		ldr	r2, [r4, #28]
 542:Drivers/STM32F4xx_HAL_Driver/Src/stm32f4xx_hal_rcc.c ****             (READ_BIT(pll_config, RCC_PLLCFGR_PLLSRC) != RCC_OscInitStruct->PLL.PLLSource) ||
 803              		.loc 1 542 64 discriminator 1 view .LVU272
 804 038a 9142     		cmp	r1, r2
 805 038c 2CD1     		bne	.L70
 544:Drivers/STM32F4xx_HAL_Driver/Src/stm32f4xx_hal_rcc.c ****             (READ_BIT(pll_config, RCC_PLLCFGR_PLLN) != (RCC_OscInitStruct->PLL.PLLN) << RCC_PLLCFGR
 806              		.loc 1 544 14 view .LVU273
 807 038e 03F03F02 		and	r2, r3, #63
 544:Drivers/STM32F4xx_HAL_Driver/Src/stm32f4xx_hal_rcc.c ****             (READ_BIT(pll_config, RCC_PLLCFGR_PLLN) != (RCC_OscInitStruct->PLL.PLLN) << RCC_PLLCFGR
 808              		.loc 1 544 86 view .LVU274
 809 0392 216A     		ldr	r1, [r4, #32]
 543:Drivers/STM32F4xx_HAL_Driver/Src/stm32f4xx_hal_rcc.c ****             (READ_BIT(pll_config, RCC_PLLCFGR_PLLM) != (RCC_OscInitStruct->PLL.PLLM) << RCC_PLLCFGR
 810              		.loc 1 543 92 view .LVU275
 811 0394 8A42     		cmp	r2, r1
 812 0396 29D1     		bne	.L71
 545:Drivers/STM32F4xx_HAL_Driver/Src/stm32f4xx_hal_rcc.c ****             (READ_BIT(pll_config, RCC_PLLCFGR_PLLP) != (((RCC_OscInitStruct->PLL.PLLP >> 1U) - 1U))
 813              		.loc 1 545 79 view .LVU276
 814 0398 616A     		ldr	r1, [r4, #36]
 544:Drivers/STM32F4xx_HAL_Driver/Src/stm32f4xx_hal_rcc.c ****             (READ_BIT(pll_config, RCC_PLLCFGR_PLLN) != (RCC_OscInitStruct->PLL.PLLN) << RCC_PLLCFGR
 815              		.loc 1 544 111 view .LVU277
ARM GAS  C:\Users\Rick\AppData\Local\Temp\ccWRFpbY.s 			page 27


 816 039a 47F6C072 		movw	r2, #32704
 817 039e 1A40     		ands	r2, r2, r3
 818 03a0 B2EB811F 		cmp	r2, r1, lsl #6
 819 03a4 24D1     		bne	.L72
 546:Drivers/STM32F4xx_HAL_Driver/Src/stm32f4xx_hal_rcc.c ****             (READ_BIT(pll_config, RCC_PLLCFGR_PLLQ) != (RCC_OscInitStruct->PLL.PLLQ << RCC_PLLCFGR_
 820              		.loc 1 546 14 view .LVU278
 821 03a6 03F44031 		and	r1, r3, #196608
 546:Drivers/STM32F4xx_HAL_Driver/Src/stm32f4xx_hal_rcc.c ****             (READ_BIT(pll_config, RCC_PLLCFGR_PLLQ) != (RCC_OscInitStruct->PLL.PLLQ << RCC_PLLCFGR_
 822              		.loc 1 546 81 view .LVU279
 823 03aa A26A     		ldr	r2, [r4, #40]
 546:Drivers/STM32F4xx_HAL_Driver/Src/stm32f4xx_hal_rcc.c ****             (READ_BIT(pll_config, RCC_PLLCFGR_PLLQ) != (RCC_OscInitStruct->PLL.PLLQ << RCC_PLLCFGR_
 824              		.loc 1 546 87 view .LVU280
 825 03ac 5208     		lsrs	r2, r2, #1
 546:Drivers/STM32F4xx_HAL_Driver/Src/stm32f4xx_hal_rcc.c ****             (READ_BIT(pll_config, RCC_PLLCFGR_PLLQ) != (RCC_OscInitStruct->PLL.PLLQ << RCC_PLLCFGR_
 826              		.loc 1 546 94 view .LVU281
 827 03ae 013A     		subs	r2, r2, #1
 545:Drivers/STM32F4xx_HAL_Driver/Src/stm32f4xx_hal_rcc.c ****             (READ_BIT(pll_config, RCC_PLLCFGR_PLLP) != (((RCC_OscInitStruct->PLL.PLLP >> 1U) - 1U))
 828              		.loc 1 545 111 view .LVU282
 829 03b0 B1EB024F 		cmp	r1, r2, lsl #16
 830 03b4 1ED1     		bne	.L73
 547:Drivers/STM32F4xx_HAL_Driver/Src/stm32f4xx_hal_rcc.c ****             (READ_BIT(pll_config, RCC_PLLCFGR_PLLR) != (RCC_OscInitStruct->PLL.PLLR << RCC_PLLCFGR_
 831              		.loc 1 547 14 view .LVU283
 832 03b6 03F07062 		and	r2, r3, #251658240
 547:Drivers/STM32F4xx_HAL_Driver/Src/stm32f4xx_hal_rcc.c ****             (READ_BIT(pll_config, RCC_PLLCFGR_PLLR) != (RCC_OscInitStruct->PLL.PLLR << RCC_PLLCFGR_
 833              		.loc 1 547 79 view .LVU284
 834 03ba E16A     		ldr	r1, [r4, #44]
 546:Drivers/STM32F4xx_HAL_Driver/Src/stm32f4xx_hal_rcc.c ****             (READ_BIT(pll_config, RCC_PLLCFGR_PLLQ) != (RCC_OscInitStruct->PLL.PLLQ << RCC_PLLCFGR_
 835              		.loc 1 546 126 view .LVU285
 836 03bc B2EB016F 		cmp	r2, r1, lsl #24
 837 03c0 1AD1     		bne	.L74
 548:Drivers/STM32F4xx_HAL_Driver/Src/stm32f4xx_hal_rcc.c **** #else
 838              		.loc 1 548 14 view .LVU286
 839 03c2 03F0E043 		and	r3, r3, #1879048192
 840              	.LVL55:
 548:Drivers/STM32F4xx_HAL_Driver/Src/stm32f4xx_hal_rcc.c **** #else
 841              		.loc 1 548 79 view .LVU287
 842 03c6 226B     		ldr	r2, [r4, #48]
 547:Drivers/STM32F4xx_HAL_Driver/Src/stm32f4xx_hal_rcc.c ****             (READ_BIT(pll_config, RCC_PLLCFGR_PLLR) != (RCC_OscInitStruct->PLL.PLLR << RCC_PLLCFGR_
 843              		.loc 1 547 111 view .LVU288
 844 03c8 B3EB027F 		cmp	r3, r2, lsl #28
 845 03cc 16D1     		bne	.L75
 846              		.loc 1 563 10 view .LVU289
 847 03ce 0020     		movs	r0, #0
 848 03d0 06E0     		b	.L3
 849              	.LVL56:
 850              	.L52:
 851              		.cfi_def_cfa_offset 0
 852              		.cfi_restore 4
 853              		.cfi_restore 5
 854              		.cfi_restore 6
 855              		.cfi_restore 14
 226:Drivers/STM32F4xx_HAL_Driver/Src/stm32f4xx_hal_rcc.c ****   }
 856              		.loc 1 226 12 view .LVU290
 857 03d2 0120     		movs	r0, #1
 858              	.LVL57:
 564:Drivers/STM32F4xx_HAL_Driver/Src/stm32f4xx_hal_rcc.c **** }
 859              		.loc 1 564 1 view .LVU291
ARM GAS  C:\Users\Rick\AppData\Local\Temp\ccWRFpbY.s 			page 28


 860 03d4 7047     		bx	lr
 861              	.LVL58:
 862              	.L83:
 863              		.cfi_def_cfa_offset 24
 864              		.cfi_offset 4, -16
 865              		.cfi_offset 5, -12
 866              		.cfi_offset 6, -8
 867              		.cfi_offset 14, -4
 242:Drivers/STM32F4xx_HAL_Driver/Src/stm32f4xx_hal_rcc.c ****       }
 868              		.loc 1 242 16 view .LVU292
 869 03d6 0120     		movs	r0, #1
 870              	.LVL59:
 242:Drivers/STM32F4xx_HAL_Driver/Src/stm32f4xx_hal_rcc.c ****       }
 871              		.loc 1 242 16 view .LVU293
 872 03d8 02E0     		b	.L3
 873              	.L56:
 295:Drivers/STM32F4xx_HAL_Driver/Src/stm32f4xx_hal_rcc.c ****       }
 874              		.loc 1 295 16 view .LVU294
 875 03da 0120     		movs	r0, #1
 876 03dc 00E0     		b	.L3
 877              	.L65:
 563:Drivers/STM32F4xx_HAL_Driver/Src/stm32f4xx_hal_rcc.c **** }
 878              		.loc 1 563 10 view .LVU295
 879 03de 0020     		movs	r0, #0
 880              	.LVL60:
 881              	.L3:
 882              		.loc 1 564 1 view .LVU296
 883 03e0 02B0     		add	sp, sp, #8
 884              		.cfi_remember_state
 885              		.cfi_def_cfa_offset 16
 886              		@ sp needed
 887 03e2 70BD     		pop	{r4, r5, r6, pc}
 888              	.LVL61:
 889              	.L69:
 890              		.cfi_restore_state
 535:Drivers/STM32F4xx_HAL_Driver/Src/stm32f4xx_hal_rcc.c ****       }
 891              		.loc 1 535 16 view .LVU297
 892 03e4 0120     		movs	r0, #1
 893 03e6 FBE7     		b	.L3
 894              	.LVL62:
 895              	.L70:
 558:Drivers/STM32F4xx_HAL_Driver/Src/stm32f4xx_hal_rcc.c ****         }
 896              		.loc 1 558 18 view .LVU298
 897 03e8 0120     		movs	r0, #1
 898 03ea F9E7     		b	.L3
 899              	.L71:
 900 03ec 0120     		movs	r0, #1
 901 03ee F7E7     		b	.L3
 902              	.L72:
 903 03f0 0120     		movs	r0, #1
 904 03f2 F5E7     		b	.L3
 905              	.L73:
 906 03f4 0120     		movs	r0, #1
 907 03f6 F3E7     		b	.L3
 908              	.L74:
 909 03f8 0120     		movs	r0, #1
 910 03fa F1E7     		b	.L3
ARM GAS  C:\Users\Rick\AppData\Local\Temp\ccWRFpbY.s 			page 29


 911              	.LVL63:
 912              	.L75:
 558:Drivers/STM32F4xx_HAL_Driver/Src/stm32f4xx_hal_rcc.c ****         }
 913              		.loc 1 558 18 view .LVU299
 914 03fc 0120     		movs	r0, #1
 915 03fe EFE7     		b	.L3
 916              	.L97:
 917              		.align	2
 918              	.L96:
 919 0400 00380240 		.word	1073887232
 920 0404 00004742 		.word	1111949312
 921              		.cfi_endproc
 922              	.LFE240:
 924              		.section	.text.HAL_RCC_MCOConfig,"ax",%progbits
 925              		.align	1
 926              		.global	HAL_RCC_MCOConfig
 927              		.syntax unified
 928              		.thumb
 929              		.thumb_func
 931              	HAL_RCC_MCOConfig:
 932              	.LVL64:
 933              	.LFB242:
 565:Drivers/STM32F4xx_HAL_Driver/Src/stm32f4xx_hal_rcc.c **** 
 566:Drivers/STM32F4xx_HAL_Driver/Src/stm32f4xx_hal_rcc.c **** /**
 567:Drivers/STM32F4xx_HAL_Driver/Src/stm32f4xx_hal_rcc.c ****   * @brief  Initializes the CPU, AHB and APB busses clocks according to the specified
 568:Drivers/STM32F4xx_HAL_Driver/Src/stm32f4xx_hal_rcc.c ****   *         parameters in the RCC_ClkInitStruct.
 569:Drivers/STM32F4xx_HAL_Driver/Src/stm32f4xx_hal_rcc.c ****   * @param  RCC_ClkInitStruct pointer to an RCC_OscInitTypeDef structure that
 570:Drivers/STM32F4xx_HAL_Driver/Src/stm32f4xx_hal_rcc.c ****   *         contains the configuration information for the RCC peripheral.
 571:Drivers/STM32F4xx_HAL_Driver/Src/stm32f4xx_hal_rcc.c ****   * @param  FLatency FLASH Latency, this parameter depend on device selected
 572:Drivers/STM32F4xx_HAL_Driver/Src/stm32f4xx_hal_rcc.c ****   *
 573:Drivers/STM32F4xx_HAL_Driver/Src/stm32f4xx_hal_rcc.c ****   * @note   The SystemCoreClock CMSIS variable is used to store System Clock Frequency
 574:Drivers/STM32F4xx_HAL_Driver/Src/stm32f4xx_hal_rcc.c ****   *         and updated by HAL_RCC_GetHCLKFreq() function called within this function
 575:Drivers/STM32F4xx_HAL_Driver/Src/stm32f4xx_hal_rcc.c ****   *
 576:Drivers/STM32F4xx_HAL_Driver/Src/stm32f4xx_hal_rcc.c ****   * @note   The HSI is used (enabled by hardware) as system clock source after
 577:Drivers/STM32F4xx_HAL_Driver/Src/stm32f4xx_hal_rcc.c ****   *         startup from Reset, wake-up from STOP and STANDBY mode, or in case
 578:Drivers/STM32F4xx_HAL_Driver/Src/stm32f4xx_hal_rcc.c ****   *         of failure of the HSE used directly or indirectly as system clock
 579:Drivers/STM32F4xx_HAL_Driver/Src/stm32f4xx_hal_rcc.c ****   *         (if the Clock Security System CSS is enabled).
 580:Drivers/STM32F4xx_HAL_Driver/Src/stm32f4xx_hal_rcc.c ****   *
 581:Drivers/STM32F4xx_HAL_Driver/Src/stm32f4xx_hal_rcc.c ****   * @note   A switch from one clock source to another occurs only if the target
 582:Drivers/STM32F4xx_HAL_Driver/Src/stm32f4xx_hal_rcc.c ****   *         clock source is ready (clock stable after startup delay or PLL locked).
 583:Drivers/STM32F4xx_HAL_Driver/Src/stm32f4xx_hal_rcc.c ****   *         If a clock source which is not yet ready is selected, the switch will
 584:Drivers/STM32F4xx_HAL_Driver/Src/stm32f4xx_hal_rcc.c ****   *         occur when the clock source will be ready.
 585:Drivers/STM32F4xx_HAL_Driver/Src/stm32f4xx_hal_rcc.c ****   *
 586:Drivers/STM32F4xx_HAL_Driver/Src/stm32f4xx_hal_rcc.c ****   * @note   Depending on the device voltage range, the software has to set correctly
 587:Drivers/STM32F4xx_HAL_Driver/Src/stm32f4xx_hal_rcc.c ****   *         HPRE[3:0] bits to ensure that HCLK not exceed the maximum allowed frequency
 588:Drivers/STM32F4xx_HAL_Driver/Src/stm32f4xx_hal_rcc.c ****   *         (for more details refer to section above "Initialization/de-initialization functions")
 589:Drivers/STM32F4xx_HAL_Driver/Src/stm32f4xx_hal_rcc.c ****   * @retval None
 590:Drivers/STM32F4xx_HAL_Driver/Src/stm32f4xx_hal_rcc.c ****   */
 591:Drivers/STM32F4xx_HAL_Driver/Src/stm32f4xx_hal_rcc.c **** HAL_StatusTypeDef HAL_RCC_ClockConfig(RCC_ClkInitTypeDef  *RCC_ClkInitStruct, uint32_t FLatency)
 592:Drivers/STM32F4xx_HAL_Driver/Src/stm32f4xx_hal_rcc.c **** {
 593:Drivers/STM32F4xx_HAL_Driver/Src/stm32f4xx_hal_rcc.c ****   uint32_t tickstart;
 594:Drivers/STM32F4xx_HAL_Driver/Src/stm32f4xx_hal_rcc.c **** 
 595:Drivers/STM32F4xx_HAL_Driver/Src/stm32f4xx_hal_rcc.c ****   /* Check Null pointer */
 596:Drivers/STM32F4xx_HAL_Driver/Src/stm32f4xx_hal_rcc.c ****   if (RCC_ClkInitStruct == NULL)
 597:Drivers/STM32F4xx_HAL_Driver/Src/stm32f4xx_hal_rcc.c ****   {
 598:Drivers/STM32F4xx_HAL_Driver/Src/stm32f4xx_hal_rcc.c ****     return HAL_ERROR;
 599:Drivers/STM32F4xx_HAL_Driver/Src/stm32f4xx_hal_rcc.c ****   }
ARM GAS  C:\Users\Rick\AppData\Local\Temp\ccWRFpbY.s 			page 30


 600:Drivers/STM32F4xx_HAL_Driver/Src/stm32f4xx_hal_rcc.c **** 
 601:Drivers/STM32F4xx_HAL_Driver/Src/stm32f4xx_hal_rcc.c ****   /* Check the parameters */
 602:Drivers/STM32F4xx_HAL_Driver/Src/stm32f4xx_hal_rcc.c ****   assert_param(IS_RCC_CLOCKTYPE(RCC_ClkInitStruct->ClockType));
 603:Drivers/STM32F4xx_HAL_Driver/Src/stm32f4xx_hal_rcc.c ****   assert_param(IS_FLASH_LATENCY(FLatency));
 604:Drivers/STM32F4xx_HAL_Driver/Src/stm32f4xx_hal_rcc.c **** 
 605:Drivers/STM32F4xx_HAL_Driver/Src/stm32f4xx_hal_rcc.c ****   /* To correctly read data from FLASH memory, the number of wait states (LATENCY)
 606:Drivers/STM32F4xx_HAL_Driver/Src/stm32f4xx_hal_rcc.c ****     must be correctly programmed according to the frequency of the CPU clock
 607:Drivers/STM32F4xx_HAL_Driver/Src/stm32f4xx_hal_rcc.c ****     (HCLK) and the supply voltage of the device. */
 608:Drivers/STM32F4xx_HAL_Driver/Src/stm32f4xx_hal_rcc.c **** 
 609:Drivers/STM32F4xx_HAL_Driver/Src/stm32f4xx_hal_rcc.c ****   /* Increasing the number of wait states because of higher CPU frequency */
 610:Drivers/STM32F4xx_HAL_Driver/Src/stm32f4xx_hal_rcc.c ****   if (FLatency > __HAL_FLASH_GET_LATENCY())
 611:Drivers/STM32F4xx_HAL_Driver/Src/stm32f4xx_hal_rcc.c ****   {
 612:Drivers/STM32F4xx_HAL_Driver/Src/stm32f4xx_hal_rcc.c ****     /* Program the new number of wait states to the LATENCY bits in the FLASH_ACR register */
 613:Drivers/STM32F4xx_HAL_Driver/Src/stm32f4xx_hal_rcc.c ****     __HAL_FLASH_SET_LATENCY(FLatency);
 614:Drivers/STM32F4xx_HAL_Driver/Src/stm32f4xx_hal_rcc.c **** 
 615:Drivers/STM32F4xx_HAL_Driver/Src/stm32f4xx_hal_rcc.c ****     /* Check that the new number of wait states is taken into account to access the Flash
 616:Drivers/STM32F4xx_HAL_Driver/Src/stm32f4xx_hal_rcc.c ****     memory by reading the FLASH_ACR register */
 617:Drivers/STM32F4xx_HAL_Driver/Src/stm32f4xx_hal_rcc.c ****     if (__HAL_FLASH_GET_LATENCY() != FLatency)
 618:Drivers/STM32F4xx_HAL_Driver/Src/stm32f4xx_hal_rcc.c ****     {
 619:Drivers/STM32F4xx_HAL_Driver/Src/stm32f4xx_hal_rcc.c ****       return HAL_ERROR;
 620:Drivers/STM32F4xx_HAL_Driver/Src/stm32f4xx_hal_rcc.c ****     }
 621:Drivers/STM32F4xx_HAL_Driver/Src/stm32f4xx_hal_rcc.c ****   }
 622:Drivers/STM32F4xx_HAL_Driver/Src/stm32f4xx_hal_rcc.c **** 
 623:Drivers/STM32F4xx_HAL_Driver/Src/stm32f4xx_hal_rcc.c ****   /*-------------------------- HCLK Configuration --------------------------*/
 624:Drivers/STM32F4xx_HAL_Driver/Src/stm32f4xx_hal_rcc.c ****   if (((RCC_ClkInitStruct->ClockType) & RCC_CLOCKTYPE_HCLK) == RCC_CLOCKTYPE_HCLK)
 625:Drivers/STM32F4xx_HAL_Driver/Src/stm32f4xx_hal_rcc.c ****   {
 626:Drivers/STM32F4xx_HAL_Driver/Src/stm32f4xx_hal_rcc.c ****     /* Set the highest APBx dividers in order to ensure that we do not go through
 627:Drivers/STM32F4xx_HAL_Driver/Src/stm32f4xx_hal_rcc.c ****        a non-spec phase whatever we decrease or increase HCLK. */
 628:Drivers/STM32F4xx_HAL_Driver/Src/stm32f4xx_hal_rcc.c ****     if (((RCC_ClkInitStruct->ClockType) & RCC_CLOCKTYPE_PCLK1) == RCC_CLOCKTYPE_PCLK1)
 629:Drivers/STM32F4xx_HAL_Driver/Src/stm32f4xx_hal_rcc.c ****     {
 630:Drivers/STM32F4xx_HAL_Driver/Src/stm32f4xx_hal_rcc.c ****       MODIFY_REG(RCC->CFGR, RCC_CFGR_PPRE1, RCC_HCLK_DIV16);
 631:Drivers/STM32F4xx_HAL_Driver/Src/stm32f4xx_hal_rcc.c ****     }
 632:Drivers/STM32F4xx_HAL_Driver/Src/stm32f4xx_hal_rcc.c **** 
 633:Drivers/STM32F4xx_HAL_Driver/Src/stm32f4xx_hal_rcc.c ****     if (((RCC_ClkInitStruct->ClockType) & RCC_CLOCKTYPE_PCLK2) == RCC_CLOCKTYPE_PCLK2)
 634:Drivers/STM32F4xx_HAL_Driver/Src/stm32f4xx_hal_rcc.c ****     {
 635:Drivers/STM32F4xx_HAL_Driver/Src/stm32f4xx_hal_rcc.c ****       MODIFY_REG(RCC->CFGR, RCC_CFGR_PPRE2, (RCC_HCLK_DIV16 << 3));
 636:Drivers/STM32F4xx_HAL_Driver/Src/stm32f4xx_hal_rcc.c ****     }
 637:Drivers/STM32F4xx_HAL_Driver/Src/stm32f4xx_hal_rcc.c **** 
 638:Drivers/STM32F4xx_HAL_Driver/Src/stm32f4xx_hal_rcc.c ****     assert_param(IS_RCC_HCLK(RCC_ClkInitStruct->AHBCLKDivider));
 639:Drivers/STM32F4xx_HAL_Driver/Src/stm32f4xx_hal_rcc.c ****     MODIFY_REG(RCC->CFGR, RCC_CFGR_HPRE, RCC_ClkInitStruct->AHBCLKDivider);
 640:Drivers/STM32F4xx_HAL_Driver/Src/stm32f4xx_hal_rcc.c ****   }
 641:Drivers/STM32F4xx_HAL_Driver/Src/stm32f4xx_hal_rcc.c **** 
 642:Drivers/STM32F4xx_HAL_Driver/Src/stm32f4xx_hal_rcc.c ****   /*------------------------- SYSCLK Configuration ---------------------------*/
 643:Drivers/STM32F4xx_HAL_Driver/Src/stm32f4xx_hal_rcc.c ****   if (((RCC_ClkInitStruct->ClockType) & RCC_CLOCKTYPE_SYSCLK) == RCC_CLOCKTYPE_SYSCLK)
 644:Drivers/STM32F4xx_HAL_Driver/Src/stm32f4xx_hal_rcc.c ****   {
 645:Drivers/STM32F4xx_HAL_Driver/Src/stm32f4xx_hal_rcc.c ****     assert_param(IS_RCC_SYSCLKSOURCE(RCC_ClkInitStruct->SYSCLKSource));
 646:Drivers/STM32F4xx_HAL_Driver/Src/stm32f4xx_hal_rcc.c **** 
 647:Drivers/STM32F4xx_HAL_Driver/Src/stm32f4xx_hal_rcc.c ****     /* HSE is selected as System Clock Source */
 648:Drivers/STM32F4xx_HAL_Driver/Src/stm32f4xx_hal_rcc.c ****     if (RCC_ClkInitStruct->SYSCLKSource == RCC_SYSCLKSOURCE_HSE)
 649:Drivers/STM32F4xx_HAL_Driver/Src/stm32f4xx_hal_rcc.c ****     {
 650:Drivers/STM32F4xx_HAL_Driver/Src/stm32f4xx_hal_rcc.c ****       /* Check the HSE ready flag */
 651:Drivers/STM32F4xx_HAL_Driver/Src/stm32f4xx_hal_rcc.c ****       if (__HAL_RCC_GET_FLAG(RCC_FLAG_HSERDY) == RESET)
 652:Drivers/STM32F4xx_HAL_Driver/Src/stm32f4xx_hal_rcc.c ****       {
 653:Drivers/STM32F4xx_HAL_Driver/Src/stm32f4xx_hal_rcc.c ****         return HAL_ERROR;
 654:Drivers/STM32F4xx_HAL_Driver/Src/stm32f4xx_hal_rcc.c ****       }
 655:Drivers/STM32F4xx_HAL_Driver/Src/stm32f4xx_hal_rcc.c ****     }
 656:Drivers/STM32F4xx_HAL_Driver/Src/stm32f4xx_hal_rcc.c ****     /* PLL is selected as System Clock Source */
ARM GAS  C:\Users\Rick\AppData\Local\Temp\ccWRFpbY.s 			page 31


 657:Drivers/STM32F4xx_HAL_Driver/Src/stm32f4xx_hal_rcc.c ****     else if ((RCC_ClkInitStruct->SYSCLKSource == RCC_SYSCLKSOURCE_PLLCLK)   ||
 658:Drivers/STM32F4xx_HAL_Driver/Src/stm32f4xx_hal_rcc.c ****              (RCC_ClkInitStruct->SYSCLKSource == RCC_SYSCLKSOURCE_PLLRCLK))
 659:Drivers/STM32F4xx_HAL_Driver/Src/stm32f4xx_hal_rcc.c ****     {
 660:Drivers/STM32F4xx_HAL_Driver/Src/stm32f4xx_hal_rcc.c ****       /* Check the PLL ready flag */
 661:Drivers/STM32F4xx_HAL_Driver/Src/stm32f4xx_hal_rcc.c ****       if (__HAL_RCC_GET_FLAG(RCC_FLAG_PLLRDY) == RESET)
 662:Drivers/STM32F4xx_HAL_Driver/Src/stm32f4xx_hal_rcc.c ****       {
 663:Drivers/STM32F4xx_HAL_Driver/Src/stm32f4xx_hal_rcc.c ****         return HAL_ERROR;
 664:Drivers/STM32F4xx_HAL_Driver/Src/stm32f4xx_hal_rcc.c ****       }
 665:Drivers/STM32F4xx_HAL_Driver/Src/stm32f4xx_hal_rcc.c ****     }
 666:Drivers/STM32F4xx_HAL_Driver/Src/stm32f4xx_hal_rcc.c ****     /* HSI is selected as System Clock Source */
 667:Drivers/STM32F4xx_HAL_Driver/Src/stm32f4xx_hal_rcc.c ****     else
 668:Drivers/STM32F4xx_HAL_Driver/Src/stm32f4xx_hal_rcc.c ****     {
 669:Drivers/STM32F4xx_HAL_Driver/Src/stm32f4xx_hal_rcc.c ****       /* Check the HSI ready flag */
 670:Drivers/STM32F4xx_HAL_Driver/Src/stm32f4xx_hal_rcc.c ****       if (__HAL_RCC_GET_FLAG(RCC_FLAG_HSIRDY) == RESET)
 671:Drivers/STM32F4xx_HAL_Driver/Src/stm32f4xx_hal_rcc.c ****       {
 672:Drivers/STM32F4xx_HAL_Driver/Src/stm32f4xx_hal_rcc.c ****         return HAL_ERROR;
 673:Drivers/STM32F4xx_HAL_Driver/Src/stm32f4xx_hal_rcc.c ****       }
 674:Drivers/STM32F4xx_HAL_Driver/Src/stm32f4xx_hal_rcc.c ****     }
 675:Drivers/STM32F4xx_HAL_Driver/Src/stm32f4xx_hal_rcc.c **** 
 676:Drivers/STM32F4xx_HAL_Driver/Src/stm32f4xx_hal_rcc.c ****     __HAL_RCC_SYSCLK_CONFIG(RCC_ClkInitStruct->SYSCLKSource);
 677:Drivers/STM32F4xx_HAL_Driver/Src/stm32f4xx_hal_rcc.c **** 
 678:Drivers/STM32F4xx_HAL_Driver/Src/stm32f4xx_hal_rcc.c ****     /* Get Start Tick */
 679:Drivers/STM32F4xx_HAL_Driver/Src/stm32f4xx_hal_rcc.c ****     tickstart = HAL_GetTick();
 680:Drivers/STM32F4xx_HAL_Driver/Src/stm32f4xx_hal_rcc.c **** 
 681:Drivers/STM32F4xx_HAL_Driver/Src/stm32f4xx_hal_rcc.c ****     while (__HAL_RCC_GET_SYSCLK_SOURCE() != (RCC_ClkInitStruct->SYSCLKSource << RCC_CFGR_SWS_Pos))
 682:Drivers/STM32F4xx_HAL_Driver/Src/stm32f4xx_hal_rcc.c ****     {
 683:Drivers/STM32F4xx_HAL_Driver/Src/stm32f4xx_hal_rcc.c ****       if ((HAL_GetTick() - tickstart) > CLOCKSWITCH_TIMEOUT_VALUE)
 684:Drivers/STM32F4xx_HAL_Driver/Src/stm32f4xx_hal_rcc.c ****       {
 685:Drivers/STM32F4xx_HAL_Driver/Src/stm32f4xx_hal_rcc.c ****         return HAL_TIMEOUT;
 686:Drivers/STM32F4xx_HAL_Driver/Src/stm32f4xx_hal_rcc.c ****       }
 687:Drivers/STM32F4xx_HAL_Driver/Src/stm32f4xx_hal_rcc.c ****     }
 688:Drivers/STM32F4xx_HAL_Driver/Src/stm32f4xx_hal_rcc.c ****   }
 689:Drivers/STM32F4xx_HAL_Driver/Src/stm32f4xx_hal_rcc.c **** 
 690:Drivers/STM32F4xx_HAL_Driver/Src/stm32f4xx_hal_rcc.c ****   /* Decreasing the number of wait states because of lower CPU frequency */
 691:Drivers/STM32F4xx_HAL_Driver/Src/stm32f4xx_hal_rcc.c ****   if (FLatency < __HAL_FLASH_GET_LATENCY())
 692:Drivers/STM32F4xx_HAL_Driver/Src/stm32f4xx_hal_rcc.c ****   {
 693:Drivers/STM32F4xx_HAL_Driver/Src/stm32f4xx_hal_rcc.c ****     /* Program the new number of wait states to the LATENCY bits in the FLASH_ACR register */
 694:Drivers/STM32F4xx_HAL_Driver/Src/stm32f4xx_hal_rcc.c ****     __HAL_FLASH_SET_LATENCY(FLatency);
 695:Drivers/STM32F4xx_HAL_Driver/Src/stm32f4xx_hal_rcc.c **** 
 696:Drivers/STM32F4xx_HAL_Driver/Src/stm32f4xx_hal_rcc.c ****     /* Check that the new number of wait states is taken into account to access the Flash
 697:Drivers/STM32F4xx_HAL_Driver/Src/stm32f4xx_hal_rcc.c ****     memory by reading the FLASH_ACR register */
 698:Drivers/STM32F4xx_HAL_Driver/Src/stm32f4xx_hal_rcc.c ****     if (__HAL_FLASH_GET_LATENCY() != FLatency)
 699:Drivers/STM32F4xx_HAL_Driver/Src/stm32f4xx_hal_rcc.c ****     {
 700:Drivers/STM32F4xx_HAL_Driver/Src/stm32f4xx_hal_rcc.c ****       return HAL_ERROR;
 701:Drivers/STM32F4xx_HAL_Driver/Src/stm32f4xx_hal_rcc.c ****     }
 702:Drivers/STM32F4xx_HAL_Driver/Src/stm32f4xx_hal_rcc.c ****   }
 703:Drivers/STM32F4xx_HAL_Driver/Src/stm32f4xx_hal_rcc.c **** 
 704:Drivers/STM32F4xx_HAL_Driver/Src/stm32f4xx_hal_rcc.c ****   /*-------------------------- PCLK1 Configuration ---------------------------*/
 705:Drivers/STM32F4xx_HAL_Driver/Src/stm32f4xx_hal_rcc.c ****   if (((RCC_ClkInitStruct->ClockType) & RCC_CLOCKTYPE_PCLK1) == RCC_CLOCKTYPE_PCLK1)
 706:Drivers/STM32F4xx_HAL_Driver/Src/stm32f4xx_hal_rcc.c ****   {
 707:Drivers/STM32F4xx_HAL_Driver/Src/stm32f4xx_hal_rcc.c ****     assert_param(IS_RCC_PCLK(RCC_ClkInitStruct->APB1CLKDivider));
 708:Drivers/STM32F4xx_HAL_Driver/Src/stm32f4xx_hal_rcc.c ****     MODIFY_REG(RCC->CFGR, RCC_CFGR_PPRE1, RCC_ClkInitStruct->APB1CLKDivider);
 709:Drivers/STM32F4xx_HAL_Driver/Src/stm32f4xx_hal_rcc.c ****   }
 710:Drivers/STM32F4xx_HAL_Driver/Src/stm32f4xx_hal_rcc.c **** 
 711:Drivers/STM32F4xx_HAL_Driver/Src/stm32f4xx_hal_rcc.c ****   /*-------------------------- PCLK2 Configuration ---------------------------*/
 712:Drivers/STM32F4xx_HAL_Driver/Src/stm32f4xx_hal_rcc.c ****   if (((RCC_ClkInitStruct->ClockType) & RCC_CLOCKTYPE_PCLK2) == RCC_CLOCKTYPE_PCLK2)
 713:Drivers/STM32F4xx_HAL_Driver/Src/stm32f4xx_hal_rcc.c ****   {
ARM GAS  C:\Users\Rick\AppData\Local\Temp\ccWRFpbY.s 			page 32


 714:Drivers/STM32F4xx_HAL_Driver/Src/stm32f4xx_hal_rcc.c ****     assert_param(IS_RCC_PCLK(RCC_ClkInitStruct->APB2CLKDivider));
 715:Drivers/STM32F4xx_HAL_Driver/Src/stm32f4xx_hal_rcc.c ****     MODIFY_REG(RCC->CFGR, RCC_CFGR_PPRE2, ((RCC_ClkInitStruct->APB2CLKDivider) << 3U));
 716:Drivers/STM32F4xx_HAL_Driver/Src/stm32f4xx_hal_rcc.c ****   }
 717:Drivers/STM32F4xx_HAL_Driver/Src/stm32f4xx_hal_rcc.c **** 
 718:Drivers/STM32F4xx_HAL_Driver/Src/stm32f4xx_hal_rcc.c ****   /* Update the SystemCoreClock global variable */
 719:Drivers/STM32F4xx_HAL_Driver/Src/stm32f4xx_hal_rcc.c ****   SystemCoreClock = HAL_RCC_GetSysClockFreq() >> AHBPrescTable[(RCC->CFGR & RCC_CFGR_HPRE) >> RCC_C
 720:Drivers/STM32F4xx_HAL_Driver/Src/stm32f4xx_hal_rcc.c **** 
 721:Drivers/STM32F4xx_HAL_Driver/Src/stm32f4xx_hal_rcc.c ****   /* Configure the source of time base considering new system clocks settings */
 722:Drivers/STM32F4xx_HAL_Driver/Src/stm32f4xx_hal_rcc.c ****   HAL_InitTick(uwTickPrio);
 723:Drivers/STM32F4xx_HAL_Driver/Src/stm32f4xx_hal_rcc.c **** 
 724:Drivers/STM32F4xx_HAL_Driver/Src/stm32f4xx_hal_rcc.c ****   return HAL_OK;
 725:Drivers/STM32F4xx_HAL_Driver/Src/stm32f4xx_hal_rcc.c **** }
 726:Drivers/STM32F4xx_HAL_Driver/Src/stm32f4xx_hal_rcc.c **** 
 727:Drivers/STM32F4xx_HAL_Driver/Src/stm32f4xx_hal_rcc.c **** /**
 728:Drivers/STM32F4xx_HAL_Driver/Src/stm32f4xx_hal_rcc.c ****   * @}
 729:Drivers/STM32F4xx_HAL_Driver/Src/stm32f4xx_hal_rcc.c ****   */
 730:Drivers/STM32F4xx_HAL_Driver/Src/stm32f4xx_hal_rcc.c **** 
 731:Drivers/STM32F4xx_HAL_Driver/Src/stm32f4xx_hal_rcc.c **** /** @defgroup RCC_Exported_Functions_Group2 Peripheral Control functions
 732:Drivers/STM32F4xx_HAL_Driver/Src/stm32f4xx_hal_rcc.c ****   *  @brief   RCC clocks control functions
 733:Drivers/STM32F4xx_HAL_Driver/Src/stm32f4xx_hal_rcc.c ****   *
 734:Drivers/STM32F4xx_HAL_Driver/Src/stm32f4xx_hal_rcc.c **** @verbatim
 735:Drivers/STM32F4xx_HAL_Driver/Src/stm32f4xx_hal_rcc.c ****  ===============================================================================
 736:Drivers/STM32F4xx_HAL_Driver/Src/stm32f4xx_hal_rcc.c ****                       ##### Peripheral Control functions #####
 737:Drivers/STM32F4xx_HAL_Driver/Src/stm32f4xx_hal_rcc.c ****  ===============================================================================
 738:Drivers/STM32F4xx_HAL_Driver/Src/stm32f4xx_hal_rcc.c ****     [..]
 739:Drivers/STM32F4xx_HAL_Driver/Src/stm32f4xx_hal_rcc.c ****     This subsection provides a set of functions allowing to control the RCC Clocks
 740:Drivers/STM32F4xx_HAL_Driver/Src/stm32f4xx_hal_rcc.c ****     frequencies.
 741:Drivers/STM32F4xx_HAL_Driver/Src/stm32f4xx_hal_rcc.c **** 
 742:Drivers/STM32F4xx_HAL_Driver/Src/stm32f4xx_hal_rcc.c **** @endverbatim
 743:Drivers/STM32F4xx_HAL_Driver/Src/stm32f4xx_hal_rcc.c ****   * @{
 744:Drivers/STM32F4xx_HAL_Driver/Src/stm32f4xx_hal_rcc.c ****   */
 745:Drivers/STM32F4xx_HAL_Driver/Src/stm32f4xx_hal_rcc.c **** 
 746:Drivers/STM32F4xx_HAL_Driver/Src/stm32f4xx_hal_rcc.c **** /**
 747:Drivers/STM32F4xx_HAL_Driver/Src/stm32f4xx_hal_rcc.c ****   * @brief  Selects the clock source to output on MCO1 pin(PA8) or on MCO2 pin(PC9).
 748:Drivers/STM32F4xx_HAL_Driver/Src/stm32f4xx_hal_rcc.c ****   * @note   PA8/PC9 should be configured in alternate function mode.
 749:Drivers/STM32F4xx_HAL_Driver/Src/stm32f4xx_hal_rcc.c ****   * @param  RCC_MCOx specifies the output direction for the clock source.
 750:Drivers/STM32F4xx_HAL_Driver/Src/stm32f4xx_hal_rcc.c ****   *          This parameter can be one of the following values:
 751:Drivers/STM32F4xx_HAL_Driver/Src/stm32f4xx_hal_rcc.c ****   *            @arg RCC_MCO1: Clock source to output on MCO1 pin(PA8).
 752:Drivers/STM32F4xx_HAL_Driver/Src/stm32f4xx_hal_rcc.c ****   *            @arg RCC_MCO2: Clock source to output on MCO2 pin(PC9).
 753:Drivers/STM32F4xx_HAL_Driver/Src/stm32f4xx_hal_rcc.c ****   * @param  RCC_MCOSource specifies the clock source to output.
 754:Drivers/STM32F4xx_HAL_Driver/Src/stm32f4xx_hal_rcc.c ****   *          This parameter can be one of the following values:
 755:Drivers/STM32F4xx_HAL_Driver/Src/stm32f4xx_hal_rcc.c ****   *            @arg RCC_MCO1SOURCE_HSI: HSI clock selected as MCO1 source
 756:Drivers/STM32F4xx_HAL_Driver/Src/stm32f4xx_hal_rcc.c ****   *            @arg RCC_MCO1SOURCE_LSE: LSE clock selected as MCO1 source
 757:Drivers/STM32F4xx_HAL_Driver/Src/stm32f4xx_hal_rcc.c ****   *            @arg RCC_MCO1SOURCE_HSE: HSE clock selected as MCO1 source
 758:Drivers/STM32F4xx_HAL_Driver/Src/stm32f4xx_hal_rcc.c ****   *            @arg RCC_MCO1SOURCE_PLLCLK: main PLL clock selected as MCO1 source
 759:Drivers/STM32F4xx_HAL_Driver/Src/stm32f4xx_hal_rcc.c ****   *            @arg RCC_MCO2SOURCE_SYSCLK: System clock (SYSCLK) selected as MCO2 source
 760:Drivers/STM32F4xx_HAL_Driver/Src/stm32f4xx_hal_rcc.c ****   *            @arg RCC_MCO2SOURCE_PLLI2SCLK: PLLI2S clock selected as MCO2 source, available for a
 761:Drivers/STM32F4xx_HAL_Driver/Src/stm32f4xx_hal_rcc.c ****   *            @arg RCC_MCO2SOURCE_I2SCLK: I2SCLK clock selected as MCO2 source, available only for
 762:Drivers/STM32F4xx_HAL_Driver/Src/stm32f4xx_hal_rcc.c ****   *            @arg RCC_MCO2SOURCE_HSE: HSE clock selected as MCO2 source
 763:Drivers/STM32F4xx_HAL_Driver/Src/stm32f4xx_hal_rcc.c ****   *            @arg RCC_MCO2SOURCE_PLLCLK: main PLL clock selected as MCO2 source
 764:Drivers/STM32F4xx_HAL_Driver/Src/stm32f4xx_hal_rcc.c ****   * @param  RCC_MCODiv specifies the MCOx prescaler.
 765:Drivers/STM32F4xx_HAL_Driver/Src/stm32f4xx_hal_rcc.c ****   *          This parameter can be one of the following values:
 766:Drivers/STM32F4xx_HAL_Driver/Src/stm32f4xx_hal_rcc.c ****   *            @arg RCC_MCODIV_1: no division applied to MCOx clock
 767:Drivers/STM32F4xx_HAL_Driver/Src/stm32f4xx_hal_rcc.c ****   *            @arg RCC_MCODIV_2: division by 2 applied to MCOx clock
 768:Drivers/STM32F4xx_HAL_Driver/Src/stm32f4xx_hal_rcc.c ****   *            @arg RCC_MCODIV_3: division by 3 applied to MCOx clock
 769:Drivers/STM32F4xx_HAL_Driver/Src/stm32f4xx_hal_rcc.c ****   *            @arg RCC_MCODIV_4: division by 4 applied to MCOx clock
 770:Drivers/STM32F4xx_HAL_Driver/Src/stm32f4xx_hal_rcc.c ****   *            @arg RCC_MCODIV_5: division by 5 applied to MCOx clock
ARM GAS  C:\Users\Rick\AppData\Local\Temp\ccWRFpbY.s 			page 33


 771:Drivers/STM32F4xx_HAL_Driver/Src/stm32f4xx_hal_rcc.c ****   * @note  For STM32F410Rx devices to output I2SCLK clock on MCO2 you should have
 772:Drivers/STM32F4xx_HAL_Driver/Src/stm32f4xx_hal_rcc.c ****   *        at last one of the SPI clocks enabled (SPI1, SPI2 or SPI5).
 773:Drivers/STM32F4xx_HAL_Driver/Src/stm32f4xx_hal_rcc.c ****   * @retval None
 774:Drivers/STM32F4xx_HAL_Driver/Src/stm32f4xx_hal_rcc.c ****   */
 775:Drivers/STM32F4xx_HAL_Driver/Src/stm32f4xx_hal_rcc.c **** void HAL_RCC_MCOConfig(uint32_t RCC_MCOx, uint32_t RCC_MCOSource, uint32_t RCC_MCODiv)
 776:Drivers/STM32F4xx_HAL_Driver/Src/stm32f4xx_hal_rcc.c **** {
 934              		.loc 1 776 1 is_stmt 1 view -0
 935              		.cfi_startproc
 936              		@ args = 0, pretend = 0, frame = 32
 937              		@ frame_needed = 0, uses_anonymous_args = 0
 938              		.loc 1 776 1 is_stmt 0 view .LVU301
 939 0000 70B5     		push	{r4, r5, r6, lr}
 940              		.cfi_def_cfa_offset 16
 941              		.cfi_offset 4, -16
 942              		.cfi_offset 5, -12
 943              		.cfi_offset 6, -8
 944              		.cfi_offset 14, -4
 945 0002 88B0     		sub	sp, sp, #32
 946              		.cfi_def_cfa_offset 48
 947 0004 0C46     		mov	r4, r1
 948 0006 1546     		mov	r5, r2
 777:Drivers/STM32F4xx_HAL_Driver/Src/stm32f4xx_hal_rcc.c ****   GPIO_InitTypeDef GPIO_InitStruct;
 949              		.loc 1 777 3 is_stmt 1 view .LVU302
 778:Drivers/STM32F4xx_HAL_Driver/Src/stm32f4xx_hal_rcc.c ****   /* Check the parameters */
 779:Drivers/STM32F4xx_HAL_Driver/Src/stm32f4xx_hal_rcc.c ****   assert_param(IS_RCC_MCO(RCC_MCOx));
 950              		.loc 1 779 3 view .LVU303
 780:Drivers/STM32F4xx_HAL_Driver/Src/stm32f4xx_hal_rcc.c ****   assert_param(IS_RCC_MCODIV(RCC_MCODiv));
 951              		.loc 1 780 3 view .LVU304
 781:Drivers/STM32F4xx_HAL_Driver/Src/stm32f4xx_hal_rcc.c ****   /* RCC_MCO1 */
 782:Drivers/STM32F4xx_HAL_Driver/Src/stm32f4xx_hal_rcc.c ****   if (RCC_MCOx == RCC_MCO1)
 952              		.loc 1 782 3 view .LVU305
 953              		.loc 1 782 6 is_stmt 0 view .LVU306
 954 0008 00BB     		cbnz	r0, .L99
 783:Drivers/STM32F4xx_HAL_Driver/Src/stm32f4xx_hal_rcc.c ****   {
 784:Drivers/STM32F4xx_HAL_Driver/Src/stm32f4xx_hal_rcc.c ****     assert_param(IS_RCC_MCO1SOURCE(RCC_MCOSource));
 955              		.loc 1 784 5 is_stmt 1 view .LVU307
 785:Drivers/STM32F4xx_HAL_Driver/Src/stm32f4xx_hal_rcc.c **** 
 786:Drivers/STM32F4xx_HAL_Driver/Src/stm32f4xx_hal_rcc.c ****     /* MCO1 Clock Enable */
 787:Drivers/STM32F4xx_HAL_Driver/Src/stm32f4xx_hal_rcc.c ****     __MCO1_CLK_ENABLE();
 956              		.loc 1 787 5 view .LVU308
 957              	.LBB5:
 958              		.loc 1 787 5 view .LVU309
 959 000a 0023     		movs	r3, #0
 960 000c 0193     		str	r3, [sp, #4]
 961              		.loc 1 787 5 view .LVU310
 962 000e 204E     		ldr	r6, .L102
 963 0010 326B     		ldr	r2, [r6, #48]
 964              	.LVL65:
 965              		.loc 1 787 5 is_stmt 0 view .LVU311
 966 0012 42F00102 		orr	r2, r2, #1
 967 0016 3263     		str	r2, [r6, #48]
 968              		.loc 1 787 5 is_stmt 1 view .LVU312
 969 0018 326B     		ldr	r2, [r6, #48]
 970 001a 02F00102 		and	r2, r2, #1
 971 001e 0192     		str	r2, [sp, #4]
 972              		.loc 1 787 5 view .LVU313
 973 0020 019A     		ldr	r2, [sp, #4]
ARM GAS  C:\Users\Rick\AppData\Local\Temp\ccWRFpbY.s 			page 34


 974              	.LBE5:
 975              		.loc 1 787 5 view .LVU314
 788:Drivers/STM32F4xx_HAL_Driver/Src/stm32f4xx_hal_rcc.c **** 
 789:Drivers/STM32F4xx_HAL_Driver/Src/stm32f4xx_hal_rcc.c ****     /* Configure the MCO1 pin in alternate function mode */
 790:Drivers/STM32F4xx_HAL_Driver/Src/stm32f4xx_hal_rcc.c ****     GPIO_InitStruct.Pin = MCO1_PIN;
 976              		.loc 1 790 5 view .LVU315
 977              		.loc 1 790 25 is_stmt 0 view .LVU316
 978 0022 4FF48072 		mov	r2, #256
 979 0026 0392     		str	r2, [sp, #12]
 791:Drivers/STM32F4xx_HAL_Driver/Src/stm32f4xx_hal_rcc.c ****     GPIO_InitStruct.Mode = GPIO_MODE_AF_PP;
 980              		.loc 1 791 5 is_stmt 1 view .LVU317
 981              		.loc 1 791 26 is_stmt 0 view .LVU318
 982 0028 0222     		movs	r2, #2
 983 002a 0492     		str	r2, [sp, #16]
 792:Drivers/STM32F4xx_HAL_Driver/Src/stm32f4xx_hal_rcc.c ****     GPIO_InitStruct.Speed = GPIO_SPEED_FREQ_VERY_HIGH;
 984              		.loc 1 792 5 is_stmt 1 view .LVU319
 985              		.loc 1 792 27 is_stmt 0 view .LVU320
 986 002c 0322     		movs	r2, #3
 987 002e 0692     		str	r2, [sp, #24]
 793:Drivers/STM32F4xx_HAL_Driver/Src/stm32f4xx_hal_rcc.c ****     GPIO_InitStruct.Pull = GPIO_NOPULL;
 988              		.loc 1 793 5 is_stmt 1 view .LVU321
 989              		.loc 1 793 26 is_stmt 0 view .LVU322
 990 0030 0593     		str	r3, [sp, #20]
 794:Drivers/STM32F4xx_HAL_Driver/Src/stm32f4xx_hal_rcc.c ****     GPIO_InitStruct.Alternate = GPIO_AF0_MCO;
 991              		.loc 1 794 5 is_stmt 1 view .LVU323
 992              		.loc 1 794 31 is_stmt 0 view .LVU324
 993 0032 0793     		str	r3, [sp, #28]
 795:Drivers/STM32F4xx_HAL_Driver/Src/stm32f4xx_hal_rcc.c ****     HAL_GPIO_Init(MCO1_GPIO_PORT, &GPIO_InitStruct);
 994              		.loc 1 795 5 is_stmt 1 view .LVU325
 995 0034 03A9     		add	r1, sp, #12
 996              	.LVL66:
 997              		.loc 1 795 5 is_stmt 0 view .LVU326
 998 0036 1748     		ldr	r0, .L102+4
 999              	.LVL67:
 1000              		.loc 1 795 5 view .LVU327
 1001 0038 FFF7FEFF 		bl	HAL_GPIO_Init
 1002              	.LVL68:
 796:Drivers/STM32F4xx_HAL_Driver/Src/stm32f4xx_hal_rcc.c **** 
 797:Drivers/STM32F4xx_HAL_Driver/Src/stm32f4xx_hal_rcc.c ****     /* Mask MCO1 and MCO1PRE[2:0] bits then Select MCO1 clock source and prescaler */
 798:Drivers/STM32F4xx_HAL_Driver/Src/stm32f4xx_hal_rcc.c ****     MODIFY_REG(RCC->CFGR, (RCC_CFGR_MCO1 | RCC_CFGR_MCO1PRE), (RCC_MCOSource | RCC_MCODiv));
 1003              		.loc 1 798 5 is_stmt 1 view .LVU328
 1004 003c B368     		ldr	r3, [r6, #8]
 1005 003e 23F0EC63 		bic	r3, r3, #123731968
 1006 0042 2543     		orrs	r5, r5, r4
 1007              	.LVL69:
 1008              		.loc 1 798 5 is_stmt 0 view .LVU329
 1009 0044 1D43     		orrs	r5, r5, r3
 1010 0046 B560     		str	r5, [r6, #8]
 1011              	.LVL70:
 1012              	.L98:
 799:Drivers/STM32F4xx_HAL_Driver/Src/stm32f4xx_hal_rcc.c **** 
 800:Drivers/STM32F4xx_HAL_Driver/Src/stm32f4xx_hal_rcc.c ****     /* This RCC MCO1 enable feature is available only on STM32F410xx devices */
 801:Drivers/STM32F4xx_HAL_Driver/Src/stm32f4xx_hal_rcc.c **** #if defined(RCC_CFGR_MCO1EN)
 802:Drivers/STM32F4xx_HAL_Driver/Src/stm32f4xx_hal_rcc.c ****     __HAL_RCC_MCO1_ENABLE();
 803:Drivers/STM32F4xx_HAL_Driver/Src/stm32f4xx_hal_rcc.c **** #endif /* RCC_CFGR_MCO1EN */
 804:Drivers/STM32F4xx_HAL_Driver/Src/stm32f4xx_hal_rcc.c ****   }
 805:Drivers/STM32F4xx_HAL_Driver/Src/stm32f4xx_hal_rcc.c **** #if defined(RCC_CFGR_MCO2)
ARM GAS  C:\Users\Rick\AppData\Local\Temp\ccWRFpbY.s 			page 35


 806:Drivers/STM32F4xx_HAL_Driver/Src/stm32f4xx_hal_rcc.c ****   else
 807:Drivers/STM32F4xx_HAL_Driver/Src/stm32f4xx_hal_rcc.c ****   {
 808:Drivers/STM32F4xx_HAL_Driver/Src/stm32f4xx_hal_rcc.c ****     assert_param(IS_RCC_MCO2SOURCE(RCC_MCOSource));
 809:Drivers/STM32F4xx_HAL_Driver/Src/stm32f4xx_hal_rcc.c **** 
 810:Drivers/STM32F4xx_HAL_Driver/Src/stm32f4xx_hal_rcc.c ****     /* MCO2 Clock Enable */
 811:Drivers/STM32F4xx_HAL_Driver/Src/stm32f4xx_hal_rcc.c ****     __MCO2_CLK_ENABLE();
 812:Drivers/STM32F4xx_HAL_Driver/Src/stm32f4xx_hal_rcc.c **** 
 813:Drivers/STM32F4xx_HAL_Driver/Src/stm32f4xx_hal_rcc.c ****     /* Configure the MCO2 pin in alternate function mode */
 814:Drivers/STM32F4xx_HAL_Driver/Src/stm32f4xx_hal_rcc.c ****     GPIO_InitStruct.Pin = MCO2_PIN;
 815:Drivers/STM32F4xx_HAL_Driver/Src/stm32f4xx_hal_rcc.c ****     GPIO_InitStruct.Mode = GPIO_MODE_AF_PP;
 816:Drivers/STM32F4xx_HAL_Driver/Src/stm32f4xx_hal_rcc.c ****     GPIO_InitStruct.Speed = GPIO_SPEED_FREQ_VERY_HIGH;
 817:Drivers/STM32F4xx_HAL_Driver/Src/stm32f4xx_hal_rcc.c ****     GPIO_InitStruct.Pull = GPIO_NOPULL;
 818:Drivers/STM32F4xx_HAL_Driver/Src/stm32f4xx_hal_rcc.c ****     GPIO_InitStruct.Alternate = GPIO_AF0_MCO;
 819:Drivers/STM32F4xx_HAL_Driver/Src/stm32f4xx_hal_rcc.c ****     HAL_GPIO_Init(MCO2_GPIO_PORT, &GPIO_InitStruct);
 820:Drivers/STM32F4xx_HAL_Driver/Src/stm32f4xx_hal_rcc.c **** 
 821:Drivers/STM32F4xx_HAL_Driver/Src/stm32f4xx_hal_rcc.c ****     /* Mask MCO2 and MCO2PRE[2:0] bits then Select MCO2 clock source and prescaler */
 822:Drivers/STM32F4xx_HAL_Driver/Src/stm32f4xx_hal_rcc.c ****     MODIFY_REG(RCC->CFGR, (RCC_CFGR_MCO2 | RCC_CFGR_MCO2PRE), (RCC_MCOSource | (RCC_MCODiv << 3U)))
 823:Drivers/STM32F4xx_HAL_Driver/Src/stm32f4xx_hal_rcc.c **** 
 824:Drivers/STM32F4xx_HAL_Driver/Src/stm32f4xx_hal_rcc.c ****     /* This RCC MCO2 enable feature is available only on STM32F410Rx devices */
 825:Drivers/STM32F4xx_HAL_Driver/Src/stm32f4xx_hal_rcc.c **** #if defined(RCC_CFGR_MCO2EN)
 826:Drivers/STM32F4xx_HAL_Driver/Src/stm32f4xx_hal_rcc.c ****     __HAL_RCC_MCO2_ENABLE();
 827:Drivers/STM32F4xx_HAL_Driver/Src/stm32f4xx_hal_rcc.c **** #endif /* RCC_CFGR_MCO2EN */
 828:Drivers/STM32F4xx_HAL_Driver/Src/stm32f4xx_hal_rcc.c ****   }
 829:Drivers/STM32F4xx_HAL_Driver/Src/stm32f4xx_hal_rcc.c **** #endif /* RCC_CFGR_MCO2 */
 830:Drivers/STM32F4xx_HAL_Driver/Src/stm32f4xx_hal_rcc.c **** }
 1013              		.loc 1 830 1 view .LVU330
 1014 0048 08B0     		add	sp, sp, #32
 1015              		.cfi_remember_state
 1016              		.cfi_def_cfa_offset 16
 1017              		@ sp needed
 1018 004a 70BD     		pop	{r4, r5, r6, pc}
 1019              	.LVL71:
 1020              	.L99:
 1021              		.cfi_restore_state
 808:Drivers/STM32F4xx_HAL_Driver/Src/stm32f4xx_hal_rcc.c **** 
 1022              		.loc 1 808 5 is_stmt 1 view .LVU331
 811:Drivers/STM32F4xx_HAL_Driver/Src/stm32f4xx_hal_rcc.c **** 
 1023              		.loc 1 811 5 view .LVU332
 1024              	.LBB6:
 811:Drivers/STM32F4xx_HAL_Driver/Src/stm32f4xx_hal_rcc.c **** 
 1025              		.loc 1 811 5 view .LVU333
 1026 004c 0023     		movs	r3, #0
 1027 004e 0293     		str	r3, [sp, #8]
 811:Drivers/STM32F4xx_HAL_Driver/Src/stm32f4xx_hal_rcc.c **** 
 1028              		.loc 1 811 5 view .LVU334
 1029 0050 0F4E     		ldr	r6, .L102
 1030 0052 326B     		ldr	r2, [r6, #48]
 1031              	.LVL72:
 811:Drivers/STM32F4xx_HAL_Driver/Src/stm32f4xx_hal_rcc.c **** 
 1032              		.loc 1 811 5 is_stmt 0 view .LVU335
 1033 0054 42F00402 		orr	r2, r2, #4
 1034 0058 3263     		str	r2, [r6, #48]
 811:Drivers/STM32F4xx_HAL_Driver/Src/stm32f4xx_hal_rcc.c **** 
 1035              		.loc 1 811 5 is_stmt 1 view .LVU336
 1036 005a 326B     		ldr	r2, [r6, #48]
 1037 005c 02F00402 		and	r2, r2, #4
 1038 0060 0292     		str	r2, [sp, #8]
ARM GAS  C:\Users\Rick\AppData\Local\Temp\ccWRFpbY.s 			page 36


 811:Drivers/STM32F4xx_HAL_Driver/Src/stm32f4xx_hal_rcc.c **** 
 1039              		.loc 1 811 5 view .LVU337
 1040 0062 029A     		ldr	r2, [sp, #8]
 1041              	.LBE6:
 811:Drivers/STM32F4xx_HAL_Driver/Src/stm32f4xx_hal_rcc.c **** 
 1042              		.loc 1 811 5 view .LVU338
 814:Drivers/STM32F4xx_HAL_Driver/Src/stm32f4xx_hal_rcc.c ****     GPIO_InitStruct.Mode = GPIO_MODE_AF_PP;
 1043              		.loc 1 814 5 view .LVU339
 814:Drivers/STM32F4xx_HAL_Driver/Src/stm32f4xx_hal_rcc.c ****     GPIO_InitStruct.Mode = GPIO_MODE_AF_PP;
 1044              		.loc 1 814 25 is_stmt 0 view .LVU340
 1045 0064 4FF40072 		mov	r2, #512
 1046 0068 0392     		str	r2, [sp, #12]
 815:Drivers/STM32F4xx_HAL_Driver/Src/stm32f4xx_hal_rcc.c ****     GPIO_InitStruct.Speed = GPIO_SPEED_FREQ_VERY_HIGH;
 1047              		.loc 1 815 5 is_stmt 1 view .LVU341
 815:Drivers/STM32F4xx_HAL_Driver/Src/stm32f4xx_hal_rcc.c ****     GPIO_InitStruct.Speed = GPIO_SPEED_FREQ_VERY_HIGH;
 1048              		.loc 1 815 26 is_stmt 0 view .LVU342
 1049 006a 0222     		movs	r2, #2
 1050 006c 0492     		str	r2, [sp, #16]
 816:Drivers/STM32F4xx_HAL_Driver/Src/stm32f4xx_hal_rcc.c ****     GPIO_InitStruct.Pull = GPIO_NOPULL;
 1051              		.loc 1 816 5 is_stmt 1 view .LVU343
 816:Drivers/STM32F4xx_HAL_Driver/Src/stm32f4xx_hal_rcc.c ****     GPIO_InitStruct.Pull = GPIO_NOPULL;
 1052              		.loc 1 816 27 is_stmt 0 view .LVU344
 1053 006e 0322     		movs	r2, #3
 1054 0070 0692     		str	r2, [sp, #24]
 817:Drivers/STM32F4xx_HAL_Driver/Src/stm32f4xx_hal_rcc.c ****     GPIO_InitStruct.Alternate = GPIO_AF0_MCO;
 1055              		.loc 1 817 5 is_stmt 1 view .LVU345
 817:Drivers/STM32F4xx_HAL_Driver/Src/stm32f4xx_hal_rcc.c ****     GPIO_InitStruct.Alternate = GPIO_AF0_MCO;
 1056              		.loc 1 817 26 is_stmt 0 view .LVU346
 1057 0072 0593     		str	r3, [sp, #20]
 818:Drivers/STM32F4xx_HAL_Driver/Src/stm32f4xx_hal_rcc.c ****     HAL_GPIO_Init(MCO2_GPIO_PORT, &GPIO_InitStruct);
 1058              		.loc 1 818 5 is_stmt 1 view .LVU347
 818:Drivers/STM32F4xx_HAL_Driver/Src/stm32f4xx_hal_rcc.c ****     HAL_GPIO_Init(MCO2_GPIO_PORT, &GPIO_InitStruct);
 1059              		.loc 1 818 31 is_stmt 0 view .LVU348
 1060 0074 0793     		str	r3, [sp, #28]
 819:Drivers/STM32F4xx_HAL_Driver/Src/stm32f4xx_hal_rcc.c **** 
 1061              		.loc 1 819 5 is_stmt 1 view .LVU349
 1062 0076 03A9     		add	r1, sp, #12
 1063              	.LVL73:
 819:Drivers/STM32F4xx_HAL_Driver/Src/stm32f4xx_hal_rcc.c **** 
 1064              		.loc 1 819 5 is_stmt 0 view .LVU350
 1065 0078 0748     		ldr	r0, .L102+8
 1066              	.LVL74:
 819:Drivers/STM32F4xx_HAL_Driver/Src/stm32f4xx_hal_rcc.c **** 
 1067              		.loc 1 819 5 view .LVU351
 1068 007a FFF7FEFF 		bl	HAL_GPIO_Init
 1069              	.LVL75:
 822:Drivers/STM32F4xx_HAL_Driver/Src/stm32f4xx_hal_rcc.c **** 
 1070              		.loc 1 822 5 is_stmt 1 view .LVU352
 1071 007e B368     		ldr	r3, [r6, #8]
 1072 0080 23F07843 		bic	r3, r3, #-134217728
 1073 0084 44EAC504 		orr	r4, r4, r5, lsl #3
 1074              	.LVL76:
 822:Drivers/STM32F4xx_HAL_Driver/Src/stm32f4xx_hal_rcc.c **** 
 1075              		.loc 1 822 5 is_stmt 0 view .LVU353
 1076 0088 1C43     		orrs	r4, r4, r3
 1077 008a B460     		str	r4, [r6, #8]
 1078              		.loc 1 830 1 view .LVU354
ARM GAS  C:\Users\Rick\AppData\Local\Temp\ccWRFpbY.s 			page 37


 1079 008c DCE7     		b	.L98
 1080              	.L103:
 1081 008e 00BF     		.align	2
 1082              	.L102:
 1083 0090 00380240 		.word	1073887232
 1084 0094 00000240 		.word	1073872896
 1085 0098 00080240 		.word	1073874944
 1086              		.cfi_endproc
 1087              	.LFE242:
 1089              		.section	.text.HAL_RCC_EnableCSS,"ax",%progbits
 1090              		.align	1
 1091              		.global	HAL_RCC_EnableCSS
 1092              		.syntax unified
 1093              		.thumb
 1094              		.thumb_func
 1096              	HAL_RCC_EnableCSS:
 1097              	.LFB243:
 831:Drivers/STM32F4xx_HAL_Driver/Src/stm32f4xx_hal_rcc.c **** 
 832:Drivers/STM32F4xx_HAL_Driver/Src/stm32f4xx_hal_rcc.c **** /**
 833:Drivers/STM32F4xx_HAL_Driver/Src/stm32f4xx_hal_rcc.c ****   * @brief  Enables the Clock Security System.
 834:Drivers/STM32F4xx_HAL_Driver/Src/stm32f4xx_hal_rcc.c ****   * @note   If a failure is detected on the HSE oscillator clock, this oscillator
 835:Drivers/STM32F4xx_HAL_Driver/Src/stm32f4xx_hal_rcc.c ****   *         is automatically disabled and an interrupt is generated to inform the
 836:Drivers/STM32F4xx_HAL_Driver/Src/stm32f4xx_hal_rcc.c ****   *         software about the failure (Clock Security System Interrupt, CSSI),
 837:Drivers/STM32F4xx_HAL_Driver/Src/stm32f4xx_hal_rcc.c ****   *         allowing the MCU to perform rescue operations. The CSSI is linked to
 838:Drivers/STM32F4xx_HAL_Driver/Src/stm32f4xx_hal_rcc.c ****   *         the Cortex-M4 NMI (Non-Maskable Interrupt) exception vector.
 839:Drivers/STM32F4xx_HAL_Driver/Src/stm32f4xx_hal_rcc.c ****   * @retval None
 840:Drivers/STM32F4xx_HAL_Driver/Src/stm32f4xx_hal_rcc.c ****   */
 841:Drivers/STM32F4xx_HAL_Driver/Src/stm32f4xx_hal_rcc.c **** void HAL_RCC_EnableCSS(void)
 842:Drivers/STM32F4xx_HAL_Driver/Src/stm32f4xx_hal_rcc.c **** {
 1098              		.loc 1 842 1 is_stmt 1 view -0
 1099              		.cfi_startproc
 1100              		@ args = 0, pretend = 0, frame = 0
 1101              		@ frame_needed = 0, uses_anonymous_args = 0
 1102              		@ link register save eliminated.
 843:Drivers/STM32F4xx_HAL_Driver/Src/stm32f4xx_hal_rcc.c ****   *(__IO uint32_t *) RCC_CR_CSSON_BB = (uint32_t)ENABLE;
 1103              		.loc 1 843 3 view .LVU356
 1104              		.loc 1 843 38 is_stmt 0 view .LVU357
 1105 0000 014B     		ldr	r3, .L105
 1106 0002 0122     		movs	r2, #1
 1107 0004 DA64     		str	r2, [r3, #76]
 844:Drivers/STM32F4xx_HAL_Driver/Src/stm32f4xx_hal_rcc.c **** }
 1108              		.loc 1 844 1 view .LVU358
 1109 0006 7047     		bx	lr
 1110              	.L106:
 1111              		.align	2
 1112              	.L105:
 1113 0008 00004742 		.word	1111949312
 1114              		.cfi_endproc
 1115              	.LFE243:
 1117              		.section	.text.HAL_RCC_DisableCSS,"ax",%progbits
 1118              		.align	1
 1119              		.global	HAL_RCC_DisableCSS
 1120              		.syntax unified
 1121              		.thumb
 1122              		.thumb_func
 1124              	HAL_RCC_DisableCSS:
 1125              	.LFB244:
ARM GAS  C:\Users\Rick\AppData\Local\Temp\ccWRFpbY.s 			page 38


 845:Drivers/STM32F4xx_HAL_Driver/Src/stm32f4xx_hal_rcc.c **** 
 846:Drivers/STM32F4xx_HAL_Driver/Src/stm32f4xx_hal_rcc.c **** /**
 847:Drivers/STM32F4xx_HAL_Driver/Src/stm32f4xx_hal_rcc.c ****   * @brief  Disables the Clock Security System.
 848:Drivers/STM32F4xx_HAL_Driver/Src/stm32f4xx_hal_rcc.c ****   * @retval None
 849:Drivers/STM32F4xx_HAL_Driver/Src/stm32f4xx_hal_rcc.c ****   */
 850:Drivers/STM32F4xx_HAL_Driver/Src/stm32f4xx_hal_rcc.c **** void HAL_RCC_DisableCSS(void)
 851:Drivers/STM32F4xx_HAL_Driver/Src/stm32f4xx_hal_rcc.c **** {
 1126              		.loc 1 851 1 is_stmt 1 view -0
 1127              		.cfi_startproc
 1128              		@ args = 0, pretend = 0, frame = 0
 1129              		@ frame_needed = 0, uses_anonymous_args = 0
 1130              		@ link register save eliminated.
 852:Drivers/STM32F4xx_HAL_Driver/Src/stm32f4xx_hal_rcc.c ****   *(__IO uint32_t *) RCC_CR_CSSON_BB = (uint32_t)DISABLE;
 1131              		.loc 1 852 3 view .LVU360
 1132              		.loc 1 852 38 is_stmt 0 view .LVU361
 1133 0000 014B     		ldr	r3, .L108
 1134 0002 0022     		movs	r2, #0
 1135 0004 DA64     		str	r2, [r3, #76]
 853:Drivers/STM32F4xx_HAL_Driver/Src/stm32f4xx_hal_rcc.c **** }
 1136              		.loc 1 853 1 view .LVU362
 1137 0006 7047     		bx	lr
 1138              	.L109:
 1139              		.align	2
 1140              	.L108:
 1141 0008 00004742 		.word	1111949312
 1142              		.cfi_endproc
 1143              	.LFE244:
 1145              		.section	.text.HAL_RCC_GetSysClockFreq,"ax",%progbits
 1146              		.align	1
 1147              		.weak	HAL_RCC_GetSysClockFreq
 1148              		.syntax unified
 1149              		.thumb
 1150              		.thumb_func
 1152              	HAL_RCC_GetSysClockFreq:
 1153              	.LFB245:
 854:Drivers/STM32F4xx_HAL_Driver/Src/stm32f4xx_hal_rcc.c **** 
 855:Drivers/STM32F4xx_HAL_Driver/Src/stm32f4xx_hal_rcc.c **** /**
 856:Drivers/STM32F4xx_HAL_Driver/Src/stm32f4xx_hal_rcc.c ****   * @brief  Returns the SYSCLK frequency
 857:Drivers/STM32F4xx_HAL_Driver/Src/stm32f4xx_hal_rcc.c ****   *
 858:Drivers/STM32F4xx_HAL_Driver/Src/stm32f4xx_hal_rcc.c ****   * @note   The system frequency computed by this function is not the real
 859:Drivers/STM32F4xx_HAL_Driver/Src/stm32f4xx_hal_rcc.c ****   *         frequency in the chip. It is calculated based on the predefined
 860:Drivers/STM32F4xx_HAL_Driver/Src/stm32f4xx_hal_rcc.c ****   *         constant and the selected clock source:
 861:Drivers/STM32F4xx_HAL_Driver/Src/stm32f4xx_hal_rcc.c ****   * @note     If SYSCLK source is HSI, function returns values based on HSI_VALUE(*)
 862:Drivers/STM32F4xx_HAL_Driver/Src/stm32f4xx_hal_rcc.c ****   * @note     If SYSCLK source is HSE, function returns values based on HSE_VALUE(**)
 863:Drivers/STM32F4xx_HAL_Driver/Src/stm32f4xx_hal_rcc.c ****   * @note     If SYSCLK source is PLL, function returns values based on HSE_VALUE(**)
 864:Drivers/STM32F4xx_HAL_Driver/Src/stm32f4xx_hal_rcc.c ****   *           or HSI_VALUE(*) multiplied/divided by the PLL factors.
 865:Drivers/STM32F4xx_HAL_Driver/Src/stm32f4xx_hal_rcc.c ****   * @note     (*) HSI_VALUE is a constant defined in stm32f4xx_hal_conf.h file (default value
 866:Drivers/STM32F4xx_HAL_Driver/Src/stm32f4xx_hal_rcc.c ****   *               16 MHz) but the real value may vary depending on the variations
 867:Drivers/STM32F4xx_HAL_Driver/Src/stm32f4xx_hal_rcc.c ****   *               in voltage and temperature.
 868:Drivers/STM32F4xx_HAL_Driver/Src/stm32f4xx_hal_rcc.c ****   * @note     (**) HSE_VALUE is a constant defined in stm32f4xx_hal_conf.h file (default value
 869:Drivers/STM32F4xx_HAL_Driver/Src/stm32f4xx_hal_rcc.c ****   *                25 MHz), user has to ensure that HSE_VALUE is same as the real
 870:Drivers/STM32F4xx_HAL_Driver/Src/stm32f4xx_hal_rcc.c ****   *                frequency of the crystal used. Otherwise, this function may
 871:Drivers/STM32F4xx_HAL_Driver/Src/stm32f4xx_hal_rcc.c ****   *                have wrong result.
 872:Drivers/STM32F4xx_HAL_Driver/Src/stm32f4xx_hal_rcc.c ****   *
 873:Drivers/STM32F4xx_HAL_Driver/Src/stm32f4xx_hal_rcc.c ****   * @note   The result of this function could be not correct when using fractional
 874:Drivers/STM32F4xx_HAL_Driver/Src/stm32f4xx_hal_rcc.c ****   *         value for HSE crystal.
 875:Drivers/STM32F4xx_HAL_Driver/Src/stm32f4xx_hal_rcc.c ****   *
ARM GAS  C:\Users\Rick\AppData\Local\Temp\ccWRFpbY.s 			page 39


 876:Drivers/STM32F4xx_HAL_Driver/Src/stm32f4xx_hal_rcc.c ****   * @note   This function can be used by the user application to compute the
 877:Drivers/STM32F4xx_HAL_Driver/Src/stm32f4xx_hal_rcc.c ****   *         baudrate for the communication peripherals or configure other parameters.
 878:Drivers/STM32F4xx_HAL_Driver/Src/stm32f4xx_hal_rcc.c ****   *
 879:Drivers/STM32F4xx_HAL_Driver/Src/stm32f4xx_hal_rcc.c ****   * @note   Each time SYSCLK changes, this function must be called to update the
 880:Drivers/STM32F4xx_HAL_Driver/Src/stm32f4xx_hal_rcc.c ****   *         right SYSCLK value. Otherwise, any configuration based on this function will be incorre
 881:Drivers/STM32F4xx_HAL_Driver/Src/stm32f4xx_hal_rcc.c ****   *
 882:Drivers/STM32F4xx_HAL_Driver/Src/stm32f4xx_hal_rcc.c ****   *
 883:Drivers/STM32F4xx_HAL_Driver/Src/stm32f4xx_hal_rcc.c ****   * @retval SYSCLK frequency
 884:Drivers/STM32F4xx_HAL_Driver/Src/stm32f4xx_hal_rcc.c ****   */
 885:Drivers/STM32F4xx_HAL_Driver/Src/stm32f4xx_hal_rcc.c **** __weak uint32_t HAL_RCC_GetSysClockFreq(void)
 886:Drivers/STM32F4xx_HAL_Driver/Src/stm32f4xx_hal_rcc.c **** {
 1154              		.loc 1 886 1 is_stmt 1 view -0
 1155              		.cfi_startproc
 1156              		@ args = 0, pretend = 0, frame = 0
 1157              		@ frame_needed = 0, uses_anonymous_args = 0
 1158 0000 08B5     		push	{r3, lr}
 1159              		.cfi_def_cfa_offset 8
 1160              		.cfi_offset 3, -8
 1161              		.cfi_offset 14, -4
 887:Drivers/STM32F4xx_HAL_Driver/Src/stm32f4xx_hal_rcc.c ****   uint32_t pllm = 0U;
 1162              		.loc 1 887 3 view .LVU364
 1163              	.LVL77:
 888:Drivers/STM32F4xx_HAL_Driver/Src/stm32f4xx_hal_rcc.c ****   uint32_t pllvco = 0U;
 1164              		.loc 1 888 3 view .LVU365
 889:Drivers/STM32F4xx_HAL_Driver/Src/stm32f4xx_hal_rcc.c ****   uint32_t pllp = 0U;
 1165              		.loc 1 889 3 view .LVU366
 890:Drivers/STM32F4xx_HAL_Driver/Src/stm32f4xx_hal_rcc.c ****   uint32_t sysclockfreq = 0U;
 1166              		.loc 1 890 3 view .LVU367
 891:Drivers/STM32F4xx_HAL_Driver/Src/stm32f4xx_hal_rcc.c **** 
 892:Drivers/STM32F4xx_HAL_Driver/Src/stm32f4xx_hal_rcc.c ****   /* Get SYSCLK source -------------------------------------------------------*/
 893:Drivers/STM32F4xx_HAL_Driver/Src/stm32f4xx_hal_rcc.c ****   switch (RCC->CFGR & RCC_CFGR_SWS)
 1167              		.loc 1 893 3 view .LVU368
 1168              		.loc 1 893 14 is_stmt 0 view .LVU369
 1169 0002 314B     		ldr	r3, .L117
 1170 0004 9B68     		ldr	r3, [r3, #8]
 1171              		.loc 1 893 21 view .LVU370
 1172 0006 03F00C03 		and	r3, r3, #12
 1173              		.loc 1 893 3 view .LVU371
 1174 000a 082B     		cmp	r3, #8
 1175 000c 01D0     		beq	.L116
 894:Drivers/STM32F4xx_HAL_Driver/Src/stm32f4xx_hal_rcc.c ****   {
 895:Drivers/STM32F4xx_HAL_Driver/Src/stm32f4xx_hal_rcc.c ****     case RCC_CFGR_SWS_HSI:  /* HSI used as system clock source */
 896:Drivers/STM32F4xx_HAL_Driver/Src/stm32f4xx_hal_rcc.c ****     {
 897:Drivers/STM32F4xx_HAL_Driver/Src/stm32f4xx_hal_rcc.c ****       sysclockfreq = HSI_VALUE;
 1176              		.loc 1 897 20 view .LVU372
 1177 000e 2F48     		ldr	r0, .L117+4
 1178              	.LVL78:
 898:Drivers/STM32F4xx_HAL_Driver/Src/stm32f4xx_hal_rcc.c ****       break;
 899:Drivers/STM32F4xx_HAL_Driver/Src/stm32f4xx_hal_rcc.c ****     }
 900:Drivers/STM32F4xx_HAL_Driver/Src/stm32f4xx_hal_rcc.c ****     case RCC_CFGR_SWS_HSE:  /* HSE used as system clock  source */
 901:Drivers/STM32F4xx_HAL_Driver/Src/stm32f4xx_hal_rcc.c ****     {
 902:Drivers/STM32F4xx_HAL_Driver/Src/stm32f4xx_hal_rcc.c ****       sysclockfreq = HSE_VALUE;
 903:Drivers/STM32F4xx_HAL_Driver/Src/stm32f4xx_hal_rcc.c ****       break;
 904:Drivers/STM32F4xx_HAL_Driver/Src/stm32f4xx_hal_rcc.c ****     }
 905:Drivers/STM32F4xx_HAL_Driver/Src/stm32f4xx_hal_rcc.c ****     case RCC_CFGR_SWS_PLL:  /* PLL used as system clock  source */
 906:Drivers/STM32F4xx_HAL_Driver/Src/stm32f4xx_hal_rcc.c ****     {
 907:Drivers/STM32F4xx_HAL_Driver/Src/stm32f4xx_hal_rcc.c ****       /* PLL_VCO = (HSE_VALUE or HSI_VALUE / PLLM) * PLLN
ARM GAS  C:\Users\Rick\AppData\Local\Temp\ccWRFpbY.s 			page 40


 908:Drivers/STM32F4xx_HAL_Driver/Src/stm32f4xx_hal_rcc.c ****       SYSCLK = PLL_VCO / PLLP */
 909:Drivers/STM32F4xx_HAL_Driver/Src/stm32f4xx_hal_rcc.c ****       pllm = RCC->PLLCFGR & RCC_PLLCFGR_PLLM;
 910:Drivers/STM32F4xx_HAL_Driver/Src/stm32f4xx_hal_rcc.c ****       if (__HAL_RCC_GET_PLL_OSCSOURCE() != RCC_PLLSOURCE_HSI)
 911:Drivers/STM32F4xx_HAL_Driver/Src/stm32f4xx_hal_rcc.c ****       {
 912:Drivers/STM32F4xx_HAL_Driver/Src/stm32f4xx_hal_rcc.c ****         /* HSE used as PLL clock source */
 913:Drivers/STM32F4xx_HAL_Driver/Src/stm32f4xx_hal_rcc.c ****         pllvco = (uint32_t)((((uint64_t) HSE_VALUE * ((uint64_t)((RCC->PLLCFGR & RCC_PLLCFGR_PLLN) 
 914:Drivers/STM32F4xx_HAL_Driver/Src/stm32f4xx_hal_rcc.c ****       }
 915:Drivers/STM32F4xx_HAL_Driver/Src/stm32f4xx_hal_rcc.c ****       else
 916:Drivers/STM32F4xx_HAL_Driver/Src/stm32f4xx_hal_rcc.c ****       {
 917:Drivers/STM32F4xx_HAL_Driver/Src/stm32f4xx_hal_rcc.c ****         /* HSI used as PLL clock source */
 918:Drivers/STM32F4xx_HAL_Driver/Src/stm32f4xx_hal_rcc.c ****         pllvco = (uint32_t)((((uint64_t) HSI_VALUE * ((uint64_t)((RCC->PLLCFGR & RCC_PLLCFGR_PLLN) 
 919:Drivers/STM32F4xx_HAL_Driver/Src/stm32f4xx_hal_rcc.c ****       }
 920:Drivers/STM32F4xx_HAL_Driver/Src/stm32f4xx_hal_rcc.c ****       pllp = ((((RCC->PLLCFGR & RCC_PLLCFGR_PLLP) >> RCC_PLLCFGR_PLLP_Pos) + 1U) * 2U);
 921:Drivers/STM32F4xx_HAL_Driver/Src/stm32f4xx_hal_rcc.c **** 
 922:Drivers/STM32F4xx_HAL_Driver/Src/stm32f4xx_hal_rcc.c ****       sysclockfreq = pllvco / pllp;
 923:Drivers/STM32F4xx_HAL_Driver/Src/stm32f4xx_hal_rcc.c ****       break;
 924:Drivers/STM32F4xx_HAL_Driver/Src/stm32f4xx_hal_rcc.c ****     }
 925:Drivers/STM32F4xx_HAL_Driver/Src/stm32f4xx_hal_rcc.c ****     default:
 926:Drivers/STM32F4xx_HAL_Driver/Src/stm32f4xx_hal_rcc.c ****     {
 927:Drivers/STM32F4xx_HAL_Driver/Src/stm32f4xx_hal_rcc.c ****       sysclockfreq = HSI_VALUE;
 928:Drivers/STM32F4xx_HAL_Driver/Src/stm32f4xx_hal_rcc.c ****       break;
 929:Drivers/STM32F4xx_HAL_Driver/Src/stm32f4xx_hal_rcc.c ****     }
 930:Drivers/STM32F4xx_HAL_Driver/Src/stm32f4xx_hal_rcc.c ****   }
 931:Drivers/STM32F4xx_HAL_Driver/Src/stm32f4xx_hal_rcc.c ****   return sysclockfreq;
 1179              		.loc 1 931 3 is_stmt 1 view .LVU373
 1180              	.L110:
 932:Drivers/STM32F4xx_HAL_Driver/Src/stm32f4xx_hal_rcc.c **** }
 1181              		.loc 1 932 1 is_stmt 0 view .LVU374
 1182 0010 08BD     		pop	{r3, pc}
 1183              	.LVL79:
 1184              	.L116:
 909:Drivers/STM32F4xx_HAL_Driver/Src/stm32f4xx_hal_rcc.c ****       if (__HAL_RCC_GET_PLL_OSCSOURCE() != RCC_PLLSOURCE_HSI)
 1185              		.loc 1 909 7 is_stmt 1 view .LVU375
 909:Drivers/STM32F4xx_HAL_Driver/Src/stm32f4xx_hal_rcc.c ****       if (__HAL_RCC_GET_PLL_OSCSOURCE() != RCC_PLLSOURCE_HSI)
 1186              		.loc 1 909 17 is_stmt 0 view .LVU376
 1187 0012 2D4B     		ldr	r3, .L117
 1188 0014 5A68     		ldr	r2, [r3, #4]
 909:Drivers/STM32F4xx_HAL_Driver/Src/stm32f4xx_hal_rcc.c ****       if (__HAL_RCC_GET_PLL_OSCSOURCE() != RCC_PLLSOURCE_HSI)
 1189              		.loc 1 909 12 view .LVU377
 1190 0016 02F03F02 		and	r2, r2, #63
 1191              	.LVL80:
 910:Drivers/STM32F4xx_HAL_Driver/Src/stm32f4xx_hal_rcc.c ****       {
 1192              		.loc 1 910 7 is_stmt 1 view .LVU378
 910:Drivers/STM32F4xx_HAL_Driver/Src/stm32f4xx_hal_rcc.c ****       {
 1193              		.loc 1 910 11 is_stmt 0 view .LVU379
 1194 001a 5B68     		ldr	r3, [r3, #4]
 910:Drivers/STM32F4xx_HAL_Driver/Src/stm32f4xx_hal_rcc.c ****       {
 1195              		.loc 1 910 10 view .LVU380
 1196 001c 13F4800F 		tst	r3, #4194304
 1197 0020 2CD0     		beq	.L112
 913:Drivers/STM32F4xx_HAL_Driver/Src/stm32f4xx_hal_rcc.c ****       }
 1198              		.loc 1 913 9 is_stmt 1 view .LVU381
 913:Drivers/STM32F4xx_HAL_Driver/Src/stm32f4xx_hal_rcc.c ****       }
 1199              		.loc 1 913 70 is_stmt 0 view .LVU382
 1200 0022 294B     		ldr	r3, .L117
 1201 0024 5868     		ldr	r0, [r3, #4]
 913:Drivers/STM32F4xx_HAL_Driver/Src/stm32f4xx_hal_rcc.c ****       }
ARM GAS  C:\Users\Rick\AppData\Local\Temp\ccWRFpbY.s 			page 41


 1202              		.loc 1 913 55 view .LVU383
 1203 0026 C0F38810 		ubfx	r0, r0, #6, #9
 913:Drivers/STM32F4xx_HAL_Driver/Src/stm32f4xx_hal_rcc.c ****       }
 1204              		.loc 1 913 52 view .LVU384
 1205 002a 4FEA401C 		lsl	ip, r0, #5
 1206 002e BCEB000C 		subs	ip, ip, r0
 1207 0032 6EEB0E0E 		sbc	lr, lr, lr
 1208 0036 4FEA8E13 		lsl	r3, lr, #6
 1209 003a 43EA9C63 		orr	r3, r3, ip, lsr #26
 1210 003e 4FEA8C11 		lsl	r1, ip, #6
 1211 0042 B1EB0C01 		subs	r1, r1, ip
 1212 0046 63EB0E03 		sbc	r3, r3, lr
 1213 004a DB00     		lsls	r3, r3, #3
 1214 004c 43EA5173 		orr	r3, r3, r1, lsr #29
 1215 0050 C900     		lsls	r1, r1, #3
 1216 0052 11EB000C 		adds	ip, r1, r0
 1217 0056 43F10003 		adc	r3, r3, #0
 1218 005a 9902     		lsls	r1, r3, #10
 913:Drivers/STM32F4xx_HAL_Driver/Src/stm32f4xx_hal_rcc.c ****       }
 1219              		.loc 1 913 128 view .LVU385
 1220 005c 0023     		movs	r3, #0
 1221 005e 4FEA8C20 		lsl	r0, ip, #10
 1222 0062 41EA9C51 		orr	r1, r1, ip, lsr #22
 1223 0066 FFF7FEFF 		bl	__aeabi_uldivmod
 1224              	.LVL81:
 1225              	.L113:
 920:Drivers/STM32F4xx_HAL_Driver/Src/stm32f4xx_hal_rcc.c **** 
 1226              		.loc 1 920 7 is_stmt 1 view .LVU386
 920:Drivers/STM32F4xx_HAL_Driver/Src/stm32f4xx_hal_rcc.c **** 
 1227              		.loc 1 920 21 is_stmt 0 view .LVU387
 1228 006a 174B     		ldr	r3, .L117
 1229 006c 5B68     		ldr	r3, [r3, #4]
 920:Drivers/STM32F4xx_HAL_Driver/Src/stm32f4xx_hal_rcc.c **** 
 1230              		.loc 1 920 51 view .LVU388
 1231 006e C3F30143 		ubfx	r3, r3, #16, #2
 920:Drivers/STM32F4xx_HAL_Driver/Src/stm32f4xx_hal_rcc.c **** 
 1232              		.loc 1 920 76 view .LVU389
 1233 0072 0133     		adds	r3, r3, #1
 920:Drivers/STM32F4xx_HAL_Driver/Src/stm32f4xx_hal_rcc.c **** 
 1234              		.loc 1 920 12 view .LVU390
 1235 0074 5B00     		lsls	r3, r3, #1
 1236              	.LVL82:
 922:Drivers/STM32F4xx_HAL_Driver/Src/stm32f4xx_hal_rcc.c ****       break;
 1237              		.loc 1 922 7 is_stmt 1 view .LVU391
 922:Drivers/STM32F4xx_HAL_Driver/Src/stm32f4xx_hal_rcc.c ****       break;
 1238              		.loc 1 922 20 is_stmt 0 view .LVU392
 1239 0076 B0FBF3F0 		udiv	r0, r0, r3
 1240              	.LVL83:
 923:Drivers/STM32F4xx_HAL_Driver/Src/stm32f4xx_hal_rcc.c ****     }
 1241              		.loc 1 923 7 is_stmt 1 view .LVU393
 1242 007a C9E7     		b	.L110
 1243              	.LVL84:
 1244              	.L112:
 918:Drivers/STM32F4xx_HAL_Driver/Src/stm32f4xx_hal_rcc.c ****       }
 1245              		.loc 1 918 9 view .LVU394
 918:Drivers/STM32F4xx_HAL_Driver/Src/stm32f4xx_hal_rcc.c ****       }
 1246              		.loc 1 918 70 is_stmt 0 view .LVU395
ARM GAS  C:\Users\Rick\AppData\Local\Temp\ccWRFpbY.s 			page 42


 1247 007c 124B     		ldr	r3, .L117
 1248 007e 5868     		ldr	r0, [r3, #4]
 918:Drivers/STM32F4xx_HAL_Driver/Src/stm32f4xx_hal_rcc.c ****       }
 1249              		.loc 1 918 55 view .LVU396
 1250 0080 C0F38810 		ubfx	r0, r0, #6, #9
 918:Drivers/STM32F4xx_HAL_Driver/Src/stm32f4xx_hal_rcc.c ****       }
 1251              		.loc 1 918 52 view .LVU397
 1252 0084 4FEA401C 		lsl	ip, r0, #5
 1253 0088 BCEB000C 		subs	ip, ip, r0
 1254 008c 6EEB0E0E 		sbc	lr, lr, lr
 1255 0090 4FEA8E13 		lsl	r3, lr, #6
 1256 0094 43EA9C63 		orr	r3, r3, ip, lsr #26
 1257 0098 4FEA8C11 		lsl	r1, ip, #6
 1258 009c B1EB0C01 		subs	r1, r1, ip
 1259 00a0 63EB0E03 		sbc	r3, r3, lr
 1260 00a4 DB00     		lsls	r3, r3, #3
 1261 00a6 43EA5173 		orr	r3, r3, r1, lsr #29
 1262 00aa C900     		lsls	r1, r1, #3
 1263 00ac 11EB000C 		adds	ip, r1, r0
 1264 00b0 43F10003 		adc	r3, r3, #0
 1265 00b4 9902     		lsls	r1, r3, #10
 918:Drivers/STM32F4xx_HAL_Driver/Src/stm32f4xx_hal_rcc.c ****       }
 1266              		.loc 1 918 128 view .LVU398
 1267 00b6 0023     		movs	r3, #0
 1268 00b8 4FEA8C20 		lsl	r0, ip, #10
 1269 00bc 41EA9C51 		orr	r1, r1, ip, lsr #22
 1270 00c0 FFF7FEFF 		bl	__aeabi_uldivmod
 1271              	.LVL85:
 918:Drivers/STM32F4xx_HAL_Driver/Src/stm32f4xx_hal_rcc.c ****       }
 1272              		.loc 1 918 128 view .LVU399
 1273 00c4 D1E7     		b	.L113
 1274              	.L118:
 1275 00c6 00BF     		.align	2
 1276              	.L117:
 1277 00c8 00380240 		.word	1073887232
 1278 00cc 0024F400 		.word	16000000
 1279              		.cfi_endproc
 1280              	.LFE245:
 1282              		.section	.text.HAL_RCC_ClockConfig,"ax",%progbits
 1283              		.align	1
 1284              		.global	HAL_RCC_ClockConfig
 1285              		.syntax unified
 1286              		.thumb
 1287              		.thumb_func
 1289              	HAL_RCC_ClockConfig:
 1290              	.LVL86:
 1291              	.LFB241:
 592:Drivers/STM32F4xx_HAL_Driver/Src/stm32f4xx_hal_rcc.c ****   uint32_t tickstart;
 1292              		.loc 1 592 1 is_stmt 1 view -0
 1293              		.cfi_startproc
 1294              		@ args = 0, pretend = 0, frame = 0
 1295              		@ frame_needed = 0, uses_anonymous_args = 0
 593:Drivers/STM32F4xx_HAL_Driver/Src/stm32f4xx_hal_rcc.c **** 
 1296              		.loc 1 593 3 view .LVU401
 596:Drivers/STM32F4xx_HAL_Driver/Src/stm32f4xx_hal_rcc.c ****   {
 1297              		.loc 1 596 3 view .LVU402
 596:Drivers/STM32F4xx_HAL_Driver/Src/stm32f4xx_hal_rcc.c ****   {
ARM GAS  C:\Users\Rick\AppData\Local\Temp\ccWRFpbY.s 			page 43


 1298              		.loc 1 596 6 is_stmt 0 view .LVU403
 1299 0000 0028     		cmp	r0, #0
 1300 0002 00F09B80 		beq	.L134
 592:Drivers/STM32F4xx_HAL_Driver/Src/stm32f4xx_hal_rcc.c ****   uint32_t tickstart;
 1301              		.loc 1 592 1 view .LVU404
 1302 0006 70B5     		push	{r4, r5, r6, lr}
 1303              		.cfi_def_cfa_offset 16
 1304              		.cfi_offset 4, -16
 1305              		.cfi_offset 5, -12
 1306              		.cfi_offset 6, -8
 1307              		.cfi_offset 14, -4
 1308 0008 0D46     		mov	r5, r1
 1309 000a 0446     		mov	r4, r0
 602:Drivers/STM32F4xx_HAL_Driver/Src/stm32f4xx_hal_rcc.c ****   assert_param(IS_FLASH_LATENCY(FLatency));
 1310              		.loc 1 602 3 is_stmt 1 view .LVU405
 603:Drivers/STM32F4xx_HAL_Driver/Src/stm32f4xx_hal_rcc.c **** 
 1311              		.loc 1 603 3 view .LVU406
 610:Drivers/STM32F4xx_HAL_Driver/Src/stm32f4xx_hal_rcc.c ****   {
 1312              		.loc 1 610 3 view .LVU407
 610:Drivers/STM32F4xx_HAL_Driver/Src/stm32f4xx_hal_rcc.c ****   {
 1313              		.loc 1 610 18 is_stmt 0 view .LVU408
 1314 000c 4F4B     		ldr	r3, .L147
 1315 000e 1B68     		ldr	r3, [r3]
 1316 0010 03F00F03 		and	r3, r3, #15
 610:Drivers/STM32F4xx_HAL_Driver/Src/stm32f4xx_hal_rcc.c ****   {
 1317              		.loc 1 610 6 view .LVU409
 1318 0014 8B42     		cmp	r3, r1
 1319 0016 08D2     		bcs	.L121
 613:Drivers/STM32F4xx_HAL_Driver/Src/stm32f4xx_hal_rcc.c **** 
 1320              		.loc 1 613 5 is_stmt 1 view .LVU410
 1321 0018 CBB2     		uxtb	r3, r1
 1322 001a 4C4A     		ldr	r2, .L147
 1323 001c 1370     		strb	r3, [r2]
 617:Drivers/STM32F4xx_HAL_Driver/Src/stm32f4xx_hal_rcc.c ****     {
 1324              		.loc 1 617 5 view .LVU411
 617:Drivers/STM32F4xx_HAL_Driver/Src/stm32f4xx_hal_rcc.c ****     {
 1325              		.loc 1 617 9 is_stmt 0 view .LVU412
 1326 001e 1368     		ldr	r3, [r2]
 1327 0020 03F00F03 		and	r3, r3, #15
 617:Drivers/STM32F4xx_HAL_Driver/Src/stm32f4xx_hal_rcc.c ****     {
 1328              		.loc 1 617 8 view .LVU413
 1329 0024 8B42     		cmp	r3, r1
 1330 0026 40F08B80 		bne	.L135
 1331              	.L121:
 624:Drivers/STM32F4xx_HAL_Driver/Src/stm32f4xx_hal_rcc.c ****   {
 1332              		.loc 1 624 3 is_stmt 1 view .LVU414
 624:Drivers/STM32F4xx_HAL_Driver/Src/stm32f4xx_hal_rcc.c ****   {
 1333              		.loc 1 624 26 is_stmt 0 view .LVU415
 1334 002a 2368     		ldr	r3, [r4]
 624:Drivers/STM32F4xx_HAL_Driver/Src/stm32f4xx_hal_rcc.c ****   {
 1335              		.loc 1 624 6 view .LVU416
 1336 002c 13F0020F 		tst	r3, #2
 1337 0030 17D0     		beq	.L122
 628:Drivers/STM32F4xx_HAL_Driver/Src/stm32f4xx_hal_rcc.c ****     {
 1338              		.loc 1 628 5 is_stmt 1 view .LVU417
 628:Drivers/STM32F4xx_HAL_Driver/Src/stm32f4xx_hal_rcc.c ****     {
 1339              		.loc 1 628 8 is_stmt 0 view .LVU418
ARM GAS  C:\Users\Rick\AppData\Local\Temp\ccWRFpbY.s 			page 44


 1340 0032 13F0040F 		tst	r3, #4
 1341 0036 04D0     		beq	.L123
 630:Drivers/STM32F4xx_HAL_Driver/Src/stm32f4xx_hal_rcc.c ****     }
 1342              		.loc 1 630 7 is_stmt 1 view .LVU419
 1343 0038 454A     		ldr	r2, .L147+4
 1344 003a 9368     		ldr	r3, [r2, #8]
 1345 003c 43F4E053 		orr	r3, r3, #7168
 1346 0040 9360     		str	r3, [r2, #8]
 1347              	.L123:
 633:Drivers/STM32F4xx_HAL_Driver/Src/stm32f4xx_hal_rcc.c ****     {
 1348              		.loc 1 633 5 view .LVU420
 633:Drivers/STM32F4xx_HAL_Driver/Src/stm32f4xx_hal_rcc.c ****     {
 1349              		.loc 1 633 28 is_stmt 0 view .LVU421
 1350 0042 2368     		ldr	r3, [r4]
 633:Drivers/STM32F4xx_HAL_Driver/Src/stm32f4xx_hal_rcc.c ****     {
 1351              		.loc 1 633 8 view .LVU422
 1352 0044 13F0080F 		tst	r3, #8
 1353 0048 04D0     		beq	.L124
 635:Drivers/STM32F4xx_HAL_Driver/Src/stm32f4xx_hal_rcc.c ****     }
 1354              		.loc 1 635 7 is_stmt 1 view .LVU423
 1355 004a 414A     		ldr	r2, .L147+4
 1356 004c 9368     		ldr	r3, [r2, #8]
 1357 004e 43F46043 		orr	r3, r3, #57344
 1358 0052 9360     		str	r3, [r2, #8]
 1359              	.L124:
 638:Drivers/STM32F4xx_HAL_Driver/Src/stm32f4xx_hal_rcc.c ****     MODIFY_REG(RCC->CFGR, RCC_CFGR_HPRE, RCC_ClkInitStruct->AHBCLKDivider);
 1360              		.loc 1 638 5 view .LVU424
 639:Drivers/STM32F4xx_HAL_Driver/Src/stm32f4xx_hal_rcc.c ****   }
 1361              		.loc 1 639 5 view .LVU425
 1362 0054 3E4A     		ldr	r2, .L147+4
 1363 0056 9368     		ldr	r3, [r2, #8]
 1364 0058 23F0F003 		bic	r3, r3, #240
 1365 005c A168     		ldr	r1, [r4, #8]
 1366              	.LVL87:
 639:Drivers/STM32F4xx_HAL_Driver/Src/stm32f4xx_hal_rcc.c ****   }
 1367              		.loc 1 639 5 is_stmt 0 view .LVU426
 1368 005e 0B43     		orrs	r3, r3, r1
 1369 0060 9360     		str	r3, [r2, #8]
 1370              	.L122:
 643:Drivers/STM32F4xx_HAL_Driver/Src/stm32f4xx_hal_rcc.c ****   {
 1371              		.loc 1 643 3 is_stmt 1 view .LVU427
 643:Drivers/STM32F4xx_HAL_Driver/Src/stm32f4xx_hal_rcc.c ****   {
 1372              		.loc 1 643 26 is_stmt 0 view .LVU428
 1373 0062 2368     		ldr	r3, [r4]
 643:Drivers/STM32F4xx_HAL_Driver/Src/stm32f4xx_hal_rcc.c ****   {
 1374              		.loc 1 643 6 view .LVU429
 1375 0064 13F0010F 		tst	r3, #1
 1376 0068 32D0     		beq	.L125
 645:Drivers/STM32F4xx_HAL_Driver/Src/stm32f4xx_hal_rcc.c **** 
 1377              		.loc 1 645 5 is_stmt 1 view .LVU430
 648:Drivers/STM32F4xx_HAL_Driver/Src/stm32f4xx_hal_rcc.c ****     {
 1378              		.loc 1 648 5 view .LVU431
 648:Drivers/STM32F4xx_HAL_Driver/Src/stm32f4xx_hal_rcc.c ****     {
 1379              		.loc 1 648 26 is_stmt 0 view .LVU432
 1380 006a 6368     		ldr	r3, [r4, #4]
 648:Drivers/STM32F4xx_HAL_Driver/Src/stm32f4xx_hal_rcc.c ****     {
 1381              		.loc 1 648 8 view .LVU433
ARM GAS  C:\Users\Rick\AppData\Local\Temp\ccWRFpbY.s 			page 45


 1382 006c 012B     		cmp	r3, #1
 1383 006e 21D0     		beq	.L145
 657:Drivers/STM32F4xx_HAL_Driver/Src/stm32f4xx_hal_rcc.c ****              (RCC_ClkInitStruct->SYSCLKSource == RCC_SYSCLKSOURCE_PLLRCLK))
 1384              		.loc 1 657 10 is_stmt 1 view .LVU434
 657:Drivers/STM32F4xx_HAL_Driver/Src/stm32f4xx_hal_rcc.c ****              (RCC_ClkInitStruct->SYSCLKSource == RCC_SYSCLKSOURCE_PLLRCLK))
 1385              		.loc 1 657 77 is_stmt 0 view .LVU435
 1386 0070 9A1E     		subs	r2, r3, #2
 657:Drivers/STM32F4xx_HAL_Driver/Src/stm32f4xx_hal_rcc.c ****              (RCC_ClkInitStruct->SYSCLKSource == RCC_SYSCLKSOURCE_PLLRCLK))
 1387              		.loc 1 657 13 view .LVU436
 1388 0072 012A     		cmp	r2, #1
 1389 0074 25D9     		bls	.L146
 670:Drivers/STM32F4xx_HAL_Driver/Src/stm32f4xx_hal_rcc.c ****       {
 1390              		.loc 1 670 7 is_stmt 1 view .LVU437
 670:Drivers/STM32F4xx_HAL_Driver/Src/stm32f4xx_hal_rcc.c ****       {
 1391              		.loc 1 670 11 is_stmt 0 view .LVU438
 1392 0076 364A     		ldr	r2, .L147+4
 1393 0078 1268     		ldr	r2, [r2]
 670:Drivers/STM32F4xx_HAL_Driver/Src/stm32f4xx_hal_rcc.c ****       {
 1394              		.loc 1 670 10 view .LVU439
 1395 007a 12F0020F 		tst	r2, #2
 1396 007e 61D0     		beq	.L138
 1397              	.L127:
 676:Drivers/STM32F4xx_HAL_Driver/Src/stm32f4xx_hal_rcc.c **** 
 1398              		.loc 1 676 5 is_stmt 1 view .LVU440
 1399 0080 3349     		ldr	r1, .L147+4
 1400 0082 8A68     		ldr	r2, [r1, #8]
 1401 0084 22F00302 		bic	r2, r2, #3
 1402 0088 1343     		orrs	r3, r3, r2
 1403 008a 8B60     		str	r3, [r1, #8]
 679:Drivers/STM32F4xx_HAL_Driver/Src/stm32f4xx_hal_rcc.c **** 
 1404              		.loc 1 679 5 view .LVU441
 679:Drivers/STM32F4xx_HAL_Driver/Src/stm32f4xx_hal_rcc.c **** 
 1405              		.loc 1 679 17 is_stmt 0 view .LVU442
 1406 008c FFF7FEFF 		bl	HAL_GetTick
 1407              	.LVL88:
 679:Drivers/STM32F4xx_HAL_Driver/Src/stm32f4xx_hal_rcc.c **** 
 1408              		.loc 1 679 17 view .LVU443
 1409 0090 0646     		mov	r6, r0
 1410              	.LVL89:
 681:Drivers/STM32F4xx_HAL_Driver/Src/stm32f4xx_hal_rcc.c ****     {
 1411              		.loc 1 681 5 is_stmt 1 view .LVU444
 1412              	.L129:
 681:Drivers/STM32F4xx_HAL_Driver/Src/stm32f4xx_hal_rcc.c ****     {
 1413              		.loc 1 681 42 view .LVU445
 681:Drivers/STM32F4xx_HAL_Driver/Src/stm32f4xx_hal_rcc.c ****     {
 1414              		.loc 1 681 12 is_stmt 0 view .LVU446
 1415 0092 2F4B     		ldr	r3, .L147+4
 1416 0094 9B68     		ldr	r3, [r3, #8]
 1417 0096 03F00C03 		and	r3, r3, #12
 681:Drivers/STM32F4xx_HAL_Driver/Src/stm32f4xx_hal_rcc.c ****     {
 1418              		.loc 1 681 63 view .LVU447
 1419 009a 6268     		ldr	r2, [r4, #4]
 681:Drivers/STM32F4xx_HAL_Driver/Src/stm32f4xx_hal_rcc.c ****     {
 1420              		.loc 1 681 42 view .LVU448
 1421 009c B3EB820F 		cmp	r3, r2, lsl #2
 1422 00a0 16D0     		beq	.L125
 683:Drivers/STM32F4xx_HAL_Driver/Src/stm32f4xx_hal_rcc.c ****       {
ARM GAS  C:\Users\Rick\AppData\Local\Temp\ccWRFpbY.s 			page 46


 1423              		.loc 1 683 7 is_stmt 1 view .LVU449
 683:Drivers/STM32F4xx_HAL_Driver/Src/stm32f4xx_hal_rcc.c ****       {
 1424              		.loc 1 683 12 is_stmt 0 view .LVU450
 1425 00a2 FFF7FEFF 		bl	HAL_GetTick
 1426              	.LVL90:
 683:Drivers/STM32F4xx_HAL_Driver/Src/stm32f4xx_hal_rcc.c ****       {
 1427              		.loc 1 683 26 discriminator 1 view .LVU451
 1428 00a6 801B     		subs	r0, r0, r6
 683:Drivers/STM32F4xx_HAL_Driver/Src/stm32f4xx_hal_rcc.c ****       {
 1429              		.loc 1 683 10 discriminator 1 view .LVU452
 1430 00a8 41F28833 		movw	r3, #5000
 1431 00ac 9842     		cmp	r0, r3
 1432 00ae F0D9     		bls	.L129
 685:Drivers/STM32F4xx_HAL_Driver/Src/stm32f4xx_hal_rcc.c ****       }
 1433              		.loc 1 685 16 view .LVU453
 1434 00b0 0320     		movs	r0, #3
 1435 00b2 42E0     		b	.L120
 1436              	.LVL91:
 1437              	.L145:
 651:Drivers/STM32F4xx_HAL_Driver/Src/stm32f4xx_hal_rcc.c ****       {
 1438              		.loc 1 651 7 is_stmt 1 view .LVU454
 651:Drivers/STM32F4xx_HAL_Driver/Src/stm32f4xx_hal_rcc.c ****       {
 1439              		.loc 1 651 11 is_stmt 0 view .LVU455
 1440 00b4 264A     		ldr	r2, .L147+4
 1441 00b6 1268     		ldr	r2, [r2]
 651:Drivers/STM32F4xx_HAL_Driver/Src/stm32f4xx_hal_rcc.c ****       {
 1442              		.loc 1 651 10 view .LVU456
 1443 00b8 12F4003F 		tst	r2, #131072
 1444 00bc E0D1     		bne	.L127
 653:Drivers/STM32F4xx_HAL_Driver/Src/stm32f4xx_hal_rcc.c ****       }
 1445              		.loc 1 653 16 view .LVU457
 1446 00be 0120     		movs	r0, #1
 1447              	.LVL92:
 653:Drivers/STM32F4xx_HAL_Driver/Src/stm32f4xx_hal_rcc.c ****       }
 1448              		.loc 1 653 16 view .LVU458
 1449 00c0 3BE0     		b	.L120
 1450              	.LVL93:
 1451              	.L146:
 661:Drivers/STM32F4xx_HAL_Driver/Src/stm32f4xx_hal_rcc.c ****       {
 1452              		.loc 1 661 7 is_stmt 1 view .LVU459
 661:Drivers/STM32F4xx_HAL_Driver/Src/stm32f4xx_hal_rcc.c ****       {
 1453              		.loc 1 661 11 is_stmt 0 view .LVU460
 1454 00c2 234A     		ldr	r2, .L147+4
 1455 00c4 1268     		ldr	r2, [r2]
 661:Drivers/STM32F4xx_HAL_Driver/Src/stm32f4xx_hal_rcc.c ****       {
 1456              		.loc 1 661 10 view .LVU461
 1457 00c6 12F0007F 		tst	r2, #33554432
 1458 00ca D9D1     		bne	.L127
 663:Drivers/STM32F4xx_HAL_Driver/Src/stm32f4xx_hal_rcc.c ****       }
 1459              		.loc 1 663 16 view .LVU462
 1460 00cc 0120     		movs	r0, #1
 1461              	.LVL94:
 663:Drivers/STM32F4xx_HAL_Driver/Src/stm32f4xx_hal_rcc.c ****       }
 1462              		.loc 1 663 16 view .LVU463
 1463 00ce 34E0     		b	.L120
 1464              	.L125:
 691:Drivers/STM32F4xx_HAL_Driver/Src/stm32f4xx_hal_rcc.c ****   {
ARM GAS  C:\Users\Rick\AppData\Local\Temp\ccWRFpbY.s 			page 47


 1465              		.loc 1 691 3 is_stmt 1 view .LVU464
 691:Drivers/STM32F4xx_HAL_Driver/Src/stm32f4xx_hal_rcc.c ****   {
 1466              		.loc 1 691 18 is_stmt 0 view .LVU465
 1467 00d0 1E4B     		ldr	r3, .L147
 1468 00d2 1B68     		ldr	r3, [r3]
 1469 00d4 03F00F03 		and	r3, r3, #15
 691:Drivers/STM32F4xx_HAL_Driver/Src/stm32f4xx_hal_rcc.c ****   {
 1470              		.loc 1 691 6 view .LVU466
 1471 00d8 AB42     		cmp	r3, r5
 1472 00da 07D9     		bls	.L131
 694:Drivers/STM32F4xx_HAL_Driver/Src/stm32f4xx_hal_rcc.c **** 
 1473              		.loc 1 694 5 is_stmt 1 view .LVU467
 1474 00dc EAB2     		uxtb	r2, r5
 1475 00de 1B4B     		ldr	r3, .L147
 1476 00e0 1A70     		strb	r2, [r3]
 698:Drivers/STM32F4xx_HAL_Driver/Src/stm32f4xx_hal_rcc.c ****     {
 1477              		.loc 1 698 5 view .LVU468
 698:Drivers/STM32F4xx_HAL_Driver/Src/stm32f4xx_hal_rcc.c ****     {
 1478              		.loc 1 698 9 is_stmt 0 view .LVU469
 1479 00e2 1B68     		ldr	r3, [r3]
 1480 00e4 03F00F03 		and	r3, r3, #15
 698:Drivers/STM32F4xx_HAL_Driver/Src/stm32f4xx_hal_rcc.c ****     {
 1481              		.loc 1 698 8 view .LVU470
 1482 00e8 AB42     		cmp	r3, r5
 1483 00ea 2DD1     		bne	.L140
 1484              	.L131:
 705:Drivers/STM32F4xx_HAL_Driver/Src/stm32f4xx_hal_rcc.c ****   {
 1485              		.loc 1 705 3 is_stmt 1 view .LVU471
 705:Drivers/STM32F4xx_HAL_Driver/Src/stm32f4xx_hal_rcc.c ****   {
 1486              		.loc 1 705 26 is_stmt 0 view .LVU472
 1487 00ec 2368     		ldr	r3, [r4]
 705:Drivers/STM32F4xx_HAL_Driver/Src/stm32f4xx_hal_rcc.c ****   {
 1488              		.loc 1 705 6 view .LVU473
 1489 00ee 13F0040F 		tst	r3, #4
 1490 00f2 06D0     		beq	.L132
 707:Drivers/STM32F4xx_HAL_Driver/Src/stm32f4xx_hal_rcc.c ****     MODIFY_REG(RCC->CFGR, RCC_CFGR_PPRE1, RCC_ClkInitStruct->APB1CLKDivider);
 1491              		.loc 1 707 5 is_stmt 1 view .LVU474
 708:Drivers/STM32F4xx_HAL_Driver/Src/stm32f4xx_hal_rcc.c ****   }
 1492              		.loc 1 708 5 view .LVU475
 1493 00f4 164A     		ldr	r2, .L147+4
 1494 00f6 9368     		ldr	r3, [r2, #8]
 1495 00f8 23F4E053 		bic	r3, r3, #7168
 1496 00fc E168     		ldr	r1, [r4, #12]
 1497 00fe 0B43     		orrs	r3, r3, r1
 1498 0100 9360     		str	r3, [r2, #8]
 1499              	.L132:
 712:Drivers/STM32F4xx_HAL_Driver/Src/stm32f4xx_hal_rcc.c ****   {
 1500              		.loc 1 712 3 view .LVU476
 712:Drivers/STM32F4xx_HAL_Driver/Src/stm32f4xx_hal_rcc.c ****   {
 1501              		.loc 1 712 26 is_stmt 0 view .LVU477
 1502 0102 2368     		ldr	r3, [r4]
 712:Drivers/STM32F4xx_HAL_Driver/Src/stm32f4xx_hal_rcc.c ****   {
 1503              		.loc 1 712 6 view .LVU478
 1504 0104 13F0080F 		tst	r3, #8
 1505 0108 07D0     		beq	.L133
 714:Drivers/STM32F4xx_HAL_Driver/Src/stm32f4xx_hal_rcc.c ****     MODIFY_REG(RCC->CFGR, RCC_CFGR_PPRE2, ((RCC_ClkInitStruct->APB2CLKDivider) << 3U));
 1506              		.loc 1 714 5 is_stmt 1 view .LVU479
ARM GAS  C:\Users\Rick\AppData\Local\Temp\ccWRFpbY.s 			page 48


 715:Drivers/STM32F4xx_HAL_Driver/Src/stm32f4xx_hal_rcc.c ****   }
 1507              		.loc 1 715 5 view .LVU480
 1508 010a 114A     		ldr	r2, .L147+4
 1509 010c 9368     		ldr	r3, [r2, #8]
 1510 010e 23F46043 		bic	r3, r3, #57344
 1511 0112 2169     		ldr	r1, [r4, #16]
 1512 0114 43EAC103 		orr	r3, r3, r1, lsl #3
 1513 0118 9360     		str	r3, [r2, #8]
 1514              	.L133:
 719:Drivers/STM32F4xx_HAL_Driver/Src/stm32f4xx_hal_rcc.c **** 
 1515              		.loc 1 719 3 view .LVU481
 719:Drivers/STM32F4xx_HAL_Driver/Src/stm32f4xx_hal_rcc.c **** 
 1516              		.loc 1 719 21 is_stmt 0 view .LVU482
 1517 011a FFF7FEFF 		bl	HAL_RCC_GetSysClockFreq
 1518              	.LVL95:
 719:Drivers/STM32F4xx_HAL_Driver/Src/stm32f4xx_hal_rcc.c **** 
 1519              		.loc 1 719 68 discriminator 1 view .LVU483
 1520 011e 0C4B     		ldr	r3, .L147+4
 1521 0120 9B68     		ldr	r3, [r3, #8]
 719:Drivers/STM32F4xx_HAL_Driver/Src/stm32f4xx_hal_rcc.c **** 
 1522              		.loc 1 719 92 discriminator 1 view .LVU484
 1523 0122 C3F30313 		ubfx	r3, r3, #4, #4
 719:Drivers/STM32F4xx_HAL_Driver/Src/stm32f4xx_hal_rcc.c **** 
 1524              		.loc 1 719 63 discriminator 1 view .LVU485
 1525 0126 0B4A     		ldr	r2, .L147+8
 1526 0128 D35C     		ldrb	r3, [r2, r3]	@ zero_extendqisi2
 719:Drivers/STM32F4xx_HAL_Driver/Src/stm32f4xx_hal_rcc.c **** 
 1527              		.loc 1 719 47 discriminator 1 view .LVU486
 1528 012a D840     		lsrs	r0, r0, r3
 719:Drivers/STM32F4xx_HAL_Driver/Src/stm32f4xx_hal_rcc.c **** 
 1529              		.loc 1 719 19 discriminator 1 view .LVU487
 1530 012c 0A4B     		ldr	r3, .L147+12
 1531 012e 1860     		str	r0, [r3]
 722:Drivers/STM32F4xx_HAL_Driver/Src/stm32f4xx_hal_rcc.c **** 
 1532              		.loc 1 722 3 is_stmt 1 view .LVU488
 1533 0130 0A4B     		ldr	r3, .L147+16
 1534 0132 1868     		ldr	r0, [r3]
 1535 0134 FFF7FEFF 		bl	HAL_InitTick
 1536              	.LVL96:
 724:Drivers/STM32F4xx_HAL_Driver/Src/stm32f4xx_hal_rcc.c **** }
 1537              		.loc 1 724 3 view .LVU489
 724:Drivers/STM32F4xx_HAL_Driver/Src/stm32f4xx_hal_rcc.c **** }
 1538              		.loc 1 724 10 is_stmt 0 view .LVU490
 1539 0138 0020     		movs	r0, #0
 1540              	.L120:
 725:Drivers/STM32F4xx_HAL_Driver/Src/stm32f4xx_hal_rcc.c **** 
 1541              		.loc 1 725 1 view .LVU491
 1542 013a 70BD     		pop	{r4, r5, r6, pc}
 1543              	.LVL97:
 1544              	.L134:
 1545              		.cfi_def_cfa_offset 0
 1546              		.cfi_restore 4
 1547              		.cfi_restore 5
 1548              		.cfi_restore 6
 1549              		.cfi_restore 14
 598:Drivers/STM32F4xx_HAL_Driver/Src/stm32f4xx_hal_rcc.c ****   }
 1550              		.loc 1 598 12 view .LVU492
ARM GAS  C:\Users\Rick\AppData\Local\Temp\ccWRFpbY.s 			page 49


 1551 013c 0120     		movs	r0, #1
 1552              	.LVL98:
 725:Drivers/STM32F4xx_HAL_Driver/Src/stm32f4xx_hal_rcc.c **** 
 1553              		.loc 1 725 1 view .LVU493
 1554 013e 7047     		bx	lr
 1555              	.LVL99:
 1556              	.L135:
 1557              		.cfi_def_cfa_offset 16
 1558              		.cfi_offset 4, -16
 1559              		.cfi_offset 5, -12
 1560              		.cfi_offset 6, -8
 1561              		.cfi_offset 14, -4
 619:Drivers/STM32F4xx_HAL_Driver/Src/stm32f4xx_hal_rcc.c ****     }
 1562              		.loc 1 619 14 view .LVU494
 1563 0140 0120     		movs	r0, #1
 1564              	.LVL100:
 619:Drivers/STM32F4xx_HAL_Driver/Src/stm32f4xx_hal_rcc.c ****     }
 1565              		.loc 1 619 14 view .LVU495
 1566 0142 FAE7     		b	.L120
 1567              	.LVL101:
 1568              	.L138:
 672:Drivers/STM32F4xx_HAL_Driver/Src/stm32f4xx_hal_rcc.c ****       }
 1569              		.loc 1 672 16 view .LVU496
 1570 0144 0120     		movs	r0, #1
 1571              	.LVL102:
 672:Drivers/STM32F4xx_HAL_Driver/Src/stm32f4xx_hal_rcc.c ****       }
 1572              		.loc 1 672 16 view .LVU497
 1573 0146 F8E7     		b	.L120
 1574              	.L140:
 700:Drivers/STM32F4xx_HAL_Driver/Src/stm32f4xx_hal_rcc.c ****     }
 1575              		.loc 1 700 14 view .LVU498
 1576 0148 0120     		movs	r0, #1
 1577 014a F6E7     		b	.L120
 1578              	.L148:
 1579              		.align	2
 1580              	.L147:
 1581 014c 003C0240 		.word	1073888256
 1582 0150 00380240 		.word	1073887232
 1583 0154 00000000 		.word	AHBPrescTable
 1584 0158 00000000 		.word	SystemCoreClock
 1585 015c 00000000 		.word	uwTickPrio
 1586              		.cfi_endproc
 1587              	.LFE241:
 1589              		.section	.text.HAL_RCC_GetHCLKFreq,"ax",%progbits
 1590              		.align	1
 1591              		.global	HAL_RCC_GetHCLKFreq
 1592              		.syntax unified
 1593              		.thumb
 1594              		.thumb_func
 1596              	HAL_RCC_GetHCLKFreq:
 1597              	.LFB246:
 933:Drivers/STM32F4xx_HAL_Driver/Src/stm32f4xx_hal_rcc.c **** 
 934:Drivers/STM32F4xx_HAL_Driver/Src/stm32f4xx_hal_rcc.c **** /**
 935:Drivers/STM32F4xx_HAL_Driver/Src/stm32f4xx_hal_rcc.c ****   * @brief  Returns the HCLK frequency
 936:Drivers/STM32F4xx_HAL_Driver/Src/stm32f4xx_hal_rcc.c ****   * @note   Each time HCLK changes, this function must be called to update the
 937:Drivers/STM32F4xx_HAL_Driver/Src/stm32f4xx_hal_rcc.c ****   *         right HCLK value. Otherwise, any configuration based on this function will be incorrect
 938:Drivers/STM32F4xx_HAL_Driver/Src/stm32f4xx_hal_rcc.c ****   *
ARM GAS  C:\Users\Rick\AppData\Local\Temp\ccWRFpbY.s 			page 50


 939:Drivers/STM32F4xx_HAL_Driver/Src/stm32f4xx_hal_rcc.c ****   * @note   The SystemCoreClock CMSIS variable is used to store System Clock Frequency
 940:Drivers/STM32F4xx_HAL_Driver/Src/stm32f4xx_hal_rcc.c ****   *         and updated within this function
 941:Drivers/STM32F4xx_HAL_Driver/Src/stm32f4xx_hal_rcc.c ****   * @retval HCLK frequency
 942:Drivers/STM32F4xx_HAL_Driver/Src/stm32f4xx_hal_rcc.c ****   */
 943:Drivers/STM32F4xx_HAL_Driver/Src/stm32f4xx_hal_rcc.c **** uint32_t HAL_RCC_GetHCLKFreq(void)
 944:Drivers/STM32F4xx_HAL_Driver/Src/stm32f4xx_hal_rcc.c **** {
 1598              		.loc 1 944 1 is_stmt 1 view -0
 1599              		.cfi_startproc
 1600              		@ args = 0, pretend = 0, frame = 0
 1601              		@ frame_needed = 0, uses_anonymous_args = 0
 1602              		@ link register save eliminated.
 945:Drivers/STM32F4xx_HAL_Driver/Src/stm32f4xx_hal_rcc.c ****   return SystemCoreClock;
 1603              		.loc 1 945 3 view .LVU500
 946:Drivers/STM32F4xx_HAL_Driver/Src/stm32f4xx_hal_rcc.c **** }
 1604              		.loc 1 946 1 is_stmt 0 view .LVU501
 1605 0000 014B     		ldr	r3, .L150
 1606 0002 1868     		ldr	r0, [r3]
 1607 0004 7047     		bx	lr
 1608              	.L151:
 1609 0006 00BF     		.align	2
 1610              	.L150:
 1611 0008 00000000 		.word	SystemCoreClock
 1612              		.cfi_endproc
 1613              	.LFE246:
 1615              		.section	.text.HAL_RCC_GetPCLK1Freq,"ax",%progbits
 1616              		.align	1
 1617              		.global	HAL_RCC_GetPCLK1Freq
 1618              		.syntax unified
 1619              		.thumb
 1620              		.thumb_func
 1622              	HAL_RCC_GetPCLK1Freq:
 1623              	.LFB247:
 947:Drivers/STM32F4xx_HAL_Driver/Src/stm32f4xx_hal_rcc.c **** 
 948:Drivers/STM32F4xx_HAL_Driver/Src/stm32f4xx_hal_rcc.c **** /**
 949:Drivers/STM32F4xx_HAL_Driver/Src/stm32f4xx_hal_rcc.c ****   * @brief  Returns the PCLK1 frequency
 950:Drivers/STM32F4xx_HAL_Driver/Src/stm32f4xx_hal_rcc.c ****   * @note   Each time PCLK1 changes, this function must be called to update the
 951:Drivers/STM32F4xx_HAL_Driver/Src/stm32f4xx_hal_rcc.c ****   *         right PCLK1 value. Otherwise, any configuration based on this function will be incorrec
 952:Drivers/STM32F4xx_HAL_Driver/Src/stm32f4xx_hal_rcc.c ****   * @retval PCLK1 frequency
 953:Drivers/STM32F4xx_HAL_Driver/Src/stm32f4xx_hal_rcc.c ****   */
 954:Drivers/STM32F4xx_HAL_Driver/Src/stm32f4xx_hal_rcc.c **** uint32_t HAL_RCC_GetPCLK1Freq(void)
 955:Drivers/STM32F4xx_HAL_Driver/Src/stm32f4xx_hal_rcc.c **** {
 1624              		.loc 1 955 1 is_stmt 1 view -0
 1625              		.cfi_startproc
 1626              		@ args = 0, pretend = 0, frame = 0
 1627              		@ frame_needed = 0, uses_anonymous_args = 0
 1628 0000 08B5     		push	{r3, lr}
 1629              		.cfi_def_cfa_offset 8
 1630              		.cfi_offset 3, -8
 1631              		.cfi_offset 14, -4
 956:Drivers/STM32F4xx_HAL_Driver/Src/stm32f4xx_hal_rcc.c ****   /* Get HCLK source and Compute PCLK1 frequency ---------------------------*/
 957:Drivers/STM32F4xx_HAL_Driver/Src/stm32f4xx_hal_rcc.c ****   return (HAL_RCC_GetHCLKFreq() >> APBPrescTable[(RCC->CFGR & RCC_CFGR_PPRE1) >> RCC_CFGR_PPRE1_Pos
 1632              		.loc 1 957 3 view .LVU503
 1633              		.loc 1 957 11 is_stmt 0 view .LVU504
 1634 0002 FFF7FEFF 		bl	HAL_RCC_GetHCLKFreq
 1635              	.LVL103:
 1636              		.loc 1 957 54 discriminator 1 view .LVU505
 1637 0006 044B     		ldr	r3, .L154
ARM GAS  C:\Users\Rick\AppData\Local\Temp\ccWRFpbY.s 			page 51


 1638 0008 9B68     		ldr	r3, [r3, #8]
 1639              		.loc 1 957 79 discriminator 1 view .LVU506
 1640 000a C3F38223 		ubfx	r3, r3, #10, #3
 1641              		.loc 1 957 49 discriminator 1 view .LVU507
 1642 000e 034A     		ldr	r2, .L154+4
 1643 0010 D35C     		ldrb	r3, [r2, r3]	@ zero_extendqisi2
 958:Drivers/STM32F4xx_HAL_Driver/Src/stm32f4xx_hal_rcc.c **** }
 1644              		.loc 1 958 1 view .LVU508
 1645 0012 D840     		lsrs	r0, r0, r3
 1646 0014 08BD     		pop	{r3, pc}
 1647              	.L155:
 1648 0016 00BF     		.align	2
 1649              	.L154:
 1650 0018 00380240 		.word	1073887232
 1651 001c 00000000 		.word	APBPrescTable
 1652              		.cfi_endproc
 1653              	.LFE247:
 1655              		.section	.text.HAL_RCC_GetPCLK2Freq,"ax",%progbits
 1656              		.align	1
 1657              		.global	HAL_RCC_GetPCLK2Freq
 1658              		.syntax unified
 1659              		.thumb
 1660              		.thumb_func
 1662              	HAL_RCC_GetPCLK2Freq:
 1663              	.LFB248:
 959:Drivers/STM32F4xx_HAL_Driver/Src/stm32f4xx_hal_rcc.c **** 
 960:Drivers/STM32F4xx_HAL_Driver/Src/stm32f4xx_hal_rcc.c **** /**
 961:Drivers/STM32F4xx_HAL_Driver/Src/stm32f4xx_hal_rcc.c ****   * @brief  Returns the PCLK2 frequency
 962:Drivers/STM32F4xx_HAL_Driver/Src/stm32f4xx_hal_rcc.c ****   * @note   Each time PCLK2 changes, this function must be called to update the
 963:Drivers/STM32F4xx_HAL_Driver/Src/stm32f4xx_hal_rcc.c ****   *         right PCLK2 value. Otherwise, any configuration based on this function will be incorrec
 964:Drivers/STM32F4xx_HAL_Driver/Src/stm32f4xx_hal_rcc.c ****   * @retval PCLK2 frequency
 965:Drivers/STM32F4xx_HAL_Driver/Src/stm32f4xx_hal_rcc.c ****   */
 966:Drivers/STM32F4xx_HAL_Driver/Src/stm32f4xx_hal_rcc.c **** uint32_t HAL_RCC_GetPCLK2Freq(void)
 967:Drivers/STM32F4xx_HAL_Driver/Src/stm32f4xx_hal_rcc.c **** {
 1664              		.loc 1 967 1 is_stmt 1 view -0
 1665              		.cfi_startproc
 1666              		@ args = 0, pretend = 0, frame = 0
 1667              		@ frame_needed = 0, uses_anonymous_args = 0
 1668 0000 08B5     		push	{r3, lr}
 1669              		.cfi_def_cfa_offset 8
 1670              		.cfi_offset 3, -8
 1671              		.cfi_offset 14, -4
 968:Drivers/STM32F4xx_HAL_Driver/Src/stm32f4xx_hal_rcc.c ****   /* Get HCLK source and Compute PCLK2 frequency ---------------------------*/
 969:Drivers/STM32F4xx_HAL_Driver/Src/stm32f4xx_hal_rcc.c ****   return (HAL_RCC_GetHCLKFreq() >> APBPrescTable[(RCC->CFGR & RCC_CFGR_PPRE2) >> RCC_CFGR_PPRE2_Pos
 1672              		.loc 1 969 3 view .LVU510
 1673              		.loc 1 969 11 is_stmt 0 view .LVU511
 1674 0002 FFF7FEFF 		bl	HAL_RCC_GetHCLKFreq
 1675              	.LVL104:
 1676              		.loc 1 969 54 discriminator 1 view .LVU512
 1677 0006 044B     		ldr	r3, .L158
 1678 0008 9B68     		ldr	r3, [r3, #8]
 1679              		.loc 1 969 79 discriminator 1 view .LVU513
 1680 000a C3F34233 		ubfx	r3, r3, #13, #3
 1681              		.loc 1 969 49 discriminator 1 view .LVU514
 1682 000e 034A     		ldr	r2, .L158+4
 1683 0010 D35C     		ldrb	r3, [r2, r3]	@ zero_extendqisi2
 970:Drivers/STM32F4xx_HAL_Driver/Src/stm32f4xx_hal_rcc.c **** }
ARM GAS  C:\Users\Rick\AppData\Local\Temp\ccWRFpbY.s 			page 52


 1684              		.loc 1 970 1 view .LVU515
 1685 0012 D840     		lsrs	r0, r0, r3
 1686 0014 08BD     		pop	{r3, pc}
 1687              	.L159:
 1688 0016 00BF     		.align	2
 1689              	.L158:
 1690 0018 00380240 		.word	1073887232
 1691 001c 00000000 		.word	APBPrescTable
 1692              		.cfi_endproc
 1693              	.LFE248:
 1695              		.section	.text.HAL_RCC_GetOscConfig,"ax",%progbits
 1696              		.align	1
 1697              		.weak	HAL_RCC_GetOscConfig
 1698              		.syntax unified
 1699              		.thumb
 1700              		.thumb_func
 1702              	HAL_RCC_GetOscConfig:
 1703              	.LVL105:
 1704              	.LFB249:
 971:Drivers/STM32F4xx_HAL_Driver/Src/stm32f4xx_hal_rcc.c **** 
 972:Drivers/STM32F4xx_HAL_Driver/Src/stm32f4xx_hal_rcc.c **** /**
 973:Drivers/STM32F4xx_HAL_Driver/Src/stm32f4xx_hal_rcc.c ****   * @brief  Configures the RCC_OscInitStruct according to the internal
 974:Drivers/STM32F4xx_HAL_Driver/Src/stm32f4xx_hal_rcc.c ****   * RCC configuration registers.
 975:Drivers/STM32F4xx_HAL_Driver/Src/stm32f4xx_hal_rcc.c ****   * @param  RCC_OscInitStruct pointer to an RCC_OscInitTypeDef structure that
 976:Drivers/STM32F4xx_HAL_Driver/Src/stm32f4xx_hal_rcc.c ****   * will be configured.
 977:Drivers/STM32F4xx_HAL_Driver/Src/stm32f4xx_hal_rcc.c ****   * @retval None
 978:Drivers/STM32F4xx_HAL_Driver/Src/stm32f4xx_hal_rcc.c ****   */
 979:Drivers/STM32F4xx_HAL_Driver/Src/stm32f4xx_hal_rcc.c **** __weak void HAL_RCC_GetOscConfig(RCC_OscInitTypeDef  *RCC_OscInitStruct)
 980:Drivers/STM32F4xx_HAL_Driver/Src/stm32f4xx_hal_rcc.c **** {
 1705              		.loc 1 980 1 is_stmt 1 view -0
 1706              		.cfi_startproc
 1707              		@ args = 0, pretend = 0, frame = 0
 1708              		@ frame_needed = 0, uses_anonymous_args = 0
 1709              		@ link register save eliminated.
 981:Drivers/STM32F4xx_HAL_Driver/Src/stm32f4xx_hal_rcc.c ****   /* Set all possible values for the Oscillator type parameter ---------------*/
 982:Drivers/STM32F4xx_HAL_Driver/Src/stm32f4xx_hal_rcc.c ****   RCC_OscInitStruct->OscillatorType = RCC_OSCILLATORTYPE_HSE | RCC_OSCILLATORTYPE_HSI | RCC_OSCILLA
 1710              		.loc 1 982 3 view .LVU517
 1711              		.loc 1 982 37 is_stmt 0 view .LVU518
 1712 0000 0F23     		movs	r3, #15
 1713 0002 0360     		str	r3, [r0]
 983:Drivers/STM32F4xx_HAL_Driver/Src/stm32f4xx_hal_rcc.c **** 
 984:Drivers/STM32F4xx_HAL_Driver/Src/stm32f4xx_hal_rcc.c ****   /* Get the HSE configuration -----------------------------------------------*/
 985:Drivers/STM32F4xx_HAL_Driver/Src/stm32f4xx_hal_rcc.c ****   if ((RCC->CR & RCC_CR_HSEBYP) == RCC_CR_HSEBYP)
 1714              		.loc 1 985 3 is_stmt 1 view .LVU519
 1715              		.loc 1 985 11 is_stmt 0 view .LVU520
 1716 0004 304B     		ldr	r3, .L173
 1717 0006 1B68     		ldr	r3, [r3]
 1718              		.loc 1 985 6 view .LVU521
 1719 0008 13F4802F 		tst	r3, #262144
 1720 000c 3BD0     		beq	.L161
 986:Drivers/STM32F4xx_HAL_Driver/Src/stm32f4xx_hal_rcc.c ****   {
 987:Drivers/STM32F4xx_HAL_Driver/Src/stm32f4xx_hal_rcc.c ****     RCC_OscInitStruct->HSEState = RCC_HSE_BYPASS;
 1721              		.loc 1 987 5 is_stmt 1 view .LVU522
 1722              		.loc 1 987 33 is_stmt 0 view .LVU523
 1723 000e 4FF4A023 		mov	r3, #327680
 1724 0012 4360     		str	r3, [r0, #4]
 1725              	.L162:
ARM GAS  C:\Users\Rick\AppData\Local\Temp\ccWRFpbY.s 			page 53


 988:Drivers/STM32F4xx_HAL_Driver/Src/stm32f4xx_hal_rcc.c ****   }
 989:Drivers/STM32F4xx_HAL_Driver/Src/stm32f4xx_hal_rcc.c ****   else if ((RCC->CR & RCC_CR_HSEON) == RCC_CR_HSEON)
 990:Drivers/STM32F4xx_HAL_Driver/Src/stm32f4xx_hal_rcc.c ****   {
 991:Drivers/STM32F4xx_HAL_Driver/Src/stm32f4xx_hal_rcc.c ****     RCC_OscInitStruct->HSEState = RCC_HSE_ON;
 992:Drivers/STM32F4xx_HAL_Driver/Src/stm32f4xx_hal_rcc.c ****   }
 993:Drivers/STM32F4xx_HAL_Driver/Src/stm32f4xx_hal_rcc.c ****   else
 994:Drivers/STM32F4xx_HAL_Driver/Src/stm32f4xx_hal_rcc.c ****   {
 995:Drivers/STM32F4xx_HAL_Driver/Src/stm32f4xx_hal_rcc.c ****     RCC_OscInitStruct->HSEState = RCC_HSE_OFF;
 996:Drivers/STM32F4xx_HAL_Driver/Src/stm32f4xx_hal_rcc.c ****   }
 997:Drivers/STM32F4xx_HAL_Driver/Src/stm32f4xx_hal_rcc.c **** 
 998:Drivers/STM32F4xx_HAL_Driver/Src/stm32f4xx_hal_rcc.c ****   /* Get the HSI configuration -----------------------------------------------*/
 999:Drivers/STM32F4xx_HAL_Driver/Src/stm32f4xx_hal_rcc.c ****   if ((RCC->CR & RCC_CR_HSION) == RCC_CR_HSION)
 1726              		.loc 1 999 3 is_stmt 1 view .LVU524
 1727              		.loc 1 999 11 is_stmt 0 view .LVU525
 1728 0014 2C4B     		ldr	r3, .L173
 1729 0016 1B68     		ldr	r3, [r3]
 1730              		.loc 1 999 6 view .LVU526
 1731 0018 13F0010F 		tst	r3, #1
 1732 001c 3FD0     		beq	.L164
1000:Drivers/STM32F4xx_HAL_Driver/Src/stm32f4xx_hal_rcc.c ****   {
1001:Drivers/STM32F4xx_HAL_Driver/Src/stm32f4xx_hal_rcc.c ****     RCC_OscInitStruct->HSIState = RCC_HSI_ON;
 1733              		.loc 1 1001 5 is_stmt 1 view .LVU527
 1734              		.loc 1 1001 33 is_stmt 0 view .LVU528
 1735 001e 0123     		movs	r3, #1
 1736 0020 C360     		str	r3, [r0, #12]
 1737              	.L165:
1002:Drivers/STM32F4xx_HAL_Driver/Src/stm32f4xx_hal_rcc.c ****   }
1003:Drivers/STM32F4xx_HAL_Driver/Src/stm32f4xx_hal_rcc.c ****   else
1004:Drivers/STM32F4xx_HAL_Driver/Src/stm32f4xx_hal_rcc.c ****   {
1005:Drivers/STM32F4xx_HAL_Driver/Src/stm32f4xx_hal_rcc.c ****     RCC_OscInitStruct->HSIState = RCC_HSI_OFF;
1006:Drivers/STM32F4xx_HAL_Driver/Src/stm32f4xx_hal_rcc.c ****   }
1007:Drivers/STM32F4xx_HAL_Driver/Src/stm32f4xx_hal_rcc.c **** 
1008:Drivers/STM32F4xx_HAL_Driver/Src/stm32f4xx_hal_rcc.c ****   RCC_OscInitStruct->HSICalibrationValue = (uint32_t)((RCC->CR & RCC_CR_HSITRIM) >> RCC_CR_HSITRIM_
 1738              		.loc 1 1008 3 is_stmt 1 view .LVU529
 1739              		.loc 1 1008 59 is_stmt 0 view .LVU530
 1740 0022 294A     		ldr	r2, .L173
 1741 0024 1368     		ldr	r3, [r2]
 1742              		.loc 1 1008 44 view .LVU531
 1743 0026 C3F3C403 		ubfx	r3, r3, #3, #5
 1744              		.loc 1 1008 42 view .LVU532
 1745 002a 0361     		str	r3, [r0, #16]
1009:Drivers/STM32F4xx_HAL_Driver/Src/stm32f4xx_hal_rcc.c **** 
1010:Drivers/STM32F4xx_HAL_Driver/Src/stm32f4xx_hal_rcc.c ****   /* Get the LSE configuration -----------------------------------------------*/
1011:Drivers/STM32F4xx_HAL_Driver/Src/stm32f4xx_hal_rcc.c ****   if ((RCC->BDCR & RCC_BDCR_LSEBYP) == RCC_BDCR_LSEBYP)
 1746              		.loc 1 1011 3 is_stmt 1 view .LVU533
 1747              		.loc 1 1011 11 is_stmt 0 view .LVU534
 1748 002c 136F     		ldr	r3, [r2, #112]
 1749              		.loc 1 1011 6 view .LVU535
 1750 002e 13F0040F 		tst	r3, #4
 1751 0032 37D0     		beq	.L166
1012:Drivers/STM32F4xx_HAL_Driver/Src/stm32f4xx_hal_rcc.c ****   {
1013:Drivers/STM32F4xx_HAL_Driver/Src/stm32f4xx_hal_rcc.c ****     RCC_OscInitStruct->LSEState = RCC_LSE_BYPASS;
 1752              		.loc 1 1013 5 is_stmt 1 view .LVU536
 1753              		.loc 1 1013 33 is_stmt 0 view .LVU537
 1754 0034 0523     		movs	r3, #5
 1755 0036 8360     		str	r3, [r0, #8]
 1756              	.L167:
ARM GAS  C:\Users\Rick\AppData\Local\Temp\ccWRFpbY.s 			page 54


1014:Drivers/STM32F4xx_HAL_Driver/Src/stm32f4xx_hal_rcc.c ****   }
1015:Drivers/STM32F4xx_HAL_Driver/Src/stm32f4xx_hal_rcc.c ****   else if ((RCC->BDCR & RCC_BDCR_LSEON) == RCC_BDCR_LSEON)
1016:Drivers/STM32F4xx_HAL_Driver/Src/stm32f4xx_hal_rcc.c ****   {
1017:Drivers/STM32F4xx_HAL_Driver/Src/stm32f4xx_hal_rcc.c ****     RCC_OscInitStruct->LSEState = RCC_LSE_ON;
1018:Drivers/STM32F4xx_HAL_Driver/Src/stm32f4xx_hal_rcc.c ****   }
1019:Drivers/STM32F4xx_HAL_Driver/Src/stm32f4xx_hal_rcc.c ****   else
1020:Drivers/STM32F4xx_HAL_Driver/Src/stm32f4xx_hal_rcc.c ****   {
1021:Drivers/STM32F4xx_HAL_Driver/Src/stm32f4xx_hal_rcc.c ****     RCC_OscInitStruct->LSEState = RCC_LSE_OFF;
1022:Drivers/STM32F4xx_HAL_Driver/Src/stm32f4xx_hal_rcc.c ****   }
1023:Drivers/STM32F4xx_HAL_Driver/Src/stm32f4xx_hal_rcc.c **** 
1024:Drivers/STM32F4xx_HAL_Driver/Src/stm32f4xx_hal_rcc.c ****   /* Get the LSI configuration -----------------------------------------------*/
1025:Drivers/STM32F4xx_HAL_Driver/Src/stm32f4xx_hal_rcc.c ****   if ((RCC->CSR & RCC_CSR_LSION) == RCC_CSR_LSION)
 1757              		.loc 1 1025 3 is_stmt 1 view .LVU538
 1758              		.loc 1 1025 11 is_stmt 0 view .LVU539
 1759 0038 234B     		ldr	r3, .L173
 1760 003a 5B6F     		ldr	r3, [r3, #116]
 1761              		.loc 1 1025 6 view .LVU540
 1762 003c 13F0010F 		tst	r3, #1
 1763 0040 3BD0     		beq	.L169
1026:Drivers/STM32F4xx_HAL_Driver/Src/stm32f4xx_hal_rcc.c ****   {
1027:Drivers/STM32F4xx_HAL_Driver/Src/stm32f4xx_hal_rcc.c ****     RCC_OscInitStruct->LSIState = RCC_LSI_ON;
 1764              		.loc 1 1027 5 is_stmt 1 view .LVU541
 1765              		.loc 1 1027 33 is_stmt 0 view .LVU542
 1766 0042 0123     		movs	r3, #1
 1767 0044 4361     		str	r3, [r0, #20]
 1768              	.L170:
1028:Drivers/STM32F4xx_HAL_Driver/Src/stm32f4xx_hal_rcc.c ****   }
1029:Drivers/STM32F4xx_HAL_Driver/Src/stm32f4xx_hal_rcc.c ****   else
1030:Drivers/STM32F4xx_HAL_Driver/Src/stm32f4xx_hal_rcc.c ****   {
1031:Drivers/STM32F4xx_HAL_Driver/Src/stm32f4xx_hal_rcc.c ****     RCC_OscInitStruct->LSIState = RCC_LSI_OFF;
1032:Drivers/STM32F4xx_HAL_Driver/Src/stm32f4xx_hal_rcc.c ****   }
1033:Drivers/STM32F4xx_HAL_Driver/Src/stm32f4xx_hal_rcc.c **** 
1034:Drivers/STM32F4xx_HAL_Driver/Src/stm32f4xx_hal_rcc.c ****   /* Get the PLL configuration -----------------------------------------------*/
1035:Drivers/STM32F4xx_HAL_Driver/Src/stm32f4xx_hal_rcc.c ****   if ((RCC->CR & RCC_CR_PLLON) == RCC_CR_PLLON)
 1769              		.loc 1 1035 3 is_stmt 1 view .LVU543
 1770              		.loc 1 1035 11 is_stmt 0 view .LVU544
 1771 0046 204B     		ldr	r3, .L173
 1772 0048 1B68     		ldr	r3, [r3]
 1773              		.loc 1 1035 6 view .LVU545
 1774 004a 13F0807F 		tst	r3, #16777216
 1775 004e 37D0     		beq	.L171
1036:Drivers/STM32F4xx_HAL_Driver/Src/stm32f4xx_hal_rcc.c ****   {
1037:Drivers/STM32F4xx_HAL_Driver/Src/stm32f4xx_hal_rcc.c ****     RCC_OscInitStruct->PLL.PLLState = RCC_PLL_ON;
 1776              		.loc 1 1037 5 is_stmt 1 view .LVU546
 1777              		.loc 1 1037 37 is_stmt 0 view .LVU547
 1778 0050 0223     		movs	r3, #2
 1779 0052 8361     		str	r3, [r0, #24]
 1780              	.L172:
1038:Drivers/STM32F4xx_HAL_Driver/Src/stm32f4xx_hal_rcc.c ****   }
1039:Drivers/STM32F4xx_HAL_Driver/Src/stm32f4xx_hal_rcc.c ****   else
1040:Drivers/STM32F4xx_HAL_Driver/Src/stm32f4xx_hal_rcc.c ****   {
1041:Drivers/STM32F4xx_HAL_Driver/Src/stm32f4xx_hal_rcc.c ****     RCC_OscInitStruct->PLL.PLLState = RCC_PLL_OFF;
1042:Drivers/STM32F4xx_HAL_Driver/Src/stm32f4xx_hal_rcc.c ****   }
1043:Drivers/STM32F4xx_HAL_Driver/Src/stm32f4xx_hal_rcc.c ****   RCC_OscInitStruct->PLL.PLLSource = (uint32_t)(RCC->PLLCFGR & RCC_PLLCFGR_PLLSRC);
 1781              		.loc 1 1043 3 is_stmt 1 view .LVU548
 1782              		.loc 1 1043 52 is_stmt 0 view .LVU549
 1783 0054 1C4A     		ldr	r2, .L173
ARM GAS  C:\Users\Rick\AppData\Local\Temp\ccWRFpbY.s 			page 55


 1784 0056 5368     		ldr	r3, [r2, #4]
 1785              		.loc 1 1043 38 view .LVU550
 1786 0058 03F48003 		and	r3, r3, #4194304
 1787              		.loc 1 1043 36 view .LVU551
 1788 005c C361     		str	r3, [r0, #28]
1044:Drivers/STM32F4xx_HAL_Driver/Src/stm32f4xx_hal_rcc.c ****   RCC_OscInitStruct->PLL.PLLM = (uint32_t)(RCC->PLLCFGR & RCC_PLLCFGR_PLLM);
 1789              		.loc 1 1044 3 is_stmt 1 view .LVU552
 1790              		.loc 1 1044 47 is_stmt 0 view .LVU553
 1791 005e 5368     		ldr	r3, [r2, #4]
 1792              		.loc 1 1044 33 view .LVU554
 1793 0060 03F03F03 		and	r3, r3, #63
 1794              		.loc 1 1044 31 view .LVU555
 1795 0064 0362     		str	r3, [r0, #32]
1045:Drivers/STM32F4xx_HAL_Driver/Src/stm32f4xx_hal_rcc.c ****   RCC_OscInitStruct->PLL.PLLN = (uint32_t)((RCC->PLLCFGR & RCC_PLLCFGR_PLLN) >> RCC_PLLCFGR_PLLN_Po
 1796              		.loc 1 1045 3 is_stmt 1 view .LVU556
 1797              		.loc 1 1045 48 is_stmt 0 view .LVU557
 1798 0066 5368     		ldr	r3, [r2, #4]
 1799              		.loc 1 1045 33 view .LVU558
 1800 0068 C3F38813 		ubfx	r3, r3, #6, #9
 1801              		.loc 1 1045 31 view .LVU559
 1802 006c 4362     		str	r3, [r0, #36]
1046:Drivers/STM32F4xx_HAL_Driver/Src/stm32f4xx_hal_rcc.c ****   RCC_OscInitStruct->PLL.PLLP = (uint32_t)((((RCC->PLLCFGR & RCC_PLLCFGR_PLLP) + RCC_PLLCFGR_PLLP_0
 1803              		.loc 1 1046 3 is_stmt 1 view .LVU560
 1804              		.loc 1 1046 50 is_stmt 0 view .LVU561
 1805 006e 5368     		ldr	r3, [r2, #4]
 1806              		.loc 1 1046 60 view .LVU562
 1807 0070 03F44033 		and	r3, r3, #196608
 1808              		.loc 1 1046 80 view .LVU563
 1809 0074 03F58033 		add	r3, r3, #65536
 1810              		.loc 1 1046 33 view .LVU564
 1811 0078 DB0B     		lsrs	r3, r3, #15
 1812              		.loc 1 1046 31 view .LVU565
 1813 007a 8362     		str	r3, [r0, #40]
1047:Drivers/STM32F4xx_HAL_Driver/Src/stm32f4xx_hal_rcc.c ****   RCC_OscInitStruct->PLL.PLLQ = (uint32_t)((RCC->PLLCFGR & RCC_PLLCFGR_PLLQ) >> RCC_PLLCFGR_PLLQ_Po
 1814              		.loc 1 1047 3 is_stmt 1 view .LVU566
 1815              		.loc 1 1047 48 is_stmt 0 view .LVU567
 1816 007c 5368     		ldr	r3, [r2, #4]
 1817              		.loc 1 1047 33 view .LVU568
 1818 007e C3F30363 		ubfx	r3, r3, #24, #4
 1819              		.loc 1 1047 31 view .LVU569
 1820 0082 C362     		str	r3, [r0, #44]
1048:Drivers/STM32F4xx_HAL_Driver/Src/stm32f4xx_hal_rcc.c **** }
 1821              		.loc 1 1048 1 view .LVU570
 1822 0084 7047     		bx	lr
 1823              	.L161:
 989:Drivers/STM32F4xx_HAL_Driver/Src/stm32f4xx_hal_rcc.c ****   {
 1824              		.loc 1 989 8 is_stmt 1 view .LVU571
 989:Drivers/STM32F4xx_HAL_Driver/Src/stm32f4xx_hal_rcc.c ****   {
 1825              		.loc 1 989 16 is_stmt 0 view .LVU572
 1826 0086 104B     		ldr	r3, .L173
 1827 0088 1B68     		ldr	r3, [r3]
 989:Drivers/STM32F4xx_HAL_Driver/Src/stm32f4xx_hal_rcc.c ****   {
 1828              		.loc 1 989 11 view .LVU573
 1829 008a 13F4803F 		tst	r3, #65536
 1830 008e 03D0     		beq	.L163
 991:Drivers/STM32F4xx_HAL_Driver/Src/stm32f4xx_hal_rcc.c ****   }
 1831              		.loc 1 991 5 is_stmt 1 view .LVU574
ARM GAS  C:\Users\Rick\AppData\Local\Temp\ccWRFpbY.s 			page 56


 991:Drivers/STM32F4xx_HAL_Driver/Src/stm32f4xx_hal_rcc.c ****   }
 1832              		.loc 1 991 33 is_stmt 0 view .LVU575
 1833 0090 4FF48033 		mov	r3, #65536
 1834 0094 4360     		str	r3, [r0, #4]
 1835 0096 BDE7     		b	.L162
 1836              	.L163:
 995:Drivers/STM32F4xx_HAL_Driver/Src/stm32f4xx_hal_rcc.c ****   }
 1837              		.loc 1 995 5 is_stmt 1 view .LVU576
 995:Drivers/STM32F4xx_HAL_Driver/Src/stm32f4xx_hal_rcc.c ****   }
 1838              		.loc 1 995 33 is_stmt 0 view .LVU577
 1839 0098 0023     		movs	r3, #0
 1840 009a 4360     		str	r3, [r0, #4]
 1841 009c BAE7     		b	.L162
 1842              	.L164:
1005:Drivers/STM32F4xx_HAL_Driver/Src/stm32f4xx_hal_rcc.c ****   }
 1843              		.loc 1 1005 5 is_stmt 1 view .LVU578
1005:Drivers/STM32F4xx_HAL_Driver/Src/stm32f4xx_hal_rcc.c ****   }
 1844              		.loc 1 1005 33 is_stmt 0 view .LVU579
 1845 009e 0023     		movs	r3, #0
 1846 00a0 C360     		str	r3, [r0, #12]
 1847 00a2 BEE7     		b	.L165
 1848              	.L166:
1015:Drivers/STM32F4xx_HAL_Driver/Src/stm32f4xx_hal_rcc.c ****   {
 1849              		.loc 1 1015 8 is_stmt 1 view .LVU580
1015:Drivers/STM32F4xx_HAL_Driver/Src/stm32f4xx_hal_rcc.c ****   {
 1850              		.loc 1 1015 16 is_stmt 0 view .LVU581
 1851 00a4 084B     		ldr	r3, .L173
 1852 00a6 1B6F     		ldr	r3, [r3, #112]
1015:Drivers/STM32F4xx_HAL_Driver/Src/stm32f4xx_hal_rcc.c ****   {
 1853              		.loc 1 1015 11 view .LVU582
 1854 00a8 13F0010F 		tst	r3, #1
 1855 00ac 02D0     		beq	.L168
1017:Drivers/STM32F4xx_HAL_Driver/Src/stm32f4xx_hal_rcc.c ****   }
 1856              		.loc 1 1017 5 is_stmt 1 view .LVU583
1017:Drivers/STM32F4xx_HAL_Driver/Src/stm32f4xx_hal_rcc.c ****   }
 1857              		.loc 1 1017 33 is_stmt 0 view .LVU584
 1858 00ae 0123     		movs	r3, #1
 1859 00b0 8360     		str	r3, [r0, #8]
 1860 00b2 C1E7     		b	.L167
 1861              	.L168:
1021:Drivers/STM32F4xx_HAL_Driver/Src/stm32f4xx_hal_rcc.c ****   }
 1862              		.loc 1 1021 5 is_stmt 1 view .LVU585
1021:Drivers/STM32F4xx_HAL_Driver/Src/stm32f4xx_hal_rcc.c ****   }
 1863              		.loc 1 1021 33 is_stmt 0 view .LVU586
 1864 00b4 0023     		movs	r3, #0
 1865 00b6 8360     		str	r3, [r0, #8]
 1866 00b8 BEE7     		b	.L167
 1867              	.L169:
1031:Drivers/STM32F4xx_HAL_Driver/Src/stm32f4xx_hal_rcc.c ****   }
 1868              		.loc 1 1031 5 is_stmt 1 view .LVU587
1031:Drivers/STM32F4xx_HAL_Driver/Src/stm32f4xx_hal_rcc.c ****   }
 1869              		.loc 1 1031 33 is_stmt 0 view .LVU588
 1870 00ba 0023     		movs	r3, #0
 1871 00bc 4361     		str	r3, [r0, #20]
 1872 00be C2E7     		b	.L170
 1873              	.L171:
1041:Drivers/STM32F4xx_HAL_Driver/Src/stm32f4xx_hal_rcc.c ****   }
ARM GAS  C:\Users\Rick\AppData\Local\Temp\ccWRFpbY.s 			page 57


 1874              		.loc 1 1041 5 is_stmt 1 view .LVU589
1041:Drivers/STM32F4xx_HAL_Driver/Src/stm32f4xx_hal_rcc.c ****   }
 1875              		.loc 1 1041 37 is_stmt 0 view .LVU590
 1876 00c0 0123     		movs	r3, #1
 1877 00c2 8361     		str	r3, [r0, #24]
 1878 00c4 C6E7     		b	.L172
 1879              	.L174:
 1880 00c6 00BF     		.align	2
 1881              	.L173:
 1882 00c8 00380240 		.word	1073887232
 1883              		.cfi_endproc
 1884              	.LFE249:
 1886              		.section	.text.HAL_RCC_GetClockConfig,"ax",%progbits
 1887              		.align	1
 1888              		.global	HAL_RCC_GetClockConfig
 1889              		.syntax unified
 1890              		.thumb
 1891              		.thumb_func
 1893              	HAL_RCC_GetClockConfig:
 1894              	.LVL106:
 1895              	.LFB250:
1049:Drivers/STM32F4xx_HAL_Driver/Src/stm32f4xx_hal_rcc.c **** 
1050:Drivers/STM32F4xx_HAL_Driver/Src/stm32f4xx_hal_rcc.c **** /**
1051:Drivers/STM32F4xx_HAL_Driver/Src/stm32f4xx_hal_rcc.c ****   * @brief  Configures the RCC_ClkInitStruct according to the internal
1052:Drivers/STM32F4xx_HAL_Driver/Src/stm32f4xx_hal_rcc.c ****   * RCC configuration registers.
1053:Drivers/STM32F4xx_HAL_Driver/Src/stm32f4xx_hal_rcc.c ****   * @param  RCC_ClkInitStruct pointer to an RCC_ClkInitTypeDef structure that
1054:Drivers/STM32F4xx_HAL_Driver/Src/stm32f4xx_hal_rcc.c ****   * will be configured.
1055:Drivers/STM32F4xx_HAL_Driver/Src/stm32f4xx_hal_rcc.c ****   * @param  pFLatency Pointer on the Flash Latency.
1056:Drivers/STM32F4xx_HAL_Driver/Src/stm32f4xx_hal_rcc.c ****   * @retval None
1057:Drivers/STM32F4xx_HAL_Driver/Src/stm32f4xx_hal_rcc.c ****   */
1058:Drivers/STM32F4xx_HAL_Driver/Src/stm32f4xx_hal_rcc.c **** void HAL_RCC_GetClockConfig(RCC_ClkInitTypeDef  *RCC_ClkInitStruct, uint32_t *pFLatency)
1059:Drivers/STM32F4xx_HAL_Driver/Src/stm32f4xx_hal_rcc.c **** {
 1896              		.loc 1 1059 1 is_stmt 1 view -0
 1897              		.cfi_startproc
 1898              		@ args = 0, pretend = 0, frame = 0
 1899              		@ frame_needed = 0, uses_anonymous_args = 0
 1900              		@ link register save eliminated.
1060:Drivers/STM32F4xx_HAL_Driver/Src/stm32f4xx_hal_rcc.c ****   /* Set all possible values for the Clock type parameter --------------------*/
1061:Drivers/STM32F4xx_HAL_Driver/Src/stm32f4xx_hal_rcc.c ****   RCC_ClkInitStruct->ClockType = RCC_CLOCKTYPE_SYSCLK | RCC_CLOCKTYPE_HCLK | RCC_CLOCKTYPE_PCLK1 | 
 1901              		.loc 1 1061 3 view .LVU592
 1902              		.loc 1 1061 32 is_stmt 0 view .LVU593
 1903 0000 0F23     		movs	r3, #15
 1904 0002 0360     		str	r3, [r0]
1062:Drivers/STM32F4xx_HAL_Driver/Src/stm32f4xx_hal_rcc.c **** 
1063:Drivers/STM32F4xx_HAL_Driver/Src/stm32f4xx_hal_rcc.c ****   /* Get the SYSCLK configuration --------------------------------------------*/
1064:Drivers/STM32F4xx_HAL_Driver/Src/stm32f4xx_hal_rcc.c ****   RCC_ClkInitStruct->SYSCLKSource = (uint32_t)(RCC->CFGR & RCC_CFGR_SW);
 1905              		.loc 1 1064 3 is_stmt 1 view .LVU594
 1906              		.loc 1 1064 51 is_stmt 0 view .LVU595
 1907 0004 0B4B     		ldr	r3, .L176
 1908 0006 9A68     		ldr	r2, [r3, #8]
 1909              		.loc 1 1064 37 view .LVU596
 1910 0008 02F00302 		and	r2, r2, #3
 1911              		.loc 1 1064 35 view .LVU597
 1912 000c 4260     		str	r2, [r0, #4]
1065:Drivers/STM32F4xx_HAL_Driver/Src/stm32f4xx_hal_rcc.c **** 
1066:Drivers/STM32F4xx_HAL_Driver/Src/stm32f4xx_hal_rcc.c ****   /* Get the HCLK configuration ----------------------------------------------*/
1067:Drivers/STM32F4xx_HAL_Driver/Src/stm32f4xx_hal_rcc.c ****   RCC_ClkInitStruct->AHBCLKDivider = (uint32_t)(RCC->CFGR & RCC_CFGR_HPRE);
ARM GAS  C:\Users\Rick\AppData\Local\Temp\ccWRFpbY.s 			page 58


 1913              		.loc 1 1067 3 is_stmt 1 view .LVU598
 1914              		.loc 1 1067 52 is_stmt 0 view .LVU599
 1915 000e 9A68     		ldr	r2, [r3, #8]
 1916              		.loc 1 1067 38 view .LVU600
 1917 0010 02F0F002 		and	r2, r2, #240
 1918              		.loc 1 1067 36 view .LVU601
 1919 0014 8260     		str	r2, [r0, #8]
1068:Drivers/STM32F4xx_HAL_Driver/Src/stm32f4xx_hal_rcc.c **** 
1069:Drivers/STM32F4xx_HAL_Driver/Src/stm32f4xx_hal_rcc.c ****   /* Get the APB1 configuration ----------------------------------------------*/
1070:Drivers/STM32F4xx_HAL_Driver/Src/stm32f4xx_hal_rcc.c ****   RCC_ClkInitStruct->APB1CLKDivider = (uint32_t)(RCC->CFGR & RCC_CFGR_PPRE1);
 1920              		.loc 1 1070 3 is_stmt 1 view .LVU602
 1921              		.loc 1 1070 53 is_stmt 0 view .LVU603
 1922 0016 9A68     		ldr	r2, [r3, #8]
 1923              		.loc 1 1070 39 view .LVU604
 1924 0018 02F4E052 		and	r2, r2, #7168
 1925              		.loc 1 1070 37 view .LVU605
 1926 001c C260     		str	r2, [r0, #12]
1071:Drivers/STM32F4xx_HAL_Driver/Src/stm32f4xx_hal_rcc.c **** 
1072:Drivers/STM32F4xx_HAL_Driver/Src/stm32f4xx_hal_rcc.c ****   /* Get the APB2 configuration ----------------------------------------------*/
1073:Drivers/STM32F4xx_HAL_Driver/Src/stm32f4xx_hal_rcc.c ****   RCC_ClkInitStruct->APB2CLKDivider = (uint32_t)((RCC->CFGR & RCC_CFGR_PPRE2) >> 3U);
 1927              		.loc 1 1073 3 is_stmt 1 view .LVU606
 1928              		.loc 1 1073 54 is_stmt 0 view .LVU607
 1929 001e 9B68     		ldr	r3, [r3, #8]
 1930              		.loc 1 1073 39 view .LVU608
 1931 0020 DB08     		lsrs	r3, r3, #3
 1932 0022 03F4E053 		and	r3, r3, #7168
 1933              		.loc 1 1073 37 view .LVU609
 1934 0026 0361     		str	r3, [r0, #16]
1074:Drivers/STM32F4xx_HAL_Driver/Src/stm32f4xx_hal_rcc.c **** 
1075:Drivers/STM32F4xx_HAL_Driver/Src/stm32f4xx_hal_rcc.c ****   /* Get the Flash Wait State (Latency) configuration ------------------------*/
1076:Drivers/STM32F4xx_HAL_Driver/Src/stm32f4xx_hal_rcc.c ****   *pFLatency = (uint32_t)(FLASH->ACR & FLASH_ACR_LATENCY);
 1935              		.loc 1 1076 3 is_stmt 1 view .LVU610
 1936              		.loc 1 1076 32 is_stmt 0 view .LVU611
 1937 0028 034B     		ldr	r3, .L176+4
 1938 002a 1B68     		ldr	r3, [r3]
 1939              		.loc 1 1076 16 view .LVU612
 1940 002c 03F00F03 		and	r3, r3, #15
 1941              		.loc 1 1076 14 view .LVU613
 1942 0030 0B60     		str	r3, [r1]
1077:Drivers/STM32F4xx_HAL_Driver/Src/stm32f4xx_hal_rcc.c **** }
 1943              		.loc 1 1077 1 view .LVU614
 1944 0032 7047     		bx	lr
 1945              	.L177:
 1946              		.align	2
 1947              	.L176:
 1948 0034 00380240 		.word	1073887232
 1949 0038 003C0240 		.word	1073888256
 1950              		.cfi_endproc
 1951              	.LFE250:
 1953              		.section	.text.HAL_RCC_CSSCallback,"ax",%progbits
 1954              		.align	1
 1955              		.weak	HAL_RCC_CSSCallback
 1956              		.syntax unified
 1957              		.thumb
 1958              		.thumb_func
 1960              	HAL_RCC_CSSCallback:
 1961              	.LFB252:
ARM GAS  C:\Users\Rick\AppData\Local\Temp\ccWRFpbY.s 			page 59


1078:Drivers/STM32F4xx_HAL_Driver/Src/stm32f4xx_hal_rcc.c **** 
1079:Drivers/STM32F4xx_HAL_Driver/Src/stm32f4xx_hal_rcc.c **** /**
1080:Drivers/STM32F4xx_HAL_Driver/Src/stm32f4xx_hal_rcc.c ****   * @brief This function handles the RCC CSS interrupt request.
1081:Drivers/STM32F4xx_HAL_Driver/Src/stm32f4xx_hal_rcc.c ****   * @note This API should be called under the NMI_Handler().
1082:Drivers/STM32F4xx_HAL_Driver/Src/stm32f4xx_hal_rcc.c ****   * @retval None
1083:Drivers/STM32F4xx_HAL_Driver/Src/stm32f4xx_hal_rcc.c ****   */
1084:Drivers/STM32F4xx_HAL_Driver/Src/stm32f4xx_hal_rcc.c **** void HAL_RCC_NMI_IRQHandler(void)
1085:Drivers/STM32F4xx_HAL_Driver/Src/stm32f4xx_hal_rcc.c **** {
1086:Drivers/STM32F4xx_HAL_Driver/Src/stm32f4xx_hal_rcc.c ****   /* Check RCC CSSF flag  */
1087:Drivers/STM32F4xx_HAL_Driver/Src/stm32f4xx_hal_rcc.c ****   if (__HAL_RCC_GET_IT(RCC_IT_CSS))
1088:Drivers/STM32F4xx_HAL_Driver/Src/stm32f4xx_hal_rcc.c ****   {
1089:Drivers/STM32F4xx_HAL_Driver/Src/stm32f4xx_hal_rcc.c ****     /* RCC Clock Security System interrupt user callback */
1090:Drivers/STM32F4xx_HAL_Driver/Src/stm32f4xx_hal_rcc.c ****     HAL_RCC_CSSCallback();
1091:Drivers/STM32F4xx_HAL_Driver/Src/stm32f4xx_hal_rcc.c **** 
1092:Drivers/STM32F4xx_HAL_Driver/Src/stm32f4xx_hal_rcc.c ****     /* Clear RCC CSS pending bit */
1093:Drivers/STM32F4xx_HAL_Driver/Src/stm32f4xx_hal_rcc.c ****     __HAL_RCC_CLEAR_IT(RCC_IT_CSS);
1094:Drivers/STM32F4xx_HAL_Driver/Src/stm32f4xx_hal_rcc.c ****   }
1095:Drivers/STM32F4xx_HAL_Driver/Src/stm32f4xx_hal_rcc.c **** }
1096:Drivers/STM32F4xx_HAL_Driver/Src/stm32f4xx_hal_rcc.c **** 
1097:Drivers/STM32F4xx_HAL_Driver/Src/stm32f4xx_hal_rcc.c **** /**
1098:Drivers/STM32F4xx_HAL_Driver/Src/stm32f4xx_hal_rcc.c ****   * @brief  RCC Clock Security System interrupt callback
1099:Drivers/STM32F4xx_HAL_Driver/Src/stm32f4xx_hal_rcc.c ****   * @retval None
1100:Drivers/STM32F4xx_HAL_Driver/Src/stm32f4xx_hal_rcc.c ****   */
1101:Drivers/STM32F4xx_HAL_Driver/Src/stm32f4xx_hal_rcc.c **** __weak void HAL_RCC_CSSCallback(void)
1102:Drivers/STM32F4xx_HAL_Driver/Src/stm32f4xx_hal_rcc.c **** {
 1962              		.loc 1 1102 1 is_stmt 1 view -0
 1963              		.cfi_startproc
 1964              		@ args = 0, pretend = 0, frame = 0
 1965              		@ frame_needed = 0, uses_anonymous_args = 0
 1966              		@ link register save eliminated.
1103:Drivers/STM32F4xx_HAL_Driver/Src/stm32f4xx_hal_rcc.c ****   /* NOTE : This function Should not be modified, when the callback is needed,
1104:Drivers/STM32F4xx_HAL_Driver/Src/stm32f4xx_hal_rcc.c ****             the HAL_RCC_CSSCallback could be implemented in the user file
1105:Drivers/STM32F4xx_HAL_Driver/Src/stm32f4xx_hal_rcc.c ****    */
1106:Drivers/STM32F4xx_HAL_Driver/Src/stm32f4xx_hal_rcc.c **** }
 1967              		.loc 1 1106 1 view .LVU616
 1968 0000 7047     		bx	lr
 1969              		.cfi_endproc
 1970              	.LFE252:
 1972              		.section	.text.HAL_RCC_NMI_IRQHandler,"ax",%progbits
 1973              		.align	1
 1974              		.global	HAL_RCC_NMI_IRQHandler
 1975              		.syntax unified
 1976              		.thumb
 1977              		.thumb_func
 1979              	HAL_RCC_NMI_IRQHandler:
 1980              	.LFB251:
1085:Drivers/STM32F4xx_HAL_Driver/Src/stm32f4xx_hal_rcc.c ****   /* Check RCC CSSF flag  */
 1981              		.loc 1 1085 1 view -0
 1982              		.cfi_startproc
 1983              		@ args = 0, pretend = 0, frame = 0
 1984              		@ frame_needed = 0, uses_anonymous_args = 0
 1985 0000 08B5     		push	{r3, lr}
 1986              		.cfi_def_cfa_offset 8
 1987              		.cfi_offset 3, -8
 1988              		.cfi_offset 14, -4
1087:Drivers/STM32F4xx_HAL_Driver/Src/stm32f4xx_hal_rcc.c ****   {
 1989              		.loc 1 1087 3 view .LVU618
ARM GAS  C:\Users\Rick\AppData\Local\Temp\ccWRFpbY.s 			page 60


1087:Drivers/STM32F4xx_HAL_Driver/Src/stm32f4xx_hal_rcc.c ****   {
 1990              		.loc 1 1087 7 is_stmt 0 view .LVU619
 1991 0002 064B     		ldr	r3, .L183
 1992 0004 DB68     		ldr	r3, [r3, #12]
1087:Drivers/STM32F4xx_HAL_Driver/Src/stm32f4xx_hal_rcc.c ****   {
 1993              		.loc 1 1087 6 view .LVU620
 1994 0006 13F0800F 		tst	r3, #128
 1995 000a 00D1     		bne	.L182
 1996              	.L179:
1095:Drivers/STM32F4xx_HAL_Driver/Src/stm32f4xx_hal_rcc.c **** 
 1997              		.loc 1 1095 1 view .LVU621
 1998 000c 08BD     		pop	{r3, pc}
 1999              	.L182:
1090:Drivers/STM32F4xx_HAL_Driver/Src/stm32f4xx_hal_rcc.c **** 
 2000              		.loc 1 1090 5 is_stmt 1 view .LVU622
 2001 000e FFF7FEFF 		bl	HAL_RCC_CSSCallback
 2002              	.LVL107:
1093:Drivers/STM32F4xx_HAL_Driver/Src/stm32f4xx_hal_rcc.c ****   }
 2003              		.loc 1 1093 5 view .LVU623
 2004 0012 024B     		ldr	r3, .L183
 2005 0014 8022     		movs	r2, #128
 2006 0016 9A73     		strb	r2, [r3, #14]
1095:Drivers/STM32F4xx_HAL_Driver/Src/stm32f4xx_hal_rcc.c **** 
 2007              		.loc 1 1095 1 is_stmt 0 view .LVU624
 2008 0018 F8E7     		b	.L179
 2009              	.L184:
 2010 001a 00BF     		.align	2
 2011              	.L183:
 2012 001c 00380240 		.word	1073887232
 2013              		.cfi_endproc
 2014              	.LFE251:
 2016              		.text
 2017              	.Letext0:
 2018              		.file 2 "C:/Users/Rick/AppData/Roaming/Code/User/globalStorage/bmd.stm32-for-vscode/@xpack-dev-too
 2019              		.file 3 "C:/Users/Rick/AppData/Roaming/Code/User/globalStorage/bmd.stm32-for-vscode/@xpack-dev-too
 2020              		.file 4 "Drivers/CMSIS/Device/ST/STM32F4xx/Include/system_stm32f4xx.h"
 2021              		.file 5 "Drivers/CMSIS/Device/ST/STM32F4xx/Include/stm32f446xx.h"
 2022              		.file 6 "Drivers/CMSIS/Device/ST/STM32F4xx/Include/stm32f4xx.h"
 2023              		.file 7 "Drivers/STM32F4xx_HAL_Driver/Inc/stm32f4xx_hal_def.h"
 2024              		.file 8 "Drivers/STM32F4xx_HAL_Driver/Inc/stm32f4xx_hal_rcc_ex.h"
 2025              		.file 9 "Drivers/STM32F4xx_HAL_Driver/Inc/stm32f4xx_hal_rcc.h"
 2026              		.file 10 "Drivers/STM32F4xx_HAL_Driver/Inc/stm32f4xx_hal_gpio.h"
 2027              		.file 11 "Drivers/STM32F4xx_HAL_Driver/Inc/stm32f4xx_hal.h"
ARM GAS  C:\Users\Rick\AppData\Local\Temp\ccWRFpbY.s 			page 61

