ARM GAS  C:\Users\Rick\AppData\Local\Temp\ccTtZzKL.s 			page 1


   1              		.cpu cortex-m4
   2              		.arch armv7e-m
   3              		.fpu fpv4-sp-d16
   4              		.eabi_attribute 27, 1
   5              		.eabi_attribute 28, 1
   6              		.eabi_attribute 20, 1
   7              		.eabi_attribute 21, 1
   8              		.eabi_attribute 23, 3
   9              		.eabi_attribute 24, 1
  10              		.eabi_attribute 25, 1
  11              		.eabi_attribute 26, 1
  12              		.eabi_attribute 30, 1
  13              		.eabi_attribute 34, 1
  14              		.eabi_attribute 18, 4
  15              		.file	"temp.c"
  16              		.text
  17              	.Ltext0:
  18              		.cfi_sections	.debug_frame
  19              		.file 1 "Controller/Sensors/temp.c"
  20              		.section	.text.temp_init,"ax",%progbits
  21              		.align	1
  22              		.global	temp_init
  23              		.syntax unified
  24              		.thumb
  25              		.thumb_func
  27              	temp_init:
  28              	.LFB239:
   1:Controller/Sensors/temp.c **** #include "./temp.h"
   2:Controller/Sensors/temp.c **** 
   3:Controller/Sensors/temp.c **** #include "adc.h"
   4:Controller/Sensors/temp.c **** #include "math.h"
   5:Controller/Sensors/temp.c **** 
   6:Controller/Sensors/temp.c **** #define ADC_RESOLUTION 4096.0f
   7:Controller/Sensors/temp.c **** #define ADC_VOLTAGE_REF 3.3f
   8:Controller/Sensors/temp.c **** #define R 10000.0f      // 分压电阻阻值
   9:Controller/Sensors/temp.c **** #define BETA 3455.0f    // 热敏电阻的 B 常数
  10:Controller/Sensors/temp.c **** #define K 273.15f       // 摄氏温度转绝对温度的偏移量
  11:Controller/Sensors/temp.c **** #define T0 (K + 25.0f)  // 25°C 的绝对温度 (K)
  12:Controller/Sensors/temp.c **** 
  13:Controller/Sensors/temp.c **** void temp_init(void) {}
  29              		.loc 1 13 22 view -0
  30              		.cfi_startproc
  31              		@ args = 0, pretend = 0, frame = 0
  32              		@ frame_needed = 0, uses_anonymous_args = 0
  33              		@ link register save eliminated.
  34              		.loc 1 13 23 view .LVU1
  35 0000 7047     		bx	lr
  36              		.cfi_endproc
  37              	.LFE239:
  39              		.section	.text.temp_get,"ax",%progbits
  40              		.align	1
  41              		.global	temp_get
  42              		.syntax unified
  43              		.thumb
  44              		.thumb_func
  46              	temp_get:
  47              	.LFB240:
ARM GAS  C:\Users\Rick\AppData\Local\Temp\ccTtZzKL.s 			page 2


  14:Controller/Sensors/temp.c **** 
  15:Controller/Sensors/temp.c **** float temp_get(void) {
  48              		.loc 1 15 22 view -0
  49              		.cfi_startproc
  50              		@ args = 0, pretend = 0, frame = 0
  51              		@ frame_needed = 0, uses_anonymous_args = 0
  52 0000 10B5     		push	{r4, lr}
  53              		.cfi_def_cfa_offset 8
  54              		.cfi_offset 4, -8
  55              		.cfi_offset 14, -4
  16:Controller/Sensors/temp.c ****   // 启动 ADC 并等待转换完成
  17:Controller/Sensors/temp.c ****   HAL_ADC_Start(&hadc3);
  56              		.loc 1 17 3 view .LVU3
  57 0002 1A4C     		ldr	r4, .L4
  58 0004 2046     		mov	r0, r4
  59 0006 FFF7FEFF 		bl	HAL_ADC_Start
  60              	.LVL0:
  18:Controller/Sensors/temp.c ****   HAL_ADC_PollForConversion(&hadc3, 10);
  61              		.loc 1 18 3 view .LVU4
  62 000a 0A21     		movs	r1, #10
  63 000c 2046     		mov	r0, r4
  64 000e FFF7FEFF 		bl	HAL_ADC_PollForConversion
  65              	.LVL1:
  19:Controller/Sensors/temp.c ****   // 获取 ADC 采样值
  20:Controller/Sensors/temp.c ****   uint32_t adc_value = HAL_ADC_GetValue(&hadc3);
  66              		.loc 1 20 3 view .LVU5
  67              		.loc 1 20 24 is_stmt 0 view .LVU6
  68 0012 2046     		mov	r0, r4
  69 0014 FFF7FEFF 		bl	HAL_ADC_GetValue
  70              	.LVL2:
  71 0018 07EE900A 		vmov	s15, r0	@ int
  72              	.LVL3:
  21:Controller/Sensors/temp.c ****   float vr = (float)adc_value / ADC_RESOLUTION * ADC_VOLTAGE_REF;
  73              		.loc 1 21 3 is_stmt 1 view .LVU7
  74              		.loc 1 21 14 is_stmt 0 view .LVU8
  75 001c F8EE677A 		vcvt.f32.u32	s15, s15
  76              		.loc 1 21 31 view .LVU9
  77 0020 9FED137A 		vldr.32	s14, .L4+4
  78 0024 67EE877A 		vmul.f32	s15, s15, s14
  79              		.loc 1 21 9 view .LVU10
  80 0028 9FED127A 		vldr.32	s14, .L4+8
  81 002c 67EE877A 		vmul.f32	s15, s15, s14
  82              	.LVL4:
  22:Controller/Sensors/temp.c ****   float rt = vr * R / (ADC_VOLTAGE_REF - vr);
  83              		.loc 1 22 3 is_stmt 1 view .LVU11
  84              		.loc 1 22 17 is_stmt 0 view .LVU12
  85 0030 DFED116A 		vldr.32	s13, .L4+12
  86 0034 27EEA66A 		vmul.f32	s12, s15, s13
  87              		.loc 1 22 40 view .LVU13
  88 0038 37EE677A 		vsub.f32	s14, s14, s15
  89              		.loc 1 22 9 view .LVU14
  90 003c 86EE070A 		vdiv.f32	s0, s12, s14
  91              	.LVL5:
  23:Controller/Sensors/temp.c ****   // 根据 B 常数公式计算温度
  24:Controller/Sensors/temp.c ****   float temp_k = 1.0f / (1.0f / T0 + logf(rt / R) / BETA);
  92              		.loc 1 24 3 is_stmt 1 view .LVU15
  93              		.loc 1 24 38 is_stmt 0 view .LVU16
ARM GAS  C:\Users\Rick\AppData\Local\Temp\ccTtZzKL.s 			page 3


  94 0040 80EE260A 		vdiv.f32	s0, s0, s13
  95              	.LVL6:
  96              		.loc 1 24 38 view .LVU17
  97 0044 FFF7FEFF 		bl	logf
  98              	.LVL7:
  99              		.loc 1 24 51 discriminator 1 view .LVU18
 100 0048 9FED0C7A 		vldr.32	s14, .L4+16
 101 004c C0EE077A 		vdiv.f32	s15, s0, s14
 102              		.loc 1 24 36 discriminator 1 view .LVU19
 103 0050 9FED0B7A 		vldr.32	s14, .L4+20
 104 0054 77EE877A 		vadd.f32	s15, s15, s14
 105              		.loc 1 24 9 discriminator 1 view .LVU20
 106 0058 B7EE007A 		vmov.f32	s14, #1.0e+0
 107 005c 87EE270A 		vdiv.f32	s0, s14, s15
 108              	.LVL8:
  25:Controller/Sensors/temp.c ****   float temp_c = temp_k - K;  // 转换为摄氏温度
 109              		.loc 1 25 3 is_stmt 1 view .LVU21
  26:Controller/Sensors/temp.c ****   return temp_c;
 110              		.loc 1 26 3 view .LVU22
  27:Controller/Sensors/temp.c **** }
 111              		.loc 1 27 1 is_stmt 0 view .LVU23
 112 0060 DFED087A 		vldr.32	s15, .L4+24
 113 0064 30EE670A 		vsub.f32	s0, s0, s15
 114              	.LVL9:
 115              		.loc 1 27 1 view .LVU24
 116 0068 10BD     		pop	{r4, pc}
 117              	.L5:
 118 006a 00BF     		.align	2
 119              	.L4:
 120 006c 00000000 		.word	hadc3
 121 0070 00008039 		.word	964689920
 122 0074 33335340 		.word	1079194419
 123 0078 00401C46 		.word	1176256512
 124 007c 00F05745 		.word	1163390976
 125 0080 0FCF5B3B 		.word	995872527
 126 0084 33938843 		.word	1133024051
 127              		.cfi_endproc
 128              	.LFE240:
 130              		.text
 131              	.Letext0:
 132              		.file 2 "C:/Users/Rick/AppData/Roaming/Code/User/globalStorage/bmd.stm32-for-vscode/@xpack-dev-too
 133              		.file 3 "C:/Users/Rick/AppData/Roaming/Code/User/globalStorage/bmd.stm32-for-vscode/@xpack-dev-too
 134              		.file 4 "Drivers/CMSIS/Device/ST/STM32F4xx/Include/stm32f446xx.h"
 135              		.file 5 "Drivers/CMSIS/Device/ST/STM32F4xx/Include/stm32f4xx.h"
 136              		.file 6 "Drivers/STM32F4xx_HAL_Driver/Inc/stm32f4xx_hal_def.h"
 137              		.file 7 "Drivers/STM32F4xx_HAL_Driver/Inc/stm32f4xx_hal_dma.h"
 138              		.file 8 "Drivers/STM32F4xx_HAL_Driver/Inc/stm32f4xx_hal_adc.h"
 139              		.file 9 "C:/Users/Rick/AppData/Roaming/Code/User/globalStorage/bmd.stm32-for-vscode/@xpack-dev-too
 140              		.file 10 "Core/Inc/adc.h"
ARM GAS  C:\Users\Rick\AppData\Local\Temp\ccTtZzKL.s 			page 4


DEFINED SYMBOLS
                            *ABS*:00000000 temp.c
C:\Users\Rick\AppData\Local\Temp\ccTtZzKL.s:21     .text.temp_init:00000000 $t
C:\Users\Rick\AppData\Local\Temp\ccTtZzKL.s:27     .text.temp_init:00000000 temp_init
C:\Users\Rick\AppData\Local\Temp\ccTtZzKL.s:40     .text.temp_get:00000000 $t
C:\Users\Rick\AppData\Local\Temp\ccTtZzKL.s:46     .text.temp_get:00000000 temp_get
C:\Users\Rick\AppData\Local\Temp\ccTtZzKL.s:120    .text.temp_get:0000006c $d

UNDEFINED SYMBOLS
HAL_ADC_Start
HAL_ADC_PollForConversion
HAL_ADC_GetValue
logf
hadc3
