ARM GAS  C:\Users\Rick\AppData\Local\Temp\cc4dUzRe.s 			page 1


   1              		.cpu cortex-m4
   2              		.arch armv7e-m
   3              		.fpu fpv4-sp-d16
   4              		.eabi_attribute 27, 1
   5              		.eabi_attribute 28, 1
   6              		.eabi_attribute 20, 1
   7              		.eabi_attribute 21, 1
   8              		.eabi_attribute 23, 3
   9              		.eabi_attribute 24, 1
  10              		.eabi_attribute 25, 1
  11              		.eabi_attribute 26, 1
  12              		.eabi_attribute 30, 1
  13              		.eabi_attribute 34, 1
  14              		.eabi_attribute 18, 4
  15              		.file	"tim.c"
  16              		.text
  17              	.Ltext0:
  18              		.cfi_sections	.debug_frame
  19              		.file 1 "Core/Src/tim.c"
  20              		.section	.text.MX_TIM3_Init,"ax",%progbits
  21              		.align	1
  22              		.global	MX_TIM3_Init
  23              		.syntax unified
  24              		.thumb
  25              		.thumb_func
  27              	MX_TIM3_Init:
  28              	.LFB240:
   1:Core/Src/tim.c **** /* USER CODE BEGIN Header */
   2:Core/Src/tim.c **** /**
   3:Core/Src/tim.c ****   ******************************************************************************
   4:Core/Src/tim.c ****   * @file    tim.c
   5:Core/Src/tim.c ****   * @brief   This file provides code for the configuration
   6:Core/Src/tim.c ****   *          of the TIM instances.
   7:Core/Src/tim.c ****   ******************************************************************************
   8:Core/Src/tim.c ****   * @attention
   9:Core/Src/tim.c ****   *
  10:Core/Src/tim.c ****   * Copyright (c) 2025 STMicroelectronics.
  11:Core/Src/tim.c ****   * All rights reserved.
  12:Core/Src/tim.c ****   *
  13:Core/Src/tim.c ****   * This software is licensed under terms that can be found in the LICENSE file
  14:Core/Src/tim.c ****   * in the root directory of this software component.
  15:Core/Src/tim.c ****   * If no LICENSE file comes with this software, it is provided AS-IS.
  16:Core/Src/tim.c ****   *
  17:Core/Src/tim.c ****   ******************************************************************************
  18:Core/Src/tim.c ****   */
  19:Core/Src/tim.c **** /* USER CODE END Header */
  20:Core/Src/tim.c **** /* Includes ------------------------------------------------------------------*/
  21:Core/Src/tim.c **** #include "tim.h"
  22:Core/Src/tim.c **** 
  23:Core/Src/tim.c **** /* USER CODE BEGIN 0 */
  24:Core/Src/tim.c **** 
  25:Core/Src/tim.c **** /* USER CODE END 0 */
  26:Core/Src/tim.c **** 
  27:Core/Src/tim.c **** TIM_HandleTypeDef htim1;
  28:Core/Src/tim.c **** TIM_HandleTypeDef htim3;
  29:Core/Src/tim.c **** 
  30:Core/Src/tim.c **** /* TIM1 init function */
ARM GAS  C:\Users\Rick\AppData\Local\Temp\cc4dUzRe.s 			page 2


  31:Core/Src/tim.c **** void MX_TIM1_Init(void)
  32:Core/Src/tim.c **** {
  33:Core/Src/tim.c **** 
  34:Core/Src/tim.c ****   /* USER CODE BEGIN TIM1_Init 0 */
  35:Core/Src/tim.c **** 
  36:Core/Src/tim.c ****   /* USER CODE END TIM1_Init 0 */
  37:Core/Src/tim.c **** 
  38:Core/Src/tim.c ****   TIM_ClockConfigTypeDef sClockSourceConfig = {0};
  39:Core/Src/tim.c ****   TIM_MasterConfigTypeDef sMasterConfig = {0};
  40:Core/Src/tim.c ****   TIM_OC_InitTypeDef sConfigOC = {0};
  41:Core/Src/tim.c ****   TIM_BreakDeadTimeConfigTypeDef sBreakDeadTimeConfig = {0};
  42:Core/Src/tim.c **** 
  43:Core/Src/tim.c ****   /* USER CODE BEGIN TIM1_Init 1 */
  44:Core/Src/tim.c **** 
  45:Core/Src/tim.c ****   /* USER CODE END TIM1_Init 1 */
  46:Core/Src/tim.c ****   htim1.Instance = TIM1;
  47:Core/Src/tim.c ****   htim1.Init.Prescaler = 1-1;
  48:Core/Src/tim.c ****   htim1.Init.CounterMode = TIM_COUNTERMODE_CENTERALIGNED1;
  49:Core/Src/tim.c ****   htim1.Init.Period = 8000-1;
  50:Core/Src/tim.c ****   htim1.Init.ClockDivision = TIM_CLOCKDIVISION_DIV2;
  51:Core/Src/tim.c ****   htim1.Init.RepetitionCounter = 1;
  52:Core/Src/tim.c ****   htim1.Init.AutoReloadPreload = TIM_AUTORELOAD_PRELOAD_DISABLE;
  53:Core/Src/tim.c ****   if (HAL_TIM_Base_Init(&htim1) != HAL_OK)
  54:Core/Src/tim.c ****   {
  55:Core/Src/tim.c ****     Error_Handler();
  56:Core/Src/tim.c ****   }
  57:Core/Src/tim.c ****   sClockSourceConfig.ClockSource = TIM_CLOCKSOURCE_INTERNAL;
  58:Core/Src/tim.c ****   if (HAL_TIM_ConfigClockSource(&htim1, &sClockSourceConfig) != HAL_OK)
  59:Core/Src/tim.c ****   {
  60:Core/Src/tim.c ****     Error_Handler();
  61:Core/Src/tim.c ****   }
  62:Core/Src/tim.c ****   if (HAL_TIM_PWM_Init(&htim1) != HAL_OK)
  63:Core/Src/tim.c ****   {
  64:Core/Src/tim.c ****     Error_Handler();
  65:Core/Src/tim.c ****   }
  66:Core/Src/tim.c ****   sMasterConfig.MasterOutputTrigger = TIM_TRGO_RESET;
  67:Core/Src/tim.c ****   sMasterConfig.MasterSlaveMode = TIM_MASTERSLAVEMODE_DISABLE;
  68:Core/Src/tim.c ****   if (HAL_TIMEx_MasterConfigSynchronization(&htim1, &sMasterConfig) != HAL_OK)
  69:Core/Src/tim.c ****   {
  70:Core/Src/tim.c ****     Error_Handler();
  71:Core/Src/tim.c ****   }
  72:Core/Src/tim.c ****   sConfigOC.OCMode = TIM_OCMODE_PWM1;
  73:Core/Src/tim.c ****   sConfigOC.Pulse = 0;
  74:Core/Src/tim.c ****   sConfigOC.OCPolarity = TIM_OCPOLARITY_HIGH;
  75:Core/Src/tim.c ****   sConfigOC.OCNPolarity = TIM_OCNPOLARITY_HIGH;
  76:Core/Src/tim.c ****   sConfigOC.OCFastMode = TIM_OCFAST_DISABLE;
  77:Core/Src/tim.c ****   sConfigOC.OCIdleState = TIM_OCIDLESTATE_RESET;
  78:Core/Src/tim.c ****   sConfigOC.OCNIdleState = TIM_OCNIDLESTATE_RESET;
  79:Core/Src/tim.c ****   if (HAL_TIM_PWM_ConfigChannel(&htim1, &sConfigOC, TIM_CHANNEL_1) != HAL_OK)
  80:Core/Src/tim.c ****   {
  81:Core/Src/tim.c ****     Error_Handler();
  82:Core/Src/tim.c ****   }
  83:Core/Src/tim.c ****   if (HAL_TIM_PWM_ConfigChannel(&htim1, &sConfigOC, TIM_CHANNEL_2) != HAL_OK)
  84:Core/Src/tim.c ****   {
  85:Core/Src/tim.c ****     Error_Handler();
  86:Core/Src/tim.c ****   }
  87:Core/Src/tim.c ****   if (HAL_TIM_PWM_ConfigChannel(&htim1, &sConfigOC, TIM_CHANNEL_3) != HAL_OK)
ARM GAS  C:\Users\Rick\AppData\Local\Temp\cc4dUzRe.s 			page 3


  88:Core/Src/tim.c ****   {
  89:Core/Src/tim.c ****     Error_Handler();
  90:Core/Src/tim.c ****   }
  91:Core/Src/tim.c ****   sConfigOC.OCMode = TIM_OCMODE_PWM2;
  92:Core/Src/tim.c ****   sConfigOC.Pulse = 8000-2;
  93:Core/Src/tim.c ****   if (HAL_TIM_PWM_ConfigChannel(&htim1, &sConfigOC, TIM_CHANNEL_4) != HAL_OK)
  94:Core/Src/tim.c ****   {
  95:Core/Src/tim.c ****     Error_Handler();
  96:Core/Src/tim.c ****   }
  97:Core/Src/tim.c ****   sBreakDeadTimeConfig.OffStateRunMode = TIM_OSSR_DISABLE;
  98:Core/Src/tim.c ****   sBreakDeadTimeConfig.OffStateIDLEMode = TIM_OSSI_DISABLE;
  99:Core/Src/tim.c ****   sBreakDeadTimeConfig.LockLevel = TIM_LOCKLEVEL_OFF;
 100:Core/Src/tim.c ****   sBreakDeadTimeConfig.DeadTime = 0;
 101:Core/Src/tim.c ****   sBreakDeadTimeConfig.BreakState = TIM_BREAK_ENABLE;
 102:Core/Src/tim.c ****   sBreakDeadTimeConfig.BreakPolarity = TIM_BREAKPOLARITY_HIGH;
 103:Core/Src/tim.c ****   sBreakDeadTimeConfig.AutomaticOutput = TIM_AUTOMATICOUTPUT_DISABLE;
 104:Core/Src/tim.c ****   if (HAL_TIMEx_ConfigBreakDeadTime(&htim1, &sBreakDeadTimeConfig) != HAL_OK)
 105:Core/Src/tim.c ****   {
 106:Core/Src/tim.c ****     Error_Handler();
 107:Core/Src/tim.c ****   }
 108:Core/Src/tim.c ****   /* USER CODE BEGIN TIM1_Init 2 */
 109:Core/Src/tim.c **** 
 110:Core/Src/tim.c ****   /* USER CODE END TIM1_Init 2 */
 111:Core/Src/tim.c ****   HAL_TIM_MspPostInit(&htim1);
 112:Core/Src/tim.c **** 
 113:Core/Src/tim.c **** }
 114:Core/Src/tim.c **** /* TIM3 init function */
 115:Core/Src/tim.c **** void MX_TIM3_Init(void)
 116:Core/Src/tim.c **** {
  29              		.loc 1 116 1 view -0
  30              		.cfi_startproc
  31              		@ args = 0, pretend = 0, frame = 24
  32              		@ frame_needed = 0, uses_anonymous_args = 0
  33 0000 00B5     		push	{lr}
  34              		.cfi_def_cfa_offset 4
  35              		.cfi_offset 14, -4
  36 0002 87B0     		sub	sp, sp, #28
  37              		.cfi_def_cfa_offset 32
 117:Core/Src/tim.c **** 
 118:Core/Src/tim.c ****   /* USER CODE BEGIN TIM3_Init 0 */
 119:Core/Src/tim.c **** 
 120:Core/Src/tim.c ****   /* USER CODE END TIM3_Init 0 */
 121:Core/Src/tim.c **** 
 122:Core/Src/tim.c ****   TIM_HallSensor_InitTypeDef sConfig = {0};
  38              		.loc 1 122 3 view .LVU1
  39              		.loc 1 122 30 is_stmt 0 view .LVU2
  40 0004 02A9     		add	r1, sp, #8
  41 0006 0023     		movs	r3, #0
  42 0008 0293     		str	r3, [sp, #8]
  43 000a 4B60     		str	r3, [r1, #4]
  44 000c 8B60     		str	r3, [r1, #8]
  45 000e CB60     		str	r3, [r1, #12]
 123:Core/Src/tim.c ****   TIM_MasterConfigTypeDef sMasterConfig = {0};
  46              		.loc 1 123 3 is_stmt 1 view .LVU3
  47              		.loc 1 123 27 is_stmt 0 view .LVU4
  48 0010 0093     		str	r3, [sp]
  49 0012 0193     		str	r3, [sp, #4]
ARM GAS  C:\Users\Rick\AppData\Local\Temp\cc4dUzRe.s 			page 4


 124:Core/Src/tim.c **** 
 125:Core/Src/tim.c ****   /* USER CODE BEGIN TIM3_Init 1 */
 126:Core/Src/tim.c **** 
 127:Core/Src/tim.c ****   /* USER CODE END TIM3_Init 1 */
 128:Core/Src/tim.c ****   htim3.Instance = TIM3;
  50              		.loc 1 128 3 is_stmt 1 view .LVU5
  51              		.loc 1 128 18 is_stmt 0 view .LVU6
  52 0014 1148     		ldr	r0, .L7
  53 0016 124A     		ldr	r2, .L7+4
  54 0018 0260     		str	r2, [r0]
 129:Core/Src/tim.c ****   htim3.Init.Prescaler = 16-1;
  55              		.loc 1 129 3 is_stmt 1 view .LVU7
  56              		.loc 1 129 24 is_stmt 0 view .LVU8
  57 001a 0F22     		movs	r2, #15
  58 001c 4260     		str	r2, [r0, #4]
 130:Core/Src/tim.c ****   htim3.Init.CounterMode = TIM_COUNTERMODE_UP;
  59              		.loc 1 130 3 is_stmt 1 view .LVU9
  60              		.loc 1 130 26 is_stmt 0 view .LVU10
  61 001e 8360     		str	r3, [r0, #8]
 131:Core/Src/tim.c ****   htim3.Init.Period = 65535;
  62              		.loc 1 131 3 is_stmt 1 view .LVU11
  63              		.loc 1 131 21 is_stmt 0 view .LVU12
  64 0020 4FF6FF72 		movw	r2, #65535
  65 0024 C260     		str	r2, [r0, #12]
 132:Core/Src/tim.c ****   htim3.Init.ClockDivision = TIM_CLOCKDIVISION_DIV1;
  66              		.loc 1 132 3 is_stmt 1 view .LVU13
  67              		.loc 1 132 28 is_stmt 0 view .LVU14
  68 0026 0361     		str	r3, [r0, #16]
 133:Core/Src/tim.c ****   htim3.Init.AutoReloadPreload = TIM_AUTORELOAD_PRELOAD_DISABLE;
  69              		.loc 1 133 3 is_stmt 1 view .LVU15
  70              		.loc 1 133 32 is_stmt 0 view .LVU16
  71 0028 8361     		str	r3, [r0, #24]
 134:Core/Src/tim.c ****   sConfig.IC1Polarity = TIM_ICPOLARITY_RISING;
  72              		.loc 1 134 3 is_stmt 1 view .LVU17
 135:Core/Src/tim.c ****   sConfig.IC1Prescaler = TIM_ICPSC_DIV1;
  73              		.loc 1 135 3 view .LVU18
 136:Core/Src/tim.c ****   sConfig.IC1Filter = 10;
  74              		.loc 1 136 3 view .LVU19
  75              		.loc 1 136 21 is_stmt 0 view .LVU20
  76 002a 0A23     		movs	r3, #10
  77 002c 0493     		str	r3, [sp, #16]
 137:Core/Src/tim.c ****   sConfig.Commutation_Delay = 5;
  78              		.loc 1 137 3 is_stmt 1 view .LVU21
  79              		.loc 1 137 29 is_stmt 0 view .LVU22
  80 002e 0523     		movs	r3, #5
  81 0030 0593     		str	r3, [sp, #20]
 138:Core/Src/tim.c ****   if (HAL_TIMEx_HallSensor_Init(&htim3, &sConfig) != HAL_OK)
  82              		.loc 1 138 3 is_stmt 1 view .LVU23
  83              		.loc 1 138 7 is_stmt 0 view .LVU24
  84 0032 FFF7FEFF 		bl	HAL_TIMEx_HallSensor_Init
  85              	.LVL0:
  86              		.loc 1 138 6 discriminator 1 view .LVU25
  87 0036 58B9     		cbnz	r0, .L5
  88              	.L2:
 139:Core/Src/tim.c ****   {
 140:Core/Src/tim.c ****     Error_Handler();
 141:Core/Src/tim.c ****   }
ARM GAS  C:\Users\Rick\AppData\Local\Temp\cc4dUzRe.s 			page 5


 142:Core/Src/tim.c ****   sMasterConfig.MasterOutputTrigger = TIM_TRGO_OC2REF;
  89              		.loc 1 142 3 is_stmt 1 view .LVU26
  90              		.loc 1 142 37 is_stmt 0 view .LVU27
  91 0038 5023     		movs	r3, #80
  92 003a 0093     		str	r3, [sp]
 143:Core/Src/tim.c ****   sMasterConfig.MasterSlaveMode = TIM_MASTERSLAVEMODE_DISABLE;
  93              		.loc 1 143 3 is_stmt 1 view .LVU28
  94              		.loc 1 143 33 is_stmt 0 view .LVU29
  95 003c 0023     		movs	r3, #0
  96 003e 0193     		str	r3, [sp, #4]
 144:Core/Src/tim.c ****   if (HAL_TIMEx_MasterConfigSynchronization(&htim3, &sMasterConfig) != HAL_OK)
  97              		.loc 1 144 3 is_stmt 1 view .LVU30
  98              		.loc 1 144 7 is_stmt 0 view .LVU31
  99 0040 6946     		mov	r1, sp
 100 0042 0648     		ldr	r0, .L7
 101 0044 FFF7FEFF 		bl	HAL_TIMEx_MasterConfigSynchronization
 102              	.LVL1:
 103              		.loc 1 144 6 discriminator 1 view .LVU32
 104 0048 28B9     		cbnz	r0, .L6
 105              	.L1:
 145:Core/Src/tim.c ****   {
 146:Core/Src/tim.c ****     Error_Handler();
 147:Core/Src/tim.c ****   }
 148:Core/Src/tim.c ****   /* USER CODE BEGIN TIM3_Init 2 */
 149:Core/Src/tim.c **** 
 150:Core/Src/tim.c ****   /* USER CODE END TIM3_Init 2 */
 151:Core/Src/tim.c **** 
 152:Core/Src/tim.c **** }
 106              		.loc 1 152 1 view .LVU33
 107 004a 07B0     		add	sp, sp, #28
 108              		.cfi_remember_state
 109              		.cfi_def_cfa_offset 4
 110              		@ sp needed
 111 004c 5DF804FB 		ldr	pc, [sp], #4
 112              	.L5:
 113              		.cfi_restore_state
 140:Core/Src/tim.c ****   }
 114              		.loc 1 140 5 is_stmt 1 view .LVU34
 115 0050 FFF7FEFF 		bl	Error_Handler
 116              	.LVL2:
 117 0054 F0E7     		b	.L2
 118              	.L6:
 146:Core/Src/tim.c ****   }
 119              		.loc 1 146 5 view .LVU35
 120 0056 FFF7FEFF 		bl	Error_Handler
 121              	.LVL3:
 122              		.loc 1 152 1 is_stmt 0 view .LVU36
 123 005a F6E7     		b	.L1
 124              	.L8:
 125              		.align	2
 126              	.L7:
 127 005c 00000000 		.word	htim3
 128 0060 00040040 		.word	1073742848
 129              		.cfi_endproc
 130              	.LFE240:
 132              		.section	.text.HAL_TIM_Base_MspInit,"ax",%progbits
 133              		.align	1
ARM GAS  C:\Users\Rick\AppData\Local\Temp\cc4dUzRe.s 			page 6


 134              		.global	HAL_TIM_Base_MspInit
 135              		.syntax unified
 136              		.thumb
 137              		.thumb_func
 139              	HAL_TIM_Base_MspInit:
 140              	.LVL4:
 141              	.LFB241:
 153:Core/Src/tim.c **** 
 154:Core/Src/tim.c **** void HAL_TIM_Base_MspInit(TIM_HandleTypeDef* tim_baseHandle)
 155:Core/Src/tim.c **** {
 142              		.loc 1 155 1 is_stmt 1 view -0
 143              		.cfi_startproc
 144              		@ args = 0, pretend = 0, frame = 32
 145              		@ frame_needed = 0, uses_anonymous_args = 0
 146              		.loc 1 155 1 is_stmt 0 view .LVU38
 147 0000 10B5     		push	{r4, lr}
 148              		.cfi_def_cfa_offset 8
 149              		.cfi_offset 4, -8
 150              		.cfi_offset 14, -4
 151 0002 88B0     		sub	sp, sp, #32
 152              		.cfi_def_cfa_offset 40
 156:Core/Src/tim.c **** 
 157:Core/Src/tim.c ****   GPIO_InitTypeDef GPIO_InitStruct = {0};
 153              		.loc 1 157 3 is_stmt 1 view .LVU39
 154              		.loc 1 157 20 is_stmt 0 view .LVU40
 155 0004 0023     		movs	r3, #0
 156 0006 0393     		str	r3, [sp, #12]
 157 0008 0493     		str	r3, [sp, #16]
 158 000a 0593     		str	r3, [sp, #20]
 159 000c 0693     		str	r3, [sp, #24]
 160 000e 0793     		str	r3, [sp, #28]
 158:Core/Src/tim.c ****   if(tim_baseHandle->Instance==TIM1)
 161              		.loc 1 158 3 is_stmt 1 view .LVU41
 162              		.loc 1 158 20 is_stmt 0 view .LVU42
 163 0010 0268     		ldr	r2, [r0]
 164              		.loc 1 158 5 view .LVU43
 165 0012 204B     		ldr	r3, .L13
 166 0014 9A42     		cmp	r2, r3
 167 0016 01D0     		beq	.L12
 168              	.LVL5:
 169              	.L9:
 159:Core/Src/tim.c ****   {
 160:Core/Src/tim.c ****   /* USER CODE BEGIN TIM1_MspInit 0 */
 161:Core/Src/tim.c **** 
 162:Core/Src/tim.c ****   /* USER CODE END TIM1_MspInit 0 */
 163:Core/Src/tim.c ****     /* TIM1 clock enable */
 164:Core/Src/tim.c ****     __HAL_RCC_TIM1_CLK_ENABLE();
 165:Core/Src/tim.c **** 
 166:Core/Src/tim.c ****     __HAL_RCC_GPIOB_CLK_ENABLE();
 167:Core/Src/tim.c ****     /**TIM1 GPIO Configuration
 168:Core/Src/tim.c ****     PB12     ------> TIM1_BKIN
 169:Core/Src/tim.c ****     */
 170:Core/Src/tim.c ****     GPIO_InitStruct.Pin = GPIO_PIN_12;
 171:Core/Src/tim.c ****     GPIO_InitStruct.Mode = GPIO_MODE_AF_PP;
 172:Core/Src/tim.c ****     GPIO_InitStruct.Pull = GPIO_NOPULL;
 173:Core/Src/tim.c ****     GPIO_InitStruct.Speed = GPIO_SPEED_FREQ_LOW;
 174:Core/Src/tim.c ****     GPIO_InitStruct.Alternate = GPIO_AF1_TIM1;
ARM GAS  C:\Users\Rick\AppData\Local\Temp\cc4dUzRe.s 			page 7


 175:Core/Src/tim.c ****     HAL_GPIO_Init(GPIOB, &GPIO_InitStruct);
 176:Core/Src/tim.c **** 
 177:Core/Src/tim.c ****     /* TIM1 interrupt Init */
 178:Core/Src/tim.c ****     HAL_NVIC_SetPriority(TIM1_BRK_TIM9_IRQn, 5, 0);
 179:Core/Src/tim.c ****     HAL_NVIC_EnableIRQ(TIM1_BRK_TIM9_IRQn);
 180:Core/Src/tim.c ****     HAL_NVIC_SetPriority(TIM1_UP_TIM10_IRQn, 5, 0);
 181:Core/Src/tim.c ****     HAL_NVIC_EnableIRQ(TIM1_UP_TIM10_IRQn);
 182:Core/Src/tim.c ****     HAL_NVIC_SetPriority(TIM1_CC_IRQn, 5, 0);
 183:Core/Src/tim.c ****     HAL_NVIC_EnableIRQ(TIM1_CC_IRQn);
 184:Core/Src/tim.c ****   /* USER CODE BEGIN TIM1_MspInit 1 */
 185:Core/Src/tim.c **** 
 186:Core/Src/tim.c ****   /* USER CODE END TIM1_MspInit 1 */
 187:Core/Src/tim.c ****   }
 188:Core/Src/tim.c **** }
 170              		.loc 1 188 1 view .LVU44
 171 0018 08B0     		add	sp, sp, #32
 172              		.cfi_remember_state
 173              		.cfi_def_cfa_offset 8
 174              		@ sp needed
 175 001a 10BD     		pop	{r4, pc}
 176              	.LVL6:
 177              	.L12:
 178              		.cfi_restore_state
 164:Core/Src/tim.c **** 
 179              		.loc 1 164 5 is_stmt 1 view .LVU45
 180              	.LBB2:
 164:Core/Src/tim.c **** 
 181              		.loc 1 164 5 view .LVU46
 182 001c 0024     		movs	r4, #0
 183 001e 0194     		str	r4, [sp, #4]
 164:Core/Src/tim.c **** 
 184              		.loc 1 164 5 view .LVU47
 185 0020 03F59C33 		add	r3, r3, #79872
 186 0024 5A6C     		ldr	r2, [r3, #68]
 187 0026 42F00102 		orr	r2, r2, #1
 188 002a 5A64     		str	r2, [r3, #68]
 164:Core/Src/tim.c **** 
 189              		.loc 1 164 5 view .LVU48
 190 002c 5A6C     		ldr	r2, [r3, #68]
 191 002e 02F00102 		and	r2, r2, #1
 192 0032 0192     		str	r2, [sp, #4]
 164:Core/Src/tim.c **** 
 193              		.loc 1 164 5 view .LVU49
 194 0034 019A     		ldr	r2, [sp, #4]
 195              	.LBE2:
 164:Core/Src/tim.c **** 
 196              		.loc 1 164 5 view .LVU50
 166:Core/Src/tim.c ****     /**TIM1 GPIO Configuration
 197              		.loc 1 166 5 view .LVU51
 198              	.LBB3:
 166:Core/Src/tim.c ****     /**TIM1 GPIO Configuration
 199              		.loc 1 166 5 view .LVU52
 200 0036 0294     		str	r4, [sp, #8]
 166:Core/Src/tim.c ****     /**TIM1 GPIO Configuration
 201              		.loc 1 166 5 view .LVU53
 202 0038 1A6B     		ldr	r2, [r3, #48]
 203 003a 42F00202 		orr	r2, r2, #2
ARM GAS  C:\Users\Rick\AppData\Local\Temp\cc4dUzRe.s 			page 8


 204 003e 1A63     		str	r2, [r3, #48]
 166:Core/Src/tim.c ****     /**TIM1 GPIO Configuration
 205              		.loc 1 166 5 view .LVU54
 206 0040 1B6B     		ldr	r3, [r3, #48]
 207 0042 03F00203 		and	r3, r3, #2
 208 0046 0293     		str	r3, [sp, #8]
 166:Core/Src/tim.c ****     /**TIM1 GPIO Configuration
 209              		.loc 1 166 5 view .LVU55
 210 0048 029B     		ldr	r3, [sp, #8]
 211              	.LBE3:
 166:Core/Src/tim.c ****     /**TIM1 GPIO Configuration
 212              		.loc 1 166 5 view .LVU56
 170:Core/Src/tim.c ****     GPIO_InitStruct.Mode = GPIO_MODE_AF_PP;
 213              		.loc 1 170 5 view .LVU57
 170:Core/Src/tim.c ****     GPIO_InitStruct.Mode = GPIO_MODE_AF_PP;
 214              		.loc 1 170 25 is_stmt 0 view .LVU58
 215 004a 4FF48053 		mov	r3, #4096
 216 004e 0393     		str	r3, [sp, #12]
 171:Core/Src/tim.c ****     GPIO_InitStruct.Pull = GPIO_NOPULL;
 217              		.loc 1 171 5 is_stmt 1 view .LVU59
 171:Core/Src/tim.c ****     GPIO_InitStruct.Pull = GPIO_NOPULL;
 218              		.loc 1 171 26 is_stmt 0 view .LVU60
 219 0050 0223     		movs	r3, #2
 220 0052 0493     		str	r3, [sp, #16]
 172:Core/Src/tim.c ****     GPIO_InitStruct.Speed = GPIO_SPEED_FREQ_LOW;
 221              		.loc 1 172 5 is_stmt 1 view .LVU61
 173:Core/Src/tim.c ****     GPIO_InitStruct.Alternate = GPIO_AF1_TIM1;
 222              		.loc 1 173 5 view .LVU62
 174:Core/Src/tim.c ****     HAL_GPIO_Init(GPIOB, &GPIO_InitStruct);
 223              		.loc 1 174 5 view .LVU63
 174:Core/Src/tim.c ****     HAL_GPIO_Init(GPIOB, &GPIO_InitStruct);
 224              		.loc 1 174 31 is_stmt 0 view .LVU64
 225 0054 0123     		movs	r3, #1
 226 0056 0793     		str	r3, [sp, #28]
 175:Core/Src/tim.c **** 
 227              		.loc 1 175 5 is_stmt 1 view .LVU65
 228 0058 03A9     		add	r1, sp, #12
 229 005a 0F48     		ldr	r0, .L13+4
 230              	.LVL7:
 175:Core/Src/tim.c **** 
 231              		.loc 1 175 5 is_stmt 0 view .LVU66
 232 005c FFF7FEFF 		bl	HAL_GPIO_Init
 233              	.LVL8:
 178:Core/Src/tim.c ****     HAL_NVIC_EnableIRQ(TIM1_BRK_TIM9_IRQn);
 234              		.loc 1 178 5 is_stmt 1 view .LVU67
 235 0060 2246     		mov	r2, r4
 236 0062 0521     		movs	r1, #5
 237 0064 1820     		movs	r0, #24
 238 0066 FFF7FEFF 		bl	HAL_NVIC_SetPriority
 239              	.LVL9:
 179:Core/Src/tim.c ****     HAL_NVIC_SetPriority(TIM1_UP_TIM10_IRQn, 5, 0);
 240              		.loc 1 179 5 view .LVU68
 241 006a 1820     		movs	r0, #24
 242 006c FFF7FEFF 		bl	HAL_NVIC_EnableIRQ
 243              	.LVL10:
 180:Core/Src/tim.c ****     HAL_NVIC_EnableIRQ(TIM1_UP_TIM10_IRQn);
 244              		.loc 1 180 5 view .LVU69
ARM GAS  C:\Users\Rick\AppData\Local\Temp\cc4dUzRe.s 			page 9


 245 0070 2246     		mov	r2, r4
 246 0072 0521     		movs	r1, #5
 247 0074 1920     		movs	r0, #25
 248 0076 FFF7FEFF 		bl	HAL_NVIC_SetPriority
 249              	.LVL11:
 181:Core/Src/tim.c ****     HAL_NVIC_SetPriority(TIM1_CC_IRQn, 5, 0);
 250              		.loc 1 181 5 view .LVU70
 251 007a 1920     		movs	r0, #25
 252 007c FFF7FEFF 		bl	HAL_NVIC_EnableIRQ
 253              	.LVL12:
 182:Core/Src/tim.c ****     HAL_NVIC_EnableIRQ(TIM1_CC_IRQn);
 254              		.loc 1 182 5 view .LVU71
 255 0080 2246     		mov	r2, r4
 256 0082 0521     		movs	r1, #5
 257 0084 1B20     		movs	r0, #27
 258 0086 FFF7FEFF 		bl	HAL_NVIC_SetPriority
 259              	.LVL13:
 183:Core/Src/tim.c ****   /* USER CODE BEGIN TIM1_MspInit 1 */
 260              		.loc 1 183 5 view .LVU72
 261 008a 1B20     		movs	r0, #27
 262 008c FFF7FEFF 		bl	HAL_NVIC_EnableIRQ
 263              	.LVL14:
 264              		.loc 1 188 1 is_stmt 0 view .LVU73
 265 0090 C2E7     		b	.L9
 266              	.L14:
 267 0092 00BF     		.align	2
 268              	.L13:
 269 0094 00000140 		.word	1073807360
 270 0098 00040240 		.word	1073873920
 271              		.cfi_endproc
 272              	.LFE241:
 274              		.section	.text.HAL_TIMEx_HallSensor_MspInit,"ax",%progbits
 275              		.align	1
 276              		.global	HAL_TIMEx_HallSensor_MspInit
 277              		.syntax unified
 278              		.thumb
 279              		.thumb_func
 281              	HAL_TIMEx_HallSensor_MspInit:
 282              	.LVL15:
 283              	.LFB242:
 189:Core/Src/tim.c **** 
 190:Core/Src/tim.c **** void HAL_TIMEx_HallSensor_MspInit(TIM_HandleTypeDef* timex_hallsensorHandle)
 191:Core/Src/tim.c **** {
 284              		.loc 1 191 1 is_stmt 1 view -0
 285              		.cfi_startproc
 286              		@ args = 0, pretend = 0, frame = 32
 287              		@ frame_needed = 0, uses_anonymous_args = 0
 288              		.loc 1 191 1 is_stmt 0 view .LVU75
 289 0000 70B5     		push	{r4, r5, r6, lr}
 290              		.cfi_def_cfa_offset 16
 291              		.cfi_offset 4, -16
 292              		.cfi_offset 5, -12
 293              		.cfi_offset 6, -8
 294              		.cfi_offset 14, -4
 295 0002 88B0     		sub	sp, sp, #32
 296              		.cfi_def_cfa_offset 48
 192:Core/Src/tim.c **** 
ARM GAS  C:\Users\Rick\AppData\Local\Temp\cc4dUzRe.s 			page 10


 193:Core/Src/tim.c ****   GPIO_InitTypeDef GPIO_InitStruct = {0};
 297              		.loc 1 193 3 is_stmt 1 view .LVU76
 298              		.loc 1 193 20 is_stmt 0 view .LVU77
 299 0004 0023     		movs	r3, #0
 300 0006 0393     		str	r3, [sp, #12]
 301 0008 0493     		str	r3, [sp, #16]
 302 000a 0593     		str	r3, [sp, #20]
 303 000c 0693     		str	r3, [sp, #24]
 304 000e 0793     		str	r3, [sp, #28]
 194:Core/Src/tim.c ****   if(timex_hallsensorHandle->Instance==TIM3)
 305              		.loc 1 194 3 is_stmt 1 view .LVU78
 306              		.loc 1 194 28 is_stmt 0 view .LVU79
 307 0010 0268     		ldr	r2, [r0]
 308              		.loc 1 194 5 view .LVU80
 309 0012 214B     		ldr	r3, .L19
 310 0014 9A42     		cmp	r2, r3
 311 0016 01D0     		beq	.L18
 312              	.LVL16:
 313              	.L15:
 195:Core/Src/tim.c ****   {
 196:Core/Src/tim.c ****   /* USER CODE BEGIN TIM3_MspInit 0 */
 197:Core/Src/tim.c **** 
 198:Core/Src/tim.c ****   /* USER CODE END TIM3_MspInit 0 */
 199:Core/Src/tim.c ****     /* TIM3 clock enable */
 200:Core/Src/tim.c ****     __HAL_RCC_TIM3_CLK_ENABLE();
 201:Core/Src/tim.c **** 
 202:Core/Src/tim.c ****     __HAL_RCC_GPIOA_CLK_ENABLE();
 203:Core/Src/tim.c ****     __HAL_RCC_GPIOB_CLK_ENABLE();
 204:Core/Src/tim.c ****     /**TIM3 GPIO Configuration
 205:Core/Src/tim.c ****     PA6     ------> TIM3_CH1
 206:Core/Src/tim.c ****     PA7     ------> TIM3_CH2
 207:Core/Src/tim.c ****     PB0     ------> TIM3_CH3
 208:Core/Src/tim.c ****     */
 209:Core/Src/tim.c ****     GPIO_InitStruct.Pin = GPIO_PIN_6|GPIO_PIN_7;
 210:Core/Src/tim.c ****     GPIO_InitStruct.Mode = GPIO_MODE_AF_PP;
 211:Core/Src/tim.c ****     GPIO_InitStruct.Pull = GPIO_NOPULL;
 212:Core/Src/tim.c ****     GPIO_InitStruct.Speed = GPIO_SPEED_FREQ_LOW;
 213:Core/Src/tim.c ****     GPIO_InitStruct.Alternate = GPIO_AF2_TIM3;
 214:Core/Src/tim.c ****     HAL_GPIO_Init(GPIOA, &GPIO_InitStruct);
 215:Core/Src/tim.c **** 
 216:Core/Src/tim.c ****     GPIO_InitStruct.Pin = GPIO_PIN_0;
 217:Core/Src/tim.c ****     GPIO_InitStruct.Mode = GPIO_MODE_AF_PP;
 218:Core/Src/tim.c ****     GPIO_InitStruct.Pull = GPIO_NOPULL;
 219:Core/Src/tim.c ****     GPIO_InitStruct.Speed = GPIO_SPEED_FREQ_LOW;
 220:Core/Src/tim.c ****     GPIO_InitStruct.Alternate = GPIO_AF2_TIM3;
 221:Core/Src/tim.c ****     HAL_GPIO_Init(GPIOB, &GPIO_InitStruct);
 222:Core/Src/tim.c **** 
 223:Core/Src/tim.c ****     /* TIM3 interrupt Init */
 224:Core/Src/tim.c ****     HAL_NVIC_SetPriority(TIM3_IRQn, 5, 0);
 225:Core/Src/tim.c ****     HAL_NVIC_EnableIRQ(TIM3_IRQn);
 226:Core/Src/tim.c ****   /* USER CODE BEGIN TIM3_MspInit 1 */
 227:Core/Src/tim.c **** 
 228:Core/Src/tim.c ****   /* USER CODE END TIM3_MspInit 1 */
 229:Core/Src/tim.c ****   }
 230:Core/Src/tim.c **** }
 314              		.loc 1 230 1 view .LVU81
 315 0018 08B0     		add	sp, sp, #32
ARM GAS  C:\Users\Rick\AppData\Local\Temp\cc4dUzRe.s 			page 11


 316              		.cfi_remember_state
 317              		.cfi_def_cfa_offset 16
 318              		@ sp needed
 319 001a 70BD     		pop	{r4, r5, r6, pc}
 320              	.LVL17:
 321              	.L18:
 322              		.cfi_restore_state
 200:Core/Src/tim.c **** 
 323              		.loc 1 200 5 is_stmt 1 view .LVU82
 324              	.LBB4:
 200:Core/Src/tim.c **** 
 325              		.loc 1 200 5 view .LVU83
 326 001c 0024     		movs	r4, #0
 327 001e 0094     		str	r4, [sp]
 200:Core/Src/tim.c **** 
 328              		.loc 1 200 5 view .LVU84
 329 0020 03F50D33 		add	r3, r3, #144384
 330 0024 1A6C     		ldr	r2, [r3, #64]
 331 0026 42F00202 		orr	r2, r2, #2
 332 002a 1A64     		str	r2, [r3, #64]
 200:Core/Src/tim.c **** 
 333              		.loc 1 200 5 view .LVU85
 334 002c 1A6C     		ldr	r2, [r3, #64]
 335 002e 02F00202 		and	r2, r2, #2
 336 0032 0092     		str	r2, [sp]
 200:Core/Src/tim.c **** 
 337              		.loc 1 200 5 view .LVU86
 338 0034 009A     		ldr	r2, [sp]
 339              	.LBE4:
 200:Core/Src/tim.c **** 
 340              		.loc 1 200 5 view .LVU87
 202:Core/Src/tim.c ****     __HAL_RCC_GPIOB_CLK_ENABLE();
 341              		.loc 1 202 5 view .LVU88
 342              	.LBB5:
 202:Core/Src/tim.c ****     __HAL_RCC_GPIOB_CLK_ENABLE();
 343              		.loc 1 202 5 view .LVU89
 344 0036 0194     		str	r4, [sp, #4]
 202:Core/Src/tim.c ****     __HAL_RCC_GPIOB_CLK_ENABLE();
 345              		.loc 1 202 5 view .LVU90
 346 0038 1A6B     		ldr	r2, [r3, #48]
 347 003a 42F00102 		orr	r2, r2, #1
 348 003e 1A63     		str	r2, [r3, #48]
 202:Core/Src/tim.c ****     __HAL_RCC_GPIOB_CLK_ENABLE();
 349              		.loc 1 202 5 view .LVU91
 350 0040 1A6B     		ldr	r2, [r3, #48]
 351 0042 02F00102 		and	r2, r2, #1
 352 0046 0192     		str	r2, [sp, #4]
 202:Core/Src/tim.c ****     __HAL_RCC_GPIOB_CLK_ENABLE();
 353              		.loc 1 202 5 view .LVU92
 354 0048 019A     		ldr	r2, [sp, #4]
 355              	.LBE5:
 202:Core/Src/tim.c ****     __HAL_RCC_GPIOB_CLK_ENABLE();
 356              		.loc 1 202 5 view .LVU93
 203:Core/Src/tim.c ****     /**TIM3 GPIO Configuration
 357              		.loc 1 203 5 view .LVU94
 358              	.LBB6:
 203:Core/Src/tim.c ****     /**TIM3 GPIO Configuration
ARM GAS  C:\Users\Rick\AppData\Local\Temp\cc4dUzRe.s 			page 12


 359              		.loc 1 203 5 view .LVU95
 360 004a 0294     		str	r4, [sp, #8]
 203:Core/Src/tim.c ****     /**TIM3 GPIO Configuration
 361              		.loc 1 203 5 view .LVU96
 362 004c 1A6B     		ldr	r2, [r3, #48]
 363 004e 42F00202 		orr	r2, r2, #2
 364 0052 1A63     		str	r2, [r3, #48]
 203:Core/Src/tim.c ****     /**TIM3 GPIO Configuration
 365              		.loc 1 203 5 view .LVU97
 366 0054 1B6B     		ldr	r3, [r3, #48]
 367 0056 03F00203 		and	r3, r3, #2
 368 005a 0293     		str	r3, [sp, #8]
 203:Core/Src/tim.c ****     /**TIM3 GPIO Configuration
 369              		.loc 1 203 5 view .LVU98
 370 005c 029B     		ldr	r3, [sp, #8]
 371              	.LBE6:
 203:Core/Src/tim.c ****     /**TIM3 GPIO Configuration
 372              		.loc 1 203 5 view .LVU99
 209:Core/Src/tim.c ****     GPIO_InitStruct.Mode = GPIO_MODE_AF_PP;
 373              		.loc 1 209 5 view .LVU100
 209:Core/Src/tim.c ****     GPIO_InitStruct.Mode = GPIO_MODE_AF_PP;
 374              		.loc 1 209 25 is_stmt 0 view .LVU101
 375 005e C023     		movs	r3, #192
 376 0060 0393     		str	r3, [sp, #12]
 210:Core/Src/tim.c ****     GPIO_InitStruct.Pull = GPIO_NOPULL;
 377              		.loc 1 210 5 is_stmt 1 view .LVU102
 210:Core/Src/tim.c ****     GPIO_InitStruct.Pull = GPIO_NOPULL;
 378              		.loc 1 210 26 is_stmt 0 view .LVU103
 379 0062 0225     		movs	r5, #2
 380 0064 0495     		str	r5, [sp, #16]
 211:Core/Src/tim.c ****     GPIO_InitStruct.Speed = GPIO_SPEED_FREQ_LOW;
 381              		.loc 1 211 5 is_stmt 1 view .LVU104
 212:Core/Src/tim.c ****     GPIO_InitStruct.Alternate = GPIO_AF2_TIM3;
 382              		.loc 1 212 5 view .LVU105
 213:Core/Src/tim.c ****     HAL_GPIO_Init(GPIOA, &GPIO_InitStruct);
 383              		.loc 1 213 5 view .LVU106
 213:Core/Src/tim.c ****     HAL_GPIO_Init(GPIOA, &GPIO_InitStruct);
 384              		.loc 1 213 31 is_stmt 0 view .LVU107
 385 0066 0795     		str	r5, [sp, #28]
 214:Core/Src/tim.c **** 
 386              		.loc 1 214 5 is_stmt 1 view .LVU108
 387 0068 03AE     		add	r6, sp, #12
 388 006a 3146     		mov	r1, r6
 389 006c 0B48     		ldr	r0, .L19+4
 390              	.LVL18:
 214:Core/Src/tim.c **** 
 391              		.loc 1 214 5 is_stmt 0 view .LVU109
 392 006e FFF7FEFF 		bl	HAL_GPIO_Init
 393              	.LVL19:
 216:Core/Src/tim.c ****     GPIO_InitStruct.Mode = GPIO_MODE_AF_PP;
 394              		.loc 1 216 5 is_stmt 1 view .LVU110
 216:Core/Src/tim.c ****     GPIO_InitStruct.Mode = GPIO_MODE_AF_PP;
 395              		.loc 1 216 25 is_stmt 0 view .LVU111
 396 0072 0123     		movs	r3, #1
 397 0074 0393     		str	r3, [sp, #12]
 217:Core/Src/tim.c ****     GPIO_InitStruct.Pull = GPIO_NOPULL;
 398              		.loc 1 217 5 is_stmt 1 view .LVU112
ARM GAS  C:\Users\Rick\AppData\Local\Temp\cc4dUzRe.s 			page 13


 217:Core/Src/tim.c ****     GPIO_InitStruct.Pull = GPIO_NOPULL;
 399              		.loc 1 217 26 is_stmt 0 view .LVU113
 400 0076 0495     		str	r5, [sp, #16]
 218:Core/Src/tim.c ****     GPIO_InitStruct.Speed = GPIO_SPEED_FREQ_LOW;
 401              		.loc 1 218 5 is_stmt 1 view .LVU114
 218:Core/Src/tim.c ****     GPIO_InitStruct.Speed = GPIO_SPEED_FREQ_LOW;
 402              		.loc 1 218 26 is_stmt 0 view .LVU115
 403 0078 0594     		str	r4, [sp, #20]
 219:Core/Src/tim.c ****     GPIO_InitStruct.Alternate = GPIO_AF2_TIM3;
 404              		.loc 1 219 5 is_stmt 1 view .LVU116
 219:Core/Src/tim.c ****     GPIO_InitStruct.Alternate = GPIO_AF2_TIM3;
 405              		.loc 1 219 27 is_stmt 0 view .LVU117
 406 007a 0694     		str	r4, [sp, #24]
 220:Core/Src/tim.c ****     HAL_GPIO_Init(GPIOB, &GPIO_InitStruct);
 407              		.loc 1 220 5 is_stmt 1 view .LVU118
 220:Core/Src/tim.c ****     HAL_GPIO_Init(GPIOB, &GPIO_InitStruct);
 408              		.loc 1 220 31 is_stmt 0 view .LVU119
 409 007c 0795     		str	r5, [sp, #28]
 221:Core/Src/tim.c **** 
 410              		.loc 1 221 5 is_stmt 1 view .LVU120
 411 007e 3146     		mov	r1, r6
 412 0080 0748     		ldr	r0, .L19+8
 413 0082 FFF7FEFF 		bl	HAL_GPIO_Init
 414              	.LVL20:
 224:Core/Src/tim.c ****     HAL_NVIC_EnableIRQ(TIM3_IRQn);
 415              		.loc 1 224 5 view .LVU121
 416 0086 2246     		mov	r2, r4
 417 0088 0521     		movs	r1, #5
 418 008a 1D20     		movs	r0, #29
 419 008c FFF7FEFF 		bl	HAL_NVIC_SetPriority
 420              	.LVL21:
 225:Core/Src/tim.c ****   /* USER CODE BEGIN TIM3_MspInit 1 */
 421              		.loc 1 225 5 view .LVU122
 422 0090 1D20     		movs	r0, #29
 423 0092 FFF7FEFF 		bl	HAL_NVIC_EnableIRQ
 424              	.LVL22:
 425              		.loc 1 230 1 is_stmt 0 view .LVU123
 426 0096 BFE7     		b	.L15
 427              	.L20:
 428              		.align	2
 429              	.L19:
 430 0098 00040040 		.word	1073742848
 431 009c 00000240 		.word	1073872896
 432 00a0 00040240 		.word	1073873920
 433              		.cfi_endproc
 434              	.LFE242:
 436              		.section	.text.HAL_TIM_MspPostInit,"ax",%progbits
 437              		.align	1
 438              		.global	HAL_TIM_MspPostInit
 439              		.syntax unified
 440              		.thumb
 441              		.thumb_func
 443              	HAL_TIM_MspPostInit:
 444              	.LVL23:
 445              	.LFB243:
 231:Core/Src/tim.c **** void HAL_TIM_MspPostInit(TIM_HandleTypeDef* timHandle)
 232:Core/Src/tim.c **** {
ARM GAS  C:\Users\Rick\AppData\Local\Temp\cc4dUzRe.s 			page 14


 446              		.loc 1 232 1 is_stmt 1 view -0
 447              		.cfi_startproc
 448              		@ args = 0, pretend = 0, frame = 24
 449              		@ frame_needed = 0, uses_anonymous_args = 0
 450              		.loc 1 232 1 is_stmt 0 view .LVU125
 451 0000 00B5     		push	{lr}
 452              		.cfi_def_cfa_offset 4
 453              		.cfi_offset 14, -4
 454 0002 87B0     		sub	sp, sp, #28
 455              		.cfi_def_cfa_offset 32
 233:Core/Src/tim.c **** 
 234:Core/Src/tim.c ****   GPIO_InitTypeDef GPIO_InitStruct = {0};
 456              		.loc 1 234 3 is_stmt 1 view .LVU126
 457              		.loc 1 234 20 is_stmt 0 view .LVU127
 458 0004 0023     		movs	r3, #0
 459 0006 0193     		str	r3, [sp, #4]
 460 0008 0293     		str	r3, [sp, #8]
 461 000a 0393     		str	r3, [sp, #12]
 462 000c 0493     		str	r3, [sp, #16]
 463 000e 0593     		str	r3, [sp, #20]
 235:Core/Src/tim.c ****   if(timHandle->Instance==TIM1)
 464              		.loc 1 235 3 is_stmt 1 view .LVU128
 465              		.loc 1 235 15 is_stmt 0 view .LVU129
 466 0010 0268     		ldr	r2, [r0]
 467              		.loc 1 235 5 view .LVU130
 468 0012 0F4B     		ldr	r3, .L25
 469 0014 9A42     		cmp	r2, r3
 470 0016 02D0     		beq	.L24
 471              	.LVL24:
 472              	.L21:
 236:Core/Src/tim.c ****   {
 237:Core/Src/tim.c ****   /* USER CODE BEGIN TIM1_MspPostInit 0 */
 238:Core/Src/tim.c **** 
 239:Core/Src/tim.c ****   /* USER CODE END TIM1_MspPostInit 0 */
 240:Core/Src/tim.c **** 
 241:Core/Src/tim.c ****     __HAL_RCC_GPIOA_CLK_ENABLE();
 242:Core/Src/tim.c ****     /**TIM1 GPIO Configuration
 243:Core/Src/tim.c ****     PA8     ------> TIM1_CH1
 244:Core/Src/tim.c ****     PA9     ------> TIM1_CH2
 245:Core/Src/tim.c ****     PA10     ------> TIM1_CH3
 246:Core/Src/tim.c ****     */
 247:Core/Src/tim.c ****     GPIO_InitStruct.Pin = GPIO_PIN_8|GPIO_PIN_9|GPIO_PIN_10;
 248:Core/Src/tim.c ****     GPIO_InitStruct.Mode = GPIO_MODE_AF_PP;
 249:Core/Src/tim.c ****     GPIO_InitStruct.Pull = GPIO_NOPULL;
 250:Core/Src/tim.c ****     GPIO_InitStruct.Speed = GPIO_SPEED_FREQ_LOW;
 251:Core/Src/tim.c ****     GPIO_InitStruct.Alternate = GPIO_AF1_TIM1;
 252:Core/Src/tim.c ****     HAL_GPIO_Init(GPIOA, &GPIO_InitStruct);
 253:Core/Src/tim.c **** 
 254:Core/Src/tim.c ****   /* USER CODE BEGIN TIM1_MspPostInit 1 */
 255:Core/Src/tim.c **** 
 256:Core/Src/tim.c ****   /* USER CODE END TIM1_MspPostInit 1 */
 257:Core/Src/tim.c ****   }
 258:Core/Src/tim.c **** 
 259:Core/Src/tim.c **** }
 473              		.loc 1 259 1 view .LVU131
 474 0018 07B0     		add	sp, sp, #28
 475              		.cfi_remember_state
ARM GAS  C:\Users\Rick\AppData\Local\Temp\cc4dUzRe.s 			page 15


 476              		.cfi_def_cfa_offset 4
 477              		@ sp needed
 478 001a 5DF804FB 		ldr	pc, [sp], #4
 479              	.LVL25:
 480              	.L24:
 481              		.cfi_restore_state
 241:Core/Src/tim.c ****     /**TIM1 GPIO Configuration
 482              		.loc 1 241 5 is_stmt 1 view .LVU132
 483              	.LBB7:
 241:Core/Src/tim.c ****     /**TIM1 GPIO Configuration
 484              		.loc 1 241 5 view .LVU133
 485 001e 0023     		movs	r3, #0
 486 0020 0093     		str	r3, [sp]
 241:Core/Src/tim.c ****     /**TIM1 GPIO Configuration
 487              		.loc 1 241 5 view .LVU134
 488 0022 0C4B     		ldr	r3, .L25+4
 489 0024 1A6B     		ldr	r2, [r3, #48]
 490 0026 42F00102 		orr	r2, r2, #1
 491 002a 1A63     		str	r2, [r3, #48]
 241:Core/Src/tim.c ****     /**TIM1 GPIO Configuration
 492              		.loc 1 241 5 view .LVU135
 493 002c 1B6B     		ldr	r3, [r3, #48]
 494 002e 03F00103 		and	r3, r3, #1
 495 0032 0093     		str	r3, [sp]
 241:Core/Src/tim.c ****     /**TIM1 GPIO Configuration
 496              		.loc 1 241 5 view .LVU136
 497 0034 009B     		ldr	r3, [sp]
 498              	.LBE7:
 241:Core/Src/tim.c ****     /**TIM1 GPIO Configuration
 499              		.loc 1 241 5 view .LVU137
 247:Core/Src/tim.c ****     GPIO_InitStruct.Mode = GPIO_MODE_AF_PP;
 500              		.loc 1 247 5 view .LVU138
 247:Core/Src/tim.c ****     GPIO_InitStruct.Mode = GPIO_MODE_AF_PP;
 501              		.loc 1 247 25 is_stmt 0 view .LVU139
 502 0036 4FF4E063 		mov	r3, #1792
 503 003a 0193     		str	r3, [sp, #4]
 248:Core/Src/tim.c ****     GPIO_InitStruct.Pull = GPIO_NOPULL;
 504              		.loc 1 248 5 is_stmt 1 view .LVU140
 248:Core/Src/tim.c ****     GPIO_InitStruct.Pull = GPIO_NOPULL;
 505              		.loc 1 248 26 is_stmt 0 view .LVU141
 506 003c 0223     		movs	r3, #2
 507 003e 0293     		str	r3, [sp, #8]
 249:Core/Src/tim.c ****     GPIO_InitStruct.Speed = GPIO_SPEED_FREQ_LOW;
 508              		.loc 1 249 5 is_stmt 1 view .LVU142
 250:Core/Src/tim.c ****     GPIO_InitStruct.Alternate = GPIO_AF1_TIM1;
 509              		.loc 1 250 5 view .LVU143
 251:Core/Src/tim.c ****     HAL_GPIO_Init(GPIOA, &GPIO_InitStruct);
 510              		.loc 1 251 5 view .LVU144
 251:Core/Src/tim.c ****     HAL_GPIO_Init(GPIOA, &GPIO_InitStruct);
 511              		.loc 1 251 31 is_stmt 0 view .LVU145
 512 0040 0123     		movs	r3, #1
 513 0042 0593     		str	r3, [sp, #20]
 252:Core/Src/tim.c **** 
 514              		.loc 1 252 5 is_stmt 1 view .LVU146
 515 0044 01A9     		add	r1, sp, #4
 516 0046 0448     		ldr	r0, .L25+8
 517              	.LVL26:
ARM GAS  C:\Users\Rick\AppData\Local\Temp\cc4dUzRe.s 			page 16


 252:Core/Src/tim.c **** 
 518              		.loc 1 252 5 is_stmt 0 view .LVU147
 519 0048 FFF7FEFF 		bl	HAL_GPIO_Init
 520              	.LVL27:
 521              		.loc 1 259 1 view .LVU148
 522 004c E4E7     		b	.L21
 523              	.L26:
 524 004e 00BF     		.align	2
 525              	.L25:
 526 0050 00000140 		.word	1073807360
 527 0054 00380240 		.word	1073887232
 528 0058 00000240 		.word	1073872896
 529              		.cfi_endproc
 530              	.LFE243:
 532              		.section	.text.MX_TIM1_Init,"ax",%progbits
 533              		.align	1
 534              		.global	MX_TIM1_Init
 535              		.syntax unified
 536              		.thumb
 537              		.thumb_func
 539              	MX_TIM1_Init:
 540              	.LFB239:
  32:Core/Src/tim.c **** 
 541              		.loc 1 32 1 is_stmt 1 view -0
 542              		.cfi_startproc
 543              		@ args = 0, pretend = 0, frame = 88
 544              		@ frame_needed = 0, uses_anonymous_args = 0
 545 0000 30B5     		push	{r4, r5, lr}
 546              		.cfi_def_cfa_offset 12
 547              		.cfi_offset 4, -12
 548              		.cfi_offset 5, -8
 549              		.cfi_offset 14, -4
 550 0002 97B0     		sub	sp, sp, #92
 551              		.cfi_def_cfa_offset 104
  38:Core/Src/tim.c ****   TIM_MasterConfigTypeDef sMasterConfig = {0};
 552              		.loc 1 38 3 view .LVU150
  38:Core/Src/tim.c ****   TIM_MasterConfigTypeDef sMasterConfig = {0};
 553              		.loc 1 38 26 is_stmt 0 view .LVU151
 554 0004 0024     		movs	r4, #0
 555 0006 1294     		str	r4, [sp, #72]
 556 0008 1394     		str	r4, [sp, #76]
 557 000a 1494     		str	r4, [sp, #80]
 558 000c 1594     		str	r4, [sp, #84]
  39:Core/Src/tim.c ****   TIM_OC_InitTypeDef sConfigOC = {0};
 559              		.loc 1 39 3 is_stmt 1 view .LVU152
  39:Core/Src/tim.c ****   TIM_OC_InitTypeDef sConfigOC = {0};
 560              		.loc 1 39 27 is_stmt 0 view .LVU153
 561 000e 1094     		str	r4, [sp, #64]
 562 0010 1194     		str	r4, [sp, #68]
  40:Core/Src/tim.c ****   TIM_BreakDeadTimeConfigTypeDef sBreakDeadTimeConfig = {0};
 563              		.loc 1 40 3 is_stmt 1 view .LVU154
  40:Core/Src/tim.c ****   TIM_BreakDeadTimeConfigTypeDef sBreakDeadTimeConfig = {0};
 564              		.loc 1 40 22 is_stmt 0 view .LVU155
 565 0012 0994     		str	r4, [sp, #36]
 566 0014 0A94     		str	r4, [sp, #40]
 567 0016 0B94     		str	r4, [sp, #44]
 568 0018 0C94     		str	r4, [sp, #48]
ARM GAS  C:\Users\Rick\AppData\Local\Temp\cc4dUzRe.s 			page 17


 569 001a 0D94     		str	r4, [sp, #52]
 570 001c 0E94     		str	r4, [sp, #56]
 571 001e 0F94     		str	r4, [sp, #60]
  41:Core/Src/tim.c **** 
 572              		.loc 1 41 3 is_stmt 1 view .LVU156
  41:Core/Src/tim.c **** 
 573              		.loc 1 41 34 is_stmt 0 view .LVU157
 574 0020 2025     		movs	r5, #32
 575 0022 2A46     		mov	r2, r5
 576 0024 2146     		mov	r1, r4
 577 0026 01A8     		add	r0, sp, #4
 578 0028 FFF7FEFF 		bl	memset
 579              	.LVL28:
  46:Core/Src/tim.c ****   htim1.Init.Prescaler = 1-1;
 580              		.loc 1 46 3 is_stmt 1 view .LVU158
  46:Core/Src/tim.c ****   htim1.Init.Prescaler = 1-1;
 581              		.loc 1 46 18 is_stmt 0 view .LVU159
 582 002c 4048     		ldr	r0, .L47
 583 002e 414B     		ldr	r3, .L47+4
 584 0030 0360     		str	r3, [r0]
  47:Core/Src/tim.c ****   htim1.Init.CounterMode = TIM_COUNTERMODE_CENTERALIGNED1;
 585              		.loc 1 47 3 is_stmt 1 view .LVU160
  47:Core/Src/tim.c ****   htim1.Init.CounterMode = TIM_COUNTERMODE_CENTERALIGNED1;
 586              		.loc 1 47 24 is_stmt 0 view .LVU161
 587 0032 4460     		str	r4, [r0, #4]
  48:Core/Src/tim.c ****   htim1.Init.Period = 8000-1;
 588              		.loc 1 48 3 is_stmt 1 view .LVU162
  48:Core/Src/tim.c ****   htim1.Init.Period = 8000-1;
 589              		.loc 1 48 26 is_stmt 0 view .LVU163
 590 0034 8560     		str	r5, [r0, #8]
  49:Core/Src/tim.c ****   htim1.Init.ClockDivision = TIM_CLOCKDIVISION_DIV2;
 591              		.loc 1 49 3 is_stmt 1 view .LVU164
  49:Core/Src/tim.c ****   htim1.Init.ClockDivision = TIM_CLOCKDIVISION_DIV2;
 592              		.loc 1 49 21 is_stmt 0 view .LVU165
 593 0036 41F63F73 		movw	r3, #7999
 594 003a C360     		str	r3, [r0, #12]
  50:Core/Src/tim.c ****   htim1.Init.RepetitionCounter = 1;
 595              		.loc 1 50 3 is_stmt 1 view .LVU166
  50:Core/Src/tim.c ****   htim1.Init.RepetitionCounter = 1;
 596              		.loc 1 50 28 is_stmt 0 view .LVU167
 597 003c 4FF48073 		mov	r3, #256
 598 0040 0361     		str	r3, [r0, #16]
  51:Core/Src/tim.c ****   htim1.Init.AutoReloadPreload = TIM_AUTORELOAD_PRELOAD_DISABLE;
 599              		.loc 1 51 3 is_stmt 1 view .LVU168
  51:Core/Src/tim.c ****   htim1.Init.AutoReloadPreload = TIM_AUTORELOAD_PRELOAD_DISABLE;
 600              		.loc 1 51 32 is_stmt 0 view .LVU169
 601 0042 0123     		movs	r3, #1
 602 0044 4361     		str	r3, [r0, #20]
  52:Core/Src/tim.c ****   if (HAL_TIM_Base_Init(&htim1) != HAL_OK)
 603              		.loc 1 52 3 is_stmt 1 view .LVU170
  52:Core/Src/tim.c ****   if (HAL_TIM_Base_Init(&htim1) != HAL_OK)
 604              		.loc 1 52 32 is_stmt 0 view .LVU171
 605 0046 8461     		str	r4, [r0, #24]
  53:Core/Src/tim.c ****   {
 606              		.loc 1 53 3 is_stmt 1 view .LVU172
  53:Core/Src/tim.c ****   {
 607              		.loc 1 53 7 is_stmt 0 view .LVU173
ARM GAS  C:\Users\Rick\AppData\Local\Temp\cc4dUzRe.s 			page 18


 608 0048 FFF7FEFF 		bl	HAL_TIM_Base_Init
 609              	.LVL29:
  53:Core/Src/tim.c ****   {
 610              		.loc 1 53 6 discriminator 1 view .LVU174
 611 004c 0028     		cmp	r0, #0
 612 004e 54D1     		bne	.L38
 613              	.L28:
  57:Core/Src/tim.c ****   if (HAL_TIM_ConfigClockSource(&htim1, &sClockSourceConfig) != HAL_OK)
 614              		.loc 1 57 3 is_stmt 1 view .LVU175
  57:Core/Src/tim.c ****   if (HAL_TIM_ConfigClockSource(&htim1, &sClockSourceConfig) != HAL_OK)
 615              		.loc 1 57 34 is_stmt 0 view .LVU176
 616 0050 4FF48053 		mov	r3, #4096
 617 0054 1293     		str	r3, [sp, #72]
  58:Core/Src/tim.c ****   {
 618              		.loc 1 58 3 is_stmt 1 view .LVU177
  58:Core/Src/tim.c ****   {
 619              		.loc 1 58 7 is_stmt 0 view .LVU178
 620 0056 12A9     		add	r1, sp, #72
 621 0058 3548     		ldr	r0, .L47
 622 005a FFF7FEFF 		bl	HAL_TIM_ConfigClockSource
 623              	.LVL30:
  58:Core/Src/tim.c ****   {
 624              		.loc 1 58 6 discriminator 1 view .LVU179
 625 005e 0028     		cmp	r0, #0
 626 0060 4ED1     		bne	.L39
 627              	.L29:
  62:Core/Src/tim.c ****   {
 628              		.loc 1 62 3 is_stmt 1 view .LVU180
  62:Core/Src/tim.c ****   {
 629              		.loc 1 62 7 is_stmt 0 view .LVU181
 630 0062 3348     		ldr	r0, .L47
 631 0064 FFF7FEFF 		bl	HAL_TIM_PWM_Init
 632              	.LVL31:
  62:Core/Src/tim.c ****   {
 633              		.loc 1 62 6 discriminator 1 view .LVU182
 634 0068 0028     		cmp	r0, #0
 635 006a 4CD1     		bne	.L40
 636              	.L30:
  66:Core/Src/tim.c ****   sMasterConfig.MasterSlaveMode = TIM_MASTERSLAVEMODE_DISABLE;
 637              		.loc 1 66 3 is_stmt 1 view .LVU183
  66:Core/Src/tim.c ****   sMasterConfig.MasterSlaveMode = TIM_MASTERSLAVEMODE_DISABLE;
 638              		.loc 1 66 37 is_stmt 0 view .LVU184
 639 006c 0023     		movs	r3, #0
 640 006e 1093     		str	r3, [sp, #64]
  67:Core/Src/tim.c ****   if (HAL_TIMEx_MasterConfigSynchronization(&htim1, &sMasterConfig) != HAL_OK)
 641              		.loc 1 67 3 is_stmt 1 view .LVU185
  67:Core/Src/tim.c ****   if (HAL_TIMEx_MasterConfigSynchronization(&htim1, &sMasterConfig) != HAL_OK)
 642              		.loc 1 67 33 is_stmt 0 view .LVU186
 643 0070 1193     		str	r3, [sp, #68]
  68:Core/Src/tim.c ****   {
 644              		.loc 1 68 3 is_stmt 1 view .LVU187
  68:Core/Src/tim.c ****   {
 645              		.loc 1 68 7 is_stmt 0 view .LVU188
 646 0072 10A9     		add	r1, sp, #64
 647 0074 2E48     		ldr	r0, .L47
 648 0076 FFF7FEFF 		bl	HAL_TIMEx_MasterConfigSynchronization
 649              	.LVL32:
ARM GAS  C:\Users\Rick\AppData\Local\Temp\cc4dUzRe.s 			page 19


  68:Core/Src/tim.c ****   {
 650              		.loc 1 68 6 discriminator 1 view .LVU189
 651 007a 0028     		cmp	r0, #0
 652 007c 46D1     		bne	.L41
 653              	.L31:
  72:Core/Src/tim.c ****   sConfigOC.Pulse = 0;
 654              		.loc 1 72 3 is_stmt 1 view .LVU190
  72:Core/Src/tim.c ****   sConfigOC.Pulse = 0;
 655              		.loc 1 72 20 is_stmt 0 view .LVU191
 656 007e 6023     		movs	r3, #96
 657 0080 0993     		str	r3, [sp, #36]
  73:Core/Src/tim.c ****   sConfigOC.OCPolarity = TIM_OCPOLARITY_HIGH;
 658              		.loc 1 73 3 is_stmt 1 view .LVU192
  73:Core/Src/tim.c ****   sConfigOC.OCPolarity = TIM_OCPOLARITY_HIGH;
 659              		.loc 1 73 19 is_stmt 0 view .LVU193
 660 0082 0022     		movs	r2, #0
 661 0084 0A92     		str	r2, [sp, #40]
  74:Core/Src/tim.c ****   sConfigOC.OCNPolarity = TIM_OCNPOLARITY_HIGH;
 662              		.loc 1 74 3 is_stmt 1 view .LVU194
  74:Core/Src/tim.c ****   sConfigOC.OCNPolarity = TIM_OCNPOLARITY_HIGH;
 663              		.loc 1 74 24 is_stmt 0 view .LVU195
 664 0086 0B92     		str	r2, [sp, #44]
  75:Core/Src/tim.c ****   sConfigOC.OCFastMode = TIM_OCFAST_DISABLE;
 665              		.loc 1 75 3 is_stmt 1 view .LVU196
  75:Core/Src/tim.c ****   sConfigOC.OCFastMode = TIM_OCFAST_DISABLE;
 666              		.loc 1 75 25 is_stmt 0 view .LVU197
 667 0088 0C92     		str	r2, [sp, #48]
  76:Core/Src/tim.c ****   sConfigOC.OCIdleState = TIM_OCIDLESTATE_RESET;
 668              		.loc 1 76 3 is_stmt 1 view .LVU198
  76:Core/Src/tim.c ****   sConfigOC.OCIdleState = TIM_OCIDLESTATE_RESET;
 669              		.loc 1 76 24 is_stmt 0 view .LVU199
 670 008a 0D92     		str	r2, [sp, #52]
  77:Core/Src/tim.c ****   sConfigOC.OCNIdleState = TIM_OCNIDLESTATE_RESET;
 671              		.loc 1 77 3 is_stmt 1 view .LVU200
  77:Core/Src/tim.c ****   sConfigOC.OCNIdleState = TIM_OCNIDLESTATE_RESET;
 672              		.loc 1 77 25 is_stmt 0 view .LVU201
 673 008c 0E92     		str	r2, [sp, #56]
  78:Core/Src/tim.c ****   if (HAL_TIM_PWM_ConfigChannel(&htim1, &sConfigOC, TIM_CHANNEL_1) != HAL_OK)
 674              		.loc 1 78 3 is_stmt 1 view .LVU202
  78:Core/Src/tim.c ****   if (HAL_TIM_PWM_ConfigChannel(&htim1, &sConfigOC, TIM_CHANNEL_1) != HAL_OK)
 675              		.loc 1 78 26 is_stmt 0 view .LVU203
 676 008e 0F92     		str	r2, [sp, #60]
  79:Core/Src/tim.c ****   {
 677              		.loc 1 79 3 is_stmt 1 view .LVU204
  79:Core/Src/tim.c ****   {
 678              		.loc 1 79 7 is_stmt 0 view .LVU205
 679 0090 09A9     		add	r1, sp, #36
 680 0092 2748     		ldr	r0, .L47
 681 0094 FFF7FEFF 		bl	HAL_TIM_PWM_ConfigChannel
 682              	.LVL33:
  79:Core/Src/tim.c ****   {
 683              		.loc 1 79 6 discriminator 1 view .LVU206
 684 0098 0028     		cmp	r0, #0
 685 009a 3AD1     		bne	.L42
 686              	.L32:
  83:Core/Src/tim.c ****   {
 687              		.loc 1 83 3 is_stmt 1 view .LVU207
ARM GAS  C:\Users\Rick\AppData\Local\Temp\cc4dUzRe.s 			page 20


  83:Core/Src/tim.c ****   {
 688              		.loc 1 83 7 is_stmt 0 view .LVU208
 689 009c 0422     		movs	r2, #4
 690 009e 09A9     		add	r1, sp, #36
 691 00a0 2348     		ldr	r0, .L47
 692 00a2 FFF7FEFF 		bl	HAL_TIM_PWM_ConfigChannel
 693              	.LVL34:
  83:Core/Src/tim.c ****   {
 694              		.loc 1 83 6 discriminator 1 view .LVU209
 695 00a6 0028     		cmp	r0, #0
 696 00a8 36D1     		bne	.L43
 697              	.L33:
  87:Core/Src/tim.c ****   {
 698              		.loc 1 87 3 is_stmt 1 view .LVU210
  87:Core/Src/tim.c ****   {
 699              		.loc 1 87 7 is_stmt 0 view .LVU211
 700 00aa 0822     		movs	r2, #8
 701 00ac 09A9     		add	r1, sp, #36
 702 00ae 2048     		ldr	r0, .L47
 703 00b0 FFF7FEFF 		bl	HAL_TIM_PWM_ConfigChannel
 704              	.LVL35:
  87:Core/Src/tim.c ****   {
 705              		.loc 1 87 6 discriminator 1 view .LVU212
 706 00b4 0028     		cmp	r0, #0
 707 00b6 32D1     		bne	.L44
 708              	.L34:
  91:Core/Src/tim.c ****   sConfigOC.Pulse = 8000-2;
 709              		.loc 1 91 3 is_stmt 1 view .LVU213
  91:Core/Src/tim.c ****   sConfigOC.Pulse = 8000-2;
 710              		.loc 1 91 20 is_stmt 0 view .LVU214
 711 00b8 7023     		movs	r3, #112
 712 00ba 0993     		str	r3, [sp, #36]
  92:Core/Src/tim.c ****   if (HAL_TIM_PWM_ConfigChannel(&htim1, &sConfigOC, TIM_CHANNEL_4) != HAL_OK)
 713              		.loc 1 92 3 is_stmt 1 view .LVU215
  92:Core/Src/tim.c ****   if (HAL_TIM_PWM_ConfigChannel(&htim1, &sConfigOC, TIM_CHANNEL_4) != HAL_OK)
 714              		.loc 1 92 19 is_stmt 0 view .LVU216
 715 00bc 41F63E73 		movw	r3, #7998
 716 00c0 0A93     		str	r3, [sp, #40]
  93:Core/Src/tim.c ****   {
 717              		.loc 1 93 3 is_stmt 1 view .LVU217
  93:Core/Src/tim.c ****   {
 718              		.loc 1 93 7 is_stmt 0 view .LVU218
 719 00c2 0C22     		movs	r2, #12
 720 00c4 09A9     		add	r1, sp, #36
 721 00c6 1A48     		ldr	r0, .L47
 722 00c8 FFF7FEFF 		bl	HAL_TIM_PWM_ConfigChannel
 723              	.LVL36:
  93:Core/Src/tim.c ****   {
 724              		.loc 1 93 6 discriminator 1 view .LVU219
 725 00cc 50BB     		cbnz	r0, .L45
 726              	.L35:
  97:Core/Src/tim.c ****   sBreakDeadTimeConfig.OffStateIDLEMode = TIM_OSSI_DISABLE;
 727              		.loc 1 97 3 is_stmt 1 view .LVU220
  97:Core/Src/tim.c ****   sBreakDeadTimeConfig.OffStateIDLEMode = TIM_OSSI_DISABLE;
 728              		.loc 1 97 40 is_stmt 0 view .LVU221
 729 00ce 0023     		movs	r3, #0
 730 00d0 0193     		str	r3, [sp, #4]
ARM GAS  C:\Users\Rick\AppData\Local\Temp\cc4dUzRe.s 			page 21


  98:Core/Src/tim.c ****   sBreakDeadTimeConfig.LockLevel = TIM_LOCKLEVEL_OFF;
 731              		.loc 1 98 3 is_stmt 1 view .LVU222
  98:Core/Src/tim.c ****   sBreakDeadTimeConfig.LockLevel = TIM_LOCKLEVEL_OFF;
 732              		.loc 1 98 41 is_stmt 0 view .LVU223
 733 00d2 0293     		str	r3, [sp, #8]
  99:Core/Src/tim.c ****   sBreakDeadTimeConfig.DeadTime = 0;
 734              		.loc 1 99 3 is_stmt 1 view .LVU224
  99:Core/Src/tim.c ****   sBreakDeadTimeConfig.DeadTime = 0;
 735              		.loc 1 99 34 is_stmt 0 view .LVU225
 736 00d4 0393     		str	r3, [sp, #12]
 100:Core/Src/tim.c ****   sBreakDeadTimeConfig.BreakState = TIM_BREAK_ENABLE;
 737              		.loc 1 100 3 is_stmt 1 view .LVU226
 100:Core/Src/tim.c ****   sBreakDeadTimeConfig.BreakState = TIM_BREAK_ENABLE;
 738              		.loc 1 100 33 is_stmt 0 view .LVU227
 739 00d6 0493     		str	r3, [sp, #16]
 101:Core/Src/tim.c ****   sBreakDeadTimeConfig.BreakPolarity = TIM_BREAKPOLARITY_HIGH;
 740              		.loc 1 101 3 is_stmt 1 view .LVU228
 101:Core/Src/tim.c ****   sBreakDeadTimeConfig.BreakPolarity = TIM_BREAKPOLARITY_HIGH;
 741              		.loc 1 101 35 is_stmt 0 view .LVU229
 742 00d8 4FF48052 		mov	r2, #4096
 743 00dc 0592     		str	r2, [sp, #20]
 102:Core/Src/tim.c ****   sBreakDeadTimeConfig.AutomaticOutput = TIM_AUTOMATICOUTPUT_DISABLE;
 744              		.loc 1 102 3 is_stmt 1 view .LVU230
 102:Core/Src/tim.c ****   sBreakDeadTimeConfig.AutomaticOutput = TIM_AUTOMATICOUTPUT_DISABLE;
 745              		.loc 1 102 38 is_stmt 0 view .LVU231
 746 00de 4FF40052 		mov	r2, #8192
 747 00e2 0692     		str	r2, [sp, #24]
 103:Core/Src/tim.c ****   if (HAL_TIMEx_ConfigBreakDeadTime(&htim1, &sBreakDeadTimeConfig) != HAL_OK)
 748              		.loc 1 103 3 is_stmt 1 view .LVU232
 103:Core/Src/tim.c ****   if (HAL_TIMEx_ConfigBreakDeadTime(&htim1, &sBreakDeadTimeConfig) != HAL_OK)
 749              		.loc 1 103 40 is_stmt 0 view .LVU233
 750 00e4 0893     		str	r3, [sp, #32]
 104:Core/Src/tim.c ****   {
 751              		.loc 1 104 3 is_stmt 1 view .LVU234
 104:Core/Src/tim.c ****   {
 752              		.loc 1 104 7 is_stmt 0 view .LVU235
 753 00e6 01A9     		add	r1, sp, #4
 754 00e8 1148     		ldr	r0, .L47
 755 00ea FFF7FEFF 		bl	HAL_TIMEx_ConfigBreakDeadTime
 756              	.LVL37:
 104:Core/Src/tim.c ****   {
 757              		.loc 1 104 6 discriminator 1 view .LVU236
 758 00ee E0B9     		cbnz	r0, .L46
 759              	.L36:
 111:Core/Src/tim.c **** 
 760              		.loc 1 111 3 is_stmt 1 view .LVU237
 761 00f0 0F48     		ldr	r0, .L47
 762 00f2 FFF7FEFF 		bl	HAL_TIM_MspPostInit
 763              	.LVL38:
 113:Core/Src/tim.c **** /* TIM3 init function */
 764              		.loc 1 113 1 is_stmt 0 view .LVU238
 765 00f6 17B0     		add	sp, sp, #92
 766              		.cfi_remember_state
 767              		.cfi_def_cfa_offset 12
 768              		@ sp needed
 769 00f8 30BD     		pop	{r4, r5, pc}
 770              	.L38:
ARM GAS  C:\Users\Rick\AppData\Local\Temp\cc4dUzRe.s 			page 22


 771              		.cfi_restore_state
  55:Core/Src/tim.c ****   }
 772              		.loc 1 55 5 is_stmt 1 view .LVU239
 773 00fa FFF7FEFF 		bl	Error_Handler
 774              	.LVL39:
 775 00fe A7E7     		b	.L28
 776              	.L39:
  60:Core/Src/tim.c ****   }
 777              		.loc 1 60 5 view .LVU240
 778 0100 FFF7FEFF 		bl	Error_Handler
 779              	.LVL40:
 780 0104 ADE7     		b	.L29
 781              	.L40:
  64:Core/Src/tim.c ****   }
 782              		.loc 1 64 5 view .LVU241
 783 0106 FFF7FEFF 		bl	Error_Handler
 784              	.LVL41:
 785 010a AFE7     		b	.L30
 786              	.L41:
  70:Core/Src/tim.c ****   }
 787              		.loc 1 70 5 view .LVU242
 788 010c FFF7FEFF 		bl	Error_Handler
 789              	.LVL42:
 790 0110 B5E7     		b	.L31
 791              	.L42:
  81:Core/Src/tim.c ****   }
 792              		.loc 1 81 5 view .LVU243
 793 0112 FFF7FEFF 		bl	Error_Handler
 794              	.LVL43:
 795 0116 C1E7     		b	.L32
 796              	.L43:
  85:Core/Src/tim.c ****   }
 797              		.loc 1 85 5 view .LVU244
 798 0118 FFF7FEFF 		bl	Error_Handler
 799              	.LVL44:
 800 011c C5E7     		b	.L33
 801              	.L44:
  89:Core/Src/tim.c ****   }
 802              		.loc 1 89 5 view .LVU245
 803 011e FFF7FEFF 		bl	Error_Handler
 804              	.LVL45:
 805 0122 C9E7     		b	.L34
 806              	.L45:
  95:Core/Src/tim.c ****   }
 807              		.loc 1 95 5 view .LVU246
 808 0124 FFF7FEFF 		bl	Error_Handler
 809              	.LVL46:
 810 0128 D1E7     		b	.L35
 811              	.L46:
 106:Core/Src/tim.c ****   }
 812              		.loc 1 106 5 view .LVU247
 813 012a FFF7FEFF 		bl	Error_Handler
 814              	.LVL47:
 815 012e DFE7     		b	.L36
 816              	.L48:
 817              		.align	2
 818              	.L47:
ARM GAS  C:\Users\Rick\AppData\Local\Temp\cc4dUzRe.s 			page 23


 819 0130 00000000 		.word	htim1
 820 0134 00000140 		.word	1073807360
 821              		.cfi_endproc
 822              	.LFE239:
 824              		.section	.text.HAL_TIM_Base_MspDeInit,"ax",%progbits
 825              		.align	1
 826              		.global	HAL_TIM_Base_MspDeInit
 827              		.syntax unified
 828              		.thumb
 829              		.thumb_func
 831              	HAL_TIM_Base_MspDeInit:
 832              	.LVL48:
 833              	.LFB244:
 260:Core/Src/tim.c **** 
 261:Core/Src/tim.c **** void HAL_TIM_Base_MspDeInit(TIM_HandleTypeDef* tim_baseHandle)
 262:Core/Src/tim.c **** {
 834              		.loc 1 262 1 view -0
 835              		.cfi_startproc
 836              		@ args = 0, pretend = 0, frame = 0
 837              		@ frame_needed = 0, uses_anonymous_args = 0
 838              		.loc 1 262 1 is_stmt 0 view .LVU249
 839 0000 08B5     		push	{r3, lr}
 840              		.cfi_def_cfa_offset 8
 841              		.cfi_offset 3, -8
 842              		.cfi_offset 14, -4
 263:Core/Src/tim.c **** 
 264:Core/Src/tim.c ****   if(tim_baseHandle->Instance==TIM1)
 843              		.loc 1 264 3 is_stmt 1 view .LVU250
 844              		.loc 1 264 20 is_stmt 0 view .LVU251
 845 0002 0268     		ldr	r2, [r0]
 846              		.loc 1 264 5 view .LVU252
 847 0004 0E4B     		ldr	r3, .L53
 848 0006 9A42     		cmp	r2, r3
 849 0008 00D0     		beq	.L52
 850              	.LVL49:
 851              	.L49:
 265:Core/Src/tim.c ****   {
 266:Core/Src/tim.c ****   /* USER CODE BEGIN TIM1_MspDeInit 0 */
 267:Core/Src/tim.c **** 
 268:Core/Src/tim.c ****   /* USER CODE END TIM1_MspDeInit 0 */
 269:Core/Src/tim.c ****     /* Peripheral clock disable */
 270:Core/Src/tim.c ****     __HAL_RCC_TIM1_CLK_DISABLE();
 271:Core/Src/tim.c **** 
 272:Core/Src/tim.c ****     /**TIM1 GPIO Configuration
 273:Core/Src/tim.c ****     PB12     ------> TIM1_BKIN
 274:Core/Src/tim.c ****     PA8     ------> TIM1_CH1
 275:Core/Src/tim.c ****     PA9     ------> TIM1_CH2
 276:Core/Src/tim.c ****     PA10     ------> TIM1_CH3
 277:Core/Src/tim.c ****     */
 278:Core/Src/tim.c ****     HAL_GPIO_DeInit(GPIOB, GPIO_PIN_12);
 279:Core/Src/tim.c **** 
 280:Core/Src/tim.c ****     HAL_GPIO_DeInit(GPIOA, GPIO_PIN_8|GPIO_PIN_9|GPIO_PIN_10);
 281:Core/Src/tim.c **** 
 282:Core/Src/tim.c ****     /* TIM1 interrupt Deinit */
 283:Core/Src/tim.c ****     HAL_NVIC_DisableIRQ(TIM1_BRK_TIM9_IRQn);
 284:Core/Src/tim.c ****     HAL_NVIC_DisableIRQ(TIM1_UP_TIM10_IRQn);
 285:Core/Src/tim.c ****     HAL_NVIC_DisableIRQ(TIM1_CC_IRQn);
ARM GAS  C:\Users\Rick\AppData\Local\Temp\cc4dUzRe.s 			page 24


 286:Core/Src/tim.c ****   /* USER CODE BEGIN TIM1_MspDeInit 1 */
 287:Core/Src/tim.c **** 
 288:Core/Src/tim.c ****   /* USER CODE END TIM1_MspDeInit 1 */
 289:Core/Src/tim.c ****   }
 290:Core/Src/tim.c **** }
 852              		.loc 1 290 1 view .LVU253
 853 000a 08BD     		pop	{r3, pc}
 854              	.LVL50:
 855              	.L52:
 270:Core/Src/tim.c **** 
 856              		.loc 1 270 5 is_stmt 1 view .LVU254
 857 000c 0D4A     		ldr	r2, .L53+4
 858 000e 536C     		ldr	r3, [r2, #68]
 859 0010 23F00103 		bic	r3, r3, #1
 860 0014 5364     		str	r3, [r2, #68]
 278:Core/Src/tim.c **** 
 861              		.loc 1 278 5 view .LVU255
 862 0016 4FF48051 		mov	r1, #4096
 863 001a 0B48     		ldr	r0, .L53+8
 864              	.LVL51:
 278:Core/Src/tim.c **** 
 865              		.loc 1 278 5 is_stmt 0 view .LVU256
 866 001c FFF7FEFF 		bl	HAL_GPIO_DeInit
 867              	.LVL52:
 280:Core/Src/tim.c **** 
 868              		.loc 1 280 5 is_stmt 1 view .LVU257
 869 0020 4FF4E061 		mov	r1, #1792
 870 0024 0948     		ldr	r0, .L53+12
 871 0026 FFF7FEFF 		bl	HAL_GPIO_DeInit
 872              	.LVL53:
 283:Core/Src/tim.c ****     HAL_NVIC_DisableIRQ(TIM1_UP_TIM10_IRQn);
 873              		.loc 1 283 5 view .LVU258
 874 002a 1820     		movs	r0, #24
 875 002c FFF7FEFF 		bl	HAL_NVIC_DisableIRQ
 876              	.LVL54:
 284:Core/Src/tim.c ****     HAL_NVIC_DisableIRQ(TIM1_CC_IRQn);
 877              		.loc 1 284 5 view .LVU259
 878 0030 1920     		movs	r0, #25
 879 0032 FFF7FEFF 		bl	HAL_NVIC_DisableIRQ
 880              	.LVL55:
 285:Core/Src/tim.c ****   /* USER CODE BEGIN TIM1_MspDeInit 1 */
 881              		.loc 1 285 5 view .LVU260
 882 0036 1B20     		movs	r0, #27
 883 0038 FFF7FEFF 		bl	HAL_NVIC_DisableIRQ
 884              	.LVL56:
 885              		.loc 1 290 1 is_stmt 0 view .LVU261
 886 003c E5E7     		b	.L49
 887              	.L54:
 888 003e 00BF     		.align	2
 889              	.L53:
 890 0040 00000140 		.word	1073807360
 891 0044 00380240 		.word	1073887232
 892 0048 00040240 		.word	1073873920
 893 004c 00000240 		.word	1073872896
 894              		.cfi_endproc
 895              	.LFE244:
 897              		.section	.text.HAL_TIMEx_HallSensor_MspDeInit,"ax",%progbits
ARM GAS  C:\Users\Rick\AppData\Local\Temp\cc4dUzRe.s 			page 25


 898              		.align	1
 899              		.global	HAL_TIMEx_HallSensor_MspDeInit
 900              		.syntax unified
 901              		.thumb
 902              		.thumb_func
 904              	HAL_TIMEx_HallSensor_MspDeInit:
 905              	.LVL57:
 906              	.LFB245:
 291:Core/Src/tim.c **** 
 292:Core/Src/tim.c **** void HAL_TIMEx_HallSensor_MspDeInit(TIM_HandleTypeDef* timex_hallsensorHandle)
 293:Core/Src/tim.c **** {
 907              		.loc 1 293 1 is_stmt 1 view -0
 908              		.cfi_startproc
 909              		@ args = 0, pretend = 0, frame = 0
 910              		@ frame_needed = 0, uses_anonymous_args = 0
 911              		.loc 1 293 1 is_stmt 0 view .LVU263
 912 0000 08B5     		push	{r3, lr}
 913              		.cfi_def_cfa_offset 8
 914              		.cfi_offset 3, -8
 915              		.cfi_offset 14, -4
 294:Core/Src/tim.c **** 
 295:Core/Src/tim.c ****   if(timex_hallsensorHandle->Instance==TIM3)
 916              		.loc 1 295 3 is_stmt 1 view .LVU264
 917              		.loc 1 295 28 is_stmt 0 view .LVU265
 918 0002 0268     		ldr	r2, [r0]
 919              		.loc 1 295 5 view .LVU266
 920 0004 0A4B     		ldr	r3, .L59
 921 0006 9A42     		cmp	r2, r3
 922 0008 00D0     		beq	.L58
 923              	.LVL58:
 924              	.L55:
 296:Core/Src/tim.c ****   {
 297:Core/Src/tim.c ****   /* USER CODE BEGIN TIM3_MspDeInit 0 */
 298:Core/Src/tim.c **** 
 299:Core/Src/tim.c ****   /* USER CODE END TIM3_MspDeInit 0 */
 300:Core/Src/tim.c ****     /* Peripheral clock disable */
 301:Core/Src/tim.c ****     __HAL_RCC_TIM3_CLK_DISABLE();
 302:Core/Src/tim.c **** 
 303:Core/Src/tim.c ****     /**TIM3 GPIO Configuration
 304:Core/Src/tim.c ****     PA6     ------> TIM3_CH1
 305:Core/Src/tim.c ****     PA7     ------> TIM3_CH2
 306:Core/Src/tim.c ****     PB0     ------> TIM3_CH3
 307:Core/Src/tim.c ****     */
 308:Core/Src/tim.c ****     HAL_GPIO_DeInit(GPIOA, GPIO_PIN_6|GPIO_PIN_7);
 309:Core/Src/tim.c **** 
 310:Core/Src/tim.c ****     HAL_GPIO_DeInit(GPIOB, GPIO_PIN_0);
 311:Core/Src/tim.c **** 
 312:Core/Src/tim.c ****     /* TIM3 interrupt Deinit */
 313:Core/Src/tim.c ****     HAL_NVIC_DisableIRQ(TIM3_IRQn);
 314:Core/Src/tim.c ****   /* USER CODE BEGIN TIM3_MspDeInit 1 */
 315:Core/Src/tim.c **** 
 316:Core/Src/tim.c ****   /* USER CODE END TIM3_MspDeInit 1 */
 317:Core/Src/tim.c ****   }
 318:Core/Src/tim.c **** }
 925              		.loc 1 318 1 view .LVU267
 926 000a 08BD     		pop	{r3, pc}
 927              	.LVL59:
ARM GAS  C:\Users\Rick\AppData\Local\Temp\cc4dUzRe.s 			page 26


 928              	.L58:
 301:Core/Src/tim.c **** 
 929              		.loc 1 301 5 is_stmt 1 view .LVU268
 930 000c 094A     		ldr	r2, .L59+4
 931 000e 136C     		ldr	r3, [r2, #64]
 932 0010 23F00203 		bic	r3, r3, #2
 933 0014 1364     		str	r3, [r2, #64]
 308:Core/Src/tim.c **** 
 934              		.loc 1 308 5 view .LVU269
 935 0016 C021     		movs	r1, #192
 936 0018 0748     		ldr	r0, .L59+8
 937              	.LVL60:
 308:Core/Src/tim.c **** 
 938              		.loc 1 308 5 is_stmt 0 view .LVU270
 939 001a FFF7FEFF 		bl	HAL_GPIO_DeInit
 940              	.LVL61:
 310:Core/Src/tim.c **** 
 941              		.loc 1 310 5 is_stmt 1 view .LVU271
 942 001e 0121     		movs	r1, #1
 943 0020 0648     		ldr	r0, .L59+12
 944 0022 FFF7FEFF 		bl	HAL_GPIO_DeInit
 945              	.LVL62:
 313:Core/Src/tim.c ****   /* USER CODE BEGIN TIM3_MspDeInit 1 */
 946              		.loc 1 313 5 view .LVU272
 947 0026 1D20     		movs	r0, #29
 948 0028 FFF7FEFF 		bl	HAL_NVIC_DisableIRQ
 949              	.LVL63:
 950              		.loc 1 318 1 is_stmt 0 view .LVU273
 951 002c EDE7     		b	.L55
 952              	.L60:
 953 002e 00BF     		.align	2
 954              	.L59:
 955 0030 00040040 		.word	1073742848
 956 0034 00380240 		.word	1073887232
 957 0038 00000240 		.word	1073872896
 958 003c 00040240 		.word	1073873920
 959              		.cfi_endproc
 960              	.LFE245:
 962              		.global	htim3
 963              		.section	.bss.htim3,"aw",%nobits
 964              		.align	2
 967              	htim3:
 968 0000 00000000 		.space	72
 968      00000000 
 968      00000000 
 968      00000000 
 968      00000000 
 969              		.global	htim1
 970              		.section	.bss.htim1,"aw",%nobits
 971              		.align	2
 974              	htim1:
 975 0000 00000000 		.space	72
 975      00000000 
 975      00000000 
 975      00000000 
 975      00000000 
 976              		.text
ARM GAS  C:\Users\Rick\AppData\Local\Temp\cc4dUzRe.s 			page 27


 977              	.Letext0:
 978              		.file 2 "Drivers/CMSIS/Device/ST/STM32F4xx/Include/stm32f446xx.h"
 979              		.file 3 "C:/Users/Rick/AppData/Roaming/Code/User/globalStorage/bmd.stm32-for-vscode/@xpack-dev-too
 980              		.file 4 "C:/Users/Rick/AppData/Roaming/Code/User/globalStorage/bmd.stm32-for-vscode/@xpack-dev-too
 981              		.file 5 "Drivers/STM32F4xx_HAL_Driver/Inc/stm32f4xx_hal_def.h"
 982              		.file 6 "Drivers/STM32F4xx_HAL_Driver/Inc/stm32f4xx_hal_gpio.h"
 983              		.file 7 "Drivers/STM32F4xx_HAL_Driver/Inc/stm32f4xx_hal_dma.h"
 984              		.file 8 "Drivers/STM32F4xx_HAL_Driver/Inc/stm32f4xx_hal_tim.h"
 985              		.file 9 "Drivers/STM32F4xx_HAL_Driver/Inc/stm32f4xx_hal_tim_ex.h"
 986              		.file 10 "Core/Inc/tim.h"
 987              		.file 11 "Drivers/STM32F4xx_HAL_Driver/Inc/stm32f4xx_hal_cortex.h"
 988              		.file 12 "Core/Inc/main.h"
 989              		.file 13 "<built-in>"
ARM GAS  C:\Users\Rick\AppData\Local\Temp\cc4dUzRe.s 			page 28

