ARM GAS  C:\Users\Rick\AppData\Local\Temp\cc3o1u0R.s 			page 1


   1              		.cpu cortex-m4
   2              		.arch armv7e-m
   3              		.fpu fpv4-sp-d16
   4              		.eabi_attribute 27, 1
   5              		.eabi_attribute 28, 1
   6              		.eabi_attribute 20, 1
   7              		.eabi_attribute 21, 1
   8              		.eabi_attribute 23, 3
   9              		.eabi_attribute 24, 1
  10              		.eabi_attribute 25, 1
  11              		.eabi_attribute 26, 1
  12              		.eabi_attribute 30, 1
  13              		.eabi_attribute 34, 1
  14              		.eabi_attribute 18, 4
  15              		.file	"tim.c"
  16              		.text
  17              	.Ltext0:
  18              		.cfi_sections	.debug_frame
  19              		.file 1 "Core/Src/tim.c"
  20              		.section	.text.MX_TIM3_Init,"ax",%progbits
  21              		.align	1
  22              		.global	MX_TIM3_Init
  23              		.syntax unified
  24              		.thumb
  25              		.thumb_func
  27              	MX_TIM3_Init:
  28              	.LFB240:
   1:Core/Src/tim.c **** /* USER CODE BEGIN Header */
   2:Core/Src/tim.c **** /**
   3:Core/Src/tim.c ****   ******************************************************************************
   4:Core/Src/tim.c ****   * @file    tim.c
   5:Core/Src/tim.c ****   * @brief   This file provides code for the configuration
   6:Core/Src/tim.c ****   *          of the TIM instances.
   7:Core/Src/tim.c ****   ******************************************************************************
   8:Core/Src/tim.c ****   * @attention
   9:Core/Src/tim.c ****   *
  10:Core/Src/tim.c ****   * Copyright (c) 2025 STMicroelectronics.
  11:Core/Src/tim.c ****   * All rights reserved.
  12:Core/Src/tim.c ****   *
  13:Core/Src/tim.c ****   * This software is licensed under terms that can be found in the LICENSE file
  14:Core/Src/tim.c ****   * in the root directory of this software component.
  15:Core/Src/tim.c ****   * If no LICENSE file comes with this software, it is provided AS-IS.
  16:Core/Src/tim.c ****   *
  17:Core/Src/tim.c ****   ******************************************************************************
  18:Core/Src/tim.c ****   */
  19:Core/Src/tim.c **** /* USER CODE END Header */
  20:Core/Src/tim.c **** /* Includes ------------------------------------------------------------------*/
  21:Core/Src/tim.c **** #include "tim.h"
  22:Core/Src/tim.c **** 
  23:Core/Src/tim.c **** /* USER CODE BEGIN 0 */
  24:Core/Src/tim.c **** 
  25:Core/Src/tim.c **** /* USER CODE END 0 */
  26:Core/Src/tim.c **** 
  27:Core/Src/tim.c **** TIM_HandleTypeDef htim1;
  28:Core/Src/tim.c **** TIM_HandleTypeDef htim3;
  29:Core/Src/tim.c **** 
  30:Core/Src/tim.c **** /* TIM1 init function */
ARM GAS  C:\Users\Rick\AppData\Local\Temp\cc3o1u0R.s 			page 2


  31:Core/Src/tim.c **** void MX_TIM1_Init(void)
  32:Core/Src/tim.c **** {
  33:Core/Src/tim.c **** 
  34:Core/Src/tim.c ****   /* USER CODE BEGIN TIM1_Init 0 */
  35:Core/Src/tim.c **** 
  36:Core/Src/tim.c ****   /* USER CODE END TIM1_Init 0 */
  37:Core/Src/tim.c **** 
  38:Core/Src/tim.c ****   TIM_ClockConfigTypeDef sClockSourceConfig = {0};
  39:Core/Src/tim.c ****   TIM_MasterConfigTypeDef sMasterConfig = {0};
  40:Core/Src/tim.c ****   TIM_OC_InitTypeDef sConfigOC = {0};
  41:Core/Src/tim.c ****   TIM_BreakDeadTimeConfigTypeDef sBreakDeadTimeConfig = {0};
  42:Core/Src/tim.c **** 
  43:Core/Src/tim.c ****   /* USER CODE BEGIN TIM1_Init 1 */
  44:Core/Src/tim.c **** 
  45:Core/Src/tim.c ****   /* USER CODE END TIM1_Init 1 */
  46:Core/Src/tim.c ****   htim1.Instance = TIM1;
  47:Core/Src/tim.c ****   htim1.Init.Prescaler = 1-1;
  48:Core/Src/tim.c ****   htim1.Init.CounterMode = TIM_COUNTERMODE_CENTERALIGNED1;
  49:Core/Src/tim.c ****   htim1.Init.Period = 16000-1;
  50:Core/Src/tim.c ****   htim1.Init.ClockDivision = TIM_CLOCKDIVISION_DIV2;
  51:Core/Src/tim.c ****   htim1.Init.RepetitionCounter = 1;
  52:Core/Src/tim.c ****   htim1.Init.AutoReloadPreload = TIM_AUTORELOAD_PRELOAD_DISABLE;
  53:Core/Src/tim.c ****   if (HAL_TIM_Base_Init(&htim1) != HAL_OK)
  54:Core/Src/tim.c ****   {
  55:Core/Src/tim.c ****     Error_Handler();
  56:Core/Src/tim.c ****   }
  57:Core/Src/tim.c ****   sClockSourceConfig.ClockSource = TIM_CLOCKSOURCE_INTERNAL;
  58:Core/Src/tim.c ****   if (HAL_TIM_ConfigClockSource(&htim1, &sClockSourceConfig) != HAL_OK)
  59:Core/Src/tim.c ****   {
  60:Core/Src/tim.c ****     Error_Handler();
  61:Core/Src/tim.c ****   }
  62:Core/Src/tim.c ****   if (HAL_TIM_PWM_Init(&htim1) != HAL_OK)
  63:Core/Src/tim.c ****   {
  64:Core/Src/tim.c ****     Error_Handler();
  65:Core/Src/tim.c ****   }
  66:Core/Src/tim.c ****   sMasterConfig.MasterOutputTrigger = TIM_TRGO_RESET;
  67:Core/Src/tim.c ****   sMasterConfig.MasterSlaveMode = TIM_MASTERSLAVEMODE_DISABLE;
  68:Core/Src/tim.c ****   if (HAL_TIMEx_MasterConfigSynchronization(&htim1, &sMasterConfig) != HAL_OK)
  69:Core/Src/tim.c ****   {
  70:Core/Src/tim.c ****     Error_Handler();
  71:Core/Src/tim.c ****   }
  72:Core/Src/tim.c ****   sConfigOC.OCMode = TIM_OCMODE_PWM1;
  73:Core/Src/tim.c ****   sConfigOC.Pulse = 0;
  74:Core/Src/tim.c ****   sConfigOC.OCPolarity = TIM_OCPOLARITY_HIGH;
  75:Core/Src/tim.c ****   sConfigOC.OCNPolarity = TIM_OCNPOLARITY_HIGH;
  76:Core/Src/tim.c ****   sConfigOC.OCFastMode = TIM_OCFAST_DISABLE;
  77:Core/Src/tim.c ****   sConfigOC.OCIdleState = TIM_OCIDLESTATE_RESET;
  78:Core/Src/tim.c ****   sConfigOC.OCNIdleState = TIM_OCNIDLESTATE_RESET;
  79:Core/Src/tim.c ****   if (HAL_TIM_PWM_ConfigChannel(&htim1, &sConfigOC, TIM_CHANNEL_1) != HAL_OK)
  80:Core/Src/tim.c ****   {
  81:Core/Src/tim.c ****     Error_Handler();
  82:Core/Src/tim.c ****   }
  83:Core/Src/tim.c ****   if (HAL_TIM_PWM_ConfigChannel(&htim1, &sConfigOC, TIM_CHANNEL_2) != HAL_OK)
  84:Core/Src/tim.c ****   {
  85:Core/Src/tim.c ****     Error_Handler();
  86:Core/Src/tim.c ****   }
  87:Core/Src/tim.c ****   if (HAL_TIM_PWM_ConfigChannel(&htim1, &sConfigOC, TIM_CHANNEL_3) != HAL_OK)
ARM GAS  C:\Users\Rick\AppData\Local\Temp\cc3o1u0R.s 			page 3


  88:Core/Src/tim.c ****   {
  89:Core/Src/tim.c ****     Error_Handler();
  90:Core/Src/tim.c ****   }
  91:Core/Src/tim.c ****   sConfigOC.OCMode = TIM_OCMODE_PWM2;
  92:Core/Src/tim.c ****   sConfigOC.Pulse = 16000-2;
  93:Core/Src/tim.c ****   if (HAL_TIM_PWM_ConfigChannel(&htim1, &sConfigOC, TIM_CHANNEL_4) != HAL_OK)
  94:Core/Src/tim.c ****   {
  95:Core/Src/tim.c ****     Error_Handler();
  96:Core/Src/tim.c ****   }
  97:Core/Src/tim.c ****   sBreakDeadTimeConfig.OffStateRunMode = TIM_OSSR_DISABLE;
  98:Core/Src/tim.c ****   sBreakDeadTimeConfig.OffStateIDLEMode = TIM_OSSI_DISABLE;
  99:Core/Src/tim.c ****   sBreakDeadTimeConfig.LockLevel = TIM_LOCKLEVEL_OFF;
 100:Core/Src/tim.c ****   sBreakDeadTimeConfig.DeadTime = 0;
 101:Core/Src/tim.c ****   sBreakDeadTimeConfig.BreakState = TIM_BREAK_ENABLE;
 102:Core/Src/tim.c ****   sBreakDeadTimeConfig.BreakPolarity = TIM_BREAKPOLARITY_HIGH;
 103:Core/Src/tim.c ****   sBreakDeadTimeConfig.AutomaticOutput = TIM_AUTOMATICOUTPUT_DISABLE;
 104:Core/Src/tim.c ****   if (HAL_TIMEx_ConfigBreakDeadTime(&htim1, &sBreakDeadTimeConfig) != HAL_OK)
 105:Core/Src/tim.c ****   {
 106:Core/Src/tim.c ****     Error_Handler();
 107:Core/Src/tim.c ****   }
 108:Core/Src/tim.c ****   /* USER CODE BEGIN TIM1_Init 2 */
 109:Core/Src/tim.c **** 
 110:Core/Src/tim.c ****   /* USER CODE END TIM1_Init 2 */
 111:Core/Src/tim.c ****   HAL_TIM_MspPostInit(&htim1);
 112:Core/Src/tim.c **** 
 113:Core/Src/tim.c **** }
 114:Core/Src/tim.c **** /* TIM3 init function */
 115:Core/Src/tim.c **** void MX_TIM3_Init(void)
 116:Core/Src/tim.c **** {
  29              		.loc 1 116 1 view -0
  30              		.cfi_startproc
  31              		@ args = 0, pretend = 0, frame = 24
  32              		@ frame_needed = 0, uses_anonymous_args = 0
  33 0000 00B5     		push	{lr}
  34              		.cfi_def_cfa_offset 4
  35              		.cfi_offset 14, -4
  36 0002 87B0     		sub	sp, sp, #28
  37              		.cfi_def_cfa_offset 32
 117:Core/Src/tim.c **** 
 118:Core/Src/tim.c ****   /* USER CODE BEGIN TIM3_Init 0 */
 119:Core/Src/tim.c **** 
 120:Core/Src/tim.c ****   /* USER CODE END TIM3_Init 0 */
 121:Core/Src/tim.c **** 
 122:Core/Src/tim.c ****   TIM_ClockConfigTypeDef sClockSourceConfig = {0};
  38              		.loc 1 122 3 view .LVU1
  39              		.loc 1 122 26 is_stmt 0 view .LVU2
  40 0004 0023     		movs	r3, #0
  41 0006 0293     		str	r3, [sp, #8]
  42 0008 0393     		str	r3, [sp, #12]
  43 000a 0493     		str	r3, [sp, #16]
  44 000c 0593     		str	r3, [sp, #20]
 123:Core/Src/tim.c ****   TIM_MasterConfigTypeDef sMasterConfig = {0};
  45              		.loc 1 123 3 is_stmt 1 view .LVU3
  46              		.loc 1 123 27 is_stmt 0 view .LVU4
  47 000e 0093     		str	r3, [sp]
  48 0010 0193     		str	r3, [sp, #4]
 124:Core/Src/tim.c **** 
ARM GAS  C:\Users\Rick\AppData\Local\Temp\cc3o1u0R.s 			page 4


 125:Core/Src/tim.c ****   /* USER CODE BEGIN TIM3_Init 1 */
 126:Core/Src/tim.c **** 
 127:Core/Src/tim.c ****   /* USER CODE END TIM3_Init 1 */
 128:Core/Src/tim.c ****   htim3.Instance = TIM3;
  49              		.loc 1 128 3 is_stmt 1 view .LVU5
  50              		.loc 1 128 18 is_stmt 0 view .LVU6
  51 0012 1548     		ldr	r0, .L9
  52 0014 154A     		ldr	r2, .L9+4
  53 0016 0260     		str	r2, [r0]
 129:Core/Src/tim.c ****   htim3.Init.Prescaler = 8-1;
  54              		.loc 1 129 3 is_stmt 1 view .LVU7
  55              		.loc 1 129 24 is_stmt 0 view .LVU8
  56 0018 0722     		movs	r2, #7
  57 001a 4260     		str	r2, [r0, #4]
 130:Core/Src/tim.c ****   htim3.Init.CounterMode = TIM_COUNTERMODE_UP;
  58              		.loc 1 130 3 is_stmt 1 view .LVU9
  59              		.loc 1 130 26 is_stmt 0 view .LVU10
  60 001c 8360     		str	r3, [r0, #8]
 131:Core/Src/tim.c ****   htim3.Init.Period = 65535;
  61              		.loc 1 131 3 is_stmt 1 view .LVU11
  62              		.loc 1 131 21 is_stmt 0 view .LVU12
  63 001e 4FF6FF72 		movw	r2, #65535
  64 0022 C260     		str	r2, [r0, #12]
 132:Core/Src/tim.c ****   htim3.Init.ClockDivision = TIM_CLOCKDIVISION_DIV1;
  65              		.loc 1 132 3 is_stmt 1 view .LVU13
  66              		.loc 1 132 28 is_stmt 0 view .LVU14
  67 0024 0361     		str	r3, [r0, #16]
 133:Core/Src/tim.c ****   htim3.Init.AutoReloadPreload = TIM_AUTORELOAD_PRELOAD_DISABLE;
  68              		.loc 1 133 3 is_stmt 1 view .LVU15
  69              		.loc 1 133 32 is_stmt 0 view .LVU16
  70 0026 8361     		str	r3, [r0, #24]
 134:Core/Src/tim.c ****   if (HAL_TIM_Base_Init(&htim3) != HAL_OK)
  71              		.loc 1 134 3 is_stmt 1 view .LVU17
  72              		.loc 1 134 7 is_stmt 0 view .LVU18
  73 0028 FFF7FEFF 		bl	HAL_TIM_Base_Init
  74              	.LVL0:
  75              		.loc 1 134 6 discriminator 1 view .LVU19
  76 002c 90B9     		cbnz	r0, .L6
  77              	.L2:
 135:Core/Src/tim.c ****   {
 136:Core/Src/tim.c ****     Error_Handler();
 137:Core/Src/tim.c ****   }
 138:Core/Src/tim.c ****   sClockSourceConfig.ClockSource = TIM_CLOCKSOURCE_INTERNAL;
  78              		.loc 1 138 3 is_stmt 1 view .LVU20
  79              		.loc 1 138 34 is_stmt 0 view .LVU21
  80 002e 4FF48053 		mov	r3, #4096
  81 0032 0293     		str	r3, [sp, #8]
 139:Core/Src/tim.c ****   if (HAL_TIM_ConfigClockSource(&htim3, &sClockSourceConfig) != HAL_OK)
  82              		.loc 1 139 3 is_stmt 1 view .LVU22
  83              		.loc 1 139 7 is_stmt 0 view .LVU23
  84 0034 02A9     		add	r1, sp, #8
  85 0036 0C48     		ldr	r0, .L9
  86 0038 FFF7FEFF 		bl	HAL_TIM_ConfigClockSource
  87              	.LVL1:
  88              		.loc 1 139 6 discriminator 1 view .LVU24
  89 003c 68B9     		cbnz	r0, .L7
  90              	.L3:
ARM GAS  C:\Users\Rick\AppData\Local\Temp\cc3o1u0R.s 			page 5


 140:Core/Src/tim.c ****   {
 141:Core/Src/tim.c ****     Error_Handler();
 142:Core/Src/tim.c ****   }
 143:Core/Src/tim.c ****   sMasterConfig.MasterOutputTrigger = TIM_TRGO_RESET;
  91              		.loc 1 143 3 is_stmt 1 view .LVU25
  92              		.loc 1 143 37 is_stmt 0 view .LVU26
  93 003e 0023     		movs	r3, #0
  94 0040 0093     		str	r3, [sp]
 144:Core/Src/tim.c ****   sMasterConfig.MasterSlaveMode = TIM_MASTERSLAVEMODE_DISABLE;
  95              		.loc 1 144 3 is_stmt 1 view .LVU27
  96              		.loc 1 144 33 is_stmt 0 view .LVU28
  97 0042 0193     		str	r3, [sp, #4]
 145:Core/Src/tim.c ****   if (HAL_TIMEx_MasterConfigSynchronization(&htim3, &sMasterConfig) != HAL_OK)
  98              		.loc 1 145 3 is_stmt 1 view .LVU29
  99              		.loc 1 145 7 is_stmt 0 view .LVU30
 100 0044 6946     		mov	r1, sp
 101 0046 0848     		ldr	r0, .L9
 102 0048 FFF7FEFF 		bl	HAL_TIMEx_MasterConfigSynchronization
 103              	.LVL2:
 104              		.loc 1 145 6 discriminator 1 view .LVU31
 105 004c 40B9     		cbnz	r0, .L8
 106              	.L1:
 146:Core/Src/tim.c ****   {
 147:Core/Src/tim.c ****     Error_Handler();
 148:Core/Src/tim.c ****   }
 149:Core/Src/tim.c ****   /* USER CODE BEGIN TIM3_Init 2 */
 150:Core/Src/tim.c **** 
 151:Core/Src/tim.c ****   /* USER CODE END TIM3_Init 2 */
 152:Core/Src/tim.c **** 
 153:Core/Src/tim.c **** }
 107              		.loc 1 153 1 view .LVU32
 108 004e 07B0     		add	sp, sp, #28
 109              		.cfi_remember_state
 110              		.cfi_def_cfa_offset 4
 111              		@ sp needed
 112 0050 5DF804FB 		ldr	pc, [sp], #4
 113              	.L6:
 114              		.cfi_restore_state
 136:Core/Src/tim.c ****   }
 115              		.loc 1 136 5 is_stmt 1 view .LVU33
 116 0054 FFF7FEFF 		bl	Error_Handler
 117              	.LVL3:
 118 0058 E9E7     		b	.L2
 119              	.L7:
 141:Core/Src/tim.c ****   }
 120              		.loc 1 141 5 view .LVU34
 121 005a FFF7FEFF 		bl	Error_Handler
 122              	.LVL4:
 123 005e EEE7     		b	.L3
 124              	.L8:
 147:Core/Src/tim.c ****   }
 125              		.loc 1 147 5 view .LVU35
 126 0060 FFF7FEFF 		bl	Error_Handler
 127              	.LVL5:
 128              		.loc 1 153 1 is_stmt 0 view .LVU36
 129 0064 F3E7     		b	.L1
 130              	.L10:
ARM GAS  C:\Users\Rick\AppData\Local\Temp\cc3o1u0R.s 			page 6


 131 0066 00BF     		.align	2
 132              	.L9:
 133 0068 00000000 		.word	htim3
 134 006c 00040040 		.word	1073742848
 135              		.cfi_endproc
 136              	.LFE240:
 138              		.section	.text.HAL_TIM_Base_MspInit,"ax",%progbits
 139              		.align	1
 140              		.global	HAL_TIM_Base_MspInit
 141              		.syntax unified
 142              		.thumb
 143              		.thumb_func
 145              	HAL_TIM_Base_MspInit:
 146              	.LVL6:
 147              	.LFB241:
 154:Core/Src/tim.c **** 
 155:Core/Src/tim.c **** void HAL_TIM_Base_MspInit(TIM_HandleTypeDef* tim_baseHandle)
 156:Core/Src/tim.c **** {
 148              		.loc 1 156 1 is_stmt 1 view -0
 149              		.cfi_startproc
 150              		@ args = 0, pretend = 0, frame = 40
 151              		@ frame_needed = 0, uses_anonymous_args = 0
 152              		.loc 1 156 1 is_stmt 0 view .LVU38
 153 0000 70B5     		push	{r4, r5, r6, lr}
 154              		.cfi_def_cfa_offset 16
 155              		.cfi_offset 4, -16
 156              		.cfi_offset 5, -12
 157              		.cfi_offset 6, -8
 158              		.cfi_offset 14, -4
 159 0002 8AB0     		sub	sp, sp, #40
 160              		.cfi_def_cfa_offset 56
 157:Core/Src/tim.c **** 
 158:Core/Src/tim.c ****   GPIO_InitTypeDef GPIO_InitStruct = {0};
 161              		.loc 1 158 3 is_stmt 1 view .LVU39
 162              		.loc 1 158 20 is_stmt 0 view .LVU40
 163 0004 0023     		movs	r3, #0
 164 0006 0593     		str	r3, [sp, #20]
 165 0008 0693     		str	r3, [sp, #24]
 166 000a 0793     		str	r3, [sp, #28]
 167 000c 0893     		str	r3, [sp, #32]
 168 000e 0993     		str	r3, [sp, #36]
 159:Core/Src/tim.c ****   if(tim_baseHandle->Instance==TIM1)
 169              		.loc 1 159 3 is_stmt 1 view .LVU41
 170              		.loc 1 159 20 is_stmt 0 view .LVU42
 171 0010 0368     		ldr	r3, [r0]
 172              		.loc 1 159 5 view .LVU43
 173 0012 3F4A     		ldr	r2, .L17
 174 0014 9342     		cmp	r3, r2
 175 0016 04D0     		beq	.L15
 160:Core/Src/tim.c ****   {
 161:Core/Src/tim.c ****   /* USER CODE BEGIN TIM1_MspInit 0 */
 162:Core/Src/tim.c **** 
 163:Core/Src/tim.c ****   /* USER CODE END TIM1_MspInit 0 */
 164:Core/Src/tim.c ****     /* TIM1 clock enable */
 165:Core/Src/tim.c ****     __HAL_RCC_TIM1_CLK_ENABLE();
 166:Core/Src/tim.c **** 
 167:Core/Src/tim.c ****     __HAL_RCC_GPIOB_CLK_ENABLE();
ARM GAS  C:\Users\Rick\AppData\Local\Temp\cc3o1u0R.s 			page 7


 168:Core/Src/tim.c ****     /**TIM1 GPIO Configuration
 169:Core/Src/tim.c ****     PB12     ------> TIM1_BKIN
 170:Core/Src/tim.c ****     */
 171:Core/Src/tim.c ****     GPIO_InitStruct.Pin = GPIO_PIN_12;
 172:Core/Src/tim.c ****     GPIO_InitStruct.Mode = GPIO_MODE_AF_PP;
 173:Core/Src/tim.c ****     GPIO_InitStruct.Pull = GPIO_NOPULL;
 174:Core/Src/tim.c ****     GPIO_InitStruct.Speed = GPIO_SPEED_FREQ_LOW;
 175:Core/Src/tim.c ****     GPIO_InitStruct.Alternate = GPIO_AF1_TIM1;
 176:Core/Src/tim.c ****     HAL_GPIO_Init(GPIOB, &GPIO_InitStruct);
 177:Core/Src/tim.c **** 
 178:Core/Src/tim.c ****     /* TIM1 interrupt Init */
 179:Core/Src/tim.c ****     HAL_NVIC_SetPriority(TIM1_BRK_TIM9_IRQn, 0, 0);
 180:Core/Src/tim.c ****     HAL_NVIC_EnableIRQ(TIM1_BRK_TIM9_IRQn);
 181:Core/Src/tim.c ****     HAL_NVIC_SetPriority(TIM1_UP_TIM10_IRQn, 0, 0);
 182:Core/Src/tim.c ****     HAL_NVIC_EnableIRQ(TIM1_UP_TIM10_IRQn);
 183:Core/Src/tim.c ****     HAL_NVIC_SetPriority(TIM1_CC_IRQn, 0, 0);
 184:Core/Src/tim.c ****     HAL_NVIC_EnableIRQ(TIM1_CC_IRQn);
 185:Core/Src/tim.c ****   /* USER CODE BEGIN TIM1_MspInit 1 */
 186:Core/Src/tim.c **** 
 187:Core/Src/tim.c ****   /* USER CODE END TIM1_MspInit 1 */
 188:Core/Src/tim.c ****   }
 189:Core/Src/tim.c ****   else if(tim_baseHandle->Instance==TIM3)
 176              		.loc 1 189 8 is_stmt 1 view .LVU44
 177              		.loc 1 189 10 is_stmt 0 view .LVU45
 178 0018 3E4A     		ldr	r2, .L17+4
 179 001a 9342     		cmp	r3, r2
 180 001c 3BD0     		beq	.L16
 181              	.LVL7:
 182              	.L11:
 190:Core/Src/tim.c ****   {
 191:Core/Src/tim.c ****   /* USER CODE BEGIN TIM3_MspInit 0 */
 192:Core/Src/tim.c **** 
 193:Core/Src/tim.c ****   /* USER CODE END TIM3_MspInit 0 */
 194:Core/Src/tim.c ****     /* TIM3 clock enable */
 195:Core/Src/tim.c ****     __HAL_RCC_TIM3_CLK_ENABLE();
 196:Core/Src/tim.c **** 
 197:Core/Src/tim.c ****     __HAL_RCC_GPIOA_CLK_ENABLE();
 198:Core/Src/tim.c ****     __HAL_RCC_GPIOB_CLK_ENABLE();
 199:Core/Src/tim.c ****     /**TIM3 GPIO Configuration
 200:Core/Src/tim.c ****     PA6     ------> TIM3_CH1
 201:Core/Src/tim.c ****     PA7     ------> TIM3_CH2
 202:Core/Src/tim.c ****     PB0     ------> TIM3_CH3
 203:Core/Src/tim.c ****     */
 204:Core/Src/tim.c ****     GPIO_InitStruct.Pin = GPIO_PIN_6|GPIO_PIN_7;
 205:Core/Src/tim.c ****     GPIO_InitStruct.Mode = GPIO_MODE_AF_PP;
 206:Core/Src/tim.c ****     GPIO_InitStruct.Pull = GPIO_NOPULL;
 207:Core/Src/tim.c ****     GPIO_InitStruct.Speed = GPIO_SPEED_FREQ_LOW;
 208:Core/Src/tim.c ****     GPIO_InitStruct.Alternate = GPIO_AF2_TIM3;
 209:Core/Src/tim.c ****     HAL_GPIO_Init(GPIOA, &GPIO_InitStruct);
 210:Core/Src/tim.c **** 
 211:Core/Src/tim.c ****     GPIO_InitStruct.Pin = GPIO_PIN_0;
 212:Core/Src/tim.c ****     GPIO_InitStruct.Mode = GPIO_MODE_AF_PP;
 213:Core/Src/tim.c ****     GPIO_InitStruct.Pull = GPIO_NOPULL;
 214:Core/Src/tim.c ****     GPIO_InitStruct.Speed = GPIO_SPEED_FREQ_LOW;
 215:Core/Src/tim.c ****     GPIO_InitStruct.Alternate = GPIO_AF2_TIM3;
 216:Core/Src/tim.c ****     HAL_GPIO_Init(GPIOB, &GPIO_InitStruct);
 217:Core/Src/tim.c **** 
ARM GAS  C:\Users\Rick\AppData\Local\Temp\cc3o1u0R.s 			page 8


 218:Core/Src/tim.c ****     /* TIM3 interrupt Init */
 219:Core/Src/tim.c ****     HAL_NVIC_SetPriority(TIM3_IRQn, 0, 0);
 220:Core/Src/tim.c ****     HAL_NVIC_EnableIRQ(TIM3_IRQn);
 221:Core/Src/tim.c ****   /* USER CODE BEGIN TIM3_MspInit 1 */
 222:Core/Src/tim.c **** 
 223:Core/Src/tim.c ****   /* USER CODE END TIM3_MspInit 1 */
 224:Core/Src/tim.c ****   }
 225:Core/Src/tim.c **** }
 183              		.loc 1 225 1 view .LVU46
 184 001e 0AB0     		add	sp, sp, #40
 185              		.cfi_remember_state
 186              		.cfi_def_cfa_offset 16
 187              		@ sp needed
 188 0020 70BD     		pop	{r4, r5, r6, pc}
 189              	.LVL8:
 190              	.L15:
 191              		.cfi_restore_state
 165:Core/Src/tim.c **** 
 192              		.loc 1 165 5 is_stmt 1 view .LVU47
 193              	.LBB2:
 165:Core/Src/tim.c **** 
 194              		.loc 1 165 5 view .LVU48
 195 0022 0024     		movs	r4, #0
 196 0024 0094     		str	r4, [sp]
 165:Core/Src/tim.c **** 
 197              		.loc 1 165 5 view .LVU49
 198 0026 3C4B     		ldr	r3, .L17+8
 199 0028 5A6C     		ldr	r2, [r3, #68]
 200 002a 42F00102 		orr	r2, r2, #1
 201 002e 5A64     		str	r2, [r3, #68]
 165:Core/Src/tim.c **** 
 202              		.loc 1 165 5 view .LVU50
 203 0030 5A6C     		ldr	r2, [r3, #68]
 204 0032 02F00102 		and	r2, r2, #1
 205 0036 0092     		str	r2, [sp]
 165:Core/Src/tim.c **** 
 206              		.loc 1 165 5 view .LVU51
 207 0038 009A     		ldr	r2, [sp]
 208              	.LBE2:
 165:Core/Src/tim.c **** 
 209              		.loc 1 165 5 view .LVU52
 167:Core/Src/tim.c ****     /**TIM1 GPIO Configuration
 210              		.loc 1 167 5 view .LVU53
 211              	.LBB3:
 167:Core/Src/tim.c ****     /**TIM1 GPIO Configuration
 212              		.loc 1 167 5 view .LVU54
 213 003a 0194     		str	r4, [sp, #4]
 167:Core/Src/tim.c ****     /**TIM1 GPIO Configuration
 214              		.loc 1 167 5 view .LVU55
 215 003c 1A6B     		ldr	r2, [r3, #48]
 216 003e 42F00202 		orr	r2, r2, #2
 217 0042 1A63     		str	r2, [r3, #48]
 167:Core/Src/tim.c ****     /**TIM1 GPIO Configuration
 218              		.loc 1 167 5 view .LVU56
 219 0044 1B6B     		ldr	r3, [r3, #48]
 220 0046 03F00203 		and	r3, r3, #2
 221 004a 0193     		str	r3, [sp, #4]
ARM GAS  C:\Users\Rick\AppData\Local\Temp\cc3o1u0R.s 			page 9


 167:Core/Src/tim.c ****     /**TIM1 GPIO Configuration
 222              		.loc 1 167 5 view .LVU57
 223 004c 019B     		ldr	r3, [sp, #4]
 224              	.LBE3:
 167:Core/Src/tim.c ****     /**TIM1 GPIO Configuration
 225              		.loc 1 167 5 view .LVU58
 171:Core/Src/tim.c ****     GPIO_InitStruct.Mode = GPIO_MODE_AF_PP;
 226              		.loc 1 171 5 view .LVU59
 171:Core/Src/tim.c ****     GPIO_InitStruct.Mode = GPIO_MODE_AF_PP;
 227              		.loc 1 171 25 is_stmt 0 view .LVU60
 228 004e 4FF48053 		mov	r3, #4096
 229 0052 0593     		str	r3, [sp, #20]
 172:Core/Src/tim.c ****     GPIO_InitStruct.Pull = GPIO_NOPULL;
 230              		.loc 1 172 5 is_stmt 1 view .LVU61
 172:Core/Src/tim.c ****     GPIO_InitStruct.Pull = GPIO_NOPULL;
 231              		.loc 1 172 26 is_stmt 0 view .LVU62
 232 0054 0223     		movs	r3, #2
 233 0056 0693     		str	r3, [sp, #24]
 173:Core/Src/tim.c ****     GPIO_InitStruct.Speed = GPIO_SPEED_FREQ_LOW;
 234              		.loc 1 173 5 is_stmt 1 view .LVU63
 174:Core/Src/tim.c ****     GPIO_InitStruct.Alternate = GPIO_AF1_TIM1;
 235              		.loc 1 174 5 view .LVU64
 175:Core/Src/tim.c ****     HAL_GPIO_Init(GPIOB, &GPIO_InitStruct);
 236              		.loc 1 175 5 view .LVU65
 175:Core/Src/tim.c ****     HAL_GPIO_Init(GPIOB, &GPIO_InitStruct);
 237              		.loc 1 175 31 is_stmt 0 view .LVU66
 238 0058 0123     		movs	r3, #1
 239 005a 0993     		str	r3, [sp, #36]
 176:Core/Src/tim.c **** 
 240              		.loc 1 176 5 is_stmt 1 view .LVU67
 241 005c 05A9     		add	r1, sp, #20
 242 005e 2F48     		ldr	r0, .L17+12
 243              	.LVL9:
 176:Core/Src/tim.c **** 
 244              		.loc 1 176 5 is_stmt 0 view .LVU68
 245 0060 FFF7FEFF 		bl	HAL_GPIO_Init
 246              	.LVL10:
 179:Core/Src/tim.c ****     HAL_NVIC_EnableIRQ(TIM1_BRK_TIM9_IRQn);
 247              		.loc 1 179 5 is_stmt 1 view .LVU69
 248 0064 2246     		mov	r2, r4
 249 0066 2146     		mov	r1, r4
 250 0068 1820     		movs	r0, #24
 251 006a FFF7FEFF 		bl	HAL_NVIC_SetPriority
 252              	.LVL11:
 180:Core/Src/tim.c ****     HAL_NVIC_SetPriority(TIM1_UP_TIM10_IRQn, 0, 0);
 253              		.loc 1 180 5 view .LVU70
 254 006e 1820     		movs	r0, #24
 255 0070 FFF7FEFF 		bl	HAL_NVIC_EnableIRQ
 256              	.LVL12:
 181:Core/Src/tim.c ****     HAL_NVIC_EnableIRQ(TIM1_UP_TIM10_IRQn);
 257              		.loc 1 181 5 view .LVU71
 258 0074 2246     		mov	r2, r4
 259 0076 2146     		mov	r1, r4
 260 0078 1920     		movs	r0, #25
 261 007a FFF7FEFF 		bl	HAL_NVIC_SetPriority
 262              	.LVL13:
 182:Core/Src/tim.c ****     HAL_NVIC_SetPriority(TIM1_CC_IRQn, 0, 0);
ARM GAS  C:\Users\Rick\AppData\Local\Temp\cc3o1u0R.s 			page 10


 263              		.loc 1 182 5 view .LVU72
 264 007e 1920     		movs	r0, #25
 265 0080 FFF7FEFF 		bl	HAL_NVIC_EnableIRQ
 266              	.LVL14:
 183:Core/Src/tim.c ****     HAL_NVIC_EnableIRQ(TIM1_CC_IRQn);
 267              		.loc 1 183 5 view .LVU73
 268 0084 2246     		mov	r2, r4
 269 0086 2146     		mov	r1, r4
 270 0088 1B20     		movs	r0, #27
 271 008a FFF7FEFF 		bl	HAL_NVIC_SetPriority
 272              	.LVL15:
 184:Core/Src/tim.c ****   /* USER CODE BEGIN TIM1_MspInit 1 */
 273              		.loc 1 184 5 view .LVU74
 274 008e 1B20     		movs	r0, #27
 275 0090 FFF7FEFF 		bl	HAL_NVIC_EnableIRQ
 276              	.LVL16:
 277 0094 C3E7     		b	.L11
 278              	.LVL17:
 279              	.L16:
 195:Core/Src/tim.c **** 
 280              		.loc 1 195 5 view .LVU75
 281              	.LBB4:
 195:Core/Src/tim.c **** 
 282              		.loc 1 195 5 view .LVU76
 283 0096 0024     		movs	r4, #0
 284 0098 0294     		str	r4, [sp, #8]
 195:Core/Src/tim.c **** 
 285              		.loc 1 195 5 view .LVU77
 286 009a 1F4B     		ldr	r3, .L17+8
 287 009c 1A6C     		ldr	r2, [r3, #64]
 288 009e 42F00202 		orr	r2, r2, #2
 289 00a2 1A64     		str	r2, [r3, #64]
 195:Core/Src/tim.c **** 
 290              		.loc 1 195 5 view .LVU78
 291 00a4 1A6C     		ldr	r2, [r3, #64]
 292 00a6 02F00202 		and	r2, r2, #2
 293 00aa 0292     		str	r2, [sp, #8]
 195:Core/Src/tim.c **** 
 294              		.loc 1 195 5 view .LVU79
 295 00ac 029A     		ldr	r2, [sp, #8]
 296              	.LBE4:
 195:Core/Src/tim.c **** 
 297              		.loc 1 195 5 view .LVU80
 197:Core/Src/tim.c ****     __HAL_RCC_GPIOB_CLK_ENABLE();
 298              		.loc 1 197 5 view .LVU81
 299              	.LBB5:
 197:Core/Src/tim.c ****     __HAL_RCC_GPIOB_CLK_ENABLE();
 300              		.loc 1 197 5 view .LVU82
 301 00ae 0394     		str	r4, [sp, #12]
 197:Core/Src/tim.c ****     __HAL_RCC_GPIOB_CLK_ENABLE();
 302              		.loc 1 197 5 view .LVU83
 303 00b0 1A6B     		ldr	r2, [r3, #48]
 304 00b2 42F00102 		orr	r2, r2, #1
 305 00b6 1A63     		str	r2, [r3, #48]
 197:Core/Src/tim.c ****     __HAL_RCC_GPIOB_CLK_ENABLE();
 306              		.loc 1 197 5 view .LVU84
 307 00b8 1A6B     		ldr	r2, [r3, #48]
ARM GAS  C:\Users\Rick\AppData\Local\Temp\cc3o1u0R.s 			page 11


 308 00ba 02F00102 		and	r2, r2, #1
 309 00be 0392     		str	r2, [sp, #12]
 197:Core/Src/tim.c ****     __HAL_RCC_GPIOB_CLK_ENABLE();
 310              		.loc 1 197 5 view .LVU85
 311 00c0 039A     		ldr	r2, [sp, #12]
 312              	.LBE5:
 197:Core/Src/tim.c ****     __HAL_RCC_GPIOB_CLK_ENABLE();
 313              		.loc 1 197 5 view .LVU86
 198:Core/Src/tim.c ****     /**TIM3 GPIO Configuration
 314              		.loc 1 198 5 view .LVU87
 315              	.LBB6:
 198:Core/Src/tim.c ****     /**TIM3 GPIO Configuration
 316              		.loc 1 198 5 view .LVU88
 317 00c2 0494     		str	r4, [sp, #16]
 198:Core/Src/tim.c ****     /**TIM3 GPIO Configuration
 318              		.loc 1 198 5 view .LVU89
 319 00c4 1A6B     		ldr	r2, [r3, #48]
 320 00c6 42F00202 		orr	r2, r2, #2
 321 00ca 1A63     		str	r2, [r3, #48]
 198:Core/Src/tim.c ****     /**TIM3 GPIO Configuration
 322              		.loc 1 198 5 view .LVU90
 323 00cc 1B6B     		ldr	r3, [r3, #48]
 324 00ce 03F00203 		and	r3, r3, #2
 325 00d2 0493     		str	r3, [sp, #16]
 198:Core/Src/tim.c ****     /**TIM3 GPIO Configuration
 326              		.loc 1 198 5 view .LVU91
 327 00d4 049B     		ldr	r3, [sp, #16]
 328              	.LBE6:
 198:Core/Src/tim.c ****     /**TIM3 GPIO Configuration
 329              		.loc 1 198 5 view .LVU92
 204:Core/Src/tim.c ****     GPIO_InitStruct.Mode = GPIO_MODE_AF_PP;
 330              		.loc 1 204 5 view .LVU93
 204:Core/Src/tim.c ****     GPIO_InitStruct.Mode = GPIO_MODE_AF_PP;
 331              		.loc 1 204 25 is_stmt 0 view .LVU94
 332 00d6 C023     		movs	r3, #192
 333 00d8 0593     		str	r3, [sp, #20]
 205:Core/Src/tim.c ****     GPIO_InitStruct.Pull = GPIO_NOPULL;
 334              		.loc 1 205 5 is_stmt 1 view .LVU95
 205:Core/Src/tim.c ****     GPIO_InitStruct.Pull = GPIO_NOPULL;
 335              		.loc 1 205 26 is_stmt 0 view .LVU96
 336 00da 0225     		movs	r5, #2
 337 00dc 0695     		str	r5, [sp, #24]
 206:Core/Src/tim.c ****     GPIO_InitStruct.Speed = GPIO_SPEED_FREQ_LOW;
 338              		.loc 1 206 5 is_stmt 1 view .LVU97
 207:Core/Src/tim.c ****     GPIO_InitStruct.Alternate = GPIO_AF2_TIM3;
 339              		.loc 1 207 5 view .LVU98
 208:Core/Src/tim.c ****     HAL_GPIO_Init(GPIOA, &GPIO_InitStruct);
 340              		.loc 1 208 5 view .LVU99
 208:Core/Src/tim.c ****     HAL_GPIO_Init(GPIOA, &GPIO_InitStruct);
 341              		.loc 1 208 31 is_stmt 0 view .LVU100
 342 00de 0995     		str	r5, [sp, #36]
 209:Core/Src/tim.c **** 
 343              		.loc 1 209 5 is_stmt 1 view .LVU101
 344 00e0 05AE     		add	r6, sp, #20
 345 00e2 3146     		mov	r1, r6
 346 00e4 0E48     		ldr	r0, .L17+16
 347              	.LVL18:
ARM GAS  C:\Users\Rick\AppData\Local\Temp\cc3o1u0R.s 			page 12


 209:Core/Src/tim.c **** 
 348              		.loc 1 209 5 is_stmt 0 view .LVU102
 349 00e6 FFF7FEFF 		bl	HAL_GPIO_Init
 350              	.LVL19:
 211:Core/Src/tim.c ****     GPIO_InitStruct.Mode = GPIO_MODE_AF_PP;
 351              		.loc 1 211 5 is_stmt 1 view .LVU103
 211:Core/Src/tim.c ****     GPIO_InitStruct.Mode = GPIO_MODE_AF_PP;
 352              		.loc 1 211 25 is_stmt 0 view .LVU104
 353 00ea 0123     		movs	r3, #1
 354 00ec 0593     		str	r3, [sp, #20]
 212:Core/Src/tim.c ****     GPIO_InitStruct.Pull = GPIO_NOPULL;
 355              		.loc 1 212 5 is_stmt 1 view .LVU105
 212:Core/Src/tim.c ****     GPIO_InitStruct.Pull = GPIO_NOPULL;
 356              		.loc 1 212 26 is_stmt 0 view .LVU106
 357 00ee 0695     		str	r5, [sp, #24]
 213:Core/Src/tim.c ****     GPIO_InitStruct.Speed = GPIO_SPEED_FREQ_LOW;
 358              		.loc 1 213 5 is_stmt 1 view .LVU107
 213:Core/Src/tim.c ****     GPIO_InitStruct.Speed = GPIO_SPEED_FREQ_LOW;
 359              		.loc 1 213 26 is_stmt 0 view .LVU108
 360 00f0 0794     		str	r4, [sp, #28]
 214:Core/Src/tim.c ****     GPIO_InitStruct.Alternate = GPIO_AF2_TIM3;
 361              		.loc 1 214 5 is_stmt 1 view .LVU109
 214:Core/Src/tim.c ****     GPIO_InitStruct.Alternate = GPIO_AF2_TIM3;
 362              		.loc 1 214 27 is_stmt 0 view .LVU110
 363 00f2 0894     		str	r4, [sp, #32]
 215:Core/Src/tim.c ****     HAL_GPIO_Init(GPIOB, &GPIO_InitStruct);
 364              		.loc 1 215 5 is_stmt 1 view .LVU111
 215:Core/Src/tim.c ****     HAL_GPIO_Init(GPIOB, &GPIO_InitStruct);
 365              		.loc 1 215 31 is_stmt 0 view .LVU112
 366 00f4 0995     		str	r5, [sp, #36]
 216:Core/Src/tim.c **** 
 367              		.loc 1 216 5 is_stmt 1 view .LVU113
 368 00f6 3146     		mov	r1, r6
 369 00f8 0848     		ldr	r0, .L17+12
 370 00fa FFF7FEFF 		bl	HAL_GPIO_Init
 371              	.LVL20:
 219:Core/Src/tim.c ****     HAL_NVIC_EnableIRQ(TIM3_IRQn);
 372              		.loc 1 219 5 view .LVU114
 373 00fe 2246     		mov	r2, r4
 374 0100 2146     		mov	r1, r4
 375 0102 1D20     		movs	r0, #29
 376 0104 FFF7FEFF 		bl	HAL_NVIC_SetPriority
 377              	.LVL21:
 220:Core/Src/tim.c ****   /* USER CODE BEGIN TIM3_MspInit 1 */
 378              		.loc 1 220 5 view .LVU115
 379 0108 1D20     		movs	r0, #29
 380 010a FFF7FEFF 		bl	HAL_NVIC_EnableIRQ
 381              	.LVL22:
 382              		.loc 1 225 1 is_stmt 0 view .LVU116
 383 010e 86E7     		b	.L11
 384              	.L18:
 385              		.align	2
 386              	.L17:
 387 0110 00000140 		.word	1073807360
 388 0114 00040040 		.word	1073742848
 389 0118 00380240 		.word	1073887232
 390 011c 00040240 		.word	1073873920
ARM GAS  C:\Users\Rick\AppData\Local\Temp\cc3o1u0R.s 			page 13


 391 0120 00000240 		.word	1073872896
 392              		.cfi_endproc
 393              	.LFE241:
 395              		.section	.text.HAL_TIM_MspPostInit,"ax",%progbits
 396              		.align	1
 397              		.global	HAL_TIM_MspPostInit
 398              		.syntax unified
 399              		.thumb
 400              		.thumb_func
 402              	HAL_TIM_MspPostInit:
 403              	.LVL23:
 404              	.LFB242:
 226:Core/Src/tim.c **** void HAL_TIM_MspPostInit(TIM_HandleTypeDef* timHandle)
 227:Core/Src/tim.c **** {
 405              		.loc 1 227 1 is_stmt 1 view -0
 406              		.cfi_startproc
 407              		@ args = 0, pretend = 0, frame = 24
 408              		@ frame_needed = 0, uses_anonymous_args = 0
 409              		.loc 1 227 1 is_stmt 0 view .LVU118
 410 0000 00B5     		push	{lr}
 411              		.cfi_def_cfa_offset 4
 412              		.cfi_offset 14, -4
 413 0002 87B0     		sub	sp, sp, #28
 414              		.cfi_def_cfa_offset 32
 228:Core/Src/tim.c **** 
 229:Core/Src/tim.c ****   GPIO_InitTypeDef GPIO_InitStruct = {0};
 415              		.loc 1 229 3 is_stmt 1 view .LVU119
 416              		.loc 1 229 20 is_stmt 0 view .LVU120
 417 0004 0023     		movs	r3, #0
 418 0006 0193     		str	r3, [sp, #4]
 419 0008 0293     		str	r3, [sp, #8]
 420 000a 0393     		str	r3, [sp, #12]
 421 000c 0493     		str	r3, [sp, #16]
 422 000e 0593     		str	r3, [sp, #20]
 230:Core/Src/tim.c ****   if(timHandle->Instance==TIM1)
 423              		.loc 1 230 3 is_stmt 1 view .LVU121
 424              		.loc 1 230 15 is_stmt 0 view .LVU122
 425 0010 0268     		ldr	r2, [r0]
 426              		.loc 1 230 5 view .LVU123
 427 0012 0F4B     		ldr	r3, .L23
 428 0014 9A42     		cmp	r2, r3
 429 0016 02D0     		beq	.L22
 430              	.LVL24:
 431              	.L19:
 231:Core/Src/tim.c ****   {
 232:Core/Src/tim.c ****   /* USER CODE BEGIN TIM1_MspPostInit 0 */
 233:Core/Src/tim.c **** 
 234:Core/Src/tim.c ****   /* USER CODE END TIM1_MspPostInit 0 */
 235:Core/Src/tim.c **** 
 236:Core/Src/tim.c ****     __HAL_RCC_GPIOA_CLK_ENABLE();
 237:Core/Src/tim.c ****     /**TIM1 GPIO Configuration
 238:Core/Src/tim.c ****     PA8     ------> TIM1_CH1
 239:Core/Src/tim.c ****     PA9     ------> TIM1_CH2
 240:Core/Src/tim.c ****     PA10     ------> TIM1_CH3
 241:Core/Src/tim.c ****     */
 242:Core/Src/tim.c ****     GPIO_InitStruct.Pin = GPIO_PIN_8|GPIO_PIN_9|GPIO_PIN_10;
 243:Core/Src/tim.c ****     GPIO_InitStruct.Mode = GPIO_MODE_AF_PP;
ARM GAS  C:\Users\Rick\AppData\Local\Temp\cc3o1u0R.s 			page 14


 244:Core/Src/tim.c ****     GPIO_InitStruct.Pull = GPIO_NOPULL;
 245:Core/Src/tim.c ****     GPIO_InitStruct.Speed = GPIO_SPEED_FREQ_LOW;
 246:Core/Src/tim.c ****     GPIO_InitStruct.Alternate = GPIO_AF1_TIM1;
 247:Core/Src/tim.c ****     HAL_GPIO_Init(GPIOA, &GPIO_InitStruct);
 248:Core/Src/tim.c **** 
 249:Core/Src/tim.c ****   /* USER CODE BEGIN TIM1_MspPostInit 1 */
 250:Core/Src/tim.c **** 
 251:Core/Src/tim.c ****   /* USER CODE END TIM1_MspPostInit 1 */
 252:Core/Src/tim.c ****   }
 253:Core/Src/tim.c **** 
 254:Core/Src/tim.c **** }
 432              		.loc 1 254 1 view .LVU124
 433 0018 07B0     		add	sp, sp, #28
 434              		.cfi_remember_state
 435              		.cfi_def_cfa_offset 4
 436              		@ sp needed
 437 001a 5DF804FB 		ldr	pc, [sp], #4
 438              	.LVL25:
 439              	.L22:
 440              		.cfi_restore_state
 236:Core/Src/tim.c ****     /**TIM1 GPIO Configuration
 441              		.loc 1 236 5 is_stmt 1 view .LVU125
 442              	.LBB7:
 236:Core/Src/tim.c ****     /**TIM1 GPIO Configuration
 443              		.loc 1 236 5 view .LVU126
 444 001e 0023     		movs	r3, #0
 445 0020 0093     		str	r3, [sp]
 236:Core/Src/tim.c ****     /**TIM1 GPIO Configuration
 446              		.loc 1 236 5 view .LVU127
 447 0022 0C4B     		ldr	r3, .L23+4
 448 0024 1A6B     		ldr	r2, [r3, #48]
 449 0026 42F00102 		orr	r2, r2, #1
 450 002a 1A63     		str	r2, [r3, #48]
 236:Core/Src/tim.c ****     /**TIM1 GPIO Configuration
 451              		.loc 1 236 5 view .LVU128
 452 002c 1B6B     		ldr	r3, [r3, #48]
 453 002e 03F00103 		and	r3, r3, #1
 454 0032 0093     		str	r3, [sp]
 236:Core/Src/tim.c ****     /**TIM1 GPIO Configuration
 455              		.loc 1 236 5 view .LVU129
 456 0034 009B     		ldr	r3, [sp]
 457              	.LBE7:
 236:Core/Src/tim.c ****     /**TIM1 GPIO Configuration
 458              		.loc 1 236 5 view .LVU130
 242:Core/Src/tim.c ****     GPIO_InitStruct.Mode = GPIO_MODE_AF_PP;
 459              		.loc 1 242 5 view .LVU131
 242:Core/Src/tim.c ****     GPIO_InitStruct.Mode = GPIO_MODE_AF_PP;
 460              		.loc 1 242 25 is_stmt 0 view .LVU132
 461 0036 4FF4E063 		mov	r3, #1792
 462 003a 0193     		str	r3, [sp, #4]
 243:Core/Src/tim.c ****     GPIO_InitStruct.Pull = GPIO_NOPULL;
 463              		.loc 1 243 5 is_stmt 1 view .LVU133
 243:Core/Src/tim.c ****     GPIO_InitStruct.Pull = GPIO_NOPULL;
 464              		.loc 1 243 26 is_stmt 0 view .LVU134
 465 003c 0223     		movs	r3, #2
 466 003e 0293     		str	r3, [sp, #8]
 244:Core/Src/tim.c ****     GPIO_InitStruct.Speed = GPIO_SPEED_FREQ_LOW;
ARM GAS  C:\Users\Rick\AppData\Local\Temp\cc3o1u0R.s 			page 15


 467              		.loc 1 244 5 is_stmt 1 view .LVU135
 245:Core/Src/tim.c ****     GPIO_InitStruct.Alternate = GPIO_AF1_TIM1;
 468              		.loc 1 245 5 view .LVU136
 246:Core/Src/tim.c ****     HAL_GPIO_Init(GPIOA, &GPIO_InitStruct);
 469              		.loc 1 246 5 view .LVU137
 246:Core/Src/tim.c ****     HAL_GPIO_Init(GPIOA, &GPIO_InitStruct);
 470              		.loc 1 246 31 is_stmt 0 view .LVU138
 471 0040 0123     		movs	r3, #1
 472 0042 0593     		str	r3, [sp, #20]
 247:Core/Src/tim.c **** 
 473              		.loc 1 247 5 is_stmt 1 view .LVU139
 474 0044 01A9     		add	r1, sp, #4
 475 0046 0448     		ldr	r0, .L23+8
 476              	.LVL26:
 247:Core/Src/tim.c **** 
 477              		.loc 1 247 5 is_stmt 0 view .LVU140
 478 0048 FFF7FEFF 		bl	HAL_GPIO_Init
 479              	.LVL27:
 480              		.loc 1 254 1 view .LVU141
 481 004c E4E7     		b	.L19
 482              	.L24:
 483 004e 00BF     		.align	2
 484              	.L23:
 485 0050 00000140 		.word	1073807360
 486 0054 00380240 		.word	1073887232
 487 0058 00000240 		.word	1073872896
 488              		.cfi_endproc
 489              	.LFE242:
 491              		.section	.text.MX_TIM1_Init,"ax",%progbits
 492              		.align	1
 493              		.global	MX_TIM1_Init
 494              		.syntax unified
 495              		.thumb
 496              		.thumb_func
 498              	MX_TIM1_Init:
 499              	.LFB239:
  32:Core/Src/tim.c **** 
 500              		.loc 1 32 1 is_stmt 1 view -0
 501              		.cfi_startproc
 502              		@ args = 0, pretend = 0, frame = 88
 503              		@ frame_needed = 0, uses_anonymous_args = 0
 504 0000 30B5     		push	{r4, r5, lr}
 505              		.cfi_def_cfa_offset 12
 506              		.cfi_offset 4, -12
 507              		.cfi_offset 5, -8
 508              		.cfi_offset 14, -4
 509 0002 97B0     		sub	sp, sp, #92
 510              		.cfi_def_cfa_offset 104
  38:Core/Src/tim.c ****   TIM_MasterConfigTypeDef sMasterConfig = {0};
 511              		.loc 1 38 3 view .LVU143
  38:Core/Src/tim.c ****   TIM_MasterConfigTypeDef sMasterConfig = {0};
 512              		.loc 1 38 26 is_stmt 0 view .LVU144
 513 0004 0024     		movs	r4, #0
 514 0006 1294     		str	r4, [sp, #72]
 515 0008 1394     		str	r4, [sp, #76]
 516 000a 1494     		str	r4, [sp, #80]
 517 000c 1594     		str	r4, [sp, #84]
ARM GAS  C:\Users\Rick\AppData\Local\Temp\cc3o1u0R.s 			page 16


  39:Core/Src/tim.c ****   TIM_OC_InitTypeDef sConfigOC = {0};
 518              		.loc 1 39 3 is_stmt 1 view .LVU145
  39:Core/Src/tim.c ****   TIM_OC_InitTypeDef sConfigOC = {0};
 519              		.loc 1 39 27 is_stmt 0 view .LVU146
 520 000e 1094     		str	r4, [sp, #64]
 521 0010 1194     		str	r4, [sp, #68]
  40:Core/Src/tim.c ****   TIM_BreakDeadTimeConfigTypeDef sBreakDeadTimeConfig = {0};
 522              		.loc 1 40 3 is_stmt 1 view .LVU147
  40:Core/Src/tim.c ****   TIM_BreakDeadTimeConfigTypeDef sBreakDeadTimeConfig = {0};
 523              		.loc 1 40 22 is_stmt 0 view .LVU148
 524 0012 0994     		str	r4, [sp, #36]
 525 0014 0A94     		str	r4, [sp, #40]
 526 0016 0B94     		str	r4, [sp, #44]
 527 0018 0C94     		str	r4, [sp, #48]
 528 001a 0D94     		str	r4, [sp, #52]
 529 001c 0E94     		str	r4, [sp, #56]
 530 001e 0F94     		str	r4, [sp, #60]
  41:Core/Src/tim.c **** 
 531              		.loc 1 41 3 is_stmt 1 view .LVU149
  41:Core/Src/tim.c **** 
 532              		.loc 1 41 34 is_stmt 0 view .LVU150
 533 0020 2025     		movs	r5, #32
 534 0022 2A46     		mov	r2, r5
 535 0024 2146     		mov	r1, r4
 536 0026 01A8     		add	r0, sp, #4
 537 0028 FFF7FEFF 		bl	memset
 538              	.LVL28:
  46:Core/Src/tim.c ****   htim1.Init.Prescaler = 1-1;
 539              		.loc 1 46 3 is_stmt 1 view .LVU151
  46:Core/Src/tim.c ****   htim1.Init.Prescaler = 1-1;
 540              		.loc 1 46 18 is_stmt 0 view .LVU152
 541 002c 4048     		ldr	r0, .L45
 542 002e 414B     		ldr	r3, .L45+4
 543 0030 0360     		str	r3, [r0]
  47:Core/Src/tim.c ****   htim1.Init.CounterMode = TIM_COUNTERMODE_CENTERALIGNED1;
 544              		.loc 1 47 3 is_stmt 1 view .LVU153
  47:Core/Src/tim.c ****   htim1.Init.CounterMode = TIM_COUNTERMODE_CENTERALIGNED1;
 545              		.loc 1 47 24 is_stmt 0 view .LVU154
 546 0032 4460     		str	r4, [r0, #4]
  48:Core/Src/tim.c ****   htim1.Init.Period = 16000-1;
 547              		.loc 1 48 3 is_stmt 1 view .LVU155
  48:Core/Src/tim.c ****   htim1.Init.Period = 16000-1;
 548              		.loc 1 48 26 is_stmt 0 view .LVU156
 549 0034 8560     		str	r5, [r0, #8]
  49:Core/Src/tim.c ****   htim1.Init.ClockDivision = TIM_CLOCKDIVISION_DIV2;
 550              		.loc 1 49 3 is_stmt 1 view .LVU157
  49:Core/Src/tim.c ****   htim1.Init.ClockDivision = TIM_CLOCKDIVISION_DIV2;
 551              		.loc 1 49 21 is_stmt 0 view .LVU158
 552 0036 43F67F63 		movw	r3, #15999
 553 003a C360     		str	r3, [r0, #12]
  50:Core/Src/tim.c ****   htim1.Init.RepetitionCounter = 1;
 554              		.loc 1 50 3 is_stmt 1 view .LVU159
  50:Core/Src/tim.c ****   htim1.Init.RepetitionCounter = 1;
 555              		.loc 1 50 28 is_stmt 0 view .LVU160
 556 003c 4FF48073 		mov	r3, #256
 557 0040 0361     		str	r3, [r0, #16]
  51:Core/Src/tim.c ****   htim1.Init.AutoReloadPreload = TIM_AUTORELOAD_PRELOAD_DISABLE;
ARM GAS  C:\Users\Rick\AppData\Local\Temp\cc3o1u0R.s 			page 17


 558              		.loc 1 51 3 is_stmt 1 view .LVU161
  51:Core/Src/tim.c ****   htim1.Init.AutoReloadPreload = TIM_AUTORELOAD_PRELOAD_DISABLE;
 559              		.loc 1 51 32 is_stmt 0 view .LVU162
 560 0042 0123     		movs	r3, #1
 561 0044 4361     		str	r3, [r0, #20]
  52:Core/Src/tim.c ****   if (HAL_TIM_Base_Init(&htim1) != HAL_OK)
 562              		.loc 1 52 3 is_stmt 1 view .LVU163
  52:Core/Src/tim.c ****   if (HAL_TIM_Base_Init(&htim1) != HAL_OK)
 563              		.loc 1 52 32 is_stmt 0 view .LVU164
 564 0046 8461     		str	r4, [r0, #24]
  53:Core/Src/tim.c ****   {
 565              		.loc 1 53 3 is_stmt 1 view .LVU165
  53:Core/Src/tim.c ****   {
 566              		.loc 1 53 7 is_stmt 0 view .LVU166
 567 0048 FFF7FEFF 		bl	HAL_TIM_Base_Init
 568              	.LVL29:
  53:Core/Src/tim.c ****   {
 569              		.loc 1 53 6 discriminator 1 view .LVU167
 570 004c 0028     		cmp	r0, #0
 571 004e 54D1     		bne	.L36
 572              	.L26:
  57:Core/Src/tim.c ****   if (HAL_TIM_ConfigClockSource(&htim1, &sClockSourceConfig) != HAL_OK)
 573              		.loc 1 57 3 is_stmt 1 view .LVU168
  57:Core/Src/tim.c ****   if (HAL_TIM_ConfigClockSource(&htim1, &sClockSourceConfig) != HAL_OK)
 574              		.loc 1 57 34 is_stmt 0 view .LVU169
 575 0050 4FF48053 		mov	r3, #4096
 576 0054 1293     		str	r3, [sp, #72]
  58:Core/Src/tim.c ****   {
 577              		.loc 1 58 3 is_stmt 1 view .LVU170
  58:Core/Src/tim.c ****   {
 578              		.loc 1 58 7 is_stmt 0 view .LVU171
 579 0056 12A9     		add	r1, sp, #72
 580 0058 3548     		ldr	r0, .L45
 581 005a FFF7FEFF 		bl	HAL_TIM_ConfigClockSource
 582              	.LVL30:
  58:Core/Src/tim.c ****   {
 583              		.loc 1 58 6 discriminator 1 view .LVU172
 584 005e 0028     		cmp	r0, #0
 585 0060 4ED1     		bne	.L37
 586              	.L27:
  62:Core/Src/tim.c ****   {
 587              		.loc 1 62 3 is_stmt 1 view .LVU173
  62:Core/Src/tim.c ****   {
 588              		.loc 1 62 7 is_stmt 0 view .LVU174
 589 0062 3348     		ldr	r0, .L45
 590 0064 FFF7FEFF 		bl	HAL_TIM_PWM_Init
 591              	.LVL31:
  62:Core/Src/tim.c ****   {
 592              		.loc 1 62 6 discriminator 1 view .LVU175
 593 0068 0028     		cmp	r0, #0
 594 006a 4CD1     		bne	.L38
 595              	.L28:
  66:Core/Src/tim.c ****   sMasterConfig.MasterSlaveMode = TIM_MASTERSLAVEMODE_DISABLE;
 596              		.loc 1 66 3 is_stmt 1 view .LVU176
  66:Core/Src/tim.c ****   sMasterConfig.MasterSlaveMode = TIM_MASTERSLAVEMODE_DISABLE;
 597              		.loc 1 66 37 is_stmt 0 view .LVU177
 598 006c 0023     		movs	r3, #0
ARM GAS  C:\Users\Rick\AppData\Local\Temp\cc3o1u0R.s 			page 18


 599 006e 1093     		str	r3, [sp, #64]
  67:Core/Src/tim.c ****   if (HAL_TIMEx_MasterConfigSynchronization(&htim1, &sMasterConfig) != HAL_OK)
 600              		.loc 1 67 3 is_stmt 1 view .LVU178
  67:Core/Src/tim.c ****   if (HAL_TIMEx_MasterConfigSynchronization(&htim1, &sMasterConfig) != HAL_OK)
 601              		.loc 1 67 33 is_stmt 0 view .LVU179
 602 0070 1193     		str	r3, [sp, #68]
  68:Core/Src/tim.c ****   {
 603              		.loc 1 68 3 is_stmt 1 view .LVU180
  68:Core/Src/tim.c ****   {
 604              		.loc 1 68 7 is_stmt 0 view .LVU181
 605 0072 10A9     		add	r1, sp, #64
 606 0074 2E48     		ldr	r0, .L45
 607 0076 FFF7FEFF 		bl	HAL_TIMEx_MasterConfigSynchronization
 608              	.LVL32:
  68:Core/Src/tim.c ****   {
 609              		.loc 1 68 6 discriminator 1 view .LVU182
 610 007a 0028     		cmp	r0, #0
 611 007c 46D1     		bne	.L39
 612              	.L29:
  72:Core/Src/tim.c ****   sConfigOC.Pulse = 0;
 613              		.loc 1 72 3 is_stmt 1 view .LVU183
  72:Core/Src/tim.c ****   sConfigOC.Pulse = 0;
 614              		.loc 1 72 20 is_stmt 0 view .LVU184
 615 007e 6023     		movs	r3, #96
 616 0080 0993     		str	r3, [sp, #36]
  73:Core/Src/tim.c ****   sConfigOC.OCPolarity = TIM_OCPOLARITY_HIGH;
 617              		.loc 1 73 3 is_stmt 1 view .LVU185
  73:Core/Src/tim.c ****   sConfigOC.OCPolarity = TIM_OCPOLARITY_HIGH;
 618              		.loc 1 73 19 is_stmt 0 view .LVU186
 619 0082 0022     		movs	r2, #0
 620 0084 0A92     		str	r2, [sp, #40]
  74:Core/Src/tim.c ****   sConfigOC.OCNPolarity = TIM_OCNPOLARITY_HIGH;
 621              		.loc 1 74 3 is_stmt 1 view .LVU187
  74:Core/Src/tim.c ****   sConfigOC.OCNPolarity = TIM_OCNPOLARITY_HIGH;
 622              		.loc 1 74 24 is_stmt 0 view .LVU188
 623 0086 0B92     		str	r2, [sp, #44]
  75:Core/Src/tim.c ****   sConfigOC.OCFastMode = TIM_OCFAST_DISABLE;
 624              		.loc 1 75 3 is_stmt 1 view .LVU189
  75:Core/Src/tim.c ****   sConfigOC.OCFastMode = TIM_OCFAST_DISABLE;
 625              		.loc 1 75 25 is_stmt 0 view .LVU190
 626 0088 0C92     		str	r2, [sp, #48]
  76:Core/Src/tim.c ****   sConfigOC.OCIdleState = TIM_OCIDLESTATE_RESET;
 627              		.loc 1 76 3 is_stmt 1 view .LVU191
  76:Core/Src/tim.c ****   sConfigOC.OCIdleState = TIM_OCIDLESTATE_RESET;
 628              		.loc 1 76 24 is_stmt 0 view .LVU192
 629 008a 0D92     		str	r2, [sp, #52]
  77:Core/Src/tim.c ****   sConfigOC.OCNIdleState = TIM_OCNIDLESTATE_RESET;
 630              		.loc 1 77 3 is_stmt 1 view .LVU193
  77:Core/Src/tim.c ****   sConfigOC.OCNIdleState = TIM_OCNIDLESTATE_RESET;
 631              		.loc 1 77 25 is_stmt 0 view .LVU194
 632 008c 0E92     		str	r2, [sp, #56]
  78:Core/Src/tim.c ****   if (HAL_TIM_PWM_ConfigChannel(&htim1, &sConfigOC, TIM_CHANNEL_1) != HAL_OK)
 633              		.loc 1 78 3 is_stmt 1 view .LVU195
  78:Core/Src/tim.c ****   if (HAL_TIM_PWM_ConfigChannel(&htim1, &sConfigOC, TIM_CHANNEL_1) != HAL_OK)
 634              		.loc 1 78 26 is_stmt 0 view .LVU196
 635 008e 0F92     		str	r2, [sp, #60]
  79:Core/Src/tim.c ****   {
ARM GAS  C:\Users\Rick\AppData\Local\Temp\cc3o1u0R.s 			page 19


 636              		.loc 1 79 3 is_stmt 1 view .LVU197
  79:Core/Src/tim.c ****   {
 637              		.loc 1 79 7 is_stmt 0 view .LVU198
 638 0090 09A9     		add	r1, sp, #36
 639 0092 2748     		ldr	r0, .L45
 640 0094 FFF7FEFF 		bl	HAL_TIM_PWM_ConfigChannel
 641              	.LVL33:
  79:Core/Src/tim.c ****   {
 642              		.loc 1 79 6 discriminator 1 view .LVU199
 643 0098 0028     		cmp	r0, #0
 644 009a 3AD1     		bne	.L40
 645              	.L30:
  83:Core/Src/tim.c ****   {
 646              		.loc 1 83 3 is_stmt 1 view .LVU200
  83:Core/Src/tim.c ****   {
 647              		.loc 1 83 7 is_stmt 0 view .LVU201
 648 009c 0422     		movs	r2, #4
 649 009e 09A9     		add	r1, sp, #36
 650 00a0 2348     		ldr	r0, .L45
 651 00a2 FFF7FEFF 		bl	HAL_TIM_PWM_ConfigChannel
 652              	.LVL34:
  83:Core/Src/tim.c ****   {
 653              		.loc 1 83 6 discriminator 1 view .LVU202
 654 00a6 0028     		cmp	r0, #0
 655 00a8 36D1     		bne	.L41
 656              	.L31:
  87:Core/Src/tim.c ****   {
 657              		.loc 1 87 3 is_stmt 1 view .LVU203
  87:Core/Src/tim.c ****   {
 658              		.loc 1 87 7 is_stmt 0 view .LVU204
 659 00aa 0822     		movs	r2, #8
 660 00ac 09A9     		add	r1, sp, #36
 661 00ae 2048     		ldr	r0, .L45
 662 00b0 FFF7FEFF 		bl	HAL_TIM_PWM_ConfigChannel
 663              	.LVL35:
  87:Core/Src/tim.c ****   {
 664              		.loc 1 87 6 discriminator 1 view .LVU205
 665 00b4 0028     		cmp	r0, #0
 666 00b6 32D1     		bne	.L42
 667              	.L32:
  91:Core/Src/tim.c ****   sConfigOC.Pulse = 16000-2;
 668              		.loc 1 91 3 is_stmt 1 view .LVU206
  91:Core/Src/tim.c ****   sConfigOC.Pulse = 16000-2;
 669              		.loc 1 91 20 is_stmt 0 view .LVU207
 670 00b8 7023     		movs	r3, #112
 671 00ba 0993     		str	r3, [sp, #36]
  92:Core/Src/tim.c ****   if (HAL_TIM_PWM_ConfigChannel(&htim1, &sConfigOC, TIM_CHANNEL_4) != HAL_OK)
 672              		.loc 1 92 3 is_stmt 1 view .LVU208
  92:Core/Src/tim.c ****   if (HAL_TIM_PWM_ConfigChannel(&htim1, &sConfigOC, TIM_CHANNEL_4) != HAL_OK)
 673              		.loc 1 92 19 is_stmt 0 view .LVU209
 674 00bc 43F67E63 		movw	r3, #15998
 675 00c0 0A93     		str	r3, [sp, #40]
  93:Core/Src/tim.c ****   {
 676              		.loc 1 93 3 is_stmt 1 view .LVU210
  93:Core/Src/tim.c ****   {
 677              		.loc 1 93 7 is_stmt 0 view .LVU211
 678 00c2 0C22     		movs	r2, #12
ARM GAS  C:\Users\Rick\AppData\Local\Temp\cc3o1u0R.s 			page 20


 679 00c4 09A9     		add	r1, sp, #36
 680 00c6 1A48     		ldr	r0, .L45
 681 00c8 FFF7FEFF 		bl	HAL_TIM_PWM_ConfigChannel
 682              	.LVL36:
  93:Core/Src/tim.c ****   {
 683              		.loc 1 93 6 discriminator 1 view .LVU212
 684 00cc 50BB     		cbnz	r0, .L43
 685              	.L33:
  97:Core/Src/tim.c ****   sBreakDeadTimeConfig.OffStateIDLEMode = TIM_OSSI_DISABLE;
 686              		.loc 1 97 3 is_stmt 1 view .LVU213
  97:Core/Src/tim.c ****   sBreakDeadTimeConfig.OffStateIDLEMode = TIM_OSSI_DISABLE;
 687              		.loc 1 97 40 is_stmt 0 view .LVU214
 688 00ce 0023     		movs	r3, #0
 689 00d0 0193     		str	r3, [sp, #4]
  98:Core/Src/tim.c ****   sBreakDeadTimeConfig.LockLevel = TIM_LOCKLEVEL_OFF;
 690              		.loc 1 98 3 is_stmt 1 view .LVU215
  98:Core/Src/tim.c ****   sBreakDeadTimeConfig.LockLevel = TIM_LOCKLEVEL_OFF;
 691              		.loc 1 98 41 is_stmt 0 view .LVU216
 692 00d2 0293     		str	r3, [sp, #8]
  99:Core/Src/tim.c ****   sBreakDeadTimeConfig.DeadTime = 0;
 693              		.loc 1 99 3 is_stmt 1 view .LVU217
  99:Core/Src/tim.c ****   sBreakDeadTimeConfig.DeadTime = 0;
 694              		.loc 1 99 34 is_stmt 0 view .LVU218
 695 00d4 0393     		str	r3, [sp, #12]
 100:Core/Src/tim.c ****   sBreakDeadTimeConfig.BreakState = TIM_BREAK_ENABLE;
 696              		.loc 1 100 3 is_stmt 1 view .LVU219
 100:Core/Src/tim.c ****   sBreakDeadTimeConfig.BreakState = TIM_BREAK_ENABLE;
 697              		.loc 1 100 33 is_stmt 0 view .LVU220
 698 00d6 0493     		str	r3, [sp, #16]
 101:Core/Src/tim.c ****   sBreakDeadTimeConfig.BreakPolarity = TIM_BREAKPOLARITY_HIGH;
 699              		.loc 1 101 3 is_stmt 1 view .LVU221
 101:Core/Src/tim.c ****   sBreakDeadTimeConfig.BreakPolarity = TIM_BREAKPOLARITY_HIGH;
 700              		.loc 1 101 35 is_stmt 0 view .LVU222
 701 00d8 4FF48052 		mov	r2, #4096
 702 00dc 0592     		str	r2, [sp, #20]
 102:Core/Src/tim.c ****   sBreakDeadTimeConfig.AutomaticOutput = TIM_AUTOMATICOUTPUT_DISABLE;
 703              		.loc 1 102 3 is_stmt 1 view .LVU223
 102:Core/Src/tim.c ****   sBreakDeadTimeConfig.AutomaticOutput = TIM_AUTOMATICOUTPUT_DISABLE;
 704              		.loc 1 102 38 is_stmt 0 view .LVU224
 705 00de 4FF40052 		mov	r2, #8192
 706 00e2 0692     		str	r2, [sp, #24]
 103:Core/Src/tim.c ****   if (HAL_TIMEx_ConfigBreakDeadTime(&htim1, &sBreakDeadTimeConfig) != HAL_OK)
 707              		.loc 1 103 3 is_stmt 1 view .LVU225
 103:Core/Src/tim.c ****   if (HAL_TIMEx_ConfigBreakDeadTime(&htim1, &sBreakDeadTimeConfig) != HAL_OK)
 708              		.loc 1 103 40 is_stmt 0 view .LVU226
 709 00e4 0893     		str	r3, [sp, #32]
 104:Core/Src/tim.c ****   {
 710              		.loc 1 104 3 is_stmt 1 view .LVU227
 104:Core/Src/tim.c ****   {
 711              		.loc 1 104 7 is_stmt 0 view .LVU228
 712 00e6 01A9     		add	r1, sp, #4
 713 00e8 1148     		ldr	r0, .L45
 714 00ea FFF7FEFF 		bl	HAL_TIMEx_ConfigBreakDeadTime
 715              	.LVL37:
 104:Core/Src/tim.c ****   {
 716              		.loc 1 104 6 discriminator 1 view .LVU229
 717 00ee E0B9     		cbnz	r0, .L44
ARM GAS  C:\Users\Rick\AppData\Local\Temp\cc3o1u0R.s 			page 21


 718              	.L34:
 111:Core/Src/tim.c **** 
 719              		.loc 1 111 3 is_stmt 1 view .LVU230
 720 00f0 0F48     		ldr	r0, .L45
 721 00f2 FFF7FEFF 		bl	HAL_TIM_MspPostInit
 722              	.LVL38:
 113:Core/Src/tim.c **** /* TIM3 init function */
 723              		.loc 1 113 1 is_stmt 0 view .LVU231
 724 00f6 17B0     		add	sp, sp, #92
 725              		.cfi_remember_state
 726              		.cfi_def_cfa_offset 12
 727              		@ sp needed
 728 00f8 30BD     		pop	{r4, r5, pc}
 729              	.L36:
 730              		.cfi_restore_state
  55:Core/Src/tim.c ****   }
 731              		.loc 1 55 5 is_stmt 1 view .LVU232
 732 00fa FFF7FEFF 		bl	Error_Handler
 733              	.LVL39:
 734 00fe A7E7     		b	.L26
 735              	.L37:
  60:Core/Src/tim.c ****   }
 736              		.loc 1 60 5 view .LVU233
 737 0100 FFF7FEFF 		bl	Error_Handler
 738              	.LVL40:
 739 0104 ADE7     		b	.L27
 740              	.L38:
  64:Core/Src/tim.c ****   }
 741              		.loc 1 64 5 view .LVU234
 742 0106 FFF7FEFF 		bl	Error_Handler
 743              	.LVL41:
 744 010a AFE7     		b	.L28
 745              	.L39:
  70:Core/Src/tim.c ****   }
 746              		.loc 1 70 5 view .LVU235
 747 010c FFF7FEFF 		bl	Error_Handler
 748              	.LVL42:
 749 0110 B5E7     		b	.L29
 750              	.L40:
  81:Core/Src/tim.c ****   }
 751              		.loc 1 81 5 view .LVU236
 752 0112 FFF7FEFF 		bl	Error_Handler
 753              	.LVL43:
 754 0116 C1E7     		b	.L30
 755              	.L41:
  85:Core/Src/tim.c ****   }
 756              		.loc 1 85 5 view .LVU237
 757 0118 FFF7FEFF 		bl	Error_Handler
 758              	.LVL44:
 759 011c C5E7     		b	.L31
 760              	.L42:
  89:Core/Src/tim.c ****   }
 761              		.loc 1 89 5 view .LVU238
 762 011e FFF7FEFF 		bl	Error_Handler
 763              	.LVL45:
 764 0122 C9E7     		b	.L32
 765              	.L43:
ARM GAS  C:\Users\Rick\AppData\Local\Temp\cc3o1u0R.s 			page 22


  95:Core/Src/tim.c ****   }
 766              		.loc 1 95 5 view .LVU239
 767 0124 FFF7FEFF 		bl	Error_Handler
 768              	.LVL46:
 769 0128 D1E7     		b	.L33
 770              	.L44:
 106:Core/Src/tim.c ****   }
 771              		.loc 1 106 5 view .LVU240
 772 012a FFF7FEFF 		bl	Error_Handler
 773              	.LVL47:
 774 012e DFE7     		b	.L34
 775              	.L46:
 776              		.align	2
 777              	.L45:
 778 0130 00000000 		.word	htim1
 779 0134 00000140 		.word	1073807360
 780              		.cfi_endproc
 781              	.LFE239:
 783              		.section	.text.HAL_TIM_Base_MspDeInit,"ax",%progbits
 784              		.align	1
 785              		.global	HAL_TIM_Base_MspDeInit
 786              		.syntax unified
 787              		.thumb
 788              		.thumb_func
 790              	HAL_TIM_Base_MspDeInit:
 791              	.LVL48:
 792              	.LFB243:
 255:Core/Src/tim.c **** 
 256:Core/Src/tim.c **** void HAL_TIM_Base_MspDeInit(TIM_HandleTypeDef* tim_baseHandle)
 257:Core/Src/tim.c **** {
 793              		.loc 1 257 1 view -0
 794              		.cfi_startproc
 795              		@ args = 0, pretend = 0, frame = 0
 796              		@ frame_needed = 0, uses_anonymous_args = 0
 797              		.loc 1 257 1 is_stmt 0 view .LVU242
 798 0000 08B5     		push	{r3, lr}
 799              		.cfi_def_cfa_offset 8
 800              		.cfi_offset 3, -8
 801              		.cfi_offset 14, -4
 258:Core/Src/tim.c **** 
 259:Core/Src/tim.c ****   if(tim_baseHandle->Instance==TIM1)
 802              		.loc 1 259 3 is_stmt 1 view .LVU243
 803              		.loc 1 259 20 is_stmt 0 view .LVU244
 804 0002 0368     		ldr	r3, [r0]
 805              		.loc 1 259 5 view .LVU245
 806 0004 194A     		ldr	r2, .L53
 807 0006 9342     		cmp	r3, r2
 808 0008 03D0     		beq	.L51
 260:Core/Src/tim.c ****   {
 261:Core/Src/tim.c ****   /* USER CODE BEGIN TIM1_MspDeInit 0 */
 262:Core/Src/tim.c **** 
 263:Core/Src/tim.c ****   /* USER CODE END TIM1_MspDeInit 0 */
 264:Core/Src/tim.c ****     /* Peripheral clock disable */
 265:Core/Src/tim.c ****     __HAL_RCC_TIM1_CLK_DISABLE();
 266:Core/Src/tim.c **** 
 267:Core/Src/tim.c ****     /**TIM1 GPIO Configuration
 268:Core/Src/tim.c ****     PB12     ------> TIM1_BKIN
ARM GAS  C:\Users\Rick\AppData\Local\Temp\cc3o1u0R.s 			page 23


 269:Core/Src/tim.c ****     PA8     ------> TIM1_CH1
 270:Core/Src/tim.c ****     PA9     ------> TIM1_CH2
 271:Core/Src/tim.c ****     PA10     ------> TIM1_CH3
 272:Core/Src/tim.c ****     */
 273:Core/Src/tim.c ****     HAL_GPIO_DeInit(GPIOB, GPIO_PIN_12);
 274:Core/Src/tim.c **** 
 275:Core/Src/tim.c ****     HAL_GPIO_DeInit(GPIOA, GPIO_PIN_8|GPIO_PIN_9|GPIO_PIN_10);
 276:Core/Src/tim.c **** 
 277:Core/Src/tim.c ****     /* TIM1 interrupt Deinit */
 278:Core/Src/tim.c ****     HAL_NVIC_DisableIRQ(TIM1_BRK_TIM9_IRQn);
 279:Core/Src/tim.c ****     HAL_NVIC_DisableIRQ(TIM1_UP_TIM10_IRQn);
 280:Core/Src/tim.c ****     HAL_NVIC_DisableIRQ(TIM1_CC_IRQn);
 281:Core/Src/tim.c ****   /* USER CODE BEGIN TIM1_MspDeInit 1 */
 282:Core/Src/tim.c **** 
 283:Core/Src/tim.c ****   /* USER CODE END TIM1_MspDeInit 1 */
 284:Core/Src/tim.c ****   }
 285:Core/Src/tim.c ****   else if(tim_baseHandle->Instance==TIM3)
 809              		.loc 1 285 8 is_stmt 1 view .LVU246
 810              		.loc 1 285 10 is_stmt 0 view .LVU247
 811 000a 194A     		ldr	r2, .L53+4
 812 000c 9342     		cmp	r3, r2
 813 000e 1AD0     		beq	.L52
 814              	.LVL49:
 815              	.L47:
 286:Core/Src/tim.c ****   {
 287:Core/Src/tim.c ****   /* USER CODE BEGIN TIM3_MspDeInit 0 */
 288:Core/Src/tim.c **** 
 289:Core/Src/tim.c ****   /* USER CODE END TIM3_MspDeInit 0 */
 290:Core/Src/tim.c ****     /* Peripheral clock disable */
 291:Core/Src/tim.c ****     __HAL_RCC_TIM3_CLK_DISABLE();
 292:Core/Src/tim.c **** 
 293:Core/Src/tim.c ****     /**TIM3 GPIO Configuration
 294:Core/Src/tim.c ****     PA6     ------> TIM3_CH1
 295:Core/Src/tim.c ****     PA7     ------> TIM3_CH2
 296:Core/Src/tim.c ****     PB0     ------> TIM3_CH3
 297:Core/Src/tim.c ****     */
 298:Core/Src/tim.c ****     HAL_GPIO_DeInit(GPIOA, GPIO_PIN_6|GPIO_PIN_7);
 299:Core/Src/tim.c **** 
 300:Core/Src/tim.c ****     HAL_GPIO_DeInit(GPIOB, GPIO_PIN_0);
 301:Core/Src/tim.c **** 
 302:Core/Src/tim.c ****     /* TIM3 interrupt Deinit */
 303:Core/Src/tim.c ****     HAL_NVIC_DisableIRQ(TIM3_IRQn);
 304:Core/Src/tim.c ****   /* USER CODE BEGIN TIM3_MspDeInit 1 */
 305:Core/Src/tim.c **** 
 306:Core/Src/tim.c ****   /* USER CODE END TIM3_MspDeInit 1 */
 307:Core/Src/tim.c ****   }
 308:Core/Src/tim.c **** }
 816              		.loc 1 308 1 view .LVU248
 817 0010 08BD     		pop	{r3, pc}
 818              	.LVL50:
 819              	.L51:
 265:Core/Src/tim.c **** 
 820              		.loc 1 265 5 is_stmt 1 view .LVU249
 821 0012 02F59C32 		add	r2, r2, #79872
 822 0016 536C     		ldr	r3, [r2, #68]
 823 0018 23F00103 		bic	r3, r3, #1
 824 001c 5364     		str	r3, [r2, #68]
ARM GAS  C:\Users\Rick\AppData\Local\Temp\cc3o1u0R.s 			page 24


 273:Core/Src/tim.c **** 
 825              		.loc 1 273 5 view .LVU250
 826 001e 4FF48051 		mov	r1, #4096
 827 0022 1448     		ldr	r0, .L53+8
 828              	.LVL51:
 273:Core/Src/tim.c **** 
 829              		.loc 1 273 5 is_stmt 0 view .LVU251
 830 0024 FFF7FEFF 		bl	HAL_GPIO_DeInit
 831              	.LVL52:
 275:Core/Src/tim.c **** 
 832              		.loc 1 275 5 is_stmt 1 view .LVU252
 833 0028 4FF4E061 		mov	r1, #1792
 834 002c 1248     		ldr	r0, .L53+12
 835 002e FFF7FEFF 		bl	HAL_GPIO_DeInit
 836              	.LVL53:
 278:Core/Src/tim.c ****     HAL_NVIC_DisableIRQ(TIM1_UP_TIM10_IRQn);
 837              		.loc 1 278 5 view .LVU253
 838 0032 1820     		movs	r0, #24
 839 0034 FFF7FEFF 		bl	HAL_NVIC_DisableIRQ
 840              	.LVL54:
 279:Core/Src/tim.c ****     HAL_NVIC_DisableIRQ(TIM1_CC_IRQn);
 841              		.loc 1 279 5 view .LVU254
 842 0038 1920     		movs	r0, #25
 843 003a FFF7FEFF 		bl	HAL_NVIC_DisableIRQ
 844              	.LVL55:
 280:Core/Src/tim.c ****   /* USER CODE BEGIN TIM1_MspDeInit 1 */
 845              		.loc 1 280 5 view .LVU255
 846 003e 1B20     		movs	r0, #27
 847 0040 FFF7FEFF 		bl	HAL_NVIC_DisableIRQ
 848              	.LVL56:
 849 0044 E4E7     		b	.L47
 850              	.LVL57:
 851              	.L52:
 291:Core/Src/tim.c **** 
 852              		.loc 1 291 5 view .LVU256
 853 0046 02F50D32 		add	r2, r2, #144384
 854 004a 136C     		ldr	r3, [r2, #64]
 855 004c 23F00203 		bic	r3, r3, #2
 856 0050 1364     		str	r3, [r2, #64]
 298:Core/Src/tim.c **** 
 857              		.loc 1 298 5 view .LVU257
 858 0052 C021     		movs	r1, #192
 859 0054 0848     		ldr	r0, .L53+12
 860              	.LVL58:
 298:Core/Src/tim.c **** 
 861              		.loc 1 298 5 is_stmt 0 view .LVU258
 862 0056 FFF7FEFF 		bl	HAL_GPIO_DeInit
 863              	.LVL59:
 300:Core/Src/tim.c **** 
 864              		.loc 1 300 5 is_stmt 1 view .LVU259
 865 005a 0121     		movs	r1, #1
 866 005c 0548     		ldr	r0, .L53+8
 867 005e FFF7FEFF 		bl	HAL_GPIO_DeInit
 868              	.LVL60:
 303:Core/Src/tim.c ****   /* USER CODE BEGIN TIM3_MspDeInit 1 */
 869              		.loc 1 303 5 view .LVU260
 870 0062 1D20     		movs	r0, #29
ARM GAS  C:\Users\Rick\AppData\Local\Temp\cc3o1u0R.s 			page 25


 871 0064 FFF7FEFF 		bl	HAL_NVIC_DisableIRQ
 872              	.LVL61:
 873              		.loc 1 308 1 is_stmt 0 view .LVU261
 874 0068 D2E7     		b	.L47
 875              	.L54:
 876 006a 00BF     		.align	2
 877              	.L53:
 878 006c 00000140 		.word	1073807360
 879 0070 00040040 		.word	1073742848
 880 0074 00040240 		.word	1073873920
 881 0078 00000240 		.word	1073872896
 882              		.cfi_endproc
 883              	.LFE243:
 885              		.global	htim3
 886              		.section	.bss.htim3,"aw",%nobits
 887              		.align	2
 890              	htim3:
 891 0000 00000000 		.space	72
 891      00000000 
 891      00000000 
 891      00000000 
 891      00000000 
 892              		.global	htim1
 893              		.section	.bss.htim1,"aw",%nobits
 894              		.align	2
 897              	htim1:
 898 0000 00000000 		.space	72
 898      00000000 
 898      00000000 
 898      00000000 
 898      00000000 
 899              		.text
 900              	.Letext0:
 901              		.file 2 "Drivers/CMSIS/Device/ST/STM32F4xx/Include/stm32f446xx.h"
 902              		.file 3 "C:/Users/Rick/AppData/Roaming/Code/User/globalStorage/bmd.stm32-for-vscode/@xpack-dev-too
 903              		.file 4 "C:/Users/Rick/AppData/Roaming/Code/User/globalStorage/bmd.stm32-for-vscode/@xpack-dev-too
 904              		.file 5 "Drivers/STM32F4xx_HAL_Driver/Inc/stm32f4xx_hal_def.h"
 905              		.file 6 "Drivers/STM32F4xx_HAL_Driver/Inc/stm32f4xx_hal_gpio.h"
 906              		.file 7 "Drivers/STM32F4xx_HAL_Driver/Inc/stm32f4xx_hal_dma.h"
 907              		.file 8 "Drivers/STM32F4xx_HAL_Driver/Inc/stm32f4xx_hal_tim.h"
 908              		.file 9 "Core/Inc/tim.h"
 909              		.file 10 "Drivers/STM32F4xx_HAL_Driver/Inc/stm32f4xx_hal_cortex.h"
 910              		.file 11 "Drivers/STM32F4xx_HAL_Driver/Inc/stm32f4xx_hal_tim_ex.h"
 911              		.file 12 "Core/Inc/main.h"
 912              		.file 13 "<built-in>"
ARM GAS  C:\Users\Rick\AppData\Local\Temp\cc3o1u0R.s 			page 26


DEFINED SYMBOLS
                            *ABS*:00000000 tim.c
C:\Users\Rick\AppData\Local\Temp\cc3o1u0R.s:21     .text.MX_TIM3_Init:00000000 $t
C:\Users\Rick\AppData\Local\Temp\cc3o1u0R.s:27     .text.MX_TIM3_Init:00000000 MX_TIM3_Init
C:\Users\Rick\AppData\Local\Temp\cc3o1u0R.s:133    .text.MX_TIM3_Init:00000068 $d
C:\Users\Rick\AppData\Local\Temp\cc3o1u0R.s:890    .bss.htim3:00000000 htim3
C:\Users\Rick\AppData\Local\Temp\cc3o1u0R.s:139    .text.HAL_TIM_Base_MspInit:00000000 $t
C:\Users\Rick\AppData\Local\Temp\cc3o1u0R.s:145    .text.HAL_TIM_Base_MspInit:00000000 HAL_TIM_Base_MspInit
C:\Users\Rick\AppData\Local\Temp\cc3o1u0R.s:387    .text.HAL_TIM_Base_MspInit:00000110 $d
C:\Users\Rick\AppData\Local\Temp\cc3o1u0R.s:396    .text.HAL_TIM_MspPostInit:00000000 $t
C:\Users\Rick\AppData\Local\Temp\cc3o1u0R.s:402    .text.HAL_TIM_MspPostInit:00000000 HAL_TIM_MspPostInit
C:\Users\Rick\AppData\Local\Temp\cc3o1u0R.s:485    .text.HAL_TIM_MspPostInit:00000050 $d
C:\Users\Rick\AppData\Local\Temp\cc3o1u0R.s:492    .text.MX_TIM1_Init:00000000 $t
C:\Users\Rick\AppData\Local\Temp\cc3o1u0R.s:498    .text.MX_TIM1_Init:00000000 MX_TIM1_Init
C:\Users\Rick\AppData\Local\Temp\cc3o1u0R.s:778    .text.MX_TIM1_Init:00000130 $d
C:\Users\Rick\AppData\Local\Temp\cc3o1u0R.s:897    .bss.htim1:00000000 htim1
C:\Users\Rick\AppData\Local\Temp\cc3o1u0R.s:784    .text.HAL_TIM_Base_MspDeInit:00000000 $t
C:\Users\Rick\AppData\Local\Temp\cc3o1u0R.s:790    .text.HAL_TIM_Base_MspDeInit:00000000 HAL_TIM_Base_MspDeInit
C:\Users\Rick\AppData\Local\Temp\cc3o1u0R.s:878    .text.HAL_TIM_Base_MspDeInit:0000006c $d
C:\Users\Rick\AppData\Local\Temp\cc3o1u0R.s:887    .bss.htim3:00000000 $d
C:\Users\Rick\AppData\Local\Temp\cc3o1u0R.s:894    .bss.htim1:00000000 $d

UNDEFINED SYMBOLS
HAL_TIM_Base_Init
HAL_TIM_ConfigClockSource
HAL_TIMEx_MasterConfigSynchronization
Error_Handler
HAL_GPIO_Init
HAL_NVIC_SetPriority
HAL_NVIC_EnableIRQ
memset
HAL_TIM_PWM_Init
HAL_TIM_PWM_ConfigChannel
HAL_TIMEx_ConfigBreakDeadTime
HAL_GPIO_DeInit
HAL_NVIC_DisableIRQ
