ARM GAS  C:\Users\Rick\AppData\Local\Temp\ccEszgIs.s 			page 1


   1              		.cpu cortex-m4
   2              		.arch armv7e-m
   3              		.fpu fpv4-sp-d16
   4              		.eabi_attribute 27, 1
   5              		.eabi_attribute 28, 1
   6              		.eabi_attribute 20, 1
   7              		.eabi_attribute 21, 1
   8              		.eabi_attribute 23, 3
   9              		.eabi_attribute 24, 1
  10              		.eabi_attribute 25, 1
  11              		.eabi_attribute 26, 1
  12              		.eabi_attribute 30, 1
  13              		.eabi_attribute 34, 1
  14              		.eabi_attribute 18, 4
  15              		.file	"tim.c"
  16              		.text
  17              	.Ltext0:
  18              		.cfi_sections	.debug_frame
  19              		.file 1 "Core/Src/tim.c"
  20              		.section	.text.MX_TIM3_Init,"ax",%progbits
  21              		.align	1
  22              		.global	MX_TIM3_Init
  23              		.syntax unified
  24              		.thumb
  25              		.thumb_func
  27              	MX_TIM3_Init:
  28              	.LFB240:
   1:Core/Src/tim.c **** /* USER CODE BEGIN Header */
   2:Core/Src/tim.c **** /**
   3:Core/Src/tim.c ****   ******************************************************************************
   4:Core/Src/tim.c ****   * @file    tim.c
   5:Core/Src/tim.c ****   * @brief   This file provides code for the configuration
   6:Core/Src/tim.c ****   *          of the TIM instances.
   7:Core/Src/tim.c ****   ******************************************************************************
   8:Core/Src/tim.c ****   * @attention
   9:Core/Src/tim.c ****   *
  10:Core/Src/tim.c ****   * Copyright (c) 2025 STMicroelectronics.
  11:Core/Src/tim.c ****   * All rights reserved.
  12:Core/Src/tim.c ****   *
  13:Core/Src/tim.c ****   * This software is licensed under terms that can be found in the LICENSE file
  14:Core/Src/tim.c ****   * in the root directory of this software component.
  15:Core/Src/tim.c ****   * If no LICENSE file comes with this software, it is provided AS-IS.
  16:Core/Src/tim.c ****   *
  17:Core/Src/tim.c ****   ******************************************************************************
  18:Core/Src/tim.c ****   */
  19:Core/Src/tim.c **** /* USER CODE END Header */
  20:Core/Src/tim.c **** /* Includes ------------------------------------------------------------------*/
  21:Core/Src/tim.c **** #include "tim.h"
  22:Core/Src/tim.c **** 
  23:Core/Src/tim.c **** /* USER CODE BEGIN 0 */
  24:Core/Src/tim.c **** 
  25:Core/Src/tim.c **** /* USER CODE END 0 */
  26:Core/Src/tim.c **** 
  27:Core/Src/tim.c **** TIM_HandleTypeDef htim1;
  28:Core/Src/tim.c **** TIM_HandleTypeDef htim3;
  29:Core/Src/tim.c **** 
  30:Core/Src/tim.c **** /* TIM1 init function */
ARM GAS  C:\Users\Rick\AppData\Local\Temp\ccEszgIs.s 			page 2


  31:Core/Src/tim.c **** void MX_TIM1_Init(void)
  32:Core/Src/tim.c **** {
  33:Core/Src/tim.c **** 
  34:Core/Src/tim.c ****   /* USER CODE BEGIN TIM1_Init 0 */
  35:Core/Src/tim.c **** 
  36:Core/Src/tim.c ****   /* USER CODE END TIM1_Init 0 */
  37:Core/Src/tim.c **** 
  38:Core/Src/tim.c ****   TIM_ClockConfigTypeDef sClockSourceConfig = {0};
  39:Core/Src/tim.c ****   TIM_MasterConfigTypeDef sMasterConfig = {0};
  40:Core/Src/tim.c ****   TIM_OC_InitTypeDef sConfigOC = {0};
  41:Core/Src/tim.c ****   TIM_BreakDeadTimeConfigTypeDef sBreakDeadTimeConfig = {0};
  42:Core/Src/tim.c **** 
  43:Core/Src/tim.c ****   /* USER CODE BEGIN TIM1_Init 1 */
  44:Core/Src/tim.c **** 
  45:Core/Src/tim.c ****   /* USER CODE END TIM1_Init 1 */
  46:Core/Src/tim.c ****   htim1.Instance = TIM1;
  47:Core/Src/tim.c ****   htim1.Init.Prescaler = 1-1;
  48:Core/Src/tim.c ****   htim1.Init.CounterMode = TIM_COUNTERMODE_CENTERALIGNED1;
  49:Core/Src/tim.c ****   htim1.Init.Period = 8000-1;
  50:Core/Src/tim.c ****   htim1.Init.ClockDivision = TIM_CLOCKDIVISION_DIV2;
  51:Core/Src/tim.c ****   htim1.Init.RepetitionCounter = 1;
  52:Core/Src/tim.c ****   htim1.Init.AutoReloadPreload = TIM_AUTORELOAD_PRELOAD_DISABLE;
  53:Core/Src/tim.c ****   if (HAL_TIM_Base_Init(&htim1) != HAL_OK)
  54:Core/Src/tim.c ****   {
  55:Core/Src/tim.c ****     Error_Handler();
  56:Core/Src/tim.c ****   }
  57:Core/Src/tim.c ****   sClockSourceConfig.ClockSource = TIM_CLOCKSOURCE_INTERNAL;
  58:Core/Src/tim.c ****   if (HAL_TIM_ConfigClockSource(&htim1, &sClockSourceConfig) != HAL_OK)
  59:Core/Src/tim.c ****   {
  60:Core/Src/tim.c ****     Error_Handler();
  61:Core/Src/tim.c ****   }
  62:Core/Src/tim.c ****   if (HAL_TIM_PWM_Init(&htim1) != HAL_OK)
  63:Core/Src/tim.c ****   {
  64:Core/Src/tim.c ****     Error_Handler();
  65:Core/Src/tim.c ****   }
  66:Core/Src/tim.c ****   sMasterConfig.MasterOutputTrigger = TIM_TRGO_RESET;
  67:Core/Src/tim.c ****   sMasterConfig.MasterSlaveMode = TIM_MASTERSLAVEMODE_DISABLE;
  68:Core/Src/tim.c ****   if (HAL_TIMEx_MasterConfigSynchronization(&htim1, &sMasterConfig) != HAL_OK)
  69:Core/Src/tim.c ****   {
  70:Core/Src/tim.c ****     Error_Handler();
  71:Core/Src/tim.c ****   }
  72:Core/Src/tim.c ****   sConfigOC.OCMode = TIM_OCMODE_PWM1;
  73:Core/Src/tim.c ****   sConfigOC.Pulse = 0;
  74:Core/Src/tim.c ****   sConfigOC.OCPolarity = TIM_OCPOLARITY_HIGH;
  75:Core/Src/tim.c ****   sConfigOC.OCNPolarity = TIM_OCNPOLARITY_HIGH;
  76:Core/Src/tim.c ****   sConfigOC.OCFastMode = TIM_OCFAST_DISABLE;
  77:Core/Src/tim.c ****   sConfigOC.OCIdleState = TIM_OCIDLESTATE_RESET;
  78:Core/Src/tim.c ****   sConfigOC.OCNIdleState = TIM_OCNIDLESTATE_RESET;
  79:Core/Src/tim.c ****   if (HAL_TIM_PWM_ConfigChannel(&htim1, &sConfigOC, TIM_CHANNEL_1) != HAL_OK)
  80:Core/Src/tim.c ****   {
  81:Core/Src/tim.c ****     Error_Handler();
  82:Core/Src/tim.c ****   }
  83:Core/Src/tim.c ****   if (HAL_TIM_PWM_ConfigChannel(&htim1, &sConfigOC, TIM_CHANNEL_2) != HAL_OK)
  84:Core/Src/tim.c ****   {
  85:Core/Src/tim.c ****     Error_Handler();
  86:Core/Src/tim.c ****   }
  87:Core/Src/tim.c ****   if (HAL_TIM_PWM_ConfigChannel(&htim1, &sConfigOC, TIM_CHANNEL_3) != HAL_OK)
ARM GAS  C:\Users\Rick\AppData\Local\Temp\ccEszgIs.s 			page 3


  88:Core/Src/tim.c ****   {
  89:Core/Src/tim.c ****     Error_Handler();
  90:Core/Src/tim.c ****   }
  91:Core/Src/tim.c ****   sConfigOC.OCMode = TIM_OCMODE_PWM2;
  92:Core/Src/tim.c ****   sConfigOC.Pulse = 8000-2;
  93:Core/Src/tim.c ****   if (HAL_TIM_PWM_ConfigChannel(&htim1, &sConfigOC, TIM_CHANNEL_4) != HAL_OK)
  94:Core/Src/tim.c ****   {
  95:Core/Src/tim.c ****     Error_Handler();
  96:Core/Src/tim.c ****   }
  97:Core/Src/tim.c ****   sBreakDeadTimeConfig.OffStateRunMode = TIM_OSSR_DISABLE;
  98:Core/Src/tim.c ****   sBreakDeadTimeConfig.OffStateIDLEMode = TIM_OSSI_DISABLE;
  99:Core/Src/tim.c ****   sBreakDeadTimeConfig.LockLevel = TIM_LOCKLEVEL_OFF;
 100:Core/Src/tim.c ****   sBreakDeadTimeConfig.DeadTime = 0;
 101:Core/Src/tim.c ****   sBreakDeadTimeConfig.BreakState = TIM_BREAK_ENABLE;
 102:Core/Src/tim.c ****   sBreakDeadTimeConfig.BreakPolarity = TIM_BREAKPOLARITY_HIGH;
 103:Core/Src/tim.c ****   sBreakDeadTimeConfig.AutomaticOutput = TIM_AUTOMATICOUTPUT_DISABLE;
 104:Core/Src/tim.c ****   if (HAL_TIMEx_ConfigBreakDeadTime(&htim1, &sBreakDeadTimeConfig) != HAL_OK)
 105:Core/Src/tim.c ****   {
 106:Core/Src/tim.c ****     Error_Handler();
 107:Core/Src/tim.c ****   }
 108:Core/Src/tim.c ****   /* USER CODE BEGIN TIM1_Init 2 */
 109:Core/Src/tim.c **** 
 110:Core/Src/tim.c ****   /* USER CODE END TIM1_Init 2 */
 111:Core/Src/tim.c ****   HAL_TIM_MspPostInit(&htim1);
 112:Core/Src/tim.c **** 
 113:Core/Src/tim.c **** }
 114:Core/Src/tim.c **** /* TIM3 init function */
 115:Core/Src/tim.c **** void MX_TIM3_Init(void)
 116:Core/Src/tim.c **** {
  29              		.loc 1 116 1 view -0
  30              		.cfi_startproc
  31              		@ args = 0, pretend = 0, frame = 24
  32              		@ frame_needed = 0, uses_anonymous_args = 0
  33 0000 00B5     		push	{lr}
  34              		.cfi_def_cfa_offset 4
  35              		.cfi_offset 14, -4
  36 0002 87B0     		sub	sp, sp, #28
  37              		.cfi_def_cfa_offset 32
 117:Core/Src/tim.c **** 
 118:Core/Src/tim.c ****   /* USER CODE BEGIN TIM3_Init 0 */
 119:Core/Src/tim.c **** 
 120:Core/Src/tim.c ****   /* USER CODE END TIM3_Init 0 */
 121:Core/Src/tim.c **** 
 122:Core/Src/tim.c ****   TIM_HallSensor_InitTypeDef sConfig = {0};
  38              		.loc 1 122 3 view .LVU1
  39              		.loc 1 122 30 is_stmt 0 view .LVU2
  40 0004 02A9     		add	r1, sp, #8
  41 0006 0023     		movs	r3, #0
  42 0008 0293     		str	r3, [sp, #8]
  43 000a 4B60     		str	r3, [r1, #4]
  44 000c 8B60     		str	r3, [r1, #8]
  45 000e CB60     		str	r3, [r1, #12]
 123:Core/Src/tim.c ****   TIM_MasterConfigTypeDef sMasterConfig = {0};
  46              		.loc 1 123 3 is_stmt 1 view .LVU3
  47              		.loc 1 123 27 is_stmt 0 view .LVU4
  48 0010 0093     		str	r3, [sp]
  49 0012 0193     		str	r3, [sp, #4]
ARM GAS  C:\Users\Rick\AppData\Local\Temp\ccEszgIs.s 			page 4


 124:Core/Src/tim.c **** 
 125:Core/Src/tim.c ****   /* USER CODE BEGIN TIM3_Init 1 */
 126:Core/Src/tim.c **** 
 127:Core/Src/tim.c ****   /* USER CODE END TIM3_Init 1 */
 128:Core/Src/tim.c ****   htim3.Instance = TIM3;
  50              		.loc 1 128 3 is_stmt 1 view .LVU5
  51              		.loc 1 128 18 is_stmt 0 view .LVU6
  52 0014 0F48     		ldr	r0, .L7
  53 0016 104A     		ldr	r2, .L7+4
  54 0018 0260     		str	r2, [r0]
 129:Core/Src/tim.c ****   htim3.Init.Prescaler = 0;
  55              		.loc 1 129 3 is_stmt 1 view .LVU7
  56              		.loc 1 129 24 is_stmt 0 view .LVU8
  57 001a 4360     		str	r3, [r0, #4]
 130:Core/Src/tim.c ****   htim3.Init.CounterMode = TIM_COUNTERMODE_UP;
  58              		.loc 1 130 3 is_stmt 1 view .LVU9
  59              		.loc 1 130 26 is_stmt 0 view .LVU10
  60 001c 8360     		str	r3, [r0, #8]
 131:Core/Src/tim.c ****   htim3.Init.Period = 65535;
  61              		.loc 1 131 3 is_stmt 1 view .LVU11
  62              		.loc 1 131 21 is_stmt 0 view .LVU12
  63 001e 4FF6FF72 		movw	r2, #65535
  64 0022 C260     		str	r2, [r0, #12]
 132:Core/Src/tim.c ****   htim3.Init.ClockDivision = TIM_CLOCKDIVISION_DIV1;
  65              		.loc 1 132 3 is_stmt 1 view .LVU13
  66              		.loc 1 132 28 is_stmt 0 view .LVU14
  67 0024 0361     		str	r3, [r0, #16]
 133:Core/Src/tim.c ****   htim3.Init.AutoReloadPreload = TIM_AUTORELOAD_PRELOAD_DISABLE;
  68              		.loc 1 133 3 is_stmt 1 view .LVU15
  69              		.loc 1 133 32 is_stmt 0 view .LVU16
  70 0026 8361     		str	r3, [r0, #24]
 134:Core/Src/tim.c ****   sConfig.IC1Polarity = TIM_ICPOLARITY_RISING;
  71              		.loc 1 134 3 is_stmt 1 view .LVU17
 135:Core/Src/tim.c ****   sConfig.IC1Prescaler = TIM_ICPSC_DIV1;
  72              		.loc 1 135 3 view .LVU18
 136:Core/Src/tim.c ****   sConfig.IC1Filter = 0;
  73              		.loc 1 136 3 view .LVU19
 137:Core/Src/tim.c ****   sConfig.Commutation_Delay = 0;
  74              		.loc 1 137 3 view .LVU20
 138:Core/Src/tim.c ****   if (HAL_TIMEx_HallSensor_Init(&htim3, &sConfig) != HAL_OK)
  75              		.loc 1 138 3 view .LVU21
  76              		.loc 1 138 7 is_stmt 0 view .LVU22
  77 0028 FFF7FEFF 		bl	HAL_TIMEx_HallSensor_Init
  78              	.LVL0:
  79              		.loc 1 138 6 discriminator 1 view .LVU23
  80 002c 58B9     		cbnz	r0, .L5
  81              	.L2:
 139:Core/Src/tim.c ****   {
 140:Core/Src/tim.c ****     Error_Handler();
 141:Core/Src/tim.c ****   }
 142:Core/Src/tim.c ****   sMasterConfig.MasterOutputTrigger = TIM_TRGO_OC2REF;
  82              		.loc 1 142 3 is_stmt 1 view .LVU24
  83              		.loc 1 142 37 is_stmt 0 view .LVU25
  84 002e 5023     		movs	r3, #80
  85 0030 0093     		str	r3, [sp]
 143:Core/Src/tim.c ****   sMasterConfig.MasterSlaveMode = TIM_MASTERSLAVEMODE_DISABLE;
  86              		.loc 1 143 3 is_stmt 1 view .LVU26
ARM GAS  C:\Users\Rick\AppData\Local\Temp\ccEszgIs.s 			page 5


  87              		.loc 1 143 33 is_stmt 0 view .LVU27
  88 0032 0023     		movs	r3, #0
  89 0034 0193     		str	r3, [sp, #4]
 144:Core/Src/tim.c ****   if (HAL_TIMEx_MasterConfigSynchronization(&htim3, &sMasterConfig) != HAL_OK)
  90              		.loc 1 144 3 is_stmt 1 view .LVU28
  91              		.loc 1 144 7 is_stmt 0 view .LVU29
  92 0036 6946     		mov	r1, sp
  93 0038 0648     		ldr	r0, .L7
  94 003a FFF7FEFF 		bl	HAL_TIMEx_MasterConfigSynchronization
  95              	.LVL1:
  96              		.loc 1 144 6 discriminator 1 view .LVU30
  97 003e 28B9     		cbnz	r0, .L6
  98              	.L1:
 145:Core/Src/tim.c ****   {
 146:Core/Src/tim.c ****     Error_Handler();
 147:Core/Src/tim.c ****   }
 148:Core/Src/tim.c ****   /* USER CODE BEGIN TIM3_Init 2 */
 149:Core/Src/tim.c **** 
 150:Core/Src/tim.c ****   /* USER CODE END TIM3_Init 2 */
 151:Core/Src/tim.c **** 
 152:Core/Src/tim.c **** }
  99              		.loc 1 152 1 view .LVU31
 100 0040 07B0     		add	sp, sp, #28
 101              		.cfi_remember_state
 102              		.cfi_def_cfa_offset 4
 103              		@ sp needed
 104 0042 5DF804FB 		ldr	pc, [sp], #4
 105              	.L5:
 106              		.cfi_restore_state
 140:Core/Src/tim.c ****   }
 107              		.loc 1 140 5 is_stmt 1 view .LVU32
 108 0046 FFF7FEFF 		bl	Error_Handler
 109              	.LVL2:
 110 004a F0E7     		b	.L2
 111              	.L6:
 146:Core/Src/tim.c ****   }
 112              		.loc 1 146 5 view .LVU33
 113 004c FFF7FEFF 		bl	Error_Handler
 114              	.LVL3:
 115              		.loc 1 152 1 is_stmt 0 view .LVU34
 116 0050 F6E7     		b	.L1
 117              	.L8:
 118 0052 00BF     		.align	2
 119              	.L7:
 120 0054 00000000 		.word	htim3
 121 0058 00040040 		.word	1073742848
 122              		.cfi_endproc
 123              	.LFE240:
 125              		.section	.text.HAL_TIM_Base_MspInit,"ax",%progbits
 126              		.align	1
 127              		.global	HAL_TIM_Base_MspInit
 128              		.syntax unified
 129              		.thumb
 130              		.thumb_func
 132              	HAL_TIM_Base_MspInit:
 133              	.LVL4:
 134              	.LFB241:
ARM GAS  C:\Users\Rick\AppData\Local\Temp\ccEszgIs.s 			page 6


 153:Core/Src/tim.c **** 
 154:Core/Src/tim.c **** void HAL_TIM_Base_MspInit(TIM_HandleTypeDef* tim_baseHandle)
 155:Core/Src/tim.c **** {
 135              		.loc 1 155 1 is_stmt 1 view -0
 136              		.cfi_startproc
 137              		@ args = 0, pretend = 0, frame = 32
 138              		@ frame_needed = 0, uses_anonymous_args = 0
 139              		.loc 1 155 1 is_stmt 0 view .LVU36
 140 0000 10B5     		push	{r4, lr}
 141              		.cfi_def_cfa_offset 8
 142              		.cfi_offset 4, -8
 143              		.cfi_offset 14, -4
 144 0002 88B0     		sub	sp, sp, #32
 145              		.cfi_def_cfa_offset 40
 156:Core/Src/tim.c **** 
 157:Core/Src/tim.c ****   GPIO_InitTypeDef GPIO_InitStruct = {0};
 146              		.loc 1 157 3 is_stmt 1 view .LVU37
 147              		.loc 1 157 20 is_stmt 0 view .LVU38
 148 0004 0023     		movs	r3, #0
 149 0006 0393     		str	r3, [sp, #12]
 150 0008 0493     		str	r3, [sp, #16]
 151 000a 0593     		str	r3, [sp, #20]
 152 000c 0693     		str	r3, [sp, #24]
 153 000e 0793     		str	r3, [sp, #28]
 158:Core/Src/tim.c ****   if(tim_baseHandle->Instance==TIM1)
 154              		.loc 1 158 3 is_stmt 1 view .LVU39
 155              		.loc 1 158 20 is_stmt 0 view .LVU40
 156 0010 0268     		ldr	r2, [r0]
 157              		.loc 1 158 5 view .LVU41
 158 0012 204B     		ldr	r3, .L13
 159 0014 9A42     		cmp	r2, r3
 160 0016 01D0     		beq	.L12
 161              	.LVL5:
 162              	.L9:
 159:Core/Src/tim.c ****   {
 160:Core/Src/tim.c ****   /* USER CODE BEGIN TIM1_MspInit 0 */
 161:Core/Src/tim.c **** 
 162:Core/Src/tim.c ****   /* USER CODE END TIM1_MspInit 0 */
 163:Core/Src/tim.c ****     /* TIM1 clock enable */
 164:Core/Src/tim.c ****     __HAL_RCC_TIM1_CLK_ENABLE();
 165:Core/Src/tim.c **** 
 166:Core/Src/tim.c ****     __HAL_RCC_GPIOB_CLK_ENABLE();
 167:Core/Src/tim.c ****     /**TIM1 GPIO Configuration
 168:Core/Src/tim.c ****     PB12     ------> TIM1_BKIN
 169:Core/Src/tim.c ****     */
 170:Core/Src/tim.c ****     GPIO_InitStruct.Pin = GPIO_PIN_12;
 171:Core/Src/tim.c ****     GPIO_InitStruct.Mode = GPIO_MODE_AF_PP;
 172:Core/Src/tim.c ****     GPIO_InitStruct.Pull = GPIO_NOPULL;
 173:Core/Src/tim.c ****     GPIO_InitStruct.Speed = GPIO_SPEED_FREQ_LOW;
 174:Core/Src/tim.c ****     GPIO_InitStruct.Alternate = GPIO_AF1_TIM1;
 175:Core/Src/tim.c ****     HAL_GPIO_Init(GPIOB, &GPIO_InitStruct);
 176:Core/Src/tim.c **** 
 177:Core/Src/tim.c ****     /* TIM1 interrupt Init */
 178:Core/Src/tim.c ****     HAL_NVIC_SetPriority(TIM1_BRK_TIM9_IRQn, 5, 0);
 179:Core/Src/tim.c ****     HAL_NVIC_EnableIRQ(TIM1_BRK_TIM9_IRQn);
 180:Core/Src/tim.c ****     HAL_NVIC_SetPriority(TIM1_UP_TIM10_IRQn, 5, 0);
 181:Core/Src/tim.c ****     HAL_NVIC_EnableIRQ(TIM1_UP_TIM10_IRQn);
ARM GAS  C:\Users\Rick\AppData\Local\Temp\ccEszgIs.s 			page 7


 182:Core/Src/tim.c ****     HAL_NVIC_SetPriority(TIM1_CC_IRQn, 5, 0);
 183:Core/Src/tim.c ****     HAL_NVIC_EnableIRQ(TIM1_CC_IRQn);
 184:Core/Src/tim.c ****   /* USER CODE BEGIN TIM1_MspInit 1 */
 185:Core/Src/tim.c **** 
 186:Core/Src/tim.c ****   /* USER CODE END TIM1_MspInit 1 */
 187:Core/Src/tim.c ****   }
 188:Core/Src/tim.c **** }
 163              		.loc 1 188 1 view .LVU42
 164 0018 08B0     		add	sp, sp, #32
 165              		.cfi_remember_state
 166              		.cfi_def_cfa_offset 8
 167              		@ sp needed
 168 001a 10BD     		pop	{r4, pc}
 169              	.LVL6:
 170              	.L12:
 171              		.cfi_restore_state
 164:Core/Src/tim.c **** 
 172              		.loc 1 164 5 is_stmt 1 view .LVU43
 173              	.LBB2:
 164:Core/Src/tim.c **** 
 174              		.loc 1 164 5 view .LVU44
 175 001c 0024     		movs	r4, #0
 176 001e 0194     		str	r4, [sp, #4]
 164:Core/Src/tim.c **** 
 177              		.loc 1 164 5 view .LVU45
 178 0020 03F59C33 		add	r3, r3, #79872
 179 0024 5A6C     		ldr	r2, [r3, #68]
 180 0026 42F00102 		orr	r2, r2, #1
 181 002a 5A64     		str	r2, [r3, #68]
 164:Core/Src/tim.c **** 
 182              		.loc 1 164 5 view .LVU46
 183 002c 5A6C     		ldr	r2, [r3, #68]
 184 002e 02F00102 		and	r2, r2, #1
 185 0032 0192     		str	r2, [sp, #4]
 164:Core/Src/tim.c **** 
 186              		.loc 1 164 5 view .LVU47
 187 0034 019A     		ldr	r2, [sp, #4]
 188              	.LBE2:
 164:Core/Src/tim.c **** 
 189              		.loc 1 164 5 view .LVU48
 166:Core/Src/tim.c ****     /**TIM1 GPIO Configuration
 190              		.loc 1 166 5 view .LVU49
 191              	.LBB3:
 166:Core/Src/tim.c ****     /**TIM1 GPIO Configuration
 192              		.loc 1 166 5 view .LVU50
 193 0036 0294     		str	r4, [sp, #8]
 166:Core/Src/tim.c ****     /**TIM1 GPIO Configuration
 194              		.loc 1 166 5 view .LVU51
 195 0038 1A6B     		ldr	r2, [r3, #48]
 196 003a 42F00202 		orr	r2, r2, #2
 197 003e 1A63     		str	r2, [r3, #48]
 166:Core/Src/tim.c ****     /**TIM1 GPIO Configuration
 198              		.loc 1 166 5 view .LVU52
 199 0040 1B6B     		ldr	r3, [r3, #48]
 200 0042 03F00203 		and	r3, r3, #2
 201 0046 0293     		str	r3, [sp, #8]
 166:Core/Src/tim.c ****     /**TIM1 GPIO Configuration
ARM GAS  C:\Users\Rick\AppData\Local\Temp\ccEszgIs.s 			page 8


 202              		.loc 1 166 5 view .LVU53
 203 0048 029B     		ldr	r3, [sp, #8]
 204              	.LBE3:
 166:Core/Src/tim.c ****     /**TIM1 GPIO Configuration
 205              		.loc 1 166 5 view .LVU54
 170:Core/Src/tim.c ****     GPIO_InitStruct.Mode = GPIO_MODE_AF_PP;
 206              		.loc 1 170 5 view .LVU55
 170:Core/Src/tim.c ****     GPIO_InitStruct.Mode = GPIO_MODE_AF_PP;
 207              		.loc 1 170 25 is_stmt 0 view .LVU56
 208 004a 4FF48053 		mov	r3, #4096
 209 004e 0393     		str	r3, [sp, #12]
 171:Core/Src/tim.c ****     GPIO_InitStruct.Pull = GPIO_NOPULL;
 210              		.loc 1 171 5 is_stmt 1 view .LVU57
 171:Core/Src/tim.c ****     GPIO_InitStruct.Pull = GPIO_NOPULL;
 211              		.loc 1 171 26 is_stmt 0 view .LVU58
 212 0050 0223     		movs	r3, #2
 213 0052 0493     		str	r3, [sp, #16]
 172:Core/Src/tim.c ****     GPIO_InitStruct.Speed = GPIO_SPEED_FREQ_LOW;
 214              		.loc 1 172 5 is_stmt 1 view .LVU59
 173:Core/Src/tim.c ****     GPIO_InitStruct.Alternate = GPIO_AF1_TIM1;
 215              		.loc 1 173 5 view .LVU60
 174:Core/Src/tim.c ****     HAL_GPIO_Init(GPIOB, &GPIO_InitStruct);
 216              		.loc 1 174 5 view .LVU61
 174:Core/Src/tim.c ****     HAL_GPIO_Init(GPIOB, &GPIO_InitStruct);
 217              		.loc 1 174 31 is_stmt 0 view .LVU62
 218 0054 0123     		movs	r3, #1
 219 0056 0793     		str	r3, [sp, #28]
 175:Core/Src/tim.c **** 
 220              		.loc 1 175 5 is_stmt 1 view .LVU63
 221 0058 03A9     		add	r1, sp, #12
 222 005a 0F48     		ldr	r0, .L13+4
 223              	.LVL7:
 175:Core/Src/tim.c **** 
 224              		.loc 1 175 5 is_stmt 0 view .LVU64
 225 005c FFF7FEFF 		bl	HAL_GPIO_Init
 226              	.LVL8:
 178:Core/Src/tim.c ****     HAL_NVIC_EnableIRQ(TIM1_BRK_TIM9_IRQn);
 227              		.loc 1 178 5 is_stmt 1 view .LVU65
 228 0060 2246     		mov	r2, r4
 229 0062 0521     		movs	r1, #5
 230 0064 1820     		movs	r0, #24
 231 0066 FFF7FEFF 		bl	HAL_NVIC_SetPriority
 232              	.LVL9:
 179:Core/Src/tim.c ****     HAL_NVIC_SetPriority(TIM1_UP_TIM10_IRQn, 5, 0);
 233              		.loc 1 179 5 view .LVU66
 234 006a 1820     		movs	r0, #24
 235 006c FFF7FEFF 		bl	HAL_NVIC_EnableIRQ
 236              	.LVL10:
 180:Core/Src/tim.c ****     HAL_NVIC_EnableIRQ(TIM1_UP_TIM10_IRQn);
 237              		.loc 1 180 5 view .LVU67
 238 0070 2246     		mov	r2, r4
 239 0072 0521     		movs	r1, #5
 240 0074 1920     		movs	r0, #25
 241 0076 FFF7FEFF 		bl	HAL_NVIC_SetPriority
 242              	.LVL11:
 181:Core/Src/tim.c ****     HAL_NVIC_SetPriority(TIM1_CC_IRQn, 5, 0);
 243              		.loc 1 181 5 view .LVU68
ARM GAS  C:\Users\Rick\AppData\Local\Temp\ccEszgIs.s 			page 9


 244 007a 1920     		movs	r0, #25
 245 007c FFF7FEFF 		bl	HAL_NVIC_EnableIRQ
 246              	.LVL12:
 182:Core/Src/tim.c ****     HAL_NVIC_EnableIRQ(TIM1_CC_IRQn);
 247              		.loc 1 182 5 view .LVU69
 248 0080 2246     		mov	r2, r4
 249 0082 0521     		movs	r1, #5
 250 0084 1B20     		movs	r0, #27
 251 0086 FFF7FEFF 		bl	HAL_NVIC_SetPriority
 252              	.LVL13:
 183:Core/Src/tim.c ****   /* USER CODE BEGIN TIM1_MspInit 1 */
 253              		.loc 1 183 5 view .LVU70
 254 008a 1B20     		movs	r0, #27
 255 008c FFF7FEFF 		bl	HAL_NVIC_EnableIRQ
 256              	.LVL14:
 257              		.loc 1 188 1 is_stmt 0 view .LVU71
 258 0090 C2E7     		b	.L9
 259              	.L14:
 260 0092 00BF     		.align	2
 261              	.L13:
 262 0094 00000140 		.word	1073807360
 263 0098 00040240 		.word	1073873920
 264              		.cfi_endproc
 265              	.LFE241:
 267              		.section	.text.HAL_TIMEx_HallSensor_MspInit,"ax",%progbits
 268              		.align	1
 269              		.global	HAL_TIMEx_HallSensor_MspInit
 270              		.syntax unified
 271              		.thumb
 272              		.thumb_func
 274              	HAL_TIMEx_HallSensor_MspInit:
 275              	.LVL15:
 276              	.LFB242:
 189:Core/Src/tim.c **** 
 190:Core/Src/tim.c **** void HAL_TIMEx_HallSensor_MspInit(TIM_HandleTypeDef* timex_hallsensorHandle)
 191:Core/Src/tim.c **** {
 277              		.loc 1 191 1 is_stmt 1 view -0
 278              		.cfi_startproc
 279              		@ args = 0, pretend = 0, frame = 32
 280              		@ frame_needed = 0, uses_anonymous_args = 0
 281              		.loc 1 191 1 is_stmt 0 view .LVU73
 282 0000 70B5     		push	{r4, r5, r6, lr}
 283              		.cfi_def_cfa_offset 16
 284              		.cfi_offset 4, -16
 285              		.cfi_offset 5, -12
 286              		.cfi_offset 6, -8
 287              		.cfi_offset 14, -4
 288 0002 88B0     		sub	sp, sp, #32
 289              		.cfi_def_cfa_offset 48
 192:Core/Src/tim.c **** 
 193:Core/Src/tim.c ****   GPIO_InitTypeDef GPIO_InitStruct = {0};
 290              		.loc 1 193 3 is_stmt 1 view .LVU74
 291              		.loc 1 193 20 is_stmt 0 view .LVU75
 292 0004 0023     		movs	r3, #0
 293 0006 0393     		str	r3, [sp, #12]
 294 0008 0493     		str	r3, [sp, #16]
 295 000a 0593     		str	r3, [sp, #20]
ARM GAS  C:\Users\Rick\AppData\Local\Temp\ccEszgIs.s 			page 10


 296 000c 0693     		str	r3, [sp, #24]
 297 000e 0793     		str	r3, [sp, #28]
 194:Core/Src/tim.c ****   if(timex_hallsensorHandle->Instance==TIM3)
 298              		.loc 1 194 3 is_stmt 1 view .LVU76
 299              		.loc 1 194 28 is_stmt 0 view .LVU77
 300 0010 0268     		ldr	r2, [r0]
 301              		.loc 1 194 5 view .LVU78
 302 0012 1D4B     		ldr	r3, .L19
 303 0014 9A42     		cmp	r2, r3
 304 0016 01D0     		beq	.L18
 305              	.LVL16:
 306              	.L15:
 195:Core/Src/tim.c ****   {
 196:Core/Src/tim.c ****   /* USER CODE BEGIN TIM3_MspInit 0 */
 197:Core/Src/tim.c **** 
 198:Core/Src/tim.c ****   /* USER CODE END TIM3_MspInit 0 */
 199:Core/Src/tim.c ****     /* TIM3 clock enable */
 200:Core/Src/tim.c ****     __HAL_RCC_TIM3_CLK_ENABLE();
 201:Core/Src/tim.c **** 
 202:Core/Src/tim.c ****     __HAL_RCC_GPIOA_CLK_ENABLE();
 203:Core/Src/tim.c ****     __HAL_RCC_GPIOB_CLK_ENABLE();
 204:Core/Src/tim.c ****     /**TIM3 GPIO Configuration
 205:Core/Src/tim.c ****     PA6     ------> TIM3_CH1
 206:Core/Src/tim.c ****     PA7     ------> TIM3_CH2
 207:Core/Src/tim.c ****     PB0     ------> TIM3_CH3
 208:Core/Src/tim.c ****     */
 209:Core/Src/tim.c ****     GPIO_InitStruct.Pin = GPIO_PIN_6|GPIO_PIN_7;
 210:Core/Src/tim.c ****     GPIO_InitStruct.Mode = GPIO_MODE_AF_PP;
 211:Core/Src/tim.c ****     GPIO_InitStruct.Pull = GPIO_NOPULL;
 212:Core/Src/tim.c ****     GPIO_InitStruct.Speed = GPIO_SPEED_FREQ_LOW;
 213:Core/Src/tim.c ****     GPIO_InitStruct.Alternate = GPIO_AF2_TIM3;
 214:Core/Src/tim.c ****     HAL_GPIO_Init(GPIOA, &GPIO_InitStruct);
 215:Core/Src/tim.c **** 
 216:Core/Src/tim.c ****     GPIO_InitStruct.Pin = GPIO_PIN_0;
 217:Core/Src/tim.c ****     GPIO_InitStruct.Mode = GPIO_MODE_AF_PP;
 218:Core/Src/tim.c ****     GPIO_InitStruct.Pull = GPIO_NOPULL;
 219:Core/Src/tim.c ****     GPIO_InitStruct.Speed = GPIO_SPEED_FREQ_LOW;
 220:Core/Src/tim.c ****     GPIO_InitStruct.Alternate = GPIO_AF2_TIM3;
 221:Core/Src/tim.c ****     HAL_GPIO_Init(GPIOB, &GPIO_InitStruct);
 222:Core/Src/tim.c **** 
 223:Core/Src/tim.c ****   /* USER CODE BEGIN TIM3_MspInit 1 */
 224:Core/Src/tim.c **** 
 225:Core/Src/tim.c ****   /* USER CODE END TIM3_MspInit 1 */
 226:Core/Src/tim.c ****   }
 227:Core/Src/tim.c **** }
 307              		.loc 1 227 1 view .LVU79
 308 0018 08B0     		add	sp, sp, #32
 309              		.cfi_remember_state
 310              		.cfi_def_cfa_offset 16
 311              		@ sp needed
 312 001a 70BD     		pop	{r4, r5, r6, pc}
 313              	.LVL17:
 314              	.L18:
 315              		.cfi_restore_state
 200:Core/Src/tim.c **** 
 316              		.loc 1 200 5 is_stmt 1 view .LVU80
 317              	.LBB4:
ARM GAS  C:\Users\Rick\AppData\Local\Temp\ccEszgIs.s 			page 11


 200:Core/Src/tim.c **** 
 318              		.loc 1 200 5 view .LVU81
 319 001c 0024     		movs	r4, #0
 320 001e 0094     		str	r4, [sp]
 200:Core/Src/tim.c **** 
 321              		.loc 1 200 5 view .LVU82
 322 0020 03F50D33 		add	r3, r3, #144384
 323 0024 1A6C     		ldr	r2, [r3, #64]
 324 0026 42F00202 		orr	r2, r2, #2
 325 002a 1A64     		str	r2, [r3, #64]
 200:Core/Src/tim.c **** 
 326              		.loc 1 200 5 view .LVU83
 327 002c 1A6C     		ldr	r2, [r3, #64]
 328 002e 02F00202 		and	r2, r2, #2
 329 0032 0092     		str	r2, [sp]
 200:Core/Src/tim.c **** 
 330              		.loc 1 200 5 view .LVU84
 331 0034 009A     		ldr	r2, [sp]
 332              	.LBE4:
 200:Core/Src/tim.c **** 
 333              		.loc 1 200 5 view .LVU85
 202:Core/Src/tim.c ****     __HAL_RCC_GPIOB_CLK_ENABLE();
 334              		.loc 1 202 5 view .LVU86
 335              	.LBB5:
 202:Core/Src/tim.c ****     __HAL_RCC_GPIOB_CLK_ENABLE();
 336              		.loc 1 202 5 view .LVU87
 337 0036 0194     		str	r4, [sp, #4]
 202:Core/Src/tim.c ****     __HAL_RCC_GPIOB_CLK_ENABLE();
 338              		.loc 1 202 5 view .LVU88
 339 0038 1A6B     		ldr	r2, [r3, #48]
 340 003a 42F00102 		orr	r2, r2, #1
 341 003e 1A63     		str	r2, [r3, #48]
 202:Core/Src/tim.c ****     __HAL_RCC_GPIOB_CLK_ENABLE();
 342              		.loc 1 202 5 view .LVU89
 343 0040 1A6B     		ldr	r2, [r3, #48]
 344 0042 02F00102 		and	r2, r2, #1
 345 0046 0192     		str	r2, [sp, #4]
 202:Core/Src/tim.c ****     __HAL_RCC_GPIOB_CLK_ENABLE();
 346              		.loc 1 202 5 view .LVU90
 347 0048 019A     		ldr	r2, [sp, #4]
 348              	.LBE5:
 202:Core/Src/tim.c ****     __HAL_RCC_GPIOB_CLK_ENABLE();
 349              		.loc 1 202 5 view .LVU91
 203:Core/Src/tim.c ****     /**TIM3 GPIO Configuration
 350              		.loc 1 203 5 view .LVU92
 351              	.LBB6:
 203:Core/Src/tim.c ****     /**TIM3 GPIO Configuration
 352              		.loc 1 203 5 view .LVU93
 353 004a 0294     		str	r4, [sp, #8]
 203:Core/Src/tim.c ****     /**TIM3 GPIO Configuration
 354              		.loc 1 203 5 view .LVU94
 355 004c 1A6B     		ldr	r2, [r3, #48]
 356 004e 42F00202 		orr	r2, r2, #2
 357 0052 1A63     		str	r2, [r3, #48]
 203:Core/Src/tim.c ****     /**TIM3 GPIO Configuration
 358              		.loc 1 203 5 view .LVU95
 359 0054 1B6B     		ldr	r3, [r3, #48]
ARM GAS  C:\Users\Rick\AppData\Local\Temp\ccEszgIs.s 			page 12


 360 0056 03F00203 		and	r3, r3, #2
 361 005a 0293     		str	r3, [sp, #8]
 203:Core/Src/tim.c ****     /**TIM3 GPIO Configuration
 362              		.loc 1 203 5 view .LVU96
 363 005c 029B     		ldr	r3, [sp, #8]
 364              	.LBE6:
 203:Core/Src/tim.c ****     /**TIM3 GPIO Configuration
 365              		.loc 1 203 5 view .LVU97
 209:Core/Src/tim.c ****     GPIO_InitStruct.Mode = GPIO_MODE_AF_PP;
 366              		.loc 1 209 5 view .LVU98
 209:Core/Src/tim.c ****     GPIO_InitStruct.Mode = GPIO_MODE_AF_PP;
 367              		.loc 1 209 25 is_stmt 0 view .LVU99
 368 005e C023     		movs	r3, #192
 369 0060 0393     		str	r3, [sp, #12]
 210:Core/Src/tim.c ****     GPIO_InitStruct.Pull = GPIO_NOPULL;
 370              		.loc 1 210 5 is_stmt 1 view .LVU100
 210:Core/Src/tim.c ****     GPIO_InitStruct.Pull = GPIO_NOPULL;
 371              		.loc 1 210 26 is_stmt 0 view .LVU101
 372 0062 0225     		movs	r5, #2
 373 0064 0495     		str	r5, [sp, #16]
 211:Core/Src/tim.c ****     GPIO_InitStruct.Speed = GPIO_SPEED_FREQ_LOW;
 374              		.loc 1 211 5 is_stmt 1 view .LVU102
 212:Core/Src/tim.c ****     GPIO_InitStruct.Alternate = GPIO_AF2_TIM3;
 375              		.loc 1 212 5 view .LVU103
 213:Core/Src/tim.c ****     HAL_GPIO_Init(GPIOA, &GPIO_InitStruct);
 376              		.loc 1 213 5 view .LVU104
 213:Core/Src/tim.c ****     HAL_GPIO_Init(GPIOA, &GPIO_InitStruct);
 377              		.loc 1 213 31 is_stmt 0 view .LVU105
 378 0066 0795     		str	r5, [sp, #28]
 214:Core/Src/tim.c **** 
 379              		.loc 1 214 5 is_stmt 1 view .LVU106
 380 0068 03AE     		add	r6, sp, #12
 381 006a 3146     		mov	r1, r6
 382 006c 0748     		ldr	r0, .L19+4
 383              	.LVL18:
 214:Core/Src/tim.c **** 
 384              		.loc 1 214 5 is_stmt 0 view .LVU107
 385 006e FFF7FEFF 		bl	HAL_GPIO_Init
 386              	.LVL19:
 216:Core/Src/tim.c ****     GPIO_InitStruct.Mode = GPIO_MODE_AF_PP;
 387              		.loc 1 216 5 is_stmt 1 view .LVU108
 216:Core/Src/tim.c ****     GPIO_InitStruct.Mode = GPIO_MODE_AF_PP;
 388              		.loc 1 216 25 is_stmt 0 view .LVU109
 389 0072 0123     		movs	r3, #1
 390 0074 0393     		str	r3, [sp, #12]
 217:Core/Src/tim.c ****     GPIO_InitStruct.Pull = GPIO_NOPULL;
 391              		.loc 1 217 5 is_stmt 1 view .LVU110
 217:Core/Src/tim.c ****     GPIO_InitStruct.Pull = GPIO_NOPULL;
 392              		.loc 1 217 26 is_stmt 0 view .LVU111
 393 0076 0495     		str	r5, [sp, #16]
 218:Core/Src/tim.c ****     GPIO_InitStruct.Speed = GPIO_SPEED_FREQ_LOW;
 394              		.loc 1 218 5 is_stmt 1 view .LVU112
 218:Core/Src/tim.c ****     GPIO_InitStruct.Speed = GPIO_SPEED_FREQ_LOW;
 395              		.loc 1 218 26 is_stmt 0 view .LVU113
 396 0078 0594     		str	r4, [sp, #20]
 219:Core/Src/tim.c ****     GPIO_InitStruct.Alternate = GPIO_AF2_TIM3;
 397              		.loc 1 219 5 is_stmt 1 view .LVU114
ARM GAS  C:\Users\Rick\AppData\Local\Temp\ccEszgIs.s 			page 13


 219:Core/Src/tim.c ****     GPIO_InitStruct.Alternate = GPIO_AF2_TIM3;
 398              		.loc 1 219 27 is_stmt 0 view .LVU115
 399 007a 0694     		str	r4, [sp, #24]
 220:Core/Src/tim.c ****     HAL_GPIO_Init(GPIOB, &GPIO_InitStruct);
 400              		.loc 1 220 5 is_stmt 1 view .LVU116
 220:Core/Src/tim.c ****     HAL_GPIO_Init(GPIOB, &GPIO_InitStruct);
 401              		.loc 1 220 31 is_stmt 0 view .LVU117
 402 007c 0795     		str	r5, [sp, #28]
 221:Core/Src/tim.c **** 
 403              		.loc 1 221 5 is_stmt 1 view .LVU118
 404 007e 3146     		mov	r1, r6
 405 0080 0348     		ldr	r0, .L19+8
 406 0082 FFF7FEFF 		bl	HAL_GPIO_Init
 407              	.LVL20:
 408              		.loc 1 227 1 is_stmt 0 view .LVU119
 409 0086 C7E7     		b	.L15
 410              	.L20:
 411              		.align	2
 412              	.L19:
 413 0088 00040040 		.word	1073742848
 414 008c 00000240 		.word	1073872896
 415 0090 00040240 		.word	1073873920
 416              		.cfi_endproc
 417              	.LFE242:
 419              		.section	.text.HAL_TIM_MspPostInit,"ax",%progbits
 420              		.align	1
 421              		.global	HAL_TIM_MspPostInit
 422              		.syntax unified
 423              		.thumb
 424              		.thumb_func
 426              	HAL_TIM_MspPostInit:
 427              	.LVL21:
 428              	.LFB243:
 228:Core/Src/tim.c **** void HAL_TIM_MspPostInit(TIM_HandleTypeDef* timHandle)
 229:Core/Src/tim.c **** {
 429              		.loc 1 229 1 is_stmt 1 view -0
 430              		.cfi_startproc
 431              		@ args = 0, pretend = 0, frame = 24
 432              		@ frame_needed = 0, uses_anonymous_args = 0
 433              		.loc 1 229 1 is_stmt 0 view .LVU121
 434 0000 00B5     		push	{lr}
 435              		.cfi_def_cfa_offset 4
 436              		.cfi_offset 14, -4
 437 0002 87B0     		sub	sp, sp, #28
 438              		.cfi_def_cfa_offset 32
 230:Core/Src/tim.c **** 
 231:Core/Src/tim.c ****   GPIO_InitTypeDef GPIO_InitStruct = {0};
 439              		.loc 1 231 3 is_stmt 1 view .LVU122
 440              		.loc 1 231 20 is_stmt 0 view .LVU123
 441 0004 0023     		movs	r3, #0
 442 0006 0193     		str	r3, [sp, #4]
 443 0008 0293     		str	r3, [sp, #8]
 444 000a 0393     		str	r3, [sp, #12]
 445 000c 0493     		str	r3, [sp, #16]
 446 000e 0593     		str	r3, [sp, #20]
 232:Core/Src/tim.c ****   if(timHandle->Instance==TIM1)
 447              		.loc 1 232 3 is_stmt 1 view .LVU124
ARM GAS  C:\Users\Rick\AppData\Local\Temp\ccEszgIs.s 			page 14


 448              		.loc 1 232 15 is_stmt 0 view .LVU125
 449 0010 0268     		ldr	r2, [r0]
 450              		.loc 1 232 5 view .LVU126
 451 0012 0F4B     		ldr	r3, .L25
 452 0014 9A42     		cmp	r2, r3
 453 0016 02D0     		beq	.L24
 454              	.LVL22:
 455              	.L21:
 233:Core/Src/tim.c ****   {
 234:Core/Src/tim.c ****   /* USER CODE BEGIN TIM1_MspPostInit 0 */
 235:Core/Src/tim.c **** 
 236:Core/Src/tim.c ****   /* USER CODE END TIM1_MspPostInit 0 */
 237:Core/Src/tim.c **** 
 238:Core/Src/tim.c ****     __HAL_RCC_GPIOA_CLK_ENABLE();
 239:Core/Src/tim.c ****     /**TIM1 GPIO Configuration
 240:Core/Src/tim.c ****     PA8     ------> TIM1_CH1
 241:Core/Src/tim.c ****     PA9     ------> TIM1_CH2
 242:Core/Src/tim.c ****     PA10     ------> TIM1_CH3
 243:Core/Src/tim.c ****     */
 244:Core/Src/tim.c ****     GPIO_InitStruct.Pin = GPIO_PIN_8|GPIO_PIN_9|GPIO_PIN_10;
 245:Core/Src/tim.c ****     GPIO_InitStruct.Mode = GPIO_MODE_AF_PP;
 246:Core/Src/tim.c ****     GPIO_InitStruct.Pull = GPIO_NOPULL;
 247:Core/Src/tim.c ****     GPIO_InitStruct.Speed = GPIO_SPEED_FREQ_LOW;
 248:Core/Src/tim.c ****     GPIO_InitStruct.Alternate = GPIO_AF1_TIM1;
 249:Core/Src/tim.c ****     HAL_GPIO_Init(GPIOA, &GPIO_InitStruct);
 250:Core/Src/tim.c **** 
 251:Core/Src/tim.c ****   /* USER CODE BEGIN TIM1_MspPostInit 1 */
 252:Core/Src/tim.c **** 
 253:Core/Src/tim.c ****   /* USER CODE END TIM1_MspPostInit 1 */
 254:Core/Src/tim.c ****   }
 255:Core/Src/tim.c **** 
 256:Core/Src/tim.c **** }
 456              		.loc 1 256 1 view .LVU127
 457 0018 07B0     		add	sp, sp, #28
 458              		.cfi_remember_state
 459              		.cfi_def_cfa_offset 4
 460              		@ sp needed
 461 001a 5DF804FB 		ldr	pc, [sp], #4
 462              	.LVL23:
 463              	.L24:
 464              		.cfi_restore_state
 238:Core/Src/tim.c ****     /**TIM1 GPIO Configuration
 465              		.loc 1 238 5 is_stmt 1 view .LVU128
 466              	.LBB7:
 238:Core/Src/tim.c ****     /**TIM1 GPIO Configuration
 467              		.loc 1 238 5 view .LVU129
 468 001e 0023     		movs	r3, #0
 469 0020 0093     		str	r3, [sp]
 238:Core/Src/tim.c ****     /**TIM1 GPIO Configuration
 470              		.loc 1 238 5 view .LVU130
 471 0022 0C4B     		ldr	r3, .L25+4
 472 0024 1A6B     		ldr	r2, [r3, #48]
 473 0026 42F00102 		orr	r2, r2, #1
 474 002a 1A63     		str	r2, [r3, #48]
 238:Core/Src/tim.c ****     /**TIM1 GPIO Configuration
 475              		.loc 1 238 5 view .LVU131
 476 002c 1B6B     		ldr	r3, [r3, #48]
ARM GAS  C:\Users\Rick\AppData\Local\Temp\ccEszgIs.s 			page 15


 477 002e 03F00103 		and	r3, r3, #1
 478 0032 0093     		str	r3, [sp]
 238:Core/Src/tim.c ****     /**TIM1 GPIO Configuration
 479              		.loc 1 238 5 view .LVU132
 480 0034 009B     		ldr	r3, [sp]
 481              	.LBE7:
 238:Core/Src/tim.c ****     /**TIM1 GPIO Configuration
 482              		.loc 1 238 5 view .LVU133
 244:Core/Src/tim.c ****     GPIO_InitStruct.Mode = GPIO_MODE_AF_PP;
 483              		.loc 1 244 5 view .LVU134
 244:Core/Src/tim.c ****     GPIO_InitStruct.Mode = GPIO_MODE_AF_PP;
 484              		.loc 1 244 25 is_stmt 0 view .LVU135
 485 0036 4FF4E063 		mov	r3, #1792
 486 003a 0193     		str	r3, [sp, #4]
 245:Core/Src/tim.c ****     GPIO_InitStruct.Pull = GPIO_NOPULL;
 487              		.loc 1 245 5 is_stmt 1 view .LVU136
 245:Core/Src/tim.c ****     GPIO_InitStruct.Pull = GPIO_NOPULL;
 488              		.loc 1 245 26 is_stmt 0 view .LVU137
 489 003c 0223     		movs	r3, #2
 490 003e 0293     		str	r3, [sp, #8]
 246:Core/Src/tim.c ****     GPIO_InitStruct.Speed = GPIO_SPEED_FREQ_LOW;
 491              		.loc 1 246 5 is_stmt 1 view .LVU138
 247:Core/Src/tim.c ****     GPIO_InitStruct.Alternate = GPIO_AF1_TIM1;
 492              		.loc 1 247 5 view .LVU139
 248:Core/Src/tim.c ****     HAL_GPIO_Init(GPIOA, &GPIO_InitStruct);
 493              		.loc 1 248 5 view .LVU140
 248:Core/Src/tim.c ****     HAL_GPIO_Init(GPIOA, &GPIO_InitStruct);
 494              		.loc 1 248 31 is_stmt 0 view .LVU141
 495 0040 0123     		movs	r3, #1
 496 0042 0593     		str	r3, [sp, #20]
 249:Core/Src/tim.c **** 
 497              		.loc 1 249 5 is_stmt 1 view .LVU142
 498 0044 01A9     		add	r1, sp, #4
 499 0046 0448     		ldr	r0, .L25+8
 500              	.LVL24:
 249:Core/Src/tim.c **** 
 501              		.loc 1 249 5 is_stmt 0 view .LVU143
 502 0048 FFF7FEFF 		bl	HAL_GPIO_Init
 503              	.LVL25:
 504              		.loc 1 256 1 view .LVU144
 505 004c E4E7     		b	.L21
 506              	.L26:
 507 004e 00BF     		.align	2
 508              	.L25:
 509 0050 00000140 		.word	1073807360
 510 0054 00380240 		.word	1073887232
 511 0058 00000240 		.word	1073872896
 512              		.cfi_endproc
 513              	.LFE243:
 515              		.section	.text.MX_TIM1_Init,"ax",%progbits
 516              		.align	1
 517              		.global	MX_TIM1_Init
 518              		.syntax unified
 519              		.thumb
 520              		.thumb_func
 522              	MX_TIM1_Init:
 523              	.LFB239:
ARM GAS  C:\Users\Rick\AppData\Local\Temp\ccEszgIs.s 			page 16


  32:Core/Src/tim.c **** 
 524              		.loc 1 32 1 is_stmt 1 view -0
 525              		.cfi_startproc
 526              		@ args = 0, pretend = 0, frame = 88
 527              		@ frame_needed = 0, uses_anonymous_args = 0
 528 0000 30B5     		push	{r4, r5, lr}
 529              		.cfi_def_cfa_offset 12
 530              		.cfi_offset 4, -12
 531              		.cfi_offset 5, -8
 532              		.cfi_offset 14, -4
 533 0002 97B0     		sub	sp, sp, #92
 534              		.cfi_def_cfa_offset 104
  38:Core/Src/tim.c ****   TIM_MasterConfigTypeDef sMasterConfig = {0};
 535              		.loc 1 38 3 view .LVU146
  38:Core/Src/tim.c ****   TIM_MasterConfigTypeDef sMasterConfig = {0};
 536              		.loc 1 38 26 is_stmt 0 view .LVU147
 537 0004 0024     		movs	r4, #0
 538 0006 1294     		str	r4, [sp, #72]
 539 0008 1394     		str	r4, [sp, #76]
 540 000a 1494     		str	r4, [sp, #80]
 541 000c 1594     		str	r4, [sp, #84]
  39:Core/Src/tim.c ****   TIM_OC_InitTypeDef sConfigOC = {0};
 542              		.loc 1 39 3 is_stmt 1 view .LVU148
  39:Core/Src/tim.c ****   TIM_OC_InitTypeDef sConfigOC = {0};
 543              		.loc 1 39 27 is_stmt 0 view .LVU149
 544 000e 1094     		str	r4, [sp, #64]
 545 0010 1194     		str	r4, [sp, #68]
  40:Core/Src/tim.c ****   TIM_BreakDeadTimeConfigTypeDef sBreakDeadTimeConfig = {0};
 546              		.loc 1 40 3 is_stmt 1 view .LVU150
  40:Core/Src/tim.c ****   TIM_BreakDeadTimeConfigTypeDef sBreakDeadTimeConfig = {0};
 547              		.loc 1 40 22 is_stmt 0 view .LVU151
 548 0012 0994     		str	r4, [sp, #36]
 549 0014 0A94     		str	r4, [sp, #40]
 550 0016 0B94     		str	r4, [sp, #44]
 551 0018 0C94     		str	r4, [sp, #48]
 552 001a 0D94     		str	r4, [sp, #52]
 553 001c 0E94     		str	r4, [sp, #56]
 554 001e 0F94     		str	r4, [sp, #60]
  41:Core/Src/tim.c **** 
 555              		.loc 1 41 3 is_stmt 1 view .LVU152
  41:Core/Src/tim.c **** 
 556              		.loc 1 41 34 is_stmt 0 view .LVU153
 557 0020 2025     		movs	r5, #32
 558 0022 2A46     		mov	r2, r5
 559 0024 2146     		mov	r1, r4
 560 0026 01A8     		add	r0, sp, #4
 561 0028 FFF7FEFF 		bl	memset
 562              	.LVL26:
  46:Core/Src/tim.c ****   htim1.Init.Prescaler = 1-1;
 563              		.loc 1 46 3 is_stmt 1 view .LVU154
  46:Core/Src/tim.c ****   htim1.Init.Prescaler = 1-1;
 564              		.loc 1 46 18 is_stmt 0 view .LVU155
 565 002c 4048     		ldr	r0, .L47
 566 002e 414B     		ldr	r3, .L47+4
 567 0030 0360     		str	r3, [r0]
  47:Core/Src/tim.c ****   htim1.Init.CounterMode = TIM_COUNTERMODE_CENTERALIGNED1;
 568              		.loc 1 47 3 is_stmt 1 view .LVU156
ARM GAS  C:\Users\Rick\AppData\Local\Temp\ccEszgIs.s 			page 17


  47:Core/Src/tim.c ****   htim1.Init.CounterMode = TIM_COUNTERMODE_CENTERALIGNED1;
 569              		.loc 1 47 24 is_stmt 0 view .LVU157
 570 0032 4460     		str	r4, [r0, #4]
  48:Core/Src/tim.c ****   htim1.Init.Period = 8000-1;
 571              		.loc 1 48 3 is_stmt 1 view .LVU158
  48:Core/Src/tim.c ****   htim1.Init.Period = 8000-1;
 572              		.loc 1 48 26 is_stmt 0 view .LVU159
 573 0034 8560     		str	r5, [r0, #8]
  49:Core/Src/tim.c ****   htim1.Init.ClockDivision = TIM_CLOCKDIVISION_DIV2;
 574              		.loc 1 49 3 is_stmt 1 view .LVU160
  49:Core/Src/tim.c ****   htim1.Init.ClockDivision = TIM_CLOCKDIVISION_DIV2;
 575              		.loc 1 49 21 is_stmt 0 view .LVU161
 576 0036 41F63F73 		movw	r3, #7999
 577 003a C360     		str	r3, [r0, #12]
  50:Core/Src/tim.c ****   htim1.Init.RepetitionCounter = 1;
 578              		.loc 1 50 3 is_stmt 1 view .LVU162
  50:Core/Src/tim.c ****   htim1.Init.RepetitionCounter = 1;
 579              		.loc 1 50 28 is_stmt 0 view .LVU163
 580 003c 4FF48073 		mov	r3, #256
 581 0040 0361     		str	r3, [r0, #16]
  51:Core/Src/tim.c ****   htim1.Init.AutoReloadPreload = TIM_AUTORELOAD_PRELOAD_DISABLE;
 582              		.loc 1 51 3 is_stmt 1 view .LVU164
  51:Core/Src/tim.c ****   htim1.Init.AutoReloadPreload = TIM_AUTORELOAD_PRELOAD_DISABLE;
 583              		.loc 1 51 32 is_stmt 0 view .LVU165
 584 0042 0123     		movs	r3, #1
 585 0044 4361     		str	r3, [r0, #20]
  52:Core/Src/tim.c ****   if (HAL_TIM_Base_Init(&htim1) != HAL_OK)
 586              		.loc 1 52 3 is_stmt 1 view .LVU166
  52:Core/Src/tim.c ****   if (HAL_TIM_Base_Init(&htim1) != HAL_OK)
 587              		.loc 1 52 32 is_stmt 0 view .LVU167
 588 0046 8461     		str	r4, [r0, #24]
  53:Core/Src/tim.c ****   {
 589              		.loc 1 53 3 is_stmt 1 view .LVU168
  53:Core/Src/tim.c ****   {
 590              		.loc 1 53 7 is_stmt 0 view .LVU169
 591 0048 FFF7FEFF 		bl	HAL_TIM_Base_Init
 592              	.LVL27:
  53:Core/Src/tim.c ****   {
 593              		.loc 1 53 6 discriminator 1 view .LVU170
 594 004c 0028     		cmp	r0, #0
 595 004e 54D1     		bne	.L38
 596              	.L28:
  57:Core/Src/tim.c ****   if (HAL_TIM_ConfigClockSource(&htim1, &sClockSourceConfig) != HAL_OK)
 597              		.loc 1 57 3 is_stmt 1 view .LVU171
  57:Core/Src/tim.c ****   if (HAL_TIM_ConfigClockSource(&htim1, &sClockSourceConfig) != HAL_OK)
 598              		.loc 1 57 34 is_stmt 0 view .LVU172
 599 0050 4FF48053 		mov	r3, #4096
 600 0054 1293     		str	r3, [sp, #72]
  58:Core/Src/tim.c ****   {
 601              		.loc 1 58 3 is_stmt 1 view .LVU173
  58:Core/Src/tim.c ****   {
 602              		.loc 1 58 7 is_stmt 0 view .LVU174
 603 0056 12A9     		add	r1, sp, #72
 604 0058 3548     		ldr	r0, .L47
 605 005a FFF7FEFF 		bl	HAL_TIM_ConfigClockSource
 606              	.LVL28:
  58:Core/Src/tim.c ****   {
ARM GAS  C:\Users\Rick\AppData\Local\Temp\ccEszgIs.s 			page 18


 607              		.loc 1 58 6 discriminator 1 view .LVU175
 608 005e 0028     		cmp	r0, #0
 609 0060 4ED1     		bne	.L39
 610              	.L29:
  62:Core/Src/tim.c ****   {
 611              		.loc 1 62 3 is_stmt 1 view .LVU176
  62:Core/Src/tim.c ****   {
 612              		.loc 1 62 7 is_stmt 0 view .LVU177
 613 0062 3348     		ldr	r0, .L47
 614 0064 FFF7FEFF 		bl	HAL_TIM_PWM_Init
 615              	.LVL29:
  62:Core/Src/tim.c ****   {
 616              		.loc 1 62 6 discriminator 1 view .LVU178
 617 0068 0028     		cmp	r0, #0
 618 006a 4CD1     		bne	.L40
 619              	.L30:
  66:Core/Src/tim.c ****   sMasterConfig.MasterSlaveMode = TIM_MASTERSLAVEMODE_DISABLE;
 620              		.loc 1 66 3 is_stmt 1 view .LVU179
  66:Core/Src/tim.c ****   sMasterConfig.MasterSlaveMode = TIM_MASTERSLAVEMODE_DISABLE;
 621              		.loc 1 66 37 is_stmt 0 view .LVU180
 622 006c 0023     		movs	r3, #0
 623 006e 1093     		str	r3, [sp, #64]
  67:Core/Src/tim.c ****   if (HAL_TIMEx_MasterConfigSynchronization(&htim1, &sMasterConfig) != HAL_OK)
 624              		.loc 1 67 3 is_stmt 1 view .LVU181
  67:Core/Src/tim.c ****   if (HAL_TIMEx_MasterConfigSynchronization(&htim1, &sMasterConfig) != HAL_OK)
 625              		.loc 1 67 33 is_stmt 0 view .LVU182
 626 0070 1193     		str	r3, [sp, #68]
  68:Core/Src/tim.c ****   {
 627              		.loc 1 68 3 is_stmt 1 view .LVU183
  68:Core/Src/tim.c ****   {
 628              		.loc 1 68 7 is_stmt 0 view .LVU184
 629 0072 10A9     		add	r1, sp, #64
 630 0074 2E48     		ldr	r0, .L47
 631 0076 FFF7FEFF 		bl	HAL_TIMEx_MasterConfigSynchronization
 632              	.LVL30:
  68:Core/Src/tim.c ****   {
 633              		.loc 1 68 6 discriminator 1 view .LVU185
 634 007a 0028     		cmp	r0, #0
 635 007c 46D1     		bne	.L41
 636              	.L31:
  72:Core/Src/tim.c ****   sConfigOC.Pulse = 0;
 637              		.loc 1 72 3 is_stmt 1 view .LVU186
  72:Core/Src/tim.c ****   sConfigOC.Pulse = 0;
 638              		.loc 1 72 20 is_stmt 0 view .LVU187
 639 007e 6023     		movs	r3, #96
 640 0080 0993     		str	r3, [sp, #36]
  73:Core/Src/tim.c ****   sConfigOC.OCPolarity = TIM_OCPOLARITY_HIGH;
 641              		.loc 1 73 3 is_stmt 1 view .LVU188
  73:Core/Src/tim.c ****   sConfigOC.OCPolarity = TIM_OCPOLARITY_HIGH;
 642              		.loc 1 73 19 is_stmt 0 view .LVU189
 643 0082 0022     		movs	r2, #0
 644 0084 0A92     		str	r2, [sp, #40]
  74:Core/Src/tim.c ****   sConfigOC.OCNPolarity = TIM_OCNPOLARITY_HIGH;
 645              		.loc 1 74 3 is_stmt 1 view .LVU190
  74:Core/Src/tim.c ****   sConfigOC.OCNPolarity = TIM_OCNPOLARITY_HIGH;
 646              		.loc 1 74 24 is_stmt 0 view .LVU191
 647 0086 0B92     		str	r2, [sp, #44]
ARM GAS  C:\Users\Rick\AppData\Local\Temp\ccEszgIs.s 			page 19


  75:Core/Src/tim.c ****   sConfigOC.OCFastMode = TIM_OCFAST_DISABLE;
 648              		.loc 1 75 3 is_stmt 1 view .LVU192
  75:Core/Src/tim.c ****   sConfigOC.OCFastMode = TIM_OCFAST_DISABLE;
 649              		.loc 1 75 25 is_stmt 0 view .LVU193
 650 0088 0C92     		str	r2, [sp, #48]
  76:Core/Src/tim.c ****   sConfigOC.OCIdleState = TIM_OCIDLESTATE_RESET;
 651              		.loc 1 76 3 is_stmt 1 view .LVU194
  76:Core/Src/tim.c ****   sConfigOC.OCIdleState = TIM_OCIDLESTATE_RESET;
 652              		.loc 1 76 24 is_stmt 0 view .LVU195
 653 008a 0D92     		str	r2, [sp, #52]
  77:Core/Src/tim.c ****   sConfigOC.OCNIdleState = TIM_OCNIDLESTATE_RESET;
 654              		.loc 1 77 3 is_stmt 1 view .LVU196
  77:Core/Src/tim.c ****   sConfigOC.OCNIdleState = TIM_OCNIDLESTATE_RESET;
 655              		.loc 1 77 25 is_stmt 0 view .LVU197
 656 008c 0E92     		str	r2, [sp, #56]
  78:Core/Src/tim.c ****   if (HAL_TIM_PWM_ConfigChannel(&htim1, &sConfigOC, TIM_CHANNEL_1) != HAL_OK)
 657              		.loc 1 78 3 is_stmt 1 view .LVU198
  78:Core/Src/tim.c ****   if (HAL_TIM_PWM_ConfigChannel(&htim1, &sConfigOC, TIM_CHANNEL_1) != HAL_OK)
 658              		.loc 1 78 26 is_stmt 0 view .LVU199
 659 008e 0F92     		str	r2, [sp, #60]
  79:Core/Src/tim.c ****   {
 660              		.loc 1 79 3 is_stmt 1 view .LVU200
  79:Core/Src/tim.c ****   {
 661              		.loc 1 79 7 is_stmt 0 view .LVU201
 662 0090 09A9     		add	r1, sp, #36
 663 0092 2748     		ldr	r0, .L47
 664 0094 FFF7FEFF 		bl	HAL_TIM_PWM_ConfigChannel
 665              	.LVL31:
  79:Core/Src/tim.c ****   {
 666              		.loc 1 79 6 discriminator 1 view .LVU202
 667 0098 0028     		cmp	r0, #0
 668 009a 3AD1     		bne	.L42
 669              	.L32:
  83:Core/Src/tim.c ****   {
 670              		.loc 1 83 3 is_stmt 1 view .LVU203
  83:Core/Src/tim.c ****   {
 671              		.loc 1 83 7 is_stmt 0 view .LVU204
 672 009c 0422     		movs	r2, #4
 673 009e 09A9     		add	r1, sp, #36
 674 00a0 2348     		ldr	r0, .L47
 675 00a2 FFF7FEFF 		bl	HAL_TIM_PWM_ConfigChannel
 676              	.LVL32:
  83:Core/Src/tim.c ****   {
 677              		.loc 1 83 6 discriminator 1 view .LVU205
 678 00a6 0028     		cmp	r0, #0
 679 00a8 36D1     		bne	.L43
 680              	.L33:
  87:Core/Src/tim.c ****   {
 681              		.loc 1 87 3 is_stmt 1 view .LVU206
  87:Core/Src/tim.c ****   {
 682              		.loc 1 87 7 is_stmt 0 view .LVU207
 683 00aa 0822     		movs	r2, #8
 684 00ac 09A9     		add	r1, sp, #36
 685 00ae 2048     		ldr	r0, .L47
 686 00b0 FFF7FEFF 		bl	HAL_TIM_PWM_ConfigChannel
 687              	.LVL33:
  87:Core/Src/tim.c ****   {
ARM GAS  C:\Users\Rick\AppData\Local\Temp\ccEszgIs.s 			page 20


 688              		.loc 1 87 6 discriminator 1 view .LVU208
 689 00b4 0028     		cmp	r0, #0
 690 00b6 32D1     		bne	.L44
 691              	.L34:
  91:Core/Src/tim.c ****   sConfigOC.Pulse = 8000-2;
 692              		.loc 1 91 3 is_stmt 1 view .LVU209
  91:Core/Src/tim.c ****   sConfigOC.Pulse = 8000-2;
 693              		.loc 1 91 20 is_stmt 0 view .LVU210
 694 00b8 7023     		movs	r3, #112
 695 00ba 0993     		str	r3, [sp, #36]
  92:Core/Src/tim.c ****   if (HAL_TIM_PWM_ConfigChannel(&htim1, &sConfigOC, TIM_CHANNEL_4) != HAL_OK)
 696              		.loc 1 92 3 is_stmt 1 view .LVU211
  92:Core/Src/tim.c ****   if (HAL_TIM_PWM_ConfigChannel(&htim1, &sConfigOC, TIM_CHANNEL_4) != HAL_OK)
 697              		.loc 1 92 19 is_stmt 0 view .LVU212
 698 00bc 41F63E73 		movw	r3, #7998
 699 00c0 0A93     		str	r3, [sp, #40]
  93:Core/Src/tim.c ****   {
 700              		.loc 1 93 3 is_stmt 1 view .LVU213
  93:Core/Src/tim.c ****   {
 701              		.loc 1 93 7 is_stmt 0 view .LVU214
 702 00c2 0C22     		movs	r2, #12
 703 00c4 09A9     		add	r1, sp, #36
 704 00c6 1A48     		ldr	r0, .L47
 705 00c8 FFF7FEFF 		bl	HAL_TIM_PWM_ConfigChannel
 706              	.LVL34:
  93:Core/Src/tim.c ****   {
 707              		.loc 1 93 6 discriminator 1 view .LVU215
 708 00cc 50BB     		cbnz	r0, .L45
 709              	.L35:
  97:Core/Src/tim.c ****   sBreakDeadTimeConfig.OffStateIDLEMode = TIM_OSSI_DISABLE;
 710              		.loc 1 97 3 is_stmt 1 view .LVU216
  97:Core/Src/tim.c ****   sBreakDeadTimeConfig.OffStateIDLEMode = TIM_OSSI_DISABLE;
 711              		.loc 1 97 40 is_stmt 0 view .LVU217
 712 00ce 0023     		movs	r3, #0
 713 00d0 0193     		str	r3, [sp, #4]
  98:Core/Src/tim.c ****   sBreakDeadTimeConfig.LockLevel = TIM_LOCKLEVEL_OFF;
 714              		.loc 1 98 3 is_stmt 1 view .LVU218
  98:Core/Src/tim.c ****   sBreakDeadTimeConfig.LockLevel = TIM_LOCKLEVEL_OFF;
 715              		.loc 1 98 41 is_stmt 0 view .LVU219
 716 00d2 0293     		str	r3, [sp, #8]
  99:Core/Src/tim.c ****   sBreakDeadTimeConfig.DeadTime = 0;
 717              		.loc 1 99 3 is_stmt 1 view .LVU220
  99:Core/Src/tim.c ****   sBreakDeadTimeConfig.DeadTime = 0;
 718              		.loc 1 99 34 is_stmt 0 view .LVU221
 719 00d4 0393     		str	r3, [sp, #12]
 100:Core/Src/tim.c ****   sBreakDeadTimeConfig.BreakState = TIM_BREAK_ENABLE;
 720              		.loc 1 100 3 is_stmt 1 view .LVU222
 100:Core/Src/tim.c ****   sBreakDeadTimeConfig.BreakState = TIM_BREAK_ENABLE;
 721              		.loc 1 100 33 is_stmt 0 view .LVU223
 722 00d6 0493     		str	r3, [sp, #16]
 101:Core/Src/tim.c ****   sBreakDeadTimeConfig.BreakPolarity = TIM_BREAKPOLARITY_HIGH;
 723              		.loc 1 101 3 is_stmt 1 view .LVU224
 101:Core/Src/tim.c ****   sBreakDeadTimeConfig.BreakPolarity = TIM_BREAKPOLARITY_HIGH;
 724              		.loc 1 101 35 is_stmt 0 view .LVU225
 725 00d8 4FF48052 		mov	r2, #4096
 726 00dc 0592     		str	r2, [sp, #20]
 102:Core/Src/tim.c ****   sBreakDeadTimeConfig.AutomaticOutput = TIM_AUTOMATICOUTPUT_DISABLE;
ARM GAS  C:\Users\Rick\AppData\Local\Temp\ccEszgIs.s 			page 21


 727              		.loc 1 102 3 is_stmt 1 view .LVU226
 102:Core/Src/tim.c ****   sBreakDeadTimeConfig.AutomaticOutput = TIM_AUTOMATICOUTPUT_DISABLE;
 728              		.loc 1 102 38 is_stmt 0 view .LVU227
 729 00de 4FF40052 		mov	r2, #8192
 730 00e2 0692     		str	r2, [sp, #24]
 103:Core/Src/tim.c ****   if (HAL_TIMEx_ConfigBreakDeadTime(&htim1, &sBreakDeadTimeConfig) != HAL_OK)
 731              		.loc 1 103 3 is_stmt 1 view .LVU228
 103:Core/Src/tim.c ****   if (HAL_TIMEx_ConfigBreakDeadTime(&htim1, &sBreakDeadTimeConfig) != HAL_OK)
 732              		.loc 1 103 40 is_stmt 0 view .LVU229
 733 00e4 0893     		str	r3, [sp, #32]
 104:Core/Src/tim.c ****   {
 734              		.loc 1 104 3 is_stmt 1 view .LVU230
 104:Core/Src/tim.c ****   {
 735              		.loc 1 104 7 is_stmt 0 view .LVU231
 736 00e6 01A9     		add	r1, sp, #4
 737 00e8 1148     		ldr	r0, .L47
 738 00ea FFF7FEFF 		bl	HAL_TIMEx_ConfigBreakDeadTime
 739              	.LVL35:
 104:Core/Src/tim.c ****   {
 740              		.loc 1 104 6 discriminator 1 view .LVU232
 741 00ee E0B9     		cbnz	r0, .L46
 742              	.L36:
 111:Core/Src/tim.c **** 
 743              		.loc 1 111 3 is_stmt 1 view .LVU233
 744 00f0 0F48     		ldr	r0, .L47
 745 00f2 FFF7FEFF 		bl	HAL_TIM_MspPostInit
 746              	.LVL36:
 113:Core/Src/tim.c **** /* TIM3 init function */
 747              		.loc 1 113 1 is_stmt 0 view .LVU234
 748 00f6 17B0     		add	sp, sp, #92
 749              		.cfi_remember_state
 750              		.cfi_def_cfa_offset 12
 751              		@ sp needed
 752 00f8 30BD     		pop	{r4, r5, pc}
 753              	.L38:
 754              		.cfi_restore_state
  55:Core/Src/tim.c ****   }
 755              		.loc 1 55 5 is_stmt 1 view .LVU235
 756 00fa FFF7FEFF 		bl	Error_Handler
 757              	.LVL37:
 758 00fe A7E7     		b	.L28
 759              	.L39:
  60:Core/Src/tim.c ****   }
 760              		.loc 1 60 5 view .LVU236
 761 0100 FFF7FEFF 		bl	Error_Handler
 762              	.LVL38:
 763 0104 ADE7     		b	.L29
 764              	.L40:
  64:Core/Src/tim.c ****   }
 765              		.loc 1 64 5 view .LVU237
 766 0106 FFF7FEFF 		bl	Error_Handler
 767              	.LVL39:
 768 010a AFE7     		b	.L30
 769              	.L41:
  70:Core/Src/tim.c ****   }
 770              		.loc 1 70 5 view .LVU238
 771 010c FFF7FEFF 		bl	Error_Handler
ARM GAS  C:\Users\Rick\AppData\Local\Temp\ccEszgIs.s 			page 22


 772              	.LVL40:
 773 0110 B5E7     		b	.L31
 774              	.L42:
  81:Core/Src/tim.c ****   }
 775              		.loc 1 81 5 view .LVU239
 776 0112 FFF7FEFF 		bl	Error_Handler
 777              	.LVL41:
 778 0116 C1E7     		b	.L32
 779              	.L43:
  85:Core/Src/tim.c ****   }
 780              		.loc 1 85 5 view .LVU240
 781 0118 FFF7FEFF 		bl	Error_Handler
 782              	.LVL42:
 783 011c C5E7     		b	.L33
 784              	.L44:
  89:Core/Src/tim.c ****   }
 785              		.loc 1 89 5 view .LVU241
 786 011e FFF7FEFF 		bl	Error_Handler
 787              	.LVL43:
 788 0122 C9E7     		b	.L34
 789              	.L45:
  95:Core/Src/tim.c ****   }
 790              		.loc 1 95 5 view .LVU242
 791 0124 FFF7FEFF 		bl	Error_Handler
 792              	.LVL44:
 793 0128 D1E7     		b	.L35
 794              	.L46:
 106:Core/Src/tim.c ****   }
 795              		.loc 1 106 5 view .LVU243
 796 012a FFF7FEFF 		bl	Error_Handler
 797              	.LVL45:
 798 012e DFE7     		b	.L36
 799              	.L48:
 800              		.align	2
 801              	.L47:
 802 0130 00000000 		.word	htim1
 803 0134 00000140 		.word	1073807360
 804              		.cfi_endproc
 805              	.LFE239:
 807              		.section	.text.HAL_TIM_Base_MspDeInit,"ax",%progbits
 808              		.align	1
 809              		.global	HAL_TIM_Base_MspDeInit
 810              		.syntax unified
 811              		.thumb
 812              		.thumb_func
 814              	HAL_TIM_Base_MspDeInit:
 815              	.LVL46:
 816              	.LFB244:
 257:Core/Src/tim.c **** 
 258:Core/Src/tim.c **** void HAL_TIM_Base_MspDeInit(TIM_HandleTypeDef* tim_baseHandle)
 259:Core/Src/tim.c **** {
 817              		.loc 1 259 1 view -0
 818              		.cfi_startproc
 819              		@ args = 0, pretend = 0, frame = 0
 820              		@ frame_needed = 0, uses_anonymous_args = 0
 821              		.loc 1 259 1 is_stmt 0 view .LVU245
 822 0000 08B5     		push	{r3, lr}
ARM GAS  C:\Users\Rick\AppData\Local\Temp\ccEszgIs.s 			page 23


 823              		.cfi_def_cfa_offset 8
 824              		.cfi_offset 3, -8
 825              		.cfi_offset 14, -4
 260:Core/Src/tim.c **** 
 261:Core/Src/tim.c ****   if(tim_baseHandle->Instance==TIM1)
 826              		.loc 1 261 3 is_stmt 1 view .LVU246
 827              		.loc 1 261 20 is_stmt 0 view .LVU247
 828 0002 0268     		ldr	r2, [r0]
 829              		.loc 1 261 5 view .LVU248
 830 0004 0E4B     		ldr	r3, .L53
 831 0006 9A42     		cmp	r2, r3
 832 0008 00D0     		beq	.L52
 833              	.LVL47:
 834              	.L49:
 262:Core/Src/tim.c ****   {
 263:Core/Src/tim.c ****   /* USER CODE BEGIN TIM1_MspDeInit 0 */
 264:Core/Src/tim.c **** 
 265:Core/Src/tim.c ****   /* USER CODE END TIM1_MspDeInit 0 */
 266:Core/Src/tim.c ****     /* Peripheral clock disable */
 267:Core/Src/tim.c ****     __HAL_RCC_TIM1_CLK_DISABLE();
 268:Core/Src/tim.c **** 
 269:Core/Src/tim.c ****     /**TIM1 GPIO Configuration
 270:Core/Src/tim.c ****     PB12     ------> TIM1_BKIN
 271:Core/Src/tim.c ****     PA8     ------> TIM1_CH1
 272:Core/Src/tim.c ****     PA9     ------> TIM1_CH2
 273:Core/Src/tim.c ****     PA10     ------> TIM1_CH3
 274:Core/Src/tim.c ****     */
 275:Core/Src/tim.c ****     HAL_GPIO_DeInit(GPIOB, GPIO_PIN_12);
 276:Core/Src/tim.c **** 
 277:Core/Src/tim.c ****     HAL_GPIO_DeInit(GPIOA, GPIO_PIN_8|GPIO_PIN_9|GPIO_PIN_10);
 278:Core/Src/tim.c **** 
 279:Core/Src/tim.c ****     /* TIM1 interrupt Deinit */
 280:Core/Src/tim.c ****     HAL_NVIC_DisableIRQ(TIM1_BRK_TIM9_IRQn);
 281:Core/Src/tim.c ****     HAL_NVIC_DisableIRQ(TIM1_UP_TIM10_IRQn);
 282:Core/Src/tim.c ****     HAL_NVIC_DisableIRQ(TIM1_CC_IRQn);
 283:Core/Src/tim.c ****   /* USER CODE BEGIN TIM1_MspDeInit 1 */
 284:Core/Src/tim.c **** 
 285:Core/Src/tim.c ****   /* USER CODE END TIM1_MspDeInit 1 */
 286:Core/Src/tim.c ****   }
 287:Core/Src/tim.c **** }
 835              		.loc 1 287 1 view .LVU249
 836 000a 08BD     		pop	{r3, pc}
 837              	.LVL48:
 838              	.L52:
 267:Core/Src/tim.c **** 
 839              		.loc 1 267 5 is_stmt 1 view .LVU250
 840 000c 0D4A     		ldr	r2, .L53+4
 841 000e 536C     		ldr	r3, [r2, #68]
 842 0010 23F00103 		bic	r3, r3, #1
 843 0014 5364     		str	r3, [r2, #68]
 275:Core/Src/tim.c **** 
 844              		.loc 1 275 5 view .LVU251
 845 0016 4FF48051 		mov	r1, #4096
 846 001a 0B48     		ldr	r0, .L53+8
 847              	.LVL49:
 275:Core/Src/tim.c **** 
 848              		.loc 1 275 5 is_stmt 0 view .LVU252
ARM GAS  C:\Users\Rick\AppData\Local\Temp\ccEszgIs.s 			page 24


 849 001c FFF7FEFF 		bl	HAL_GPIO_DeInit
 850              	.LVL50:
 277:Core/Src/tim.c **** 
 851              		.loc 1 277 5 is_stmt 1 view .LVU253
 852 0020 4FF4E061 		mov	r1, #1792
 853 0024 0948     		ldr	r0, .L53+12
 854 0026 FFF7FEFF 		bl	HAL_GPIO_DeInit
 855              	.LVL51:
 280:Core/Src/tim.c ****     HAL_NVIC_DisableIRQ(TIM1_UP_TIM10_IRQn);
 856              		.loc 1 280 5 view .LVU254
 857 002a 1820     		movs	r0, #24
 858 002c FFF7FEFF 		bl	HAL_NVIC_DisableIRQ
 859              	.LVL52:
 281:Core/Src/tim.c ****     HAL_NVIC_DisableIRQ(TIM1_CC_IRQn);
 860              		.loc 1 281 5 view .LVU255
 861 0030 1920     		movs	r0, #25
 862 0032 FFF7FEFF 		bl	HAL_NVIC_DisableIRQ
 863              	.LVL53:
 282:Core/Src/tim.c ****   /* USER CODE BEGIN TIM1_MspDeInit 1 */
 864              		.loc 1 282 5 view .LVU256
 865 0036 1B20     		movs	r0, #27
 866 0038 FFF7FEFF 		bl	HAL_NVIC_DisableIRQ
 867              	.LVL54:
 868              		.loc 1 287 1 is_stmt 0 view .LVU257
 869 003c E5E7     		b	.L49
 870              	.L54:
 871 003e 00BF     		.align	2
 872              	.L53:
 873 0040 00000140 		.word	1073807360
 874 0044 00380240 		.word	1073887232
 875 0048 00040240 		.word	1073873920
 876 004c 00000240 		.word	1073872896
 877              		.cfi_endproc
 878              	.LFE244:
 880              		.section	.text.HAL_TIMEx_HallSensor_MspDeInit,"ax",%progbits
 881              		.align	1
 882              		.global	HAL_TIMEx_HallSensor_MspDeInit
 883              		.syntax unified
 884              		.thumb
 885              		.thumb_func
 887              	HAL_TIMEx_HallSensor_MspDeInit:
 888              	.LVL55:
 889              	.LFB245:
 288:Core/Src/tim.c **** 
 289:Core/Src/tim.c **** void HAL_TIMEx_HallSensor_MspDeInit(TIM_HandleTypeDef* timex_hallsensorHandle)
 290:Core/Src/tim.c **** {
 890              		.loc 1 290 1 is_stmt 1 view -0
 891              		.cfi_startproc
 892              		@ args = 0, pretend = 0, frame = 0
 893              		@ frame_needed = 0, uses_anonymous_args = 0
 894              		.loc 1 290 1 is_stmt 0 view .LVU259
 895 0000 08B5     		push	{r3, lr}
 896              		.cfi_def_cfa_offset 8
 897              		.cfi_offset 3, -8
 898              		.cfi_offset 14, -4
 291:Core/Src/tim.c **** 
 292:Core/Src/tim.c ****   if(timex_hallsensorHandle->Instance==TIM3)
ARM GAS  C:\Users\Rick\AppData\Local\Temp\ccEszgIs.s 			page 25


 899              		.loc 1 292 3 is_stmt 1 view .LVU260
 900              		.loc 1 292 28 is_stmt 0 view .LVU261
 901 0002 0268     		ldr	r2, [r0]
 902              		.loc 1 292 5 view .LVU262
 903 0004 084B     		ldr	r3, .L59
 904 0006 9A42     		cmp	r2, r3
 905 0008 00D0     		beq	.L58
 906              	.LVL56:
 907              	.L55:
 293:Core/Src/tim.c ****   {
 294:Core/Src/tim.c ****   /* USER CODE BEGIN TIM3_MspDeInit 0 */
 295:Core/Src/tim.c **** 
 296:Core/Src/tim.c ****   /* USER CODE END TIM3_MspDeInit 0 */
 297:Core/Src/tim.c ****     /* Peripheral clock disable */
 298:Core/Src/tim.c ****     __HAL_RCC_TIM3_CLK_DISABLE();
 299:Core/Src/tim.c **** 
 300:Core/Src/tim.c ****     /**TIM3 GPIO Configuration
 301:Core/Src/tim.c ****     PA6     ------> TIM3_CH1
 302:Core/Src/tim.c ****     PA7     ------> TIM3_CH2
 303:Core/Src/tim.c ****     PB0     ------> TIM3_CH3
 304:Core/Src/tim.c ****     */
 305:Core/Src/tim.c ****     HAL_GPIO_DeInit(GPIOA, GPIO_PIN_6|GPIO_PIN_7);
 306:Core/Src/tim.c **** 
 307:Core/Src/tim.c ****     HAL_GPIO_DeInit(GPIOB, GPIO_PIN_0);
 308:Core/Src/tim.c **** 
 309:Core/Src/tim.c ****   /* USER CODE BEGIN TIM3_MspDeInit 1 */
 310:Core/Src/tim.c **** 
 311:Core/Src/tim.c ****   /* USER CODE END TIM3_MspDeInit 1 */
 312:Core/Src/tim.c ****   }
 313:Core/Src/tim.c **** }
 908              		.loc 1 313 1 view .LVU263
 909 000a 08BD     		pop	{r3, pc}
 910              	.LVL57:
 911              	.L58:
 298:Core/Src/tim.c **** 
 912              		.loc 1 298 5 is_stmt 1 view .LVU264
 913 000c 074A     		ldr	r2, .L59+4
 914 000e 136C     		ldr	r3, [r2, #64]
 915 0010 23F00203 		bic	r3, r3, #2
 916 0014 1364     		str	r3, [r2, #64]
 305:Core/Src/tim.c **** 
 917              		.loc 1 305 5 view .LVU265
 918 0016 C021     		movs	r1, #192
 919 0018 0548     		ldr	r0, .L59+8
 920              	.LVL58:
 305:Core/Src/tim.c **** 
 921              		.loc 1 305 5 is_stmt 0 view .LVU266
 922 001a FFF7FEFF 		bl	HAL_GPIO_DeInit
 923              	.LVL59:
 307:Core/Src/tim.c **** 
 924              		.loc 1 307 5 is_stmt 1 view .LVU267
 925 001e 0121     		movs	r1, #1
 926 0020 0448     		ldr	r0, .L59+12
 927 0022 FFF7FEFF 		bl	HAL_GPIO_DeInit
 928              	.LVL60:
 929              		.loc 1 313 1 is_stmt 0 view .LVU268
 930 0026 F0E7     		b	.L55
ARM GAS  C:\Users\Rick\AppData\Local\Temp\ccEszgIs.s 			page 26


 931              	.L60:
 932              		.align	2
 933              	.L59:
 934 0028 00040040 		.word	1073742848
 935 002c 00380240 		.word	1073887232
 936 0030 00000240 		.word	1073872896
 937 0034 00040240 		.word	1073873920
 938              		.cfi_endproc
 939              	.LFE245:
 941              		.global	htim3
 942              		.section	.bss.htim3,"aw",%nobits
 943              		.align	2
 946              	htim3:
 947 0000 00000000 		.space	72
 947      00000000 
 947      00000000 
 947      00000000 
 947      00000000 
 948              		.global	htim1
 949              		.section	.bss.htim1,"aw",%nobits
 950              		.align	2
 953              	htim1:
 954 0000 00000000 		.space	72
 954      00000000 
 954      00000000 
 954      00000000 
 954      00000000 
 955              		.text
 956              	.Letext0:
 957              		.file 2 "Drivers/CMSIS/Device/ST/STM32F4xx/Include/stm32f446xx.h"
 958              		.file 3 "C:/Users/Rick/AppData/Roaming/Code/User/globalStorage/bmd.stm32-for-vscode/@xpack-dev-too
 959              		.file 4 "C:/Users/Rick/AppData/Roaming/Code/User/globalStorage/bmd.stm32-for-vscode/@xpack-dev-too
 960              		.file 5 "Drivers/STM32F4xx_HAL_Driver/Inc/stm32f4xx_hal_def.h"
 961              		.file 6 "Drivers/STM32F4xx_HAL_Driver/Inc/stm32f4xx_hal_gpio.h"
 962              		.file 7 "Drivers/STM32F4xx_HAL_Driver/Inc/stm32f4xx_hal_dma.h"
 963              		.file 8 "Drivers/STM32F4xx_HAL_Driver/Inc/stm32f4xx_hal_tim.h"
 964              		.file 9 "Drivers/STM32F4xx_HAL_Driver/Inc/stm32f4xx_hal_tim_ex.h"
 965              		.file 10 "Core/Inc/tim.h"
 966              		.file 11 "Drivers/STM32F4xx_HAL_Driver/Inc/stm32f4xx_hal_cortex.h"
 967              		.file 12 "Core/Inc/main.h"
 968              		.file 13 "<built-in>"
ARM GAS  C:\Users\Rick\AppData\Local\Temp\ccEszgIs.s 			page 27


DEFINED SYMBOLS
                            *ABS*:00000000 tim.c
C:\Users\Rick\AppData\Local\Temp\ccEszgIs.s:21     .text.MX_TIM3_Init:00000000 $t
C:\Users\Rick\AppData\Local\Temp\ccEszgIs.s:27     .text.MX_TIM3_Init:00000000 MX_TIM3_Init
C:\Users\Rick\AppData\Local\Temp\ccEszgIs.s:120    .text.MX_TIM3_Init:00000054 $d
C:\Users\Rick\AppData\Local\Temp\ccEszgIs.s:946    .bss.htim3:00000000 htim3
C:\Users\Rick\AppData\Local\Temp\ccEszgIs.s:126    .text.HAL_TIM_Base_MspInit:00000000 $t
C:\Users\Rick\AppData\Local\Temp\ccEszgIs.s:132    .text.HAL_TIM_Base_MspInit:00000000 HAL_TIM_Base_MspInit
C:\Users\Rick\AppData\Local\Temp\ccEszgIs.s:262    .text.HAL_TIM_Base_MspInit:00000094 $d
C:\Users\Rick\AppData\Local\Temp\ccEszgIs.s:268    .text.HAL_TIMEx_HallSensor_MspInit:00000000 $t
C:\Users\Rick\AppData\Local\Temp\ccEszgIs.s:274    .text.HAL_TIMEx_HallSensor_MspInit:00000000 HAL_TIMEx_HallSensor_MspInit
C:\Users\Rick\AppData\Local\Temp\ccEszgIs.s:413    .text.HAL_TIMEx_HallSensor_MspInit:00000088 $d
C:\Users\Rick\AppData\Local\Temp\ccEszgIs.s:420    .text.HAL_TIM_MspPostInit:00000000 $t
C:\Users\Rick\AppData\Local\Temp\ccEszgIs.s:426    .text.HAL_TIM_MspPostInit:00000000 HAL_TIM_MspPostInit
C:\Users\Rick\AppData\Local\Temp\ccEszgIs.s:509    .text.HAL_TIM_MspPostInit:00000050 $d
C:\Users\Rick\AppData\Local\Temp\ccEszgIs.s:516    .text.MX_TIM1_Init:00000000 $t
C:\Users\Rick\AppData\Local\Temp\ccEszgIs.s:522    .text.MX_TIM1_Init:00000000 MX_TIM1_Init
C:\Users\Rick\AppData\Local\Temp\ccEszgIs.s:802    .text.MX_TIM1_Init:00000130 $d
C:\Users\Rick\AppData\Local\Temp\ccEszgIs.s:953    .bss.htim1:00000000 htim1
C:\Users\Rick\AppData\Local\Temp\ccEszgIs.s:808    .text.HAL_TIM_Base_MspDeInit:00000000 $t
C:\Users\Rick\AppData\Local\Temp\ccEszgIs.s:814    .text.HAL_TIM_Base_MspDeInit:00000000 HAL_TIM_Base_MspDeInit
C:\Users\Rick\AppData\Local\Temp\ccEszgIs.s:873    .text.HAL_TIM_Base_MspDeInit:00000040 $d
C:\Users\Rick\AppData\Local\Temp\ccEszgIs.s:881    .text.HAL_TIMEx_HallSensor_MspDeInit:00000000 $t
C:\Users\Rick\AppData\Local\Temp\ccEszgIs.s:887    .text.HAL_TIMEx_HallSensor_MspDeInit:00000000 HAL_TIMEx_HallSensor_MspDeInit
C:\Users\Rick\AppData\Local\Temp\ccEszgIs.s:934    .text.HAL_TIMEx_HallSensor_MspDeInit:00000028 $d
C:\Users\Rick\AppData\Local\Temp\ccEszgIs.s:943    .bss.htim3:00000000 $d
C:\Users\Rick\AppData\Local\Temp\ccEszgIs.s:950    .bss.htim1:00000000 $d

UNDEFINED SYMBOLS
HAL_TIMEx_HallSensor_Init
HAL_TIMEx_MasterConfigSynchronization
Error_Handler
HAL_GPIO_Init
HAL_NVIC_SetPriority
HAL_NVIC_EnableIRQ
memset
HAL_TIM_Base_Init
HAL_TIM_ConfigClockSource
HAL_TIM_PWM_Init
HAL_TIM_PWM_ConfigChannel
HAL_TIMEx_ConfigBreakDeadTime
HAL_GPIO_DeInit
HAL_NVIC_DisableIRQ
