ARM GAS  C:\Users\Rick\AppData\Local\Temp\cchH5bqe.s 			page 1


   1              		.cpu cortex-m4
   2              		.arch armv7e-m
   3              		.fpu fpv4-sp-d16
   4              		.eabi_attribute 27, 1
   5              		.eabi_attribute 28, 1
   6              		.eabi_attribute 20, 1
   7              		.eabi_attribute 21, 1
   8              		.eabi_attribute 23, 3
   9              		.eabi_attribute 24, 1
  10              		.eabi_attribute 25, 1
  11              		.eabi_attribute 26, 1
  12              		.eabi_attribute 30, 1
  13              		.eabi_attribute 34, 1
  14              		.eabi_attribute 18, 4
  15              		.file	"usart.c"
  16              		.text
  17              	.Ltext0:
  18              		.cfi_sections	.debug_frame
  19              		.file 1 "Core/Src/usart.c"
  20              		.section	.text.MX_USART3_UART_Init,"ax",%progbits
  21              		.align	1
  22              		.global	MX_USART3_UART_Init
  23              		.syntax unified
  24              		.thumb
  25              		.thumb_func
  27              	MX_USART3_UART_Init:
  28              	.LFB239:
   1:Core/Src/usart.c **** /* USER CODE BEGIN Header */
   2:Core/Src/usart.c **** /**
   3:Core/Src/usart.c ****   ******************************************************************************
   4:Core/Src/usart.c ****   * @file    usart.c
   5:Core/Src/usart.c ****   * @brief   This file provides code for the configuration
   6:Core/Src/usart.c ****   *          of the USART instances.
   7:Core/Src/usart.c ****   ******************************************************************************
   8:Core/Src/usart.c ****   * @attention
   9:Core/Src/usart.c ****   *
  10:Core/Src/usart.c ****   * Copyright (c) 2025 STMicroelectronics.
  11:Core/Src/usart.c ****   * All rights reserved.
  12:Core/Src/usart.c ****   *
  13:Core/Src/usart.c ****   * This software is licensed under terms that can be found in the LICENSE file
  14:Core/Src/usart.c ****   * in the root directory of this software component.
  15:Core/Src/usart.c ****   * If no LICENSE file comes with this software, it is provided AS-IS.
  16:Core/Src/usart.c ****   *
  17:Core/Src/usart.c ****   ******************************************************************************
  18:Core/Src/usart.c ****   */
  19:Core/Src/usart.c **** /* USER CODE END Header */
  20:Core/Src/usart.c **** /* Includes ------------------------------------------------------------------*/
  21:Core/Src/usart.c **** #include "usart.h"
  22:Core/Src/usart.c **** 
  23:Core/Src/usart.c **** /* USER CODE BEGIN 0 */
  24:Core/Src/usart.c **** 
  25:Core/Src/usart.c **** /* USER CODE END 0 */
  26:Core/Src/usart.c **** 
  27:Core/Src/usart.c **** UART_HandleTypeDef huart3;
  28:Core/Src/usart.c **** DMA_HandleTypeDef hdma_usart3_tx;
  29:Core/Src/usart.c **** DMA_HandleTypeDef hdma_usart3_rx;
  30:Core/Src/usart.c **** 
ARM GAS  C:\Users\Rick\AppData\Local\Temp\cchH5bqe.s 			page 2


  31:Core/Src/usart.c **** /* USART3 init function */
  32:Core/Src/usart.c **** 
  33:Core/Src/usart.c **** void MX_USART3_UART_Init(void)
  34:Core/Src/usart.c **** {
  29              		.loc 1 34 1 view -0
  30              		.cfi_startproc
  31              		@ args = 0, pretend = 0, frame = 0
  32              		@ frame_needed = 0, uses_anonymous_args = 0
  33 0000 08B5     		push	{r3, lr}
  34              		.cfi_def_cfa_offset 8
  35              		.cfi_offset 3, -8
  36              		.cfi_offset 14, -4
  35:Core/Src/usart.c **** 
  36:Core/Src/usart.c ****   /* USER CODE BEGIN USART3_Init 0 */
  37:Core/Src/usart.c **** 
  38:Core/Src/usart.c ****   /* USER CODE END USART3_Init 0 */
  39:Core/Src/usart.c **** 
  40:Core/Src/usart.c ****   /* USER CODE BEGIN USART3_Init 1 */
  41:Core/Src/usart.c **** 
  42:Core/Src/usart.c ****   /* USER CODE END USART3_Init 1 */
  43:Core/Src/usart.c ****   huart3.Instance = USART3;
  37              		.loc 1 43 3 view .LVU1
  38              		.loc 1 43 19 is_stmt 0 view .LVU2
  39 0002 0A48     		ldr	r0, .L5
  40 0004 0A4B     		ldr	r3, .L5+4
  41 0006 0360     		str	r3, [r0]
  44:Core/Src/usart.c ****   huart3.Init.BaudRate = 921600;
  42              		.loc 1 44 3 is_stmt 1 view .LVU3
  43              		.loc 1 44 24 is_stmt 0 view .LVU4
  44 0008 4FF46123 		mov	r3, #921600
  45 000c 4360     		str	r3, [r0, #4]
  45:Core/Src/usart.c ****   huart3.Init.WordLength = UART_WORDLENGTH_8B;
  46              		.loc 1 45 3 is_stmt 1 view .LVU5
  47              		.loc 1 45 26 is_stmt 0 view .LVU6
  48 000e 0023     		movs	r3, #0
  49 0010 8360     		str	r3, [r0, #8]
  46:Core/Src/usart.c ****   huart3.Init.StopBits = UART_STOPBITS_1;
  50              		.loc 1 46 3 is_stmt 1 view .LVU7
  51              		.loc 1 46 24 is_stmt 0 view .LVU8
  52 0012 C360     		str	r3, [r0, #12]
  47:Core/Src/usart.c ****   huart3.Init.Parity = UART_PARITY_NONE;
  53              		.loc 1 47 3 is_stmt 1 view .LVU9
  54              		.loc 1 47 22 is_stmt 0 view .LVU10
  55 0014 0361     		str	r3, [r0, #16]
  48:Core/Src/usart.c ****   huart3.Init.Mode = UART_MODE_TX_RX;
  56              		.loc 1 48 3 is_stmt 1 view .LVU11
  57              		.loc 1 48 20 is_stmt 0 view .LVU12
  58 0016 0C22     		movs	r2, #12
  59 0018 4261     		str	r2, [r0, #20]
  49:Core/Src/usart.c ****   huart3.Init.HwFlowCtl = UART_HWCONTROL_NONE;
  60              		.loc 1 49 3 is_stmt 1 view .LVU13
  61              		.loc 1 49 25 is_stmt 0 view .LVU14
  62 001a 8361     		str	r3, [r0, #24]
  50:Core/Src/usart.c ****   huart3.Init.OverSampling = UART_OVERSAMPLING_16;
  63              		.loc 1 50 3 is_stmt 1 view .LVU15
  64              		.loc 1 50 28 is_stmt 0 view .LVU16
  65 001c C361     		str	r3, [r0, #28]
ARM GAS  C:\Users\Rick\AppData\Local\Temp\cchH5bqe.s 			page 3


  51:Core/Src/usart.c ****   if (HAL_UART_Init(&huart3) != HAL_OK)
  66              		.loc 1 51 3 is_stmt 1 view .LVU17
  67              		.loc 1 51 7 is_stmt 0 view .LVU18
  68 001e FFF7FEFF 		bl	HAL_UART_Init
  69              	.LVL0:
  70              		.loc 1 51 6 discriminator 1 view .LVU19
  71 0022 00B9     		cbnz	r0, .L4
  72              	.L1:
  52:Core/Src/usart.c ****   {
  53:Core/Src/usart.c ****     Error_Handler();
  54:Core/Src/usart.c ****   }
  55:Core/Src/usart.c ****   /* USER CODE BEGIN USART3_Init 2 */
  56:Core/Src/usart.c **** 
  57:Core/Src/usart.c ****   /* USER CODE END USART3_Init 2 */
  58:Core/Src/usart.c **** 
  59:Core/Src/usart.c **** }
  73              		.loc 1 59 1 view .LVU20
  74 0024 08BD     		pop	{r3, pc}
  75              	.L4:
  53:Core/Src/usart.c ****   }
  76              		.loc 1 53 5 is_stmt 1 view .LVU21
  77 0026 FFF7FEFF 		bl	Error_Handler
  78              	.LVL1:
  79              		.loc 1 59 1 is_stmt 0 view .LVU22
  80 002a FBE7     		b	.L1
  81              	.L6:
  82              		.align	2
  83              	.L5:
  84 002c 00000000 		.word	huart3
  85 0030 00480040 		.word	1073760256
  86              		.cfi_endproc
  87              	.LFE239:
  89              		.section	.text.HAL_UART_MspInit,"ax",%progbits
  90              		.align	1
  91              		.global	HAL_UART_MspInit
  92              		.syntax unified
  93              		.thumb
  94              		.thumb_func
  96              	HAL_UART_MspInit:
  97              	.LVL2:
  98              	.LFB240:
  60:Core/Src/usart.c **** 
  61:Core/Src/usart.c **** void HAL_UART_MspInit(UART_HandleTypeDef* uartHandle)
  62:Core/Src/usart.c **** {
  99              		.loc 1 62 1 is_stmt 1 view -0
 100              		.cfi_startproc
 101              		@ args = 0, pretend = 0, frame = 32
 102              		@ frame_needed = 0, uses_anonymous_args = 0
 103              		.loc 1 62 1 is_stmt 0 view .LVU24
 104 0000 2DE9F047 		push	{r4, r5, r6, r7, r8, r9, r10, lr}
 105              		.cfi_def_cfa_offset 32
 106              		.cfi_offset 4, -32
 107              		.cfi_offset 5, -28
 108              		.cfi_offset 6, -24
 109              		.cfi_offset 7, -20
 110              		.cfi_offset 8, -16
 111              		.cfi_offset 9, -12
ARM GAS  C:\Users\Rick\AppData\Local\Temp\cchH5bqe.s 			page 4


 112              		.cfi_offset 10, -8
 113              		.cfi_offset 14, -4
 114 0004 88B0     		sub	sp, sp, #32
 115              		.cfi_def_cfa_offset 64
  63:Core/Src/usart.c **** 
  64:Core/Src/usart.c ****   GPIO_InitTypeDef GPIO_InitStruct = {0};
 116              		.loc 1 64 3 is_stmt 1 view .LVU25
 117              		.loc 1 64 20 is_stmt 0 view .LVU26
 118 0006 0023     		movs	r3, #0
 119 0008 0393     		str	r3, [sp, #12]
 120 000a 0493     		str	r3, [sp, #16]
 121 000c 0593     		str	r3, [sp, #20]
 122 000e 0693     		str	r3, [sp, #24]
 123 0010 0793     		str	r3, [sp, #28]
  65:Core/Src/usart.c ****   if(uartHandle->Instance==USART3)
 124              		.loc 1 65 3 is_stmt 1 view .LVU27
 125              		.loc 1 65 16 is_stmt 0 view .LVU28
 126 0012 0268     		ldr	r2, [r0]
 127              		.loc 1 65 5 view .LVU29
 128 0014 414B     		ldr	r3, .L15
 129 0016 9A42     		cmp	r2, r3
 130 0018 02D0     		beq	.L12
 131              	.LVL3:
 132              	.L7:
  66:Core/Src/usart.c ****   {
  67:Core/Src/usart.c ****   /* USER CODE BEGIN USART3_MspInit 0 */
  68:Core/Src/usart.c **** 
  69:Core/Src/usart.c ****   /* USER CODE END USART3_MspInit 0 */
  70:Core/Src/usart.c ****     /* USART3 clock enable */
  71:Core/Src/usart.c ****     __HAL_RCC_USART3_CLK_ENABLE();
  72:Core/Src/usart.c **** 
  73:Core/Src/usart.c ****     __HAL_RCC_GPIOC_CLK_ENABLE();
  74:Core/Src/usart.c ****     __HAL_RCC_GPIOB_CLK_ENABLE();
  75:Core/Src/usart.c ****     /**USART3 GPIO Configuration
  76:Core/Src/usart.c ****     PC5     ------> USART3_RX
  77:Core/Src/usart.c ****     PB10     ------> USART3_TX
  78:Core/Src/usart.c ****     */
  79:Core/Src/usart.c ****     GPIO_InitStruct.Pin = GPIO_PIN_5;
  80:Core/Src/usart.c ****     GPIO_InitStruct.Mode = GPIO_MODE_AF_PP;
  81:Core/Src/usart.c ****     GPIO_InitStruct.Pull = GPIO_NOPULL;
  82:Core/Src/usart.c ****     GPIO_InitStruct.Speed = GPIO_SPEED_FREQ_VERY_HIGH;
  83:Core/Src/usart.c ****     GPIO_InitStruct.Alternate = GPIO_AF7_USART3;
  84:Core/Src/usart.c ****     HAL_GPIO_Init(GPIOC, &GPIO_InitStruct);
  85:Core/Src/usart.c **** 
  86:Core/Src/usart.c ****     GPIO_InitStruct.Pin = GPIO_PIN_10;
  87:Core/Src/usart.c ****     GPIO_InitStruct.Mode = GPIO_MODE_AF_PP;
  88:Core/Src/usart.c ****     GPIO_InitStruct.Pull = GPIO_NOPULL;
  89:Core/Src/usart.c ****     GPIO_InitStruct.Speed = GPIO_SPEED_FREQ_VERY_HIGH;
  90:Core/Src/usart.c ****     GPIO_InitStruct.Alternate = GPIO_AF7_USART3;
  91:Core/Src/usart.c ****     HAL_GPIO_Init(GPIOB, &GPIO_InitStruct);
  92:Core/Src/usart.c **** 
  93:Core/Src/usart.c ****     /* USART3 DMA Init */
  94:Core/Src/usart.c ****     /* USART3_TX Init */
  95:Core/Src/usart.c ****     hdma_usart3_tx.Instance = DMA1_Stream3;
  96:Core/Src/usart.c ****     hdma_usart3_tx.Init.Channel = DMA_CHANNEL_4;
  97:Core/Src/usart.c ****     hdma_usart3_tx.Init.Direction = DMA_MEMORY_TO_PERIPH;
  98:Core/Src/usart.c ****     hdma_usart3_tx.Init.PeriphInc = DMA_PINC_DISABLE;
ARM GAS  C:\Users\Rick\AppData\Local\Temp\cchH5bqe.s 			page 5


  99:Core/Src/usart.c ****     hdma_usart3_tx.Init.MemInc = DMA_MINC_ENABLE;
 100:Core/Src/usart.c ****     hdma_usart3_tx.Init.PeriphDataAlignment = DMA_PDATAALIGN_BYTE;
 101:Core/Src/usart.c ****     hdma_usart3_tx.Init.MemDataAlignment = DMA_MDATAALIGN_BYTE;
 102:Core/Src/usart.c ****     hdma_usart3_tx.Init.Mode = DMA_NORMAL;
 103:Core/Src/usart.c ****     hdma_usart3_tx.Init.Priority = DMA_PRIORITY_LOW;
 104:Core/Src/usart.c ****     hdma_usart3_tx.Init.FIFOMode = DMA_FIFOMODE_DISABLE;
 105:Core/Src/usart.c ****     if (HAL_DMA_Init(&hdma_usart3_tx) != HAL_OK)
 106:Core/Src/usart.c ****     {
 107:Core/Src/usart.c ****       Error_Handler();
 108:Core/Src/usart.c ****     }
 109:Core/Src/usart.c **** 
 110:Core/Src/usart.c ****     __HAL_LINKDMA(uartHandle,hdmatx,hdma_usart3_tx);
 111:Core/Src/usart.c **** 
 112:Core/Src/usart.c ****     /* USART3_RX Init */
 113:Core/Src/usart.c ****     hdma_usart3_rx.Instance = DMA1_Stream1;
 114:Core/Src/usart.c ****     hdma_usart3_rx.Init.Channel = DMA_CHANNEL_4;
 115:Core/Src/usart.c ****     hdma_usart3_rx.Init.Direction = DMA_PERIPH_TO_MEMORY;
 116:Core/Src/usart.c ****     hdma_usart3_rx.Init.PeriphInc = DMA_PINC_DISABLE;
 117:Core/Src/usart.c ****     hdma_usart3_rx.Init.MemInc = DMA_MINC_ENABLE;
 118:Core/Src/usart.c ****     hdma_usart3_rx.Init.PeriphDataAlignment = DMA_PDATAALIGN_BYTE;
 119:Core/Src/usart.c ****     hdma_usart3_rx.Init.MemDataAlignment = DMA_MDATAALIGN_BYTE;
 120:Core/Src/usart.c ****     hdma_usart3_rx.Init.Mode = DMA_NORMAL;
 121:Core/Src/usart.c ****     hdma_usart3_rx.Init.Priority = DMA_PRIORITY_LOW;
 122:Core/Src/usart.c ****     hdma_usart3_rx.Init.FIFOMode = DMA_FIFOMODE_DISABLE;
 123:Core/Src/usart.c ****     if (HAL_DMA_Init(&hdma_usart3_rx) != HAL_OK)
 124:Core/Src/usart.c ****     {
 125:Core/Src/usart.c ****       Error_Handler();
 126:Core/Src/usart.c ****     }
 127:Core/Src/usart.c **** 
 128:Core/Src/usart.c ****     __HAL_LINKDMA(uartHandle,hdmarx,hdma_usart3_rx);
 129:Core/Src/usart.c **** 
 130:Core/Src/usart.c ****     /* USART3 interrupt Init */
 131:Core/Src/usart.c ****     HAL_NVIC_SetPriority(USART3_IRQn, 5, 0);
 132:Core/Src/usart.c ****     HAL_NVIC_EnableIRQ(USART3_IRQn);
 133:Core/Src/usart.c ****   /* USER CODE BEGIN USART3_MspInit 1 */
 134:Core/Src/usart.c **** 
 135:Core/Src/usart.c ****   /* USER CODE END USART3_MspInit 1 */
 136:Core/Src/usart.c ****   }
 137:Core/Src/usart.c **** }
 133              		.loc 1 137 1 view .LVU30
 134 001a 08B0     		add	sp, sp, #32
 135              		.cfi_remember_state
 136              		.cfi_def_cfa_offset 32
 137              		@ sp needed
 138 001c BDE8F087 		pop	{r4, r5, r6, r7, r8, r9, r10, pc}
 139              	.LVL4:
 140              	.L12:
 141              		.cfi_restore_state
 142              		.loc 1 137 1 view .LVU31
 143 0020 0446     		mov	r4, r0
  71:Core/Src/usart.c **** 
 144              		.loc 1 71 5 is_stmt 1 view .LVU32
 145              	.LBB2:
  71:Core/Src/usart.c **** 
 146              		.loc 1 71 5 view .LVU33
 147 0022 0025     		movs	r5, #0
 148 0024 0095     		str	r5, [sp]
ARM GAS  C:\Users\Rick\AppData\Local\Temp\cchH5bqe.s 			page 6


  71:Core/Src/usart.c **** 
 149              		.loc 1 71 5 view .LVU34
 150 0026 03F5F833 		add	r3, r3, #126976
 151 002a 1A6C     		ldr	r2, [r3, #64]
 152 002c 42F48022 		orr	r2, r2, #262144
 153 0030 1A64     		str	r2, [r3, #64]
  71:Core/Src/usart.c **** 
 154              		.loc 1 71 5 view .LVU35
 155 0032 1A6C     		ldr	r2, [r3, #64]
 156 0034 02F48022 		and	r2, r2, #262144
 157 0038 0092     		str	r2, [sp]
  71:Core/Src/usart.c **** 
 158              		.loc 1 71 5 view .LVU36
 159 003a 009A     		ldr	r2, [sp]
 160              	.LBE2:
  71:Core/Src/usart.c **** 
 161              		.loc 1 71 5 view .LVU37
  73:Core/Src/usart.c ****     __HAL_RCC_GPIOB_CLK_ENABLE();
 162              		.loc 1 73 5 view .LVU38
 163              	.LBB3:
  73:Core/Src/usart.c ****     __HAL_RCC_GPIOB_CLK_ENABLE();
 164              		.loc 1 73 5 view .LVU39
 165 003c 0195     		str	r5, [sp, #4]
  73:Core/Src/usart.c ****     __HAL_RCC_GPIOB_CLK_ENABLE();
 166              		.loc 1 73 5 view .LVU40
 167 003e 1A6B     		ldr	r2, [r3, #48]
 168 0040 42F00402 		orr	r2, r2, #4
 169 0044 1A63     		str	r2, [r3, #48]
  73:Core/Src/usart.c ****     __HAL_RCC_GPIOB_CLK_ENABLE();
 170              		.loc 1 73 5 view .LVU41
 171 0046 1A6B     		ldr	r2, [r3, #48]
 172 0048 02F00402 		and	r2, r2, #4
 173 004c 0192     		str	r2, [sp, #4]
  73:Core/Src/usart.c ****     __HAL_RCC_GPIOB_CLK_ENABLE();
 174              		.loc 1 73 5 view .LVU42
 175 004e 019A     		ldr	r2, [sp, #4]
 176              	.LBE3:
  73:Core/Src/usart.c ****     __HAL_RCC_GPIOB_CLK_ENABLE();
 177              		.loc 1 73 5 view .LVU43
  74:Core/Src/usart.c ****     /**USART3 GPIO Configuration
 178              		.loc 1 74 5 view .LVU44
 179              	.LBB4:
  74:Core/Src/usart.c ****     /**USART3 GPIO Configuration
 180              		.loc 1 74 5 view .LVU45
 181 0050 0295     		str	r5, [sp, #8]
  74:Core/Src/usart.c ****     /**USART3 GPIO Configuration
 182              		.loc 1 74 5 view .LVU46
 183 0052 1A6B     		ldr	r2, [r3, #48]
 184 0054 42F00202 		orr	r2, r2, #2
 185 0058 1A63     		str	r2, [r3, #48]
  74:Core/Src/usart.c ****     /**USART3 GPIO Configuration
 186              		.loc 1 74 5 view .LVU47
 187 005a 1B6B     		ldr	r3, [r3, #48]
 188 005c 03F00203 		and	r3, r3, #2
 189 0060 0293     		str	r3, [sp, #8]
  74:Core/Src/usart.c ****     /**USART3 GPIO Configuration
 190              		.loc 1 74 5 view .LVU48
ARM GAS  C:\Users\Rick\AppData\Local\Temp\cchH5bqe.s 			page 7


 191 0062 029B     		ldr	r3, [sp, #8]
 192              	.LBE4:
  74:Core/Src/usart.c ****     /**USART3 GPIO Configuration
 193              		.loc 1 74 5 view .LVU49
  79:Core/Src/usart.c ****     GPIO_InitStruct.Mode = GPIO_MODE_AF_PP;
 194              		.loc 1 79 5 view .LVU50
  79:Core/Src/usart.c ****     GPIO_InitStruct.Mode = GPIO_MODE_AF_PP;
 195              		.loc 1 79 25 is_stmt 0 view .LVU51
 196 0064 2023     		movs	r3, #32
 197 0066 0393     		str	r3, [sp, #12]
  80:Core/Src/usart.c ****     GPIO_InitStruct.Pull = GPIO_NOPULL;
 198              		.loc 1 80 5 is_stmt 1 view .LVU52
  80:Core/Src/usart.c ****     GPIO_InitStruct.Pull = GPIO_NOPULL;
 199              		.loc 1 80 26 is_stmt 0 view .LVU53
 200 0068 4FF0020A 		mov	r10, #2
 201 006c CDF810A0 		str	r10, [sp, #16]
  81:Core/Src/usart.c ****     GPIO_InitStruct.Speed = GPIO_SPEED_FREQ_VERY_HIGH;
 202              		.loc 1 81 5 is_stmt 1 view .LVU54
  82:Core/Src/usart.c ****     GPIO_InitStruct.Alternate = GPIO_AF7_USART3;
 203              		.loc 1 82 5 view .LVU55
  82:Core/Src/usart.c ****     GPIO_InitStruct.Alternate = GPIO_AF7_USART3;
 204              		.loc 1 82 27 is_stmt 0 view .LVU56
 205 0070 4FF00309 		mov	r9, #3
 206 0074 CDF81890 		str	r9, [sp, #24]
  83:Core/Src/usart.c ****     HAL_GPIO_Init(GPIOC, &GPIO_InitStruct);
 207              		.loc 1 83 5 is_stmt 1 view .LVU57
  83:Core/Src/usart.c ****     HAL_GPIO_Init(GPIOC, &GPIO_InitStruct);
 208              		.loc 1 83 31 is_stmt 0 view .LVU58
 209 0078 4FF00708 		mov	r8, #7
 210 007c CDF81C80 		str	r8, [sp, #28]
  84:Core/Src/usart.c **** 
 211              		.loc 1 84 5 is_stmt 1 view .LVU59
 212 0080 03AF     		add	r7, sp, #12
 213 0082 3946     		mov	r1, r7
 214 0084 2648     		ldr	r0, .L15+4
 215              	.LVL5:
  84:Core/Src/usart.c **** 
 216              		.loc 1 84 5 is_stmt 0 view .LVU60
 217 0086 FFF7FEFF 		bl	HAL_GPIO_Init
 218              	.LVL6:
  86:Core/Src/usart.c ****     GPIO_InitStruct.Mode = GPIO_MODE_AF_PP;
 219              		.loc 1 86 5 is_stmt 1 view .LVU61
  86:Core/Src/usart.c ****     GPIO_InitStruct.Mode = GPIO_MODE_AF_PP;
 220              		.loc 1 86 25 is_stmt 0 view .LVU62
 221 008a 4FF48066 		mov	r6, #1024
 222 008e 0396     		str	r6, [sp, #12]
  87:Core/Src/usart.c ****     GPIO_InitStruct.Pull = GPIO_NOPULL;
 223              		.loc 1 87 5 is_stmt 1 view .LVU63
  87:Core/Src/usart.c ****     GPIO_InitStruct.Pull = GPIO_NOPULL;
 224              		.loc 1 87 26 is_stmt 0 view .LVU64
 225 0090 CDF810A0 		str	r10, [sp, #16]
  88:Core/Src/usart.c ****     GPIO_InitStruct.Speed = GPIO_SPEED_FREQ_VERY_HIGH;
 226              		.loc 1 88 5 is_stmt 1 view .LVU65
  88:Core/Src/usart.c ****     GPIO_InitStruct.Speed = GPIO_SPEED_FREQ_VERY_HIGH;
 227              		.loc 1 88 26 is_stmt 0 view .LVU66
 228 0094 0595     		str	r5, [sp, #20]
  89:Core/Src/usart.c ****     GPIO_InitStruct.Alternate = GPIO_AF7_USART3;
ARM GAS  C:\Users\Rick\AppData\Local\Temp\cchH5bqe.s 			page 8


 229              		.loc 1 89 5 is_stmt 1 view .LVU67
  89:Core/Src/usart.c ****     GPIO_InitStruct.Alternate = GPIO_AF7_USART3;
 230              		.loc 1 89 27 is_stmt 0 view .LVU68
 231 0096 CDF81890 		str	r9, [sp, #24]
  90:Core/Src/usart.c ****     HAL_GPIO_Init(GPIOB, &GPIO_InitStruct);
 232              		.loc 1 90 5 is_stmt 1 view .LVU69
  90:Core/Src/usart.c ****     HAL_GPIO_Init(GPIOB, &GPIO_InitStruct);
 233              		.loc 1 90 31 is_stmt 0 view .LVU70
 234 009a CDF81C80 		str	r8, [sp, #28]
  91:Core/Src/usart.c **** 
 235              		.loc 1 91 5 is_stmt 1 view .LVU71
 236 009e 3946     		mov	r1, r7
 237 00a0 2048     		ldr	r0, .L15+8
 238 00a2 FFF7FEFF 		bl	HAL_GPIO_Init
 239              	.LVL7:
  95:Core/Src/usart.c ****     hdma_usart3_tx.Init.Channel = DMA_CHANNEL_4;
 240              		.loc 1 95 5 view .LVU72
  95:Core/Src/usart.c ****     hdma_usart3_tx.Init.Channel = DMA_CHANNEL_4;
 241              		.loc 1 95 29 is_stmt 0 view .LVU73
 242 00a6 2048     		ldr	r0, .L15+12
 243 00a8 204B     		ldr	r3, .L15+16
 244 00aa 0360     		str	r3, [r0]
  96:Core/Src/usart.c ****     hdma_usart3_tx.Init.Direction = DMA_MEMORY_TO_PERIPH;
 245              		.loc 1 96 5 is_stmt 1 view .LVU74
  96:Core/Src/usart.c ****     hdma_usart3_tx.Init.Direction = DMA_MEMORY_TO_PERIPH;
 246              		.loc 1 96 33 is_stmt 0 view .LVU75
 247 00ac 4FF00063 		mov	r3, #134217728
 248 00b0 4360     		str	r3, [r0, #4]
  97:Core/Src/usart.c ****     hdma_usart3_tx.Init.PeriphInc = DMA_PINC_DISABLE;
 249              		.loc 1 97 5 is_stmt 1 view .LVU76
  97:Core/Src/usart.c ****     hdma_usart3_tx.Init.PeriphInc = DMA_PINC_DISABLE;
 250              		.loc 1 97 35 is_stmt 0 view .LVU77
 251 00b2 4023     		movs	r3, #64
 252 00b4 8360     		str	r3, [r0, #8]
  98:Core/Src/usart.c ****     hdma_usart3_tx.Init.MemInc = DMA_MINC_ENABLE;
 253              		.loc 1 98 5 is_stmt 1 view .LVU78
  98:Core/Src/usart.c ****     hdma_usart3_tx.Init.MemInc = DMA_MINC_ENABLE;
 254              		.loc 1 98 35 is_stmt 0 view .LVU79
 255 00b6 C560     		str	r5, [r0, #12]
  99:Core/Src/usart.c ****     hdma_usart3_tx.Init.PeriphDataAlignment = DMA_PDATAALIGN_BYTE;
 256              		.loc 1 99 5 is_stmt 1 view .LVU80
  99:Core/Src/usart.c ****     hdma_usart3_tx.Init.PeriphDataAlignment = DMA_PDATAALIGN_BYTE;
 257              		.loc 1 99 32 is_stmt 0 view .LVU81
 258 00b8 0661     		str	r6, [r0, #16]
 100:Core/Src/usart.c ****     hdma_usart3_tx.Init.MemDataAlignment = DMA_MDATAALIGN_BYTE;
 259              		.loc 1 100 5 is_stmt 1 view .LVU82
 100:Core/Src/usart.c ****     hdma_usart3_tx.Init.MemDataAlignment = DMA_MDATAALIGN_BYTE;
 260              		.loc 1 100 45 is_stmt 0 view .LVU83
 261 00ba 4561     		str	r5, [r0, #20]
 101:Core/Src/usart.c ****     hdma_usart3_tx.Init.Mode = DMA_NORMAL;
 262              		.loc 1 101 5 is_stmt 1 view .LVU84
 101:Core/Src/usart.c ****     hdma_usart3_tx.Init.Mode = DMA_NORMAL;
 263              		.loc 1 101 42 is_stmt 0 view .LVU85
 264 00bc 8561     		str	r5, [r0, #24]
 102:Core/Src/usart.c ****     hdma_usart3_tx.Init.Priority = DMA_PRIORITY_LOW;
 265              		.loc 1 102 5 is_stmt 1 view .LVU86
 102:Core/Src/usart.c ****     hdma_usart3_tx.Init.Priority = DMA_PRIORITY_LOW;
ARM GAS  C:\Users\Rick\AppData\Local\Temp\cchH5bqe.s 			page 9


 266              		.loc 1 102 30 is_stmt 0 view .LVU87
 267 00be C561     		str	r5, [r0, #28]
 103:Core/Src/usart.c ****     hdma_usart3_tx.Init.FIFOMode = DMA_FIFOMODE_DISABLE;
 268              		.loc 1 103 5 is_stmt 1 view .LVU88
 103:Core/Src/usart.c ****     hdma_usart3_tx.Init.FIFOMode = DMA_FIFOMODE_DISABLE;
 269              		.loc 1 103 34 is_stmt 0 view .LVU89
 270 00c0 0562     		str	r5, [r0, #32]
 104:Core/Src/usart.c ****     if (HAL_DMA_Init(&hdma_usart3_tx) != HAL_OK)
 271              		.loc 1 104 5 is_stmt 1 view .LVU90
 104:Core/Src/usart.c ****     if (HAL_DMA_Init(&hdma_usart3_tx) != HAL_OK)
 272              		.loc 1 104 34 is_stmt 0 view .LVU91
 273 00c2 4562     		str	r5, [r0, #36]
 105:Core/Src/usart.c ****     {
 274              		.loc 1 105 5 is_stmt 1 view .LVU92
 105:Core/Src/usart.c ****     {
 275              		.loc 1 105 9 is_stmt 0 view .LVU93
 276 00c4 FFF7FEFF 		bl	HAL_DMA_Init
 277              	.LVL8:
 105:Core/Src/usart.c ****     {
 278              		.loc 1 105 8 discriminator 1 view .LVU94
 279 00c8 10BB     		cbnz	r0, .L13
 280              	.L9:
 110:Core/Src/usart.c **** 
 281              		.loc 1 110 5 is_stmt 1 view .LVU95
 110:Core/Src/usart.c **** 
 282              		.loc 1 110 5 view .LVU96
 283 00ca 174B     		ldr	r3, .L15+12
 284 00cc A363     		str	r3, [r4, #56]
 110:Core/Src/usart.c **** 
 285              		.loc 1 110 5 view .LVU97
 286 00ce 9C63     		str	r4, [r3, #56]
 110:Core/Src/usart.c **** 
 287              		.loc 1 110 5 view .LVU98
 113:Core/Src/usart.c ****     hdma_usart3_rx.Init.Channel = DMA_CHANNEL_4;
 288              		.loc 1 113 5 view .LVU99
 113:Core/Src/usart.c ****     hdma_usart3_rx.Init.Channel = DMA_CHANNEL_4;
 289              		.loc 1 113 29 is_stmt 0 view .LVU100
 290 00d0 1748     		ldr	r0, .L15+20
 291 00d2 184B     		ldr	r3, .L15+24
 292 00d4 0360     		str	r3, [r0]
 114:Core/Src/usart.c ****     hdma_usart3_rx.Init.Direction = DMA_PERIPH_TO_MEMORY;
 293              		.loc 1 114 5 is_stmt 1 view .LVU101
 114:Core/Src/usart.c ****     hdma_usart3_rx.Init.Direction = DMA_PERIPH_TO_MEMORY;
 294              		.loc 1 114 33 is_stmt 0 view .LVU102
 295 00d6 4FF00063 		mov	r3, #134217728
 296 00da 4360     		str	r3, [r0, #4]
 115:Core/Src/usart.c ****     hdma_usart3_rx.Init.PeriphInc = DMA_PINC_DISABLE;
 297              		.loc 1 115 5 is_stmt 1 view .LVU103
 115:Core/Src/usart.c ****     hdma_usart3_rx.Init.PeriphInc = DMA_PINC_DISABLE;
 298              		.loc 1 115 35 is_stmt 0 view .LVU104
 299 00dc 0023     		movs	r3, #0
 300 00de 8360     		str	r3, [r0, #8]
 116:Core/Src/usart.c ****     hdma_usart3_rx.Init.MemInc = DMA_MINC_ENABLE;
 301              		.loc 1 116 5 is_stmt 1 view .LVU105
 116:Core/Src/usart.c ****     hdma_usart3_rx.Init.MemInc = DMA_MINC_ENABLE;
 302              		.loc 1 116 35 is_stmt 0 view .LVU106
 303 00e0 C360     		str	r3, [r0, #12]
ARM GAS  C:\Users\Rick\AppData\Local\Temp\cchH5bqe.s 			page 10


 117:Core/Src/usart.c ****     hdma_usart3_rx.Init.PeriphDataAlignment = DMA_PDATAALIGN_BYTE;
 304              		.loc 1 117 5 is_stmt 1 view .LVU107
 117:Core/Src/usart.c ****     hdma_usart3_rx.Init.PeriphDataAlignment = DMA_PDATAALIGN_BYTE;
 305              		.loc 1 117 32 is_stmt 0 view .LVU108
 306 00e2 4FF48062 		mov	r2, #1024
 307 00e6 0261     		str	r2, [r0, #16]
 118:Core/Src/usart.c ****     hdma_usart3_rx.Init.MemDataAlignment = DMA_MDATAALIGN_BYTE;
 308              		.loc 1 118 5 is_stmt 1 view .LVU109
 118:Core/Src/usart.c ****     hdma_usart3_rx.Init.MemDataAlignment = DMA_MDATAALIGN_BYTE;
 309              		.loc 1 118 45 is_stmt 0 view .LVU110
 310 00e8 4361     		str	r3, [r0, #20]
 119:Core/Src/usart.c ****     hdma_usart3_rx.Init.Mode = DMA_NORMAL;
 311              		.loc 1 119 5 is_stmt 1 view .LVU111
 119:Core/Src/usart.c ****     hdma_usart3_rx.Init.Mode = DMA_NORMAL;
 312              		.loc 1 119 42 is_stmt 0 view .LVU112
 313 00ea 8361     		str	r3, [r0, #24]
 120:Core/Src/usart.c ****     hdma_usart3_rx.Init.Priority = DMA_PRIORITY_LOW;
 314              		.loc 1 120 5 is_stmt 1 view .LVU113
 120:Core/Src/usart.c ****     hdma_usart3_rx.Init.Priority = DMA_PRIORITY_LOW;
 315              		.loc 1 120 30 is_stmt 0 view .LVU114
 316 00ec C361     		str	r3, [r0, #28]
 121:Core/Src/usart.c ****     hdma_usart3_rx.Init.FIFOMode = DMA_FIFOMODE_DISABLE;
 317              		.loc 1 121 5 is_stmt 1 view .LVU115
 121:Core/Src/usart.c ****     hdma_usart3_rx.Init.FIFOMode = DMA_FIFOMODE_DISABLE;
 318              		.loc 1 121 34 is_stmt 0 view .LVU116
 319 00ee 0362     		str	r3, [r0, #32]
 122:Core/Src/usart.c ****     if (HAL_DMA_Init(&hdma_usart3_rx) != HAL_OK)
 320              		.loc 1 122 5 is_stmt 1 view .LVU117
 122:Core/Src/usart.c ****     if (HAL_DMA_Init(&hdma_usart3_rx) != HAL_OK)
 321              		.loc 1 122 34 is_stmt 0 view .LVU118
 322 00f0 4362     		str	r3, [r0, #36]
 123:Core/Src/usart.c ****     {
 323              		.loc 1 123 5 is_stmt 1 view .LVU119
 123:Core/Src/usart.c ****     {
 324              		.loc 1 123 9 is_stmt 0 view .LVU120
 325 00f2 FFF7FEFF 		bl	HAL_DMA_Init
 326              	.LVL9:
 123:Core/Src/usart.c ****     {
 327              		.loc 1 123 8 discriminator 1 view .LVU121
 328 00f6 70B9     		cbnz	r0, .L14
 329              	.L10:
 128:Core/Src/usart.c **** 
 330              		.loc 1 128 5 is_stmt 1 view .LVU122
 128:Core/Src/usart.c **** 
 331              		.loc 1 128 5 view .LVU123
 332 00f8 0D4B     		ldr	r3, .L15+20
 333 00fa E363     		str	r3, [r4, #60]
 128:Core/Src/usart.c **** 
 334              		.loc 1 128 5 view .LVU124
 335 00fc 9C63     		str	r4, [r3, #56]
 128:Core/Src/usart.c **** 
 336              		.loc 1 128 5 view .LVU125
 131:Core/Src/usart.c ****     HAL_NVIC_EnableIRQ(USART3_IRQn);
 337              		.loc 1 131 5 view .LVU126
 338 00fe 0022     		movs	r2, #0
 339 0100 0521     		movs	r1, #5
 340 0102 2720     		movs	r0, #39
ARM GAS  C:\Users\Rick\AppData\Local\Temp\cchH5bqe.s 			page 11


 341 0104 FFF7FEFF 		bl	HAL_NVIC_SetPriority
 342              	.LVL10:
 132:Core/Src/usart.c ****   /* USER CODE BEGIN USART3_MspInit 1 */
 343              		.loc 1 132 5 view .LVU127
 344 0108 2720     		movs	r0, #39
 345 010a FFF7FEFF 		bl	HAL_NVIC_EnableIRQ
 346              	.LVL11:
 347              		.loc 1 137 1 is_stmt 0 view .LVU128
 348 010e 84E7     		b	.L7
 349              	.L13:
 107:Core/Src/usart.c ****     }
 350              		.loc 1 107 7 is_stmt 1 view .LVU129
 351 0110 FFF7FEFF 		bl	Error_Handler
 352              	.LVL12:
 353 0114 D9E7     		b	.L9
 354              	.L14:
 125:Core/Src/usart.c ****     }
 355              		.loc 1 125 7 view .LVU130
 356 0116 FFF7FEFF 		bl	Error_Handler
 357              	.LVL13:
 358 011a EDE7     		b	.L10
 359              	.L16:
 360              		.align	2
 361              	.L15:
 362 011c 00480040 		.word	1073760256
 363 0120 00080240 		.word	1073874944
 364 0124 00040240 		.word	1073873920
 365 0128 00000000 		.word	hdma_usart3_tx
 366 012c 58600240 		.word	1073897560
 367 0130 00000000 		.word	hdma_usart3_rx
 368 0134 28600240 		.word	1073897512
 369              		.cfi_endproc
 370              	.LFE240:
 372              		.section	.text.HAL_UART_MspDeInit,"ax",%progbits
 373              		.align	1
 374              		.global	HAL_UART_MspDeInit
 375              		.syntax unified
 376              		.thumb
 377              		.thumb_func
 379              	HAL_UART_MspDeInit:
 380              	.LVL14:
 381              	.LFB241:
 138:Core/Src/usart.c **** 
 139:Core/Src/usart.c **** void HAL_UART_MspDeInit(UART_HandleTypeDef* uartHandle)
 140:Core/Src/usart.c **** {
 382              		.loc 1 140 1 view -0
 383              		.cfi_startproc
 384              		@ args = 0, pretend = 0, frame = 0
 385              		@ frame_needed = 0, uses_anonymous_args = 0
 141:Core/Src/usart.c **** 
 142:Core/Src/usart.c ****   if(uartHandle->Instance==USART3)
 386              		.loc 1 142 3 view .LVU132
 387              		.loc 1 142 16 is_stmt 0 view .LVU133
 388 0000 0268     		ldr	r2, [r0]
 389              		.loc 1 142 5 view .LVU134
 390 0002 0F4B     		ldr	r3, .L24
 391 0004 9A42     		cmp	r2, r3
ARM GAS  C:\Users\Rick\AppData\Local\Temp\cchH5bqe.s 			page 12


 392 0006 00D0     		beq	.L23
 393 0008 7047     		bx	lr
 394              	.L23:
 140:Core/Src/usart.c **** 
 395              		.loc 1 140 1 view .LVU135
 396 000a 10B5     		push	{r4, lr}
 397              		.cfi_def_cfa_offset 8
 398              		.cfi_offset 4, -8
 399              		.cfi_offset 14, -4
 400 000c 0446     		mov	r4, r0
 143:Core/Src/usart.c ****   {
 144:Core/Src/usart.c ****   /* USER CODE BEGIN USART3_MspDeInit 0 */
 145:Core/Src/usart.c **** 
 146:Core/Src/usart.c ****   /* USER CODE END USART3_MspDeInit 0 */
 147:Core/Src/usart.c ****     /* Peripheral clock disable */
 148:Core/Src/usart.c ****     __HAL_RCC_USART3_CLK_DISABLE();
 401              		.loc 1 148 5 is_stmt 1 view .LVU136
 402 000e 0D4A     		ldr	r2, .L24+4
 403 0010 136C     		ldr	r3, [r2, #64]
 404 0012 23F48023 		bic	r3, r3, #262144
 405 0016 1364     		str	r3, [r2, #64]
 149:Core/Src/usart.c **** 
 150:Core/Src/usart.c ****     /**USART3 GPIO Configuration
 151:Core/Src/usart.c ****     PC5     ------> USART3_RX
 152:Core/Src/usart.c ****     PB10     ------> USART3_TX
 153:Core/Src/usart.c ****     */
 154:Core/Src/usart.c ****     HAL_GPIO_DeInit(GPIOC, GPIO_PIN_5);
 406              		.loc 1 154 5 view .LVU137
 407 0018 2021     		movs	r1, #32
 408 001a 0B48     		ldr	r0, .L24+8
 409              	.LVL15:
 410              		.loc 1 154 5 is_stmt 0 view .LVU138
 411 001c FFF7FEFF 		bl	HAL_GPIO_DeInit
 412              	.LVL16:
 155:Core/Src/usart.c **** 
 156:Core/Src/usart.c ****     HAL_GPIO_DeInit(GPIOB, GPIO_PIN_10);
 413              		.loc 1 156 5 is_stmt 1 view .LVU139
 414 0020 4FF48061 		mov	r1, #1024
 415 0024 0948     		ldr	r0, .L24+12
 416 0026 FFF7FEFF 		bl	HAL_GPIO_DeInit
 417              	.LVL17:
 157:Core/Src/usart.c **** 
 158:Core/Src/usart.c ****     /* USART3 DMA DeInit */
 159:Core/Src/usart.c ****     HAL_DMA_DeInit(uartHandle->hdmatx);
 418              		.loc 1 159 5 view .LVU140
 419 002a A06B     		ldr	r0, [r4, #56]
 420 002c FFF7FEFF 		bl	HAL_DMA_DeInit
 421              	.LVL18:
 160:Core/Src/usart.c ****     HAL_DMA_DeInit(uartHandle->hdmarx);
 422              		.loc 1 160 5 view .LVU141
 423 0030 E06B     		ldr	r0, [r4, #60]
 424 0032 FFF7FEFF 		bl	HAL_DMA_DeInit
 425              	.LVL19:
 161:Core/Src/usart.c **** 
 162:Core/Src/usart.c ****     /* USART3 interrupt Deinit */
 163:Core/Src/usart.c ****     HAL_NVIC_DisableIRQ(USART3_IRQn);
 426              		.loc 1 163 5 view .LVU142
ARM GAS  C:\Users\Rick\AppData\Local\Temp\cchH5bqe.s 			page 13


 427 0036 2720     		movs	r0, #39
 428 0038 FFF7FEFF 		bl	HAL_NVIC_DisableIRQ
 429              	.LVL20:
 164:Core/Src/usart.c ****   /* USER CODE BEGIN USART3_MspDeInit 1 */
 165:Core/Src/usart.c **** 
 166:Core/Src/usart.c ****   /* USER CODE END USART3_MspDeInit 1 */
 167:Core/Src/usart.c ****   }
 168:Core/Src/usart.c **** }
 430              		.loc 1 168 1 is_stmt 0 view .LVU143
 431 003c 10BD     		pop	{r4, pc}
 432              	.LVL21:
 433              	.L25:
 434              		.loc 1 168 1 view .LVU144
 435 003e 00BF     		.align	2
 436              	.L24:
 437 0040 00480040 		.word	1073760256
 438 0044 00380240 		.word	1073887232
 439 0048 00080240 		.word	1073874944
 440 004c 00040240 		.word	1073873920
 441              		.cfi_endproc
 442              	.LFE241:
 444              		.global	hdma_usart3_rx
 445              		.section	.bss.hdma_usart3_rx,"aw",%nobits
 446              		.align	2
 449              	hdma_usart3_rx:
 450 0000 00000000 		.space	96
 450      00000000 
 450      00000000 
 450      00000000 
 450      00000000 
 451              		.global	hdma_usart3_tx
 452              		.section	.bss.hdma_usart3_tx,"aw",%nobits
 453              		.align	2
 456              	hdma_usart3_tx:
 457 0000 00000000 		.space	96
 457      00000000 
 457      00000000 
 457      00000000 
 457      00000000 
 458              		.global	huart3
 459              		.section	.bss.huart3,"aw",%nobits
 460              		.align	2
 463              	huart3:
 464 0000 00000000 		.space	72
 464      00000000 
 464      00000000 
 464      00000000 
 464      00000000 
 465              		.text
 466              	.Letext0:
 467              		.file 2 "Drivers/CMSIS/Device/ST/STM32F4xx/Include/stm32f446xx.h"
 468              		.file 3 "C:/Users/Rick/AppData/Roaming/Code/User/globalStorage/bmd.stm32-for-vscode/@xpack-dev-too
 469              		.file 4 "C:/Users/Rick/AppData/Roaming/Code/User/globalStorage/bmd.stm32-for-vscode/@xpack-dev-too
 470              		.file 5 "Drivers/STM32F4xx_HAL_Driver/Inc/stm32f4xx_hal_def.h"
 471              		.file 6 "Drivers/STM32F4xx_HAL_Driver/Inc/stm32f4xx_hal_gpio.h"
 472              		.file 7 "Drivers/STM32F4xx_HAL_Driver/Inc/stm32f4xx_hal_dma.h"
 473              		.file 8 "Drivers/STM32F4xx_HAL_Driver/Inc/stm32f4xx_hal_uart.h"
ARM GAS  C:\Users\Rick\AppData\Local\Temp\cchH5bqe.s 			page 14


 474              		.file 9 "Core/Inc/usart.h"
 475              		.file 10 "Drivers/STM32F4xx_HAL_Driver/Inc/stm32f4xx_hal_cortex.h"
 476              		.file 11 "Core/Inc/main.h"
ARM GAS  C:\Users\Rick\AppData\Local\Temp\cchH5bqe.s 			page 15

