ARM GAS  C:\Users\Rick\AppData\Local\Temp\ccnhc5iu.s 			page 1


   1              		.cpu cortex-m4
   2              		.arch armv7e-m
   3              		.fpu fpv4-sp-d16
   4              		.eabi_attribute 27, 1
   5              		.eabi_attribute 28, 1
   6              		.eabi_attribute 20, 1
   7              		.eabi_attribute 21, 1
   8              		.eabi_attribute 23, 3
   9              		.eabi_attribute 24, 1
  10              		.eabi_attribute 25, 1
  11              		.eabi_attribute 26, 1
  12              		.eabi_attribute 30, 1
  13              		.eabi_attribute 34, 1
  14              		.eabi_attribute 18, 4
  15              		.file	"vbus.c"
  16              		.text
  17              	.Ltext0:
  18              		.cfi_sections	.debug_frame
  19              		.file 1 "Controller/Sensors/vbus.c"
  20              		.section	.text.vbus_init,"ax",%progbits
  21              		.align	1
  22              		.global	vbus_init
  23              		.syntax unified
  24              		.thumb
  25              		.thumb_func
  27              	vbus_init:
  28              	.LFB239:
   1:Controller/Sensors/vbus.c **** #include "./vbus.h"
   2:Controller/Sensors/vbus.c **** 
   3:Controller/Sensors/vbus.c **** #include "adc.h"
   4:Controller/Sensors/vbus.c **** 
   5:Controller/Sensors/vbus.c **** #define ADC_RESOLUTION 4096.0f
   6:Controller/Sensors/vbus.c **** #define ADC_VOLTAGE_REF 3.3f
   7:Controller/Sensors/vbus.c **** #define R1 75000.0f
   8:Controller/Sensors/vbus.c **** #define R2 3000.0f
   9:Controller/Sensors/vbus.c **** 
  10:Controller/Sensors/vbus.c **** static float g_vbus_gain = 0.0f;
  11:Controller/Sensors/vbus.c **** static float g_vbus = 0.0f;
  12:Controller/Sensors/vbus.c **** 
  13:Controller/Sensors/vbus.c **** void vbus_init(void) {
  29              		.loc 1 13 22 view -0
  30              		.cfi_startproc
  31              		@ args = 0, pretend = 0, frame = 0
  32              		@ frame_needed = 0, uses_anonymous_args = 0
  33              		@ link register save eliminated.
  14:Controller/Sensors/vbus.c ****   g_vbus_gain = ADC_VOLTAGE_REF / ADC_RESOLUTION * (R1 + R2) / R2;
  34              		.loc 1 14 3 view .LVU1
  35              		.loc 1 14 15 is_stmt 0 view .LVU2
  36 0000 014B     		ldr	r3, .L2
  37 0002 024A     		ldr	r2, .L2+4
  38 0004 1A60     		str	r2, [r3]	@ float
  15:Controller/Sensors/vbus.c **** }
  39              		.loc 1 15 1 view .LVU3
  40 0006 7047     		bx	lr
  41              	.L3:
  42              		.align	2
  43              	.L2:
ARM GAS  C:\Users\Rick\AppData\Local\Temp\ccnhc5iu.s 			page 2


  44 0008 00000000 		.word	g_vbus_gain
  45 000c 9A99AB3C 		.word	1017878938
  46              		.cfi_endproc
  47              	.LFE239:
  49              		.section	.text.vbus_get,"ax",%progbits
  50              		.align	1
  51              		.global	vbus_get
  52              		.syntax unified
  53              		.thumb
  54              		.thumb_func
  56              	vbus_get:
  57              	.LFB240:
  16:Controller/Sensors/vbus.c **** 
  17:Controller/Sensors/vbus.c **** float vbus_get(void) {
  58              		.loc 1 17 22 is_stmt 1 view -0
  59              		.cfi_startproc
  60              		@ args = 0, pretend = 0, frame = 0
  61              		@ frame_needed = 0, uses_anonymous_args = 0
  62 0000 10B5     		push	{r4, lr}
  63              		.cfi_def_cfa_offset 8
  64              		.cfi_offset 4, -8
  65              		.cfi_offset 14, -4
  18:Controller/Sensors/vbus.c ****   HAL_ADC_Start(&hadc1);
  66              		.loc 1 18 3 view .LVU5
  67 0002 0C4C     		ldr	r4, .L6
  68 0004 2046     		mov	r0, r4
  69 0006 FFF7FEFF 		bl	HAL_ADC_Start
  70              	.LVL0:
  19:Controller/Sensors/vbus.c ****   HAL_ADC_PollForConversion(&hadc1, 10);
  71              		.loc 1 19 3 view .LVU6
  72 000a 0A21     		movs	r1, #10
  73 000c 2046     		mov	r0, r4
  74 000e FFF7FEFF 		bl	HAL_ADC_PollForConversion
  75              	.LVL1:
  20:Controller/Sensors/vbus.c ****   g_vbus = HAL_ADC_GetValue(&hadc1) * g_vbus_gain;
  76              		.loc 1 20 3 view .LVU7
  77              		.loc 1 20 12 is_stmt 0 view .LVU8
  78 0012 2046     		mov	r0, r4
  79 0014 FFF7FEFF 		bl	HAL_ADC_GetValue
  80              	.LVL2:
  81 0018 00EE100A 		vmov	s0, r0	@ int
  82              		.loc 1 20 37 discriminator 1 view .LVU9
  83 001c B8EE400A 		vcvt.f32.u32	s0, s0
  84 0020 054B     		ldr	r3, .L6+4
  85 0022 D3ED007A 		vldr.32	s15, [r3]
  86 0026 20EE270A 		vmul.f32	s0, s0, s15
  87              		.loc 1 20 10 discriminator 1 view .LVU10
  88 002a 044B     		ldr	r3, .L6+8
  89 002c 83ED000A 		vstr.32	s0, [r3]
  21:Controller/Sensors/vbus.c ****   return g_vbus;
  90              		.loc 1 21 3 is_stmt 1 view .LVU11
  22:Controller/Sensors/vbus.c **** }...
  91              		.loc 1 22 1 is_stmt 0 view .LVU12
  92 0030 10BD     		pop	{r4, pc}
  93              	.L7:
  94 0032 00BF     		.align	2
  95              	.L6:
ARM GAS  C:\Users\Rick\AppData\Local\Temp\ccnhc5iu.s 			page 3


  96 0034 00000000 		.word	hadc1
  97 0038 00000000 		.word	g_vbus_gain
  98 003c 00000000 		.word	g_vbus
  99              		.cfi_endproc
 100              	.LFE240:
 102              		.section	.bss.g_vbus,"aw",%nobits
 103              		.align	2
 106              	g_vbus:
 107 0000 00000000 		.space	4
 108              		.section	.bss.g_vbus_gain,"aw",%nobits
 109              		.align	2
 112              	g_vbus_gain:
 113 0000 00000000 		.space	4
 114              		.text
 115              	.Letext0:
 116              		.file 2 "C:/Users/Rick/AppData/Roaming/Code/User/globalStorage/bmd.stm32-for-vscode/@xpack-dev-too
 117              		.file 3 "C:/Users/Rick/AppData/Roaming/Code/User/globalStorage/bmd.stm32-for-vscode/@xpack-dev-too
 118              		.file 4 "Drivers/CMSIS/Device/ST/STM32F4xx/Include/stm32f446xx.h"
 119              		.file 5 "Drivers/CMSIS/Device/ST/STM32F4xx/Include/stm32f4xx.h"
 120              		.file 6 "Drivers/STM32F4xx_HAL_Driver/Inc/stm32f4xx_hal_def.h"
 121              		.file 7 "Drivers/STM32F4xx_HAL_Driver/Inc/stm32f4xx_hal_dma.h"
 122              		.file 8 "Drivers/STM32F4xx_HAL_Driver/Inc/stm32f4xx_hal_adc.h"
 123              		.file 9 "Core/Inc/adc.h"
ARM GAS  C:\Users\Rick\AppData\Local\Temp\ccnhc5iu.s 			page 4


DEFINED SYMBOLS
                            *ABS*:00000000 vbus.c
C:\Users\Rick\AppData\Local\Temp\ccnhc5iu.s:21     .text.vbus_init:00000000 $t
C:\Users\Rick\AppData\Local\Temp\ccnhc5iu.s:27     .text.vbus_init:00000000 vbus_init
C:\Users\Rick\AppData\Local\Temp\ccnhc5iu.s:44     .text.vbus_init:00000008 $d
C:\Users\Rick\AppData\Local\Temp\ccnhc5iu.s:112    .bss.g_vbus_gain:00000000 g_vbus_gain
C:\Users\Rick\AppData\Local\Temp\ccnhc5iu.s:50     .text.vbus_get:00000000 $t
C:\Users\Rick\AppData\Local\Temp\ccnhc5iu.s:56     .text.vbus_get:00000000 vbus_get
C:\Users\Rick\AppData\Local\Temp\ccnhc5iu.s:96     .text.vbus_get:00000034 $d
C:\Users\Rick\AppData\Local\Temp\ccnhc5iu.s:106    .bss.g_vbus:00000000 g_vbus
C:\Users\Rick\AppData\Local\Temp\ccnhc5iu.s:103    .bss.g_vbus:00000000 $d
C:\Users\Rick\AppData\Local\Temp\ccnhc5iu.s:109    .bss.g_vbus_gain:00000000 $d

UNDEFINED SYMBOLS
HAL_ADC_Start
HAL_ADC_PollForConversion
HAL_ADC_GetValue
hadc1
