ARM GAS  C:\Users\Rick\AppData\Local\Temp\ccvwWuRb.s 			page 1


   1              		.cpu cortex-m4
   2              		.arch armv7e-m
   3              		.fpu fpv4-sp-d16
   4              		.eabi_attribute 27, 1
   5              		.eabi_attribute 28, 1
   6              		.eabi_attribute 20, 1
   7              		.eabi_attribute 21, 1
   8              		.eabi_attribute 23, 3
   9              		.eabi_attribute 24, 1
  10              		.eabi_attribute 25, 1
  11              		.eabi_attribute 26, 1
  12              		.eabi_attribute 30, 1
  13              		.eabi_attribute 34, 1
  14              		.eabi_attribute 18, 4
  15              		.file	"VF.c"
  16              		.text
  17              	.Ltext0:
  18              		.cfi_sections	.debug_frame
  19              		.file 1 "Controller/FOC/VF.c"
  20              		.section	.text.VF_step,"ax",%progbits
  21              		.align	1
  22              		.global	VF_step
  23              		.syntax unified
  24              		.thumb
  25              		.thumb_func
  27              	VF_step:
  28              	.LFB150:
   1:Controller/FOC/VF.c **** /*
   2:Controller/FOC/VF.c ****  * Academic License - for use in teaching, academic research, and meeting
   3:Controller/FOC/VF.c ****  * course requirements at degree granting institutions only.  Not for
   4:Controller/FOC/VF.c ****  * government, commercial, or other organizational use.
   5:Controller/FOC/VF.c ****  *
   6:Controller/FOC/VF.c ****  * File: VF.c
   7:Controller/FOC/VF.c ****  *
   8:Controller/FOC/VF.c ****  * Code generated for Simulink model 'VF'.
   9:Controller/FOC/VF.c ****  *
  10:Controller/FOC/VF.c ****  * Model version                  : 1.2
  11:Controller/FOC/VF.c ****  * Simulink Coder version         : 24.2 (R2024b) 21-Jun-2024
  12:Controller/FOC/VF.c ****  * C/C++ source code generated on : Mon Apr 21 16:53:27 2025
  13:Controller/FOC/VF.c ****  *
  14:Controller/FOC/VF.c ****  * Target selection: ert.tlc
  15:Controller/FOC/VF.c ****  * Embedded hardware selection: ARM Compatible->ARM Cortex-M
  16:Controller/FOC/VF.c ****  * Code generation objectives:
  17:Controller/FOC/VF.c ****  *    1. Execution efficiency
  18:Controller/FOC/VF.c ****  *    2. RAM efficiency
  19:Controller/FOC/VF.c ****  * Validation result: Not run
  20:Controller/FOC/VF.c ****  */
  21:Controller/FOC/VF.c **** 
  22:Controller/FOC/VF.c **** #include "VF.h"
  23:Controller/FOC/VF.c **** #include "mw_cmsis.h"
  24:Controller/FOC/VF.c **** #include <math.h>
  25:Controller/FOC/VF.c **** #include "rtwtypes.h"
  26:Controller/FOC/VF.c **** 
  27:Controller/FOC/VF.c **** /* Block signals and states (default storage) */
  28:Controller/FOC/VF.c **** DW rtDW;
  29:Controller/FOC/VF.c **** 
  30:Controller/FOC/VF.c **** /* External inputs (root inport signals with default storage) */
ARM GAS  C:\Users\Rick\AppData\Local\Temp\ccvwWuRb.s 			page 2


  31:Controller/FOC/VF.c **** ExtU rtU;
  32:Controller/FOC/VF.c **** 
  33:Controller/FOC/VF.c **** /* External outputs (root outports fed by signals with default storage) */
  34:Controller/FOC/VF.c **** ExtY rtY;
  35:Controller/FOC/VF.c **** 
  36:Controller/FOC/VF.c **** /* Model step function */
  37:Controller/FOC/VF.c **** void VF_step(void)
  38:Controller/FOC/VF.c **** {
  29              		.loc 1 38 1 view -0
  30              		.cfi_startproc
  31              		@ args = 0, pretend = 0, frame = 0
  32              		@ frame_needed = 0, uses_anonymous_args = 0
  33 0000 70B5     		push	{r4, r5, r6, lr}
  34              		.cfi_def_cfa_offset 16
  35              		.cfi_offset 4, -16
  36              		.cfi_offset 5, -12
  37              		.cfi_offset 6, -8
  38              		.cfi_offset 14, -4
  39 0002 2DED068B 		vpush.64	{d8, d9, d10}
  40              		.cfi_def_cfa_offset 40
  41              		.cfi_offset 80, -40
  42              		.cfi_offset 81, -36
  43              		.cfi_offset 82, -32
  44              		.cfi_offset 83, -28
  45              		.cfi_offset 84, -24
  46              		.cfi_offset 85, -20
  39:Controller/FOC/VF.c ****   real_T rtb_Sum;
  47              		.loc 1 39 3 view .LVU1
  40:Controller/FOC/VF.c ****   real32_T rtb_Add;
  48              		.loc 1 40 3 view .LVU2
  41:Controller/FOC/VF.c ****   real32_T rtb_Min;
  49              		.loc 1 41 3 view .LVU3
  42:Controller/FOC/VF.c ****   real32_T rtb_Sum1_g;
  50              		.loc 1 42 3 view .LVU4
  43:Controller/FOC/VF.c ****   real32_T rtb_Sum_m;
  51              		.loc 1 43 3 view .LVU5
  44:Controller/FOC/VF.c **** 
  45:Controller/FOC/VF.c ****   /* Sum: '<S2>/Sum' incorporates:
  46:Controller/FOC/VF.c ****    *  Gain: '<S2>/Gain'
  47:Controller/FOC/VF.c ****    *  Inport: '<Root>/Freq'
  48:Controller/FOC/VF.c ****    *  UnitDelay: '<S2>/Unit Delay'
  49:Controller/FOC/VF.c ****    */
  50:Controller/FOC/VF.c ****   rtb_Sum = 0.000628318521F * rtU.Freq + rtDW.UnitDelay_DSTATE;
  52              		.loc 1 50 3 view .LVU6
  53              		.loc 1 50 34 is_stmt 0 view .LVU7
  54 0006 5A4B     		ldr	r3, .L10+8
  55 0008 93ED027A 		vldr.32	s14, [r3, #8]
  56              		.loc 1 50 29 view .LVU8
  57 000c DFED597A 		vldr.32	s15, .L10+12
  58 0010 67EE277A 		vmul.f32	s15, s14, s15
  59 0014 17EE900A 		vmov	r0, s15
  60 0018 FFF7FEFF 		bl	__aeabi_f2d
  61              	.LVL0:
  62              		.loc 1 50 11 view .LVU9
  63 001c 564B     		ldr	r3, .L10+16
  64 001e D3E90023 		ldrd	r2, [r3]
  65 0022 FFF7FEFF 		bl	__aeabi_dadd
ARM GAS  C:\Users\Rick\AppData\Local\Temp\ccvwWuRb.s 			page 3


  66              	.LVL1:
  67 0026 0446     		mov	r4, r0
  68 0028 0D46     		mov	r5, r1
  69              	.LVL2:
  51:Controller/FOC/VF.c **** 
  52:Controller/FOC/VF.c ****   /* If: '<S5>/If' incorporates:
  53:Controller/FOC/VF.c ****    *  Constant: '<S5>/Constant'
  54:Controller/FOC/VF.c ****    *  Constant: '<S5>/Constant1'
  55:Controller/FOC/VF.c ****    *  RelationalOperator: '<S5>/Relational Operator'
  56:Controller/FOC/VF.c ****    *  RelationalOperator: '<S5>/Relational Operator1'
  57:Controller/FOC/VF.c ****    */
  58:Controller/FOC/VF.c ****   if (rtb_Sum > 6.2831853071795862) {
  70              		.loc 1 58 3 is_stmt 1 view .LVU10
  71              		.loc 1 58 6 is_stmt 0 view .LVU11
  72 002a 4FA3     		adr	r3, .L10
  73 002c D3E90023 		ldrd	r2, [r3]
  74 0030 FFF7FEFF 		bl	__aeabi_dcmpgt
  75              	.LVL3:
  76 0034 0028     		cmp	r0, #0
  77 0036 00F08180 		beq	.L8
  59:Controller/FOC/VF.c ****     /* Outputs for IfAction SubSystem: '<S5>/If Action Subsystem2' incorporates:
  60:Controller/FOC/VF.c ****      *  ActionPort: '<S8>/Action Port'
  61:Controller/FOC/VF.c ****      */
  62:Controller/FOC/VF.c ****     /* Sum: '<S8>/Sum' incorporates:
  63:Controller/FOC/VF.c ****      *  Constant: '<S8>/Constant'
  64:Controller/FOC/VF.c ****      */
  65:Controller/FOC/VF.c ****     rtb_Sum -= 6.2831853071795862;
  78              		.loc 1 65 5 is_stmt 1 view .LVU12
  79              		.loc 1 65 13 is_stmt 0 view .LVU13
  80 003a 4BA3     		adr	r3, .L10
  81 003c D3E90023 		ldrd	r2, [r3]
  82 0040 2046     		mov	r0, r4
  83 0042 2946     		mov	r1, r5
  84 0044 FFF7FEFF 		bl	__aeabi_dsub
  85              	.LVL4:
  86 0048 0446     		mov	r4, r0
  87              	.LVL5:
  88              		.loc 1 65 13 view .LVU14
  89 004a 0D46     		mov	r5, r1
  90              	.LVL6:
  91              	.L4:
  66:Controller/FOC/VF.c **** 
  67:Controller/FOC/VF.c ****     /* End of Outputs for SubSystem: '<S5>/If Action Subsystem2' */
  68:Controller/FOC/VF.c ****   } else if (rtb_Sum < 0.0) {
  69:Controller/FOC/VF.c ****     /* Outputs for IfAction SubSystem: '<S5>/If Action Subsystem1' incorporates:
  70:Controller/FOC/VF.c ****      *  ActionPort: '<S7>/Action Port'
  71:Controller/FOC/VF.c ****      */
  72:Controller/FOC/VF.c ****     /* Sum: '<S7>/Sum' incorporates:
  73:Controller/FOC/VF.c ****      *  Constant: '<S7>/Constant'
  74:Controller/FOC/VF.c ****      */
  75:Controller/FOC/VF.c ****     rtb_Sum += 6.2831853071795862;
  76:Controller/FOC/VF.c **** 
  77:Controller/FOC/VF.c ****     /* End of Outputs for SubSystem: '<S5>/If Action Subsystem1' */
  78:Controller/FOC/VF.c ****   }
  79:Controller/FOC/VF.c **** 
  80:Controller/FOC/VF.c ****   /* End of If: '<S5>/If' */
  81:Controller/FOC/VF.c **** 
ARM GAS  C:\Users\Rick\AppData\Local\Temp\ccvwWuRb.s 			page 4


  82:Controller/FOC/VF.c ****   /* Trigonometry: '<S1>/Cos' incorporates:
  83:Controller/FOC/VF.c ****    *  DataTypeConversion: '<S1>/Data Type Conversion1'
  84:Controller/FOC/VF.c ****    */
  85:Controller/FOC/VF.c ****   rtb_Sum_m = arm_cos_f32((real32_T)rtb_Sum);
  92              		.loc 1 85 3 is_stmt 1 view .LVU15
  93              		.loc 1 85 15 is_stmt 0 view .LVU16
  94 004c 2046     		mov	r0, r4
  95 004e 2946     		mov	r1, r5
  96 0050 FFF7FEFF 		bl	__aeabi_d2f
  97              	.LVL7:
  98 0054 08EE100A 		vmov	s16, r0
  99 0058 B0EE480A 		vmov.f32	s0, s16
 100 005c FFF7FEFF 		bl	arm_cos_f32
 101              	.LVL8:
 102 0060 B0EE409A 		vmov.f32	s18, s0
 103              	.LVL9:
  86:Controller/FOC/VF.c **** 
  87:Controller/FOC/VF.c ****   /* Trigonometry: '<S1>/Sin' incorporates:
  88:Controller/FOC/VF.c ****    *  DataTypeConversion: '<S1>/Data Type Conversion'
  89:Controller/FOC/VF.c ****    */
  90:Controller/FOC/VF.c ****   rtb_Sum1_g = arm_sin_f32((real32_T)rtb_Sum);
 104              		.loc 1 90 3 is_stmt 1 view .LVU17
 105              		.loc 1 90 16 is_stmt 0 view .LVU18
 106 0064 B0EE480A 		vmov.f32	s0, s16
 107              	.LVL10:
 108              		.loc 1 90 16 view .LVU19
 109 0068 FFF7FEFF 		bl	arm_sin_f32
 110              	.LVL11:
  91:Controller/FOC/VF.c **** 
  92:Controller/FOC/VF.c ****   /* Sum: '<S4>/Add' incorporates:
  93:Controller/FOC/VF.c ****    *  Inport: '<Root>/ud'
  94:Controller/FOC/VF.c ****    *  Inport: '<Root>/uq'
  95:Controller/FOC/VF.c ****    *  Product: '<S4>/Product'
  96:Controller/FOC/VF.c ****    *  Product: '<S4>/Product1'
  97:Controller/FOC/VF.c ****    */
  98:Controller/FOC/VF.c ****   rtb_Add = rtU.ud * rtb_Sum_m - rtU.uq * rtb_Sum1_g;
 111              		.loc 1 98 3 is_stmt 1 view .LVU20
 112              		.loc 1 98 16 is_stmt 0 view .LVU21
 113 006c 404E     		ldr	r6, .L10+8
 114 006e D6ED007A 		vldr.32	s15, [r6]
 115              		.loc 1 98 20 view .LVU22
 116 0072 67EE898A 		vmul.f32	s17, s15, s18
 117              		.loc 1 98 37 view .LVU23
 118 0076 96ED017A 		vldr.32	s14, [r6, #4]
 119              		.loc 1 98 41 view .LVU24
 120 007a 67EE006A 		vmul.f32	s13, s14, s0
 121              		.loc 1 98 11 view .LVU25
 122 007e 78EEE68A 		vsub.f32	s17, s17, s13
 123              	.LVL12:
  99:Controller/FOC/VF.c **** 
 100:Controller/FOC/VF.c ****   /* Gain: '<S10>/Gain' */
 101:Controller/FOC/VF.c ****   rtb_Min = -0.5F * rtb_Add;
 124              		.loc 1 101 3 is_stmt 1 view .LVU26
 125              		.loc 1 101 11 is_stmt 0 view .LVU27
 126 0082 BEEE00AA 		vmov.f32	s20, #-5.0e-1
 127 0086 28EE8A8A 		vmul.f32	s16, s17, s20
 128              	.LVL13:
ARM GAS  C:\Users\Rick\AppData\Local\Temp\ccvwWuRb.s 			page 5


 102:Controller/FOC/VF.c **** 
 103:Controller/FOC/VF.c ****   /* Gain: '<S10>/Gain1' incorporates:
 104:Controller/FOC/VF.c ****    *  Inport: '<Root>/ud'
 105:Controller/FOC/VF.c ****    *  Inport: '<Root>/uq'
 106:Controller/FOC/VF.c ****    *  Product: '<S4>/Product2'
 107:Controller/FOC/VF.c ****    *  Product: '<S4>/Product3'
 108:Controller/FOC/VF.c ****    *  Sum: '<S4>/Add1'
 109:Controller/FOC/VF.c ****    */
 110:Controller/FOC/VF.c ****   rtb_Sum1_g = (rtU.ud * rtb_Sum1_g + rtU.uq * rtb_Sum_m) * 0.866025388F;
 129              		.loc 1 110 3 is_stmt 1 view .LVU28
 130              		.loc 1 110 24 is_stmt 0 view .LVU29
 131 008a 67EE807A 		vmul.f32	s15, s15, s0
 132              		.loc 1 110 46 view .LVU30
 133 008e 27EE097A 		vmul.f32	s14, s14, s18
 134              		.loc 1 110 37 view .LVU31
 135 0092 77EE877A 		vadd.f32	s15, s15, s14
 136              		.loc 1 110 14 view .LVU32
 137 0096 9FED397A 		vldr.32	s14, .L10+20
 138 009a 67EE877A 		vmul.f32	s15, s15, s14
 139              	.LVL14:
 111:Controller/FOC/VF.c **** 
 112:Controller/FOC/VF.c ****   /* Sum: '<S10>/Sum' */
 113:Controller/FOC/VF.c ****   rtb_Sum_m = rtb_Min + rtb_Sum1_g;
 140              		.loc 1 113 3 is_stmt 1 view .LVU33
 141              		.loc 1 113 13 is_stmt 0 view .LVU34
 142 009e 78EE279A 		vadd.f32	s19, s16, s15
 143              	.LVL15:
 114:Controller/FOC/VF.c **** 
 115:Controller/FOC/VF.c ****   /* Sum: '<S10>/Sum1' */
 116:Controller/FOC/VF.c ****   rtb_Sum1_g = rtb_Min - rtb_Sum1_g;
 144              		.loc 1 116 3 is_stmt 1 view .LVU35
 145              		.loc 1 116 14 is_stmt 0 view .LVU36
 146 00a2 38EE678A 		vsub.f32	s16, s16, s15
 147              	.LVL16:
 117:Controller/FOC/VF.c **** 
 118:Controller/FOC/VF.c ****   /* Gain: '<S9>/Gain' incorporates:
 119:Controller/FOC/VF.c ****    *  MinMax: '<S9>/Max'
 120:Controller/FOC/VF.c ****    *  MinMax: '<S9>/Min'
 121:Controller/FOC/VF.c ****    *  Sum: '<S9>/Sum'
 122:Controller/FOC/VF.c ****    */
 123:Controller/FOC/VF.c ****   rtb_Min = (fminf(fminf(rtb_Add, rtb_Sum_m), rtb_Sum1_g) + fmaxf(fmaxf(rtb_Add,
 148              		.loc 1 123 3 is_stmt 1 view .LVU37
 149              		.loc 1 123 14 is_stmt 0 view .LVU38
 150 00a6 F0EE690A 		vmov.f32	s1, s19
 151 00aa B0EE680A 		vmov.f32	s0, s17
 152 00ae FFF7FEFF 		bl	fminf
 153              	.LVL17:
 154              		.loc 1 123 14 discriminator 1 view .LVU39
 155 00b2 F0EE480A 		vmov.f32	s1, s16
 156 00b6 FFF7FEFF 		bl	fminf
 157              	.LVL18:
 158 00ba B0EE409A 		vmov.f32	s18, s0
 159              		.loc 1 123 61 discriminator 2 view .LVU40
 160 00be F0EE690A 		vmov.f32	s1, s19
 161 00c2 B0EE680A 		vmov.f32	s0, s17
 162 00c6 FFF7FEFF 		bl	fmaxf
 163              	.LVL19:
ARM GAS  C:\Users\Rick\AppData\Local\Temp\ccvwWuRb.s 			page 6


 164              		.loc 1 123 61 discriminator 3 view .LVU41
 165 00ca F0EE480A 		vmov.f32	s1, s16
 166 00ce FFF7FEFF 		bl	fmaxf
 167              	.LVL20:
 168              		.loc 1 123 59 discriminator 4 view .LVU42
 169 00d2 39EE000A 		vadd.f32	s0, s18, s0
 170              		.loc 1 123 11 discriminator 4 view .LVU43
 171 00d6 20EE0A0A 		vmul.f32	s0, s0, s20
 172              	.LVL21:
 124:Controller/FOC/VF.c ****     rtb_Sum_m), rtb_Sum1_g)) * -0.5F;
 125:Controller/FOC/VF.c **** 
 126:Controller/FOC/VF.c ****   /* Outport: '<Root>/tABC' incorporates:
 127:Controller/FOC/VF.c ****    *  Constant: '<S3>/Constant'
 128:Controller/FOC/VF.c ****    *  Gain: '<S3>/Gain'
 129:Controller/FOC/VF.c ****    *  Gain: '<S3>/PWM_HalfPeriod'
 130:Controller/FOC/VF.c ****    *  Inport: '<Root>/Vbus'
 131:Controller/FOC/VF.c ****    *  Product: '<S3>/Divide'
 132:Controller/FOC/VF.c ****    *  Sum: '<S3>/Sum'
 133:Controller/FOC/VF.c ****    *  Sum: '<S3>/Sum1'
 134:Controller/FOC/VF.c ****    */
 135:Controller/FOC/VF.c ****   rtY.tABC[0] = (-(rtb_Min + rtb_Add) / rtU.Vbus + 0.5F) * 8000.0F;
 173              		.loc 1 135 3 is_stmt 1 view .LVU44
 174              		.loc 1 135 28 is_stmt 0 view .LVU45
 175 00da 78EE808A 		vadd.f32	s17, s17, s0
 176              	.LVL22:
 177              		.loc 1 135 18 view .LVU46
 178 00de F1EE688A 		vneg.f32	s17, s17
 179              		.loc 1 135 44 view .LVU47
 180 00e2 96ED036A 		vldr.32	s12, [r6, #12]
 181              		.loc 1 135 39 view .LVU48
 182 00e6 C8EE867A 		vdiv.f32	s15, s17, s12
 183              		.loc 1 135 50 view .LVU49
 184 00ea F6EE006A 		vmov.f32	s13, #5.0e-1
 185 00ee 77EEA67A 		vadd.f32	s15, s15, s13
 186              		.loc 1 135 58 view .LVU50
 187 00f2 9FED237A 		vldr.32	s14, .L10+24
 188 00f6 67EE877A 		vmul.f32	s15, s15, s14
 189              		.loc 1 135 15 view .LVU51
 190 00fa 224B     		ldr	r3, .L10+28
 191 00fc C3ED007A 		vstr.32	s15, [r3]
 136:Controller/FOC/VF.c ****   rtY.tABC[1] = (-(rtb_Min + rtb_Sum_m) / rtU.Vbus + 0.5F) * 8000.0F;
 192              		.loc 1 136 3 is_stmt 1 view .LVU52
 193              		.loc 1 136 28 is_stmt 0 view .LVU53
 194 0100 79EE809A 		vadd.f32	s19, s19, s0
 195              	.LVL23:
 196              		.loc 1 136 18 view .LVU54
 197 0104 F1EE699A 		vneg.f32	s19, s19
 198              		.loc 1 136 41 view .LVU55
 199 0108 C9EE867A 		vdiv.f32	s15, s19, s12
 200              		.loc 1 136 52 view .LVU56
 201 010c 77EEA67A 		vadd.f32	s15, s15, s13
 202              		.loc 1 136 60 view .LVU57
 203 0110 67EE877A 		vmul.f32	s15, s15, s14
 204              		.loc 1 136 15 view .LVU58
 205 0114 C3ED017A 		vstr.32	s15, [r3, #4]
 137:Controller/FOC/VF.c ****   rtY.tABC[2] = (-(rtb_Min + rtb_Sum1_g) / rtU.Vbus + 0.5F) * 8000.0F;
 206              		.loc 1 137 3 is_stmt 1 view .LVU59
ARM GAS  C:\Users\Rick\AppData\Local\Temp\ccvwWuRb.s 			page 7


 207              		.loc 1 137 28 is_stmt 0 view .LVU60
 208 0118 38EE008A 		vadd.f32	s16, s16, s0
 209              	.LVL24:
 210              		.loc 1 137 18 view .LVU61
 211 011c B1EE488A 		vneg.f32	s16, s16
 212              		.loc 1 137 42 view .LVU62
 213 0120 C8EE067A 		vdiv.f32	s15, s16, s12
 214              		.loc 1 137 53 view .LVU63
 215 0124 77EEA67A 		vadd.f32	s15, s15, s13
 216              		.loc 1 137 61 view .LVU64
 217 0128 67EE877A 		vmul.f32	s15, s15, s14
 218              		.loc 1 137 15 view .LVU65
 219 012c C3ED027A 		vstr.32	s15, [r3, #8]
 138:Controller/FOC/VF.c **** 
 139:Controller/FOC/VF.c ****   /* Update for UnitDelay: '<S2>/Unit Delay' */
 140:Controller/FOC/VF.c ****   rtDW.UnitDelay_DSTATE = rtb_Sum;
 220              		.loc 1 140 3 is_stmt 1 view .LVU66
 221              		.loc 1 140 25 is_stmt 0 view .LVU67
 222 0130 114B     		ldr	r3, .L10+16
 223 0132 C3E90045 		strd	r4, [r3]
 141:Controller/FOC/VF.c **** }
 224              		.loc 1 141 1 view .LVU68
 225 0136 BDEC068B 		vldm	sp!, {d8-d10}
 226              		.cfi_remember_state
 227              		.cfi_restore 84
 228              		.cfi_restore 85
 229              		.cfi_restore 82
 230              		.cfi_restore 83
 231              		.cfi_restore 80
 232              		.cfi_restore 81
 233              		.cfi_def_cfa_offset 16
 234 013a 70BD     		pop	{r4, r5, r6, pc}
 235              	.LVL25:
 236              	.L8:
 237              		.cfi_restore_state
  68:Controller/FOC/VF.c ****     /* Outputs for IfAction SubSystem: '<S5>/If Action Subsystem1' incorporates:
 238              		.loc 1 68 10 is_stmt 1 view .LVU69
  68:Controller/FOC/VF.c ****     /* Outputs for IfAction SubSystem: '<S5>/If Action Subsystem1' incorporates:
 239              		.loc 1 68 13 is_stmt 0 view .LVU70
 240 013c 0022     		movs	r2, #0
 241 013e 0023     		movs	r3, #0
 242 0140 2046     		mov	r0, r4
 243 0142 2946     		mov	r1, r5
 244 0144 FFF7FEFF 		bl	__aeabi_dcmplt
 245              	.LVL26:
 246 0148 0028     		cmp	r0, #0
 247 014a 3FF47FAF 		beq	.L4
  75:Controller/FOC/VF.c **** 
 248              		.loc 1 75 5 is_stmt 1 view .LVU71
  75:Controller/FOC/VF.c **** 
 249              		.loc 1 75 13 is_stmt 0 view .LVU72
 250 014e 06A3     		adr	r3, .L10
 251 0150 D3E90023 		ldrd	r2, [r3]
 252 0154 2046     		mov	r0, r4
 253 0156 2946     		mov	r1, r5
 254 0158 FFF7FEFF 		bl	__aeabi_dadd
 255              	.LVL27:
ARM GAS  C:\Users\Rick\AppData\Local\Temp\ccvwWuRb.s 			page 8


 256 015c 0446     		mov	r4, r0
 257              	.LVL28:
  75:Controller/FOC/VF.c **** 
 258              		.loc 1 75 13 view .LVU73
 259 015e 0D46     		mov	r5, r1
 260 0160 74E7     		b	.L4
 261              	.L11:
 262 0162 00BFAFF3 		.align	3
 262      0080
 263              	.L10:
 264 0168 182D4454 		.word	1413754136
 265 016c FB211940 		.word	1075388923
 266 0170 00000000 		.word	rtU
 267 0174 BEB5243A 		.word	975484350
 268 0178 00000000 		.word	rtDW
 269 017c D7B35D3F 		.word	1063105495
 270 0180 0000FA45 		.word	1174011904
 271 0184 00000000 		.word	rtY
 272              		.cfi_endproc
 273              	.LFE150:
 275              		.section	.text.VF_initialize,"ax",%progbits
 276              		.align	1
 277              		.global	VF_initialize
 278              		.syntax unified
 279              		.thumb
 280              		.thumb_func
 282              	VF_initialize:
 283              	.LFB151:
 142:Controller/FOC/VF.c **** 
 143:Controller/FOC/VF.c **** /* Model initialize function */
 144:Controller/FOC/VF.c **** void VF_initialize(void)
 145:Controller/FOC/VF.c **** {
 284              		.loc 1 145 1 is_stmt 1 view -0
 285              		.cfi_startproc
 286              		@ args = 0, pretend = 0, frame = 0
 287              		@ frame_needed = 0, uses_anonymous_args = 0
 288              		@ link register save eliminated.
 146:Controller/FOC/VF.c ****   /* (no initialization code required) */
 147:Controller/FOC/VF.c **** }
 289              		.loc 1 147 1 view .LVU75
 290 0000 7047     		bx	lr
 291              		.cfi_endproc
 292              	.LFE151:
 294              		.global	rtY
 295              		.section	.bss.rtY,"aw",%nobits
 296              		.align	2
 299              	rtY:
 300 0000 00000000 		.space	12
 300      00000000 
 300      00000000 
 301              		.global	rtU
 302              		.section	.bss.rtU,"aw",%nobits
 303              		.align	2
 306              	rtU:
 307 0000 00000000 		.space	16
 307      00000000 
 307      00000000 
ARM GAS  C:\Users\Rick\AppData\Local\Temp\ccvwWuRb.s 			page 9


 307      00000000 
 308              		.global	rtDW
 309              		.section	.bss.rtDW,"aw",%nobits
 310              		.align	3
 313              	rtDW:
 314 0000 00000000 		.space	8
 314      00000000 
 315              		.text
 316              	.Letext0:
 317              		.file 2 "Controller/FOC/rtwtypes.h"
 318              		.file 3 "Controller/FOC/VF.h"
 319              		.file 4 "Middlewares/ST/ARM/DSP/Inc/arm_math.h"
 320              		.file 5 "C:/Users/Rick/AppData/Roaming/Code/User/globalStorage/bmd.stm32-for-vscode/@xpack-dev-too
ARM GAS  C:\Users\Rick\AppData\Local\Temp\ccvwWuRb.s 			page 10

