ARM GAS  C:\Users\Rick\AppData\Local\Temp\ccDldEJG.s 			page 1


   1              		.cpu cortex-m4
   2              		.arch armv7e-m
   3              		.fpu fpv4-sp-d16
   4              		.eabi_attribute 27, 1
   5              		.eabi_attribute 28, 1
   6              		.eabi_attribute 20, 1
   7              		.eabi_attribute 21, 1
   8              		.eabi_attribute 23, 3
   9              		.eabi_attribute 24, 1
  10              		.eabi_attribute 25, 1
  11              		.eabi_attribute 26, 1
  12              		.eabi_attribute 30, 1
  13              		.eabi_attribute 34, 1
  14              		.eabi_attribute 18, 4
  15              		.file	"adc.c"
  16              		.text
  17              		.section	.text.MX_ADC1_Init,"ax",%progbits
  18              		.align	1
  19              		.global	MX_ADC1_Init
  20              		.syntax unified
  21              		.thumb
  22              		.thumb_func
  24              	MX_ADC1_Init:
  25              		@ args = 0, pretend = 0, frame = 16
  26              		@ frame_needed = 0, uses_anonymous_args = 0
  27 0000 00B5     		push	{lr}
  28 0002 85B0     		sub	sp, sp, #20
  29 0004 0023     		movs	r3, #0
  30 0006 0093     		str	r3, [sp]
  31 0008 0193     		str	r3, [sp, #4]
  32 000a 0293     		str	r3, [sp, #8]
  33 000c 0393     		str	r3, [sp, #12]
  34 000e 1548     		ldr	r0, .L7
  35 0010 154A     		ldr	r2, .L7+4
  36 0012 0260     		str	r2, [r0]
  37 0014 4FF48032 		mov	r2, #65536
  38 0018 4260     		str	r2, [r0, #4]
  39 001a 8360     		str	r3, [r0, #8]
  40 001c 0361     		str	r3, [r0, #16]
  41 001e 0376     		strb	r3, [r0, #24]
  42 0020 80F82030 		strb	r3, [r0, #32]
  43 0024 C362     		str	r3, [r0, #44]
  44 0026 114A     		ldr	r2, .L7+8
  45 0028 8262     		str	r2, [r0, #40]
  46 002a C360     		str	r3, [r0, #12]
  47 002c 0122     		movs	r2, #1
  48 002e C261     		str	r2, [r0, #28]
  49 0030 80F83030 		strb	r3, [r0, #48]
  50 0034 4261     		str	r2, [r0, #20]
  51 0036 FFF7FEFF 		bl	HAL_ADC_Init
  52 003a 60B9     		cbnz	r0, .L5
  53              	.L2:
  54 003c 0023     		movs	r3, #0
  55 003e 0093     		str	r3, [sp]
  56 0040 0122     		movs	r2, #1
  57 0042 0192     		str	r2, [sp, #4]
  58 0044 0293     		str	r3, [sp, #8]
ARM GAS  C:\Users\Rick\AppData\Local\Temp\ccDldEJG.s 			page 2


  59 0046 6946     		mov	r1, sp
  60 0048 0648     		ldr	r0, .L7
  61 004a FFF7FEFF 		bl	HAL_ADC_ConfigChannel
  62 004e 28B9     		cbnz	r0, .L6
  63              	.L1:
  64 0050 05B0     		add	sp, sp, #20
  65              		@ sp needed
  66 0052 5DF804FB 		ldr	pc, [sp], #4
  67              	.L5:
  68 0056 FFF7FEFF 		bl	Error_Handler
  69 005a EFE7     		b	.L2
  70              	.L6:
  71 005c FFF7FEFF 		bl	Error_Handler
  72 0060 F6E7     		b	.L1
  73              	.L8:
  74 0062 00BF     		.align	2
  75              	.L7:
  76 0064 00000000 		.word	hadc1
  77 0068 00200140 		.word	1073815552
  78 006c 0100000F 		.word	251658241
  80              		.section	.text.MX_ADC2_Init,"ax",%progbits
  81              		.align	1
  82              		.global	MX_ADC2_Init
  83              		.syntax unified
  84              		.thumb
  85              		.thumb_func
  87              	MX_ADC2_Init:
  88              		@ args = 0, pretend = 0, frame = 16
  89              		@ frame_needed = 0, uses_anonymous_args = 0
  90 0000 00B5     		push	{lr}
  91 0002 85B0     		sub	sp, sp, #20
  92 0004 0023     		movs	r3, #0
  93 0006 0093     		str	r3, [sp]
  94 0008 0193     		str	r3, [sp, #4]
  95 000a 0293     		str	r3, [sp, #8]
  96 000c 0393     		str	r3, [sp, #12]
  97 000e 1548     		ldr	r0, .L15
  98 0010 154A     		ldr	r2, .L15+4
  99 0012 0260     		str	r2, [r0]
 100 0014 4FF48032 		mov	r2, #65536
 101 0018 4260     		str	r2, [r0, #4]
 102 001a 8360     		str	r3, [r0, #8]
 103 001c 0361     		str	r3, [r0, #16]
 104 001e 0376     		strb	r3, [r0, #24]
 105 0020 80F82030 		strb	r3, [r0, #32]
 106 0024 C362     		str	r3, [r0, #44]
 107 0026 114A     		ldr	r2, .L15+8
 108 0028 8262     		str	r2, [r0, #40]
 109 002a C360     		str	r3, [r0, #12]
 110 002c 0122     		movs	r2, #1
 111 002e C261     		str	r2, [r0, #28]
 112 0030 80F83030 		strb	r3, [r0, #48]
 113 0034 4261     		str	r2, [r0, #20]
 114 0036 FFF7FEFF 		bl	HAL_ADC_Init
 115 003a 60B9     		cbnz	r0, .L13
 116              	.L10:
 117 003c 0123     		movs	r3, #1
ARM GAS  C:\Users\Rick\AppData\Local\Temp\ccDldEJG.s 			page 3


 118 003e 0093     		str	r3, [sp]
 119 0040 0193     		str	r3, [sp, #4]
 120 0042 0023     		movs	r3, #0
 121 0044 0293     		str	r3, [sp, #8]
 122 0046 6946     		mov	r1, sp
 123 0048 0648     		ldr	r0, .L15
 124 004a FFF7FEFF 		bl	HAL_ADC_ConfigChannel
 125 004e 28B9     		cbnz	r0, .L14
 126              	.L9:
 127 0050 05B0     		add	sp, sp, #20
 128              		@ sp needed
 129 0052 5DF804FB 		ldr	pc, [sp], #4
 130              	.L13:
 131 0056 FFF7FEFF 		bl	Error_Handler
 132 005a EFE7     		b	.L10
 133              	.L14:
 134 005c FFF7FEFF 		bl	Error_Handler
 135 0060 F6E7     		b	.L9
 136              	.L16:
 137 0062 00BF     		.align	2
 138              	.L15:
 139 0064 00000000 		.word	hadc2
 140 0068 00210140 		.word	1073815808
 141 006c 0100000F 		.word	251658241
 143              		.section	.text.MX_ADC3_Init,"ax",%progbits
 144              		.align	1
 145              		.global	MX_ADC3_Init
 146              		.syntax unified
 147              		.thumb
 148              		.thumb_func
 150              	MX_ADC3_Init:
 151              		@ args = 0, pretend = 0, frame = 16
 152              		@ frame_needed = 0, uses_anonymous_args = 0
 153 0000 00B5     		push	{lr}
 154 0002 85B0     		sub	sp, sp, #20
 155 0004 0023     		movs	r3, #0
 156 0006 0093     		str	r3, [sp]
 157 0008 0193     		str	r3, [sp, #4]
 158 000a 0293     		str	r3, [sp, #8]
 159 000c 0393     		str	r3, [sp, #12]
 160 000e 1548     		ldr	r0, .L23
 161 0010 154A     		ldr	r2, .L23+4
 162 0012 0260     		str	r2, [r0]
 163 0014 4FF48032 		mov	r2, #65536
 164 0018 4260     		str	r2, [r0, #4]
 165 001a 8360     		str	r3, [r0, #8]
 166 001c 0361     		str	r3, [r0, #16]
 167 001e 0376     		strb	r3, [r0, #24]
 168 0020 80F82030 		strb	r3, [r0, #32]
 169 0024 C362     		str	r3, [r0, #44]
 170 0026 114A     		ldr	r2, .L23+8
 171 0028 8262     		str	r2, [r0, #40]
 172 002a C360     		str	r3, [r0, #12]
 173 002c 0122     		movs	r2, #1
 174 002e C261     		str	r2, [r0, #28]
 175 0030 80F83030 		strb	r3, [r0, #48]
 176 0034 4261     		str	r2, [r0, #20]
ARM GAS  C:\Users\Rick\AppData\Local\Temp\ccDldEJG.s 			page 4


 177 0036 FFF7FEFF 		bl	HAL_ADC_Init
 178 003a 68B9     		cbnz	r0, .L21
 179              	.L18:
 180 003c 0223     		movs	r3, #2
 181 003e 0093     		str	r3, [sp]
 182 0040 0123     		movs	r3, #1
 183 0042 0193     		str	r3, [sp, #4]
 184 0044 0023     		movs	r3, #0
 185 0046 0293     		str	r3, [sp, #8]
 186 0048 6946     		mov	r1, sp
 187 004a 0648     		ldr	r0, .L23
 188 004c FFF7FEFF 		bl	HAL_ADC_ConfigChannel
 189 0050 28B9     		cbnz	r0, .L22
 190              	.L17:
 191 0052 05B0     		add	sp, sp, #20
 192              		@ sp needed
 193 0054 5DF804FB 		ldr	pc, [sp], #4
 194              	.L21:
 195 0058 FFF7FEFF 		bl	Error_Handler
 196 005c EEE7     		b	.L18
 197              	.L22:
 198 005e FFF7FEFF 		bl	Error_Handler
 199 0062 F6E7     		b	.L17
 200              	.L24:
 201              		.align	2
 202              	.L23:
 203 0064 00000000 		.word	hadc3
 204 0068 00220140 		.word	1073816064
 205 006c 0100000F 		.word	251658241
 207              		.section	.text.HAL_ADC_MspInit,"ax",%progbits
 208              		.align	1
 209              		.global	HAL_ADC_MspInit
 210              		.syntax unified
 211              		.thumb
 212              		.thumb_func
 214              	HAL_ADC_MspInit:
 215              		@ args = 0, pretend = 0, frame = 56
 216              		@ frame_needed = 0, uses_anonymous_args = 0
 217 0000 F0B5     		push	{r4, r5, r6, r7, lr}
 218 0002 8FB0     		sub	sp, sp, #60
 219 0004 0023     		movs	r3, #0
 220 0006 0993     		str	r3, [sp, #36]
 221 0008 0A93     		str	r3, [sp, #40]
 222 000a 0B93     		str	r3, [sp, #44]
 223 000c 0C93     		str	r3, [sp, #48]
 224 000e 0D93     		str	r3, [sp, #52]
 225 0010 0368     		ldr	r3, [r0]
 226 0012 464A     		ldr	r2, .L33
 227 0014 9342     		cmp	r3, r2
 228 0016 07D0     		beq	.L30
 229 0018 454A     		ldr	r2, .L33+4
 230 001a 9342     		cmp	r3, r2
 231 001c 35D0     		beq	.L31
 232 001e 454A     		ldr	r2, .L33+8
 233 0020 9342     		cmp	r3, r2
 234 0022 63D0     		beq	.L32
 235              	.L25:
ARM GAS  C:\Users\Rick\AppData\Local\Temp\ccDldEJG.s 			page 5


 236 0024 0FB0     		add	sp, sp, #60
 237              		@ sp needed
 238 0026 F0BD     		pop	{r4, r5, r6, r7, pc}
 239              	.L30:
 240 0028 0024     		movs	r4, #0
 241 002a 0194     		str	r4, [sp, #4]
 242 002c 424B     		ldr	r3, .L33+12
 243 002e 5A6C     		ldr	r2, [r3, #68]
 244 0030 42F48072 		orr	r2, r2, #256
 245 0034 5A64     		str	r2, [r3, #68]
 246 0036 5A6C     		ldr	r2, [r3, #68]
 247 0038 02F48072 		and	r2, r2, #256
 248 003c 0192     		str	r2, [sp, #4]
 249 003e 019A     		ldr	r2, [sp, #4]
 250 0040 0294     		str	r4, [sp, #8]
 251 0042 1A6B     		ldr	r2, [r3, #48]
 252 0044 42F00402 		orr	r2, r2, #4
 253 0048 1A63     		str	r2, [r3, #48]
 254 004a 1A6B     		ldr	r2, [r3, #48]
 255 004c 02F00402 		and	r2, r2, #4
 256 0050 0292     		str	r2, [sp, #8]
 257 0052 029A     		ldr	r2, [sp, #8]
 258 0054 0394     		str	r4, [sp, #12]
 259 0056 1A6B     		ldr	r2, [r3, #48]
 260 0058 42F00102 		orr	r2, r2, #1
 261 005c 1A63     		str	r2, [r3, #48]
 262 005e 1B6B     		ldr	r3, [r3, #48]
 263 0060 03F00103 		and	r3, r3, #1
 264 0064 0393     		str	r3, [sp, #12]
 265 0066 039B     		ldr	r3, [sp, #12]
 266 0068 0127     		movs	r7, #1
 267 006a 0997     		str	r7, [sp, #36]
 268 006c 0326     		movs	r6, #3
 269 006e 0A96     		str	r6, [sp, #40]
 270 0070 09AD     		add	r5, sp, #36
 271 0072 2946     		mov	r1, r5
 272 0074 3148     		ldr	r0, .L33+16
 273 0076 FFF7FEFF 		bl	HAL_GPIO_Init
 274 007a 0997     		str	r7, [sp, #36]
 275 007c 0A96     		str	r6, [sp, #40]
 276 007e 0B94     		str	r4, [sp, #44]
 277 0080 2946     		mov	r1, r5
 278 0082 2F48     		ldr	r0, .L33+20
 279 0084 FFF7FEFF 		bl	HAL_GPIO_Init
 280 0088 CCE7     		b	.L25
 281              	.L31:
 282 008a 0024     		movs	r4, #0
 283 008c 0494     		str	r4, [sp, #16]
 284 008e 2A4B     		ldr	r3, .L33+12
 285 0090 5A6C     		ldr	r2, [r3, #68]
 286 0092 42F40072 		orr	r2, r2, #512
 287 0096 5A64     		str	r2, [r3, #68]
 288 0098 5A6C     		ldr	r2, [r3, #68]
 289 009a 02F40072 		and	r2, r2, #512
 290 009e 0492     		str	r2, [sp, #16]
 291 00a0 049A     		ldr	r2, [sp, #16]
 292 00a2 0594     		str	r4, [sp, #20]
ARM GAS  C:\Users\Rick\AppData\Local\Temp\ccDldEJG.s 			page 6


 293 00a4 1A6B     		ldr	r2, [r3, #48]
 294 00a6 42F00102 		orr	r2, r2, #1
 295 00aa 1A63     		str	r2, [r3, #48]
 296 00ac 1A6B     		ldr	r2, [r3, #48]
 297 00ae 02F00102 		and	r2, r2, #1
 298 00b2 0592     		str	r2, [sp, #20]
 299 00b4 059A     		ldr	r2, [sp, #20]
 300 00b6 0694     		str	r4, [sp, #24]
 301 00b8 1A6B     		ldr	r2, [r3, #48]
 302 00ba 42F00202 		orr	r2, r2, #2
 303 00be 1A63     		str	r2, [r3, #48]
 304 00c0 1B6B     		ldr	r3, [r3, #48]
 305 00c2 03F00203 		and	r3, r3, #2
 306 00c6 0693     		str	r3, [sp, #24]
 307 00c8 069B     		ldr	r3, [sp, #24]
 308 00ca 0227     		movs	r7, #2
 309 00cc 0997     		str	r7, [sp, #36]
 310 00ce 0326     		movs	r6, #3
 311 00d0 0A96     		str	r6, [sp, #40]
 312 00d2 09AD     		add	r5, sp, #36
 313 00d4 2946     		mov	r1, r5
 314 00d6 1A48     		ldr	r0, .L33+20
 315 00d8 FFF7FEFF 		bl	HAL_GPIO_Init
 316 00dc 0997     		str	r7, [sp, #36]
 317 00de 0A96     		str	r6, [sp, #40]
 318 00e0 0B94     		str	r4, [sp, #44]
 319 00e2 2946     		mov	r1, r5
 320 00e4 1748     		ldr	r0, .L33+24
 321 00e6 FFF7FEFF 		bl	HAL_GPIO_Init
 322 00ea 9BE7     		b	.L25
 323              	.L32:
 324 00ec 0021     		movs	r1, #0
 325 00ee 0791     		str	r1, [sp, #28]
 326 00f0 114B     		ldr	r3, .L33+12
 327 00f2 5A6C     		ldr	r2, [r3, #68]
 328 00f4 42F48062 		orr	r2, r2, #1024
 329 00f8 5A64     		str	r2, [r3, #68]
 330 00fa 5A6C     		ldr	r2, [r3, #68]
 331 00fc 02F48062 		and	r2, r2, #1024
 332 0100 0792     		str	r2, [sp, #28]
 333 0102 079A     		ldr	r2, [sp, #28]
 334 0104 0891     		str	r1, [sp, #32]
 335 0106 1A6B     		ldr	r2, [r3, #48]
 336 0108 42F00102 		orr	r2, r2, #1
 337 010c 1A63     		str	r2, [r3, #48]
 338 010e 1B6B     		ldr	r3, [r3, #48]
 339 0110 03F00103 		and	r3, r3, #1
 340 0114 0893     		str	r3, [sp, #32]
 341 0116 089B     		ldr	r3, [sp, #32]
 342 0118 0C23     		movs	r3, #12
 343 011a 0993     		str	r3, [sp, #36]
 344 011c 0323     		movs	r3, #3
 345 011e 0A93     		str	r3, [sp, #40]
 346 0120 09A9     		add	r1, sp, #36
 347 0122 0748     		ldr	r0, .L33+20
 348 0124 FFF7FEFF 		bl	HAL_GPIO_Init
 349 0128 7CE7     		b	.L25
ARM GAS  C:\Users\Rick\AppData\Local\Temp\ccDldEJG.s 			page 7


 350              	.L34:
 351 012a 00BF     		.align	2
 352              	.L33:
 353 012c 00200140 		.word	1073815552
 354 0130 00210140 		.word	1073815808
 355 0134 00220140 		.word	1073816064
 356 0138 00380240 		.word	1073887232
 357 013c 00080240 		.word	1073874944
 358 0140 00000240 		.word	1073872896
 359 0144 00040240 		.word	1073873920
 361              		.section	.text.HAL_ADC_MspDeInit,"ax",%progbits
 362              		.align	1
 363              		.global	HAL_ADC_MspDeInit
 364              		.syntax unified
 365              		.thumb
 366              		.thumb_func
 368              	HAL_ADC_MspDeInit:
 369              		@ args = 0, pretend = 0, frame = 0
 370              		@ frame_needed = 0, uses_anonymous_args = 0
 371 0000 08B5     		push	{r3, lr}
 372 0002 0368     		ldr	r3, [r0]
 373 0004 184A     		ldr	r2, .L43
 374 0006 9342     		cmp	r3, r2
 375 0008 06D0     		beq	.L40
 376 000a 184A     		ldr	r2, .L43+4
 377 000c 9342     		cmp	r3, r2
 378 000e 12D0     		beq	.L41
 379 0010 174A     		ldr	r2, .L43+8
 380 0012 9342     		cmp	r3, r2
 381 0014 1DD0     		beq	.L42
 382              	.L35:
 383 0016 08BD     		pop	{r3, pc}
 384              	.L40:
 385 0018 02F58C32 		add	r2, r2, #71680
 386 001c 536C     		ldr	r3, [r2, #68]
 387 001e 23F48073 		bic	r3, r3, #256
 388 0022 5364     		str	r3, [r2, #68]
 389 0024 0121     		movs	r1, #1
 390 0026 1348     		ldr	r0, .L43+12
 391 0028 FFF7FEFF 		bl	HAL_GPIO_DeInit
 392 002c 0121     		movs	r1, #1
 393 002e 1248     		ldr	r0, .L43+16
 394 0030 FFF7FEFF 		bl	HAL_GPIO_DeInit
 395 0034 EFE7     		b	.L35
 396              	.L41:
 397 0036 114A     		ldr	r2, .L43+20
 398 0038 536C     		ldr	r3, [r2, #68]
 399 003a 23F40073 		bic	r3, r3, #512
 400 003e 5364     		str	r3, [r2, #68]
 401 0040 0221     		movs	r1, #2
 402 0042 0D48     		ldr	r0, .L43+16
 403 0044 FFF7FEFF 		bl	HAL_GPIO_DeInit
 404 0048 0221     		movs	r1, #2
 405 004a 0D48     		ldr	r0, .L43+24
 406 004c FFF7FEFF 		bl	HAL_GPIO_DeInit
 407 0050 E1E7     		b	.L35
 408              	.L42:
ARM GAS  C:\Users\Rick\AppData\Local\Temp\ccDldEJG.s 			page 8


 409 0052 02F58B32 		add	r2, r2, #71168
 410 0056 536C     		ldr	r3, [r2, #68]
 411 0058 23F48063 		bic	r3, r3, #1024
 412 005c 5364     		str	r3, [r2, #68]
 413 005e 0C21     		movs	r1, #12
 414 0060 0548     		ldr	r0, .L43+16
 415 0062 FFF7FEFF 		bl	HAL_GPIO_DeInit
 416 0066 D6E7     		b	.L35
 417              	.L44:
 418              		.align	2
 419              	.L43:
 420 0068 00200140 		.word	1073815552
 421 006c 00210140 		.word	1073815808
 422 0070 00220140 		.word	1073816064
 423 0074 00080240 		.word	1073874944
 424 0078 00000240 		.word	1073872896
 425 007c 00380240 		.word	1073887232
 426 0080 00040240 		.word	1073873920
 428              		.global	hadc3
 429              		.section	.bss.hadc3,"aw",%nobits
 430              		.align	2
 433              	hadc3:
 434 0000 00000000 		.space	72
 434      00000000 
 434      00000000 
 434      00000000 
 434      00000000 
 435              		.global	hadc2
 436              		.section	.bss.hadc2,"aw",%nobits
 437              		.align	2
 440              	hadc2:
 441 0000 00000000 		.space	72
 441      00000000 
 441      00000000 
 441      00000000 
 441      00000000 
 442              		.global	hadc1
 443              		.section	.bss.hadc1,"aw",%nobits
 444              		.align	2
 447              	hadc1:
 448 0000 00000000 		.space	72
 448      00000000 
 448      00000000 
 448      00000000 
 448      00000000 
 449              		.ident	"GCC: (xPack GNU Arm Embedded GCC x86_64) 14.2.1 20241119"
ARM GAS  C:\Users\Rick\AppData\Local\Temp\ccDldEJG.s 			page 9

