ARM GAS  C:\Users\Rick\AppData\Local\Temp\ccZKNBiX.s 			page 1


   1              		.cpu cortex-m4
   2              		.arch armv7e-m
   3              		.fpu fpv4-sp-d16
   4              		.eabi_attribute 27, 1
   5              		.eabi_attribute 28, 1
   6              		.eabi_attribute 20, 1
   7              		.eabi_attribute 21, 1
   8              		.eabi_attribute 23, 3
   9              		.eabi_attribute 24, 1
  10              		.eabi_attribute 25, 1
  11              		.eabi_attribute 26, 1
  12              		.eabi_attribute 30, 1
  13              		.eabi_attribute 34, 1
  14              		.eabi_attribute 18, 4
  15              		.file	"drv8323.c"
  16              		.text
  17              		.section	.text._SPI_WRITE,"ax",%progbits
  18              		.align	1
  19              		.global	_SPI_WRITE
  20              		.syntax unified
  21              		.thumb
  22              		.thumb_func
  24              	_SPI_WRITE:
  25              		@ args = 0, pretend = 0, frame = 16
  26              		@ frame_needed = 0, uses_anonymous_args = 0
  27 0000 30B5     		push	{r4, r5, lr}
  28 0002 87B0     		sub	sp, sp, #28
  29 0004 0446     		mov	r4, r0
  30 0006 ADF80E10 		strh	r1, [sp, #14]	@ movhi
  31 000a 0E4D     		ldr	r5, .L3
  32 000c 0022     		movs	r2, #0
  33 000e 0421     		movs	r1, #4
  34 0010 2846     		mov	r0, r5
  35 0012 FFF7FEFF 		bl	HAL_GPIO_WritePin
  36 0016 0A20     		movs	r0, #10
  37 0018 FFF7FEFF 		bl	HAL_Delay
  38 001c 4FF47A73 		mov	r3, #1000
  39 0020 0093     		str	r3, [sp]
  40 0022 0123     		movs	r3, #1
  41 0024 0DF11602 		add	r2, sp, #22
  42 0028 0DF10E01 		add	r1, sp, #14
  43 002c 2068     		ldr	r0, [r4]
  44 002e FFF7FEFF 		bl	HAL_SPI_TransmitReceive
  45 0032 0122     		movs	r2, #1
  46 0034 0421     		movs	r1, #4
  47 0036 2846     		mov	r0, r5
  48 0038 FFF7FEFF 		bl	HAL_GPIO_WritePin
  49 003c BDF81600 		ldrh	r0, [sp, #22]
  50 0040 07B0     		add	sp, sp, #28
  51              		@ sp needed
  52 0042 30BD     		pop	{r4, r5, pc}
  53              	.L4:
  54              		.align	2
  55              	.L3:
  56 0044 000C0240 		.word	1073875968
  58              		.section	.text.drv8323_init,"ax",%progbits
  59              		.align	1
ARM GAS  C:\Users\Rick\AppData\Local\Temp\ccZKNBiX.s 			page 2


  60              		.global	drv8323_init
  61              		.syntax unified
  62              		.thumb
  63              		.thumb_func
  65              	drv8323_init:
  66              		@ args = 0, pretend = 0, frame = 0
  67              		@ frame_needed = 0, uses_anonymous_args = 0
  68 0000 10B5     		push	{r4, lr}
  69 0002 0160     		str	r1, [r0]
  70 0004 0E4C     		ldr	r4, .L7
  71 0006 0022     		movs	r2, #0
  72 0008 4FF48071 		mov	r1, #256
  73 000c 2046     		mov	r0, r4
  74 000e FFF7FEFF 		bl	HAL_GPIO_WritePin
  75 0012 0122     		movs	r2, #1
  76 0014 8021     		movs	r1, #128
  77 0016 2046     		mov	r0, r4
  78 0018 FFF7FEFF 		bl	HAL_GPIO_WritePin
  79 001c 0A20     		movs	r0, #10
  80 001e FFF7FEFF 		bl	HAL_Delay
  81 0022 0122     		movs	r2, #1
  82 0024 4FF48071 		mov	r1, #256
  83 0028 2046     		mov	r0, r4
  84 002a FFF7FEFF 		bl	HAL_GPIO_WritePin
  85 002e 0022     		movs	r2, #0
  86 0030 8021     		movs	r1, #128
  87 0032 2046     		mov	r0, r4
  88 0034 FFF7FEFF 		bl	HAL_GPIO_WritePin
  89 0038 0A20     		movs	r0, #10
  90 003a FFF7FEFF 		bl	HAL_Delay
  91 003e 10BD     		pop	{r4, pc}
  92              	.L8:
  93              		.align	2
  94              	.L7:
  95 0040 00080240 		.word	1073874944
  97              		.section	.text.drv8323_read_fsr1,"ax",%progbits
  98              		.align	1
  99              		.global	drv8323_read_fsr1
 100              		.syntax unified
 101              		.thumb
 102              		.thumb_func
 104              	drv8323_read_fsr1:
 105              		@ args = 0, pretend = 0, frame = 0
 106              		@ frame_needed = 0, uses_anonymous_args = 0
 107 0000 08B5     		push	{r3, lr}
 108 0002 4FF40041 		mov	r1, #32768
 109 0006 FFF7FEFF 		bl	_SPI_WRITE
 110 000a 08BD     		pop	{r3, pc}
 112              		.section	.text.drv8323_read_fsr2,"ax",%progbits
 113              		.align	1
 114              		.global	drv8323_read_fsr2
 115              		.syntax unified
 116              		.thumb
 117              		.thumb_func
 119              	drv8323_read_fsr2:
 120              		@ args = 0, pretend = 0, frame = 0
 121              		@ frame_needed = 0, uses_anonymous_args = 0
ARM GAS  C:\Users\Rick\AppData\Local\Temp\ccZKNBiX.s 			page 3


 122 0000 08B5     		push	{r3, lr}
 123 0002 4FF40841 		mov	r1, #34816
 124 0006 FFF7FEFF 		bl	_SPI_WRITE
 125 000a 08BD     		pop	{r3, pc}
 127              		.section	.text.drv8323_read_register,"ax",%progbits
 128              		.align	1
 129              		.global	drv8323_read_register
 130              		.syntax unified
 131              		.thumb
 132              		.thumb_func
 134              	drv8323_read_register:
 135              		@ args = 0, pretend = 0, frame = 0
 136              		@ frame_needed = 0, uses_anonymous_args = 0
 137 0000 08B5     		push	{r3, lr}
 138 0002 6FEA0171 		mvn	r1, r1, lsl #28
 139 0006 6FEA5141 		mvn	r1, r1, lsr #17
 140 000a 89B2     		uxth	r1, r1
 141 000c FFF7FEFF 		bl	_SPI_WRITE
 142 0010 08BD     		pop	{r3, pc}
 144              		.section	.text.drv8323_write_register,"ax",%progbits
 145              		.align	1
 146              		.global	drv8323_write_register
 147              		.syntax unified
 148              		.thumb
 149              		.thumb_func
 151              	drv8323_write_register:
 152              		@ args = 0, pretend = 0, frame = 0
 153              		@ frame_needed = 0, uses_anonymous_args = 0
 154 0000 08B5     		push	{r3, lr}
 155 0002 42EAC121 		orr	r1, r2, r1, lsl #11
 156 0006 89B2     		uxth	r1, r1
 157 0008 FFF7FEFF 		bl	_SPI_WRITE
 158 000c 08BD     		pop	{r3, pc}
 160              		.section	.text.drv8323_write_dcr,"ax",%progbits
 161              		.align	1
 162              		.global	drv8323_write_dcr
 163              		.syntax unified
 164              		.thumb
 165              		.thumb_func
 167              	drv8323_write_dcr:
 168              		@ args = 24, pretend = 0, frame = 0
 169              		@ frame_needed = 0, uses_anonymous_args = 0
 170 0000 08B5     		push	{r3, lr}
 171 0002 4902     		lsls	r1, r1, #9
 172 0004 41F48051 		orr	r1, r1, #4096
 173 0008 09B2     		sxth	r1, r1
 174 000a 41EA0221 		orr	r1, r1, r2, lsl #8
 175 000e 09B2     		sxth	r1, r1
 176 0010 41EAC313 		orr	r3, r1, r3, lsl #7
 177 0014 1BB2     		sxth	r3, r3
 178 0016 BDF80820 		ldrh	r2, [sp, #8]
 179 001a 43EA4213 		orr	r3, r3, r2, lsl #5
 180 001e 1BB2     		sxth	r3, r3
 181 0020 BDF80C20 		ldrh	r2, [sp, #12]
 182 0024 43EA0213 		orr	r3, r3, r2, lsl #4
 183 0028 1BB2     		sxth	r3, r3
 184 002a BDF81020 		ldrh	r2, [sp, #16]
ARM GAS  C:\Users\Rick\AppData\Local\Temp\ccZKNBiX.s 			page 4


 185 002e 43EAC203 		orr	r3, r3, r2, lsl #3
 186 0032 1BB2     		sxth	r3, r3
 187 0034 BDF81420 		ldrh	r2, [sp, #20]
 188 0038 43EA8203 		orr	r3, r3, r2, lsl #2
 189 003c 1BB2     		sxth	r3, r3
 190 003e BDF81820 		ldrh	r2, [sp, #24]
 191 0042 43EA4203 		orr	r3, r3, r2, lsl #1
 192 0046 1BB2     		sxth	r3, r3
 193 0048 BDF81C10 		ldrh	r1, [sp, #28]
 194 004c 1943     		orrs	r1, r1, r3
 195 004e 89B2     		uxth	r1, r1
 196 0050 FFF7FEFF 		bl	_SPI_WRITE
 197 0054 08BD     		pop	{r3, pc}
 199              		.section	.text.drv8323_write_hsr,"ax",%progbits
 200              		.align	1
 201              		.global	drv8323_write_hsr
 202              		.syntax unified
 203              		.thumb
 204              		.thumb_func
 206              	drv8323_write_hsr:
 207              		@ args = 0, pretend = 0, frame = 0
 208              		@ frame_needed = 0, uses_anonymous_args = 0
 209 0000 08B5     		push	{r3, lr}
 210 0002 4FEA012C 		lsl	ip, r1, #8
 211 0006 4CF4C05C 		orr	ip, ip, #6144
 212 000a 0FFA8CFC 		sxth	ip, ip
 213 000e 4CEA021C 		orr	ip, ip, r2, lsl #4
 214 0012 0FFA8CFC 		sxth	ip, ip
 215 0016 43EA0C03 		orr	r3, r3, ip
 216 001a 99B2     		uxth	r1, r3
 217 001c FFF7FEFF 		bl	_SPI_WRITE
 218 0020 08BD     		pop	{r3, pc}
 220              		.section	.text.drv8323_write_lsr,"ax",%progbits
 221              		.align	1
 222              		.global	drv8323_write_lsr
 223              		.syntax unified
 224              		.thumb
 225              		.thumb_func
 227              	drv8323_write_lsr:
 228              		@ args = 4, pretend = 0, frame = 0
 229              		@ frame_needed = 0, uses_anonymous_args = 0
 230 0000 08B5     		push	{r3, lr}
 231 0002 8902     		lsls	r1, r1, #10
 232 0004 41F40051 		orr	r1, r1, #8192
 233 0008 09B2     		sxth	r1, r1
 234 000a 41EA0221 		orr	r1, r1, r2, lsl #8
 235 000e 09B2     		sxth	r1, r1
 236 0010 41EA0311 		orr	r1, r1, r3, lsl #4
 237 0014 09B2     		sxth	r1, r1
 238 0016 BDF80830 		ldrh	r3, [sp, #8]
 239 001a 1943     		orrs	r1, r1, r3
 240 001c 89B2     		uxth	r1, r1
 241 001e FFF7FEFF 		bl	_SPI_WRITE
 242 0022 08BD     		pop	{r3, pc}
 244              		.section	.text.drv8323_write_ocpcr,"ax",%progbits
 245              		.align	1
 246              		.global	drv8323_write_ocpcr
ARM GAS  C:\Users\Rick\AppData\Local\Temp\ccZKNBiX.s 			page 5


 247              		.syntax unified
 248              		.thumb
 249              		.thumb_func
 251              	drv8323_write_ocpcr:
 252              		@ args = 8, pretend = 0, frame = 0
 253              		@ frame_needed = 0, uses_anonymous_args = 0
 254 0000 08B5     		push	{r3, lr}
 255 0002 8902     		lsls	r1, r1, #10
 256 0004 41F42051 		orr	r1, r1, #10240
 257 0008 09B2     		sxth	r1, r1
 258 000a 41EA0221 		orr	r1, r1, r2, lsl #8
 259 000e 09B2     		sxth	r1, r1
 260 0010 41EA8313 		orr	r3, r1, r3, lsl #6
 261 0014 1BB2     		sxth	r3, r3
 262 0016 BDF80820 		ldrh	r2, [sp, #8]
 263 001a 43EA0213 		orr	r3, r3, r2, lsl #4
 264 001e 1BB2     		sxth	r3, r3
 265 0020 BDF80C10 		ldrh	r1, [sp, #12]
 266 0024 1943     		orrs	r1, r1, r3
 267 0026 89B2     		uxth	r1, r1
 268 0028 FFF7FEFF 		bl	_SPI_WRITE
 269 002c 08BD     		pop	{r3, pc}
 271              		.section	.text.drv8323_write_csacr,"ax",%progbits
 272              		.align	1
 273              		.global	drv8323_write_csacr
 274              		.syntax unified
 275              		.thumb
 276              		.thumb_func
 278              	drv8323_write_csacr:
 279              		@ args = 24, pretend = 0, frame = 0
 280              		@ frame_needed = 0, uses_anonymous_args = 0
 281 0000 08B5     		push	{r3, lr}
 282 0002 8902     		lsls	r1, r1, #10
 283 0004 41F44051 		orr	r1, r1, #12288
 284 0008 09B2     		sxth	r1, r1
 285 000a 41EA4221 		orr	r1, r1, r2, lsl #9
 286 000e 09B2     		sxth	r1, r1
 287 0010 41EA0323 		orr	r3, r1, r3, lsl #8
 288 0014 1BB2     		sxth	r3, r3
 289 0016 BDF80820 		ldrh	r2, [sp, #8]
 290 001a 43EA8213 		orr	r3, r3, r2, lsl #6
 291 001e 1BB2     		sxth	r3, r3
 292 0020 BDF80C20 		ldrh	r2, [sp, #12]
 293 0024 43EA4213 		orr	r3, r3, r2, lsl #5
 294 0028 1BB2     		sxth	r3, r3
 295 002a BDF81020 		ldrh	r2, [sp, #16]
 296 002e 43EA0213 		orr	r3, r3, r2, lsl #4
 297 0032 1BB2     		sxth	r3, r3
 298 0034 BDF81420 		ldrh	r2, [sp, #20]
 299 0038 43EAC203 		orr	r3, r3, r2, lsl #3
 300 003c 1BB2     		sxth	r3, r3
 301 003e BDF81820 		ldrh	r2, [sp, #24]
 302 0042 43EA8203 		orr	r3, r3, r2, lsl #2
 303 0046 1BB2     		sxth	r3, r3
 304 0048 BDF81C10 		ldrh	r1, [sp, #28]
 305 004c 1943     		orrs	r1, r1, r3
 306 004e 89B2     		uxth	r1, r1
ARM GAS  C:\Users\Rick\AppData\Local\Temp\ccZKNBiX.s 			page 6


 307 0050 FFF7FEFF 		bl	_SPI_WRITE
 308 0054 08BD     		pop	{r3, pc}
 310              		.section	.text.drv8323_enable_gd,"ax",%progbits
 311              		.align	1
 312              		.global	drv8323_enable_gd
 313              		.syntax unified
 314              		.thumb
 315              		.thumb_func
 317              	drv8323_enable_gd:
 318              		@ args = 0, pretend = 0, frame = 0
 319              		@ frame_needed = 0, uses_anonymous_args = 0
 320 0000 10B5     		push	{r4, lr}
 321 0002 0446     		mov	r4, r0
 322 0004 0221     		movs	r1, #2
 323 0006 FFF7FEFF 		bl	drv8323_read_register
 324 000a 20F00402 		bic	r2, r0, #4
 325 000e 92B2     		uxth	r2, r2
 326 0010 0221     		movs	r1, #2
 327 0012 2046     		mov	r0, r4
 328 0014 FFF7FEFF 		bl	drv8323_write_register
 329 0018 10BD     		pop	{r4, pc}
 331              		.section	.text.drv8323_disable_gd,"ax",%progbits
 332              		.align	1
 333              		.global	drv8323_disable_gd
 334              		.syntax unified
 335              		.thumb
 336              		.thumb_func
 338              	drv8323_disable_gd:
 339              		@ args = 0, pretend = 0, frame = 0
 340              		@ frame_needed = 0, uses_anonymous_args = 0
 341 0000 10B5     		push	{r4, lr}
 342 0002 0446     		mov	r4, r0
 343 0004 0221     		movs	r1, #2
 344 0006 FFF7FEFF 		bl	drv8323_read_register
 345 000a 40F00402 		orr	r2, r0, #4
 346 000e 92B2     		uxth	r2, r2
 347 0010 0221     		movs	r1, #2
 348 0012 2046     		mov	r0, r4
 349 0014 FFF7FEFF 		bl	drv8323_write_register
 350 0018 10BD     		pop	{r4, pc}
 352              		.section	.text.drv8323_calibrate,"ax",%progbits
 353              		.align	1
 354              		.global	drv8323_calibrate
 355              		.syntax unified
 356              		.thumb
 357              		.thumb_func
 359              	drv8323_calibrate:
 360              		@ args = 0, pretend = 0, frame = 0
 361              		@ frame_needed = 0, uses_anonymous_args = 0
 362 0000 08B5     		push	{r3, lr}
 363 0002 4FF40062 		mov	r2, #2048
 364 0006 0621     		movs	r1, #6
 365 0008 FFF7FEFF 		bl	drv8323_write_register
 366 000c 08BD     		pop	{r3, pc}
 368              		.section	.text.drv8323_print_faults,"ax",%progbits
 369              		.align	1
 370              		.global	drv8323_print_faults
ARM GAS  C:\Users\Rick\AppData\Local\Temp\ccZKNBiX.s 			page 7


 371              		.syntax unified
 372              		.thumb
 373              		.thumb_func
 375              	drv8323_print_faults:
 376              		@ args = 0, pretend = 0, frame = 0
 377              		@ frame_needed = 0, uses_anonymous_args = 0
 378              		@ link register save eliminated.
 379 0000 7047     		bx	lr
 381              		.section	.text.drv8323_reg_val,"ax",%progbits
 382              		.align	1
 383              		.global	drv8323_reg_val
 384              		.syntax unified
 385              		.thumb
 386              		.thumb_func
 388              	drv8323_reg_val:
 389              		@ args = 0, pretend = 0, frame = 0
 390              		@ frame_needed = 0, uses_anonymous_args = 0
 391              		@ link register save eliminated.
 392 0000 7047     		bx	lr
 394              		.ident	"GCC: (xPack GNU Arm Embedded GCC x86_64) 14.2.1 20241119"
ARM GAS  C:\Users\Rick\AppData\Local\Temp\ccZKNBiX.s 			page 8

