ARM GAS  C:\Users\Rick\AppData\Local\Temp\ccff2mu1.s 			page 1


   1              		.cpu cortex-m4
   2              		.arch armv7e-m
   3              		.fpu fpv4-sp-d16
   4              		.eabi_attribute 27, 1
   5              		.eabi_attribute 28, 1
   6              		.eabi_attribute 20, 1
   7              		.eabi_attribute 21, 1
   8              		.eabi_attribute 23, 3
   9              		.eabi_attribute 24, 1
  10              		.eabi_attribute 25, 1
  11              		.eabi_attribute 26, 1
  12              		.eabi_attribute 30, 1
  13              		.eabi_attribute 34, 1
  14              		.eabi_attribute 18, 4
  15              		.file	"freertos.c"
  16              		.text
  17              		.section	.rodata.StartDefaultTask.str1.4,"aMS",%progbits,1
  18              		.align	2
  19              	.LC2:
  20 0000 48656C6C 		.ascii	"Hello World!\015\012\000"
  20      6F20576F 
  20      726C6421 
  20      0D0A00
  21              		.section	.text.StartDefaultTask,"ax",%progbits
  22              		.align	1
  23              		.global	StartDefaultTask
  24              		.syntax unified
  25              		.thumb
  26              		.thumb_func
  28              	StartDefaultTask:
  29              		@ Volatile: function does not return.
  30              		@ args = 0, pretend = 0, frame = 0
  31              		@ frame_needed = 0, uses_anonymous_args = 0
  32 0000 08B5     		push	{r3, lr}
  33              	.L2:
  34 0002 FFF7FEFF 		bl	state_step
  35 0006 0E21     		movs	r1, #14
  36 0008 0348     		ldr	r0, .L4
  37 000a FFF7FEFF 		bl	dev_usart_write
  38 000e 3220     		movs	r0, #50
  39 0010 FFF7FEFF 		bl	osDelay
  40 0014 F5E7     		b	.L2
  41              	.L5:
  42 0016 00BF     		.align	2
  43              	.L4:
  44 0018 00000000 		.word	.LC2
  46              		.section	.text.vApplicationGetIdleTaskMemory,"ax",%progbits
  47              		.align	1
  48              		.global	vApplicationGetIdleTaskMemory
  49              		.syntax unified
  50              		.thumb
  51              		.thumb_func
  53              	vApplicationGetIdleTaskMemory:
  54              		@ args = 0, pretend = 0, frame = 0
  55              		@ frame_needed = 0, uses_anonymous_args = 0
  56              		@ link register save eliminated.
  57 0000 034B     		ldr	r3, .L7
ARM GAS  C:\Users\Rick\AppData\Local\Temp\ccff2mu1.s 			page 2


  58 0002 0360     		str	r3, [r0]
  59 0004 034B     		ldr	r3, .L7+4
  60 0006 0B60     		str	r3, [r1]
  61 0008 8023     		movs	r3, #128
  62 000a 1360     		str	r3, [r2]
  63 000c 7047     		bx	lr
  64              	.L8:
  65 000e 00BF     		.align	2
  66              	.L7:
  67 0010 00000000 		.word	xIdleTaskTCBBuffer
  68 0014 00000000 		.word	xIdleStack
  70              		.section	.text.MX_FREERTOS_Init,"ax",%progbits
  71              		.align	1
  72              		.global	MX_FREERTOS_Init
  73              		.syntax unified
  74              		.thumb
  75              		.thumb_func
  77              	MX_FREERTOS_Init:
  78              		@ args = 0, pretend = 0, frame = 32
  79              		@ frame_needed = 0, uses_anonymous_args = 0
  80 0000 10B5     		push	{r4, lr}
  81 0002 88B0     		sub	sp, sp, #32
  82 0004 0DF1040C 		add	ip, sp, #4
  83 0008 074C     		ldr	r4, .L11
  84 000a 0FCC     		ldmia	r4!, {r0, r1, r2, r3}
  85 000c ACE80F00 		stmia	ip!, {r0, r1, r2, r3}
  86 0010 94E80700 		ldm	r4, {r0, r1, r2}
  87 0014 8CE80700 		stm	ip, {r0, r1, r2}
  88 0018 0021     		movs	r1, #0
  89 001a 01A8     		add	r0, sp, #4
  90 001c FFF7FEFF 		bl	osThreadCreate
  91 0020 024B     		ldr	r3, .L11+4
  92 0022 1860     		str	r0, [r3]
  93 0024 08B0     		add	sp, sp, #32
  94              		@ sp needed
  95 0026 10BD     		pop	{r4, pc}
  96              	.L12:
  97              		.align	2
  98              	.L11:
  99 0028 00000000 		.word	.LANCHOR0
 100 002c 00000000 		.word	defaultTaskHandle
 102              		.section	.rodata.str1.4,"aMS",%progbits,1
 103              		.align	2
 104              	.LC0:
 105 0000 64656661 		.ascii	"defaultTask\000"
 105      756C7454 
 105      61736B00 
 106              		.section	.bss.xIdleStack,"aw",%nobits
 107              		.align	2
 110              	xIdleStack:
 111 0000 00000000 		.space	512
 111      00000000 
 111      00000000 
 111      00000000 
 111      00000000 
 112              		.section	.bss.xIdleTaskTCBBuffer,"aw",%nobits
 113              		.align	2
ARM GAS  C:\Users\Rick\AppData\Local\Temp\ccff2mu1.s 			page 3


 116              	xIdleTaskTCBBuffer:
 117 0000 00000000 		.space	84
 117      00000000 
 117      00000000 
 117      00000000 
 117      00000000 
 118              		.global	defaultTaskHandle
 119              		.section	.bss.defaultTaskHandle,"aw",%nobits
 120              		.align	2
 123              	defaultTaskHandle:
 124 0000 00000000 		.space	4
 125              		.section	.rodata
 126              		.align	2
 127              		.set	.LANCHOR0,. + 0
 128              	.LC3:
 129 0000 00000000 		.word	.LC0
 130 0004 00000000 		.word	StartDefaultTask
 131 0008 0000     		.short	0
 132 000a 0000     		.space	2
 133 000c 00000000 		.word	0
 134 0010 80000000 		.word	128
 135 0014 00000000 		.word	0
 136 0018 00000000 		.word	0
 137              		.ident	"GCC: (xPack GNU Arm Embedded GCC x86_64) 14.2.1 20241119"
ARM GAS  C:\Users\Rick\AppData\Local\Temp\ccff2mu1.s 			page 4

