ARM GAS  C:\Users\Rick\AppData\Local\Temp\cchIZDqe.s 			page 1


   1              		.cpu cortex-m4
   2              		.arch armv7e-m
   3              		.fpu fpv4-sp-d16
   4              		.eabi_attribute 27, 1
   5              		.eabi_attribute 28, 1
   6              		.eabi_attribute 20, 1
   7              		.eabi_attribute 21, 1
   8              		.eabi_attribute 23, 3
   9              		.eabi_attribute 24, 1
  10              		.eabi_attribute 25, 1
  11              		.eabi_attribute 26, 1
  12              		.eabi_attribute 30, 1
  13              		.eabi_attribute 34, 1
  14              		.eabi_attribute 18, 4
  15              		.file	"main.c"
  16              		.text
  17              		.section	.text.HAL_TIM_PeriodElapsedCallback,"ax",%progbits
  18              		.align	1
  19              		.global	HAL_TIM_PeriodElapsedCallback
  20              		.syntax unified
  21              		.thumb
  22              		.thumb_func
  24              	HAL_TIM_PeriodElapsedCallback:
  25              		@ args = 0, pretend = 0, frame = 0
  26              		@ frame_needed = 0, uses_anonymous_args = 0
  27 0000 08B5     		push	{r3, lr}
  28 0002 0268     		ldr	r2, [r0]
  29 0004 034B     		ldr	r3, .L5
  30 0006 9A42     		cmp	r2, r3
  31 0008 00D0     		beq	.L4
  32              	.L1:
  33 000a 08BD     		pop	{r3, pc}
  34              	.L4:
  35 000c FFF7FEFF 		bl	HAL_IncTick
  36 0010 FBE7     		b	.L1
  37              	.L6:
  38 0012 00BF     		.align	2
  39              	.L5:
  40 0014 00100040 		.word	1073745920
  42              		.section	.text.Error_Handler,"ax",%progbits
  43              		.align	1
  44              		.global	Error_Handler
  45              		.syntax unified
  46              		.thumb
  47              		.thumb_func
  49              	Error_Handler:
  50              		@ Volatile: function does not return.
  51              		@ args = 0, pretend = 0, frame = 0
  52              		@ frame_needed = 0, uses_anonymous_args = 0
  53              		@ link register save eliminated.
  54              		.syntax unified
  55              	@ 962 "Drivers/CMSIS/Include/cmsis_gcc.h" 1
  56 0000 72B6     		cpsid i
  57              	@ 0 "" 2
  58              		.thumb
  59              		.syntax unified
  60              	.L8:
ARM GAS  C:\Users\Rick\AppData\Local\Temp\cchIZDqe.s 			page 2


  61 0002 FEE7     		b	.L8
  63              		.section	.text.SystemClock_Config,"ax",%progbits
  64              		.align	1
  65              		.global	SystemClock_Config
  66              		.syntax unified
  67              		.thumb
  68              		.thumb_func
  70              	SystemClock_Config:
  71              		@ args = 0, pretend = 0, frame = 80
  72              		@ frame_needed = 0, uses_anonymous_args = 0
  73 0000 10B5     		push	{r4, lr}
  74 0002 94B0     		sub	sp, sp, #80
  75 0004 07AC     		add	r4, sp, #28
  76 0006 3422     		movs	r2, #52
  77 0008 0021     		movs	r1, #0
  78 000a 2046     		mov	r0, r4
  79 000c FFF7FEFF 		bl	memset
  80 0010 0023     		movs	r3, #0
  81 0012 0293     		str	r3, [sp, #8]
  82 0014 0393     		str	r3, [sp, #12]
  83 0016 0493     		str	r3, [sp, #16]
  84 0018 0593     		str	r3, [sp, #20]
  85 001a 0693     		str	r3, [sp, #24]
  86 001c 0093     		str	r3, [sp]
  87 001e 204A     		ldr	r2, .L15
  88 0020 116C     		ldr	r1, [r2, #64]
  89 0022 41F08051 		orr	r1, r1, #268435456
  90 0026 1164     		str	r1, [r2, #64]
  91 0028 126C     		ldr	r2, [r2, #64]
  92 002a 02F08052 		and	r2, r2, #268435456
  93 002e 0092     		str	r2, [sp]
  94 0030 009A     		ldr	r2, [sp]
  95 0032 0193     		str	r3, [sp, #4]
  96 0034 1B4B     		ldr	r3, .L15+4
  97 0036 1A68     		ldr	r2, [r3]
  98 0038 42F44042 		orr	r2, r2, #49152
  99 003c 1A60     		str	r2, [r3]
 100 003e 1B68     		ldr	r3, [r3]
 101 0040 03F44043 		and	r3, r3, #49152
 102 0044 0193     		str	r3, [sp, #4]
 103 0046 019B     		ldr	r3, [sp, #4]
 104 0048 0123     		movs	r3, #1
 105 004a 0793     		str	r3, [sp, #28]
 106 004c 4FF48033 		mov	r3, #65536
 107 0050 0893     		str	r3, [sp, #32]
 108 0052 0223     		movs	r3, #2
 109 0054 0D93     		str	r3, [sp, #52]
 110 0056 4FF48002 		mov	r2, #4194304
 111 005a 0E92     		str	r2, [sp, #56]
 112 005c 0822     		movs	r2, #8
 113 005e 0F92     		str	r2, [sp, #60]
 114 0060 A022     		movs	r2, #160
 115 0062 1092     		str	r2, [sp, #64]
 116 0064 1193     		str	r3, [sp, #68]
 117 0066 1293     		str	r3, [sp, #72]
 118 0068 1393     		str	r3, [sp, #76]
 119 006a 2046     		mov	r0, r4
ARM GAS  C:\Users\Rick\AppData\Local\Temp\cchIZDqe.s 			page 3


 120 006c FFF7FEFF 		bl	HAL_RCC_OscConfig
 121 0070 90B9     		cbnz	r0, .L13
 122 0072 0F23     		movs	r3, #15
 123 0074 0293     		str	r3, [sp, #8]
 124 0076 0223     		movs	r3, #2
 125 0078 0393     		str	r3, [sp, #12]
 126 007a 0023     		movs	r3, #0
 127 007c 0493     		str	r3, [sp, #16]
 128 007e 4FF4A053 		mov	r3, #5120
 129 0082 0593     		str	r3, [sp, #20]
 130 0084 4FF48053 		mov	r3, #4096
 131 0088 0693     		str	r3, [sp, #24]
 132 008a 0521     		movs	r1, #5
 133 008c 02A8     		add	r0, sp, #8
 134 008e FFF7FEFF 		bl	HAL_RCC_ClockConfig
 135 0092 18B9     		cbnz	r0, .L14
 136 0094 14B0     		add	sp, sp, #80
 137              		@ sp needed
 138 0096 10BD     		pop	{r4, pc}
 139              	.L13:
 140 0098 FFF7FEFF 		bl	Error_Handler
 141              	.L14:
 142 009c FFF7FEFF 		bl	Error_Handler
 143              	.L16:
 144              		.align	2
 145              	.L15:
 146 00a0 00380240 		.word	1073887232
 147 00a4 00700040 		.word	1073770496
 149              		.section	.text.main,"ax",%progbits
 150              		.align	1
 151              		.global	main
 152              		.syntax unified
 153              		.thumb
 154              		.thumb_func
 156              	main:
 157              		@ Volatile: function does not return.
 158              		@ args = 0, pretend = 0, frame = 0
 159              		@ frame_needed = 0, uses_anonymous_args = 0
 160 0000 08B5     		push	{r3, lr}
 161 0002 FFF7FEFF 		bl	HAL_Init
 162 0006 FFF7FEFF 		bl	SystemClock_Config
 163 000a FFF7FEFF 		bl	MX_GPIO_Init
 164 000e FFF7FEFF 		bl	MX_DMA_Init
 165 0012 FFF7FEFF 		bl	MX_CAN1_Init
 166 0016 FFF7FEFF 		bl	MX_TIM1_Init
 167 001a FFF7FEFF 		bl	MX_ADC1_Init
 168 001e FFF7FEFF 		bl	MX_ADC2_Init
 169 0022 FFF7FEFF 		bl	MX_ADC3_Init
 170 0026 FFF7FEFF 		bl	MX_I2C1_Init
 171 002a FFF7FEFF 		bl	MX_SPI3_Init
 172 002e FFF7FEFF 		bl	MX_USART3_UART_Init
 173 0032 FFF7FEFF 		bl	MX_TIM3_Init
 174 0036 FFF7FEFF 		bl	controller_init
 175 003a FFF7FEFF 		bl	MX_FREERTOS_Init
 176 003e FFF7FEFF 		bl	osKernelStart
 177              	.L18:
 178 0042 FEE7     		b	.L18
ARM GAS  C:\Users\Rick\AppData\Local\Temp\cchIZDqe.s 			page 4


 180              		.ident	"GCC: (xPack GNU Arm Embedded GCC x86_64) 14.2.1 20241119"
ARM GAS  C:\Users\Rick\AppData\Local\Temp\cchIZDqe.s 			page 5

