ARM GAS  C:\Users\Rick\AppData\Local\Temp\ccAPjVmb.s 			page 1


   1              		.cpu cortex-m4
   2              		.arch armv7e-m
   3              		.fpu fpv4-sp-d16
   4              		.eabi_attribute 27, 1
   5              		.eabi_attribute 28, 1
   6              		.eabi_attribute 20, 1
   7              		.eabi_attribute 21, 1
   8              		.eabi_attribute 23, 3
   9              		.eabi_attribute 24, 1
  10              		.eabi_attribute 25, 1
  11              		.eabi_attribute 26, 1
  12              		.eabi_attribute 30, 1
  13              		.eabi_attribute 34, 1
  14              		.eabi_attribute 18, 4
  15              		.file	"queue.c"
  16              		.text
  17              		.section	.text.prvGetDisinheritPriorityAfterTimeout,"ax",%progbits
  18              		.align	1
  19              		.syntax unified
  20              		.thumb
  21              		.thumb_func
  23              	prvGetDisinheritPriorityAfterTimeout:
  24              		@ args = 0, pretend = 0, frame = 0
  25              		@ frame_needed = 0, uses_anonymous_args = 0
  26              		@ link register save eliminated.
  27 0000 0346     		mov	r3, r0
  28 0002 406A     		ldr	r0, [r0, #36]
  29 0004 18B1     		cbz	r0, .L1
  30 0006 1B6B     		ldr	r3, [r3, #48]
  31 0008 1868     		ldr	r0, [r3]
  32 000a C0F10700 		rsb	r0, r0, #7
  33              	.L1:
  34 000e 7047     		bx	lr
  36              		.section	.text.prvIsQueueFull,"ax",%progbits
  37              		.align	1
  38              		.syntax unified
  39              		.thumb
  40              		.thumb_func
  42              	prvIsQueueFull:
  43              		@ args = 0, pretend = 0, frame = 0
  44              		@ frame_needed = 0, uses_anonymous_args = 0
  45 0000 10B5     		push	{r4, lr}
  46 0002 0446     		mov	r4, r0
  47 0004 FFF7FEFF 		bl	vPortEnterCritical
  48 0008 A26B     		ldr	r2, [r4, #56]
  49 000a E36B     		ldr	r3, [r4, #60]
  50 000c 9A42     		cmp	r2, r3
  51 000e 04D0     		beq	.L7
  52 0010 0024     		movs	r4, #0
  53              	.L4:
  54 0012 FFF7FEFF 		bl	vPortExitCritical
  55 0016 2046     		mov	r0, r4
  56 0018 10BD     		pop	{r4, pc}
  57              	.L7:
  58 001a 0124     		movs	r4, #1
  59 001c F9E7     		b	.L4
  61              		.section	.text.prvIsQueueEmpty,"ax",%progbits
ARM GAS  C:\Users\Rick\AppData\Local\Temp\ccAPjVmb.s 			page 2


  62              		.align	1
  63              		.syntax unified
  64              		.thumb
  65              		.thumb_func
  67              	prvIsQueueEmpty:
  68              		@ args = 0, pretend = 0, frame = 0
  69              		@ frame_needed = 0, uses_anonymous_args = 0
  70 0000 10B5     		push	{r4, lr}
  71 0002 0446     		mov	r4, r0
  72 0004 FFF7FEFF 		bl	vPortEnterCritical
  73 0008 A36B     		ldr	r3, [r4, #56]
  74 000a 23B9     		cbnz	r3, .L10
  75 000c 0124     		movs	r4, #1
  76              	.L9:
  77 000e FFF7FEFF 		bl	vPortExitCritical
  78 0012 2046     		mov	r0, r4
  79 0014 10BD     		pop	{r4, pc}
  80              	.L10:
  81 0016 0024     		movs	r4, #0
  82 0018 F9E7     		b	.L9
  84              		.section	.text.prvCopyDataToQueue,"ax",%progbits
  85              		.align	1
  86              		.syntax unified
  87              		.thumb
  88              		.thumb_func
  90              	prvCopyDataToQueue:
  91              		@ args = 0, pretend = 0, frame = 0
  92              		@ frame_needed = 0, uses_anonymous_args = 0
  93 0000 70B5     		push	{r4, r5, r6, lr}
  94 0002 0446     		mov	r4, r0
  95 0004 1546     		mov	r5, r2
  96 0006 866B     		ldr	r6, [r0, #56]
  97 0008 026C     		ldr	r2, [r0, #64]
  98 000a 5AB9     		cbnz	r2, .L13
  99 000c 0368     		ldr	r3, [r0]
 100 000e 1BB1     		cbz	r3, .L22
 101 0010 0020     		movs	r0, #0
 102              	.L14:
 103 0012 0136     		adds	r6, r6, #1
 104 0014 A663     		str	r6, [r4, #56]
 105 0016 70BD     		pop	{r4, r5, r6, pc}
 106              	.L22:
 107 0018 8068     		ldr	r0, [r0, #8]
 108 001a FFF7FEFF 		bl	xTaskPriorityDisinherit
 109 001e 0023     		movs	r3, #0
 110 0020 A360     		str	r3, [r4, #8]
 111 0022 F6E7     		b	.L14
 112              	.L13:
 113 0024 6DB9     		cbnz	r5, .L15
 114 0026 4068     		ldr	r0, [r0, #4]
 115 0028 FFF7FEFF 		bl	memcpy
 116 002c 6368     		ldr	r3, [r4, #4]
 117 002e 226C     		ldr	r2, [r4, #64]
 118 0030 1344     		add	r3, r3, r2
 119 0032 6360     		str	r3, [r4, #4]
 120 0034 A268     		ldr	r2, [r4, #8]
 121 0036 9342     		cmp	r3, r2
ARM GAS  C:\Users\Rick\AppData\Local\Temp\ccAPjVmb.s 			page 3


 122 0038 19D3     		bcc	.L18
 123 003a 2368     		ldr	r3, [r4]
 124 003c 6360     		str	r3, [r4, #4]
 125 003e 2846     		mov	r0, r5
 126 0040 E7E7     		b	.L14
 127              	.L15:
 128 0042 C068     		ldr	r0, [r0, #12]
 129 0044 FFF7FEFF 		bl	memcpy
 130 0048 E368     		ldr	r3, [r4, #12]
 131 004a 226C     		ldr	r2, [r4, #64]
 132 004c 5142     		rsbs	r1, r2, #0
 133 004e 9B1A     		subs	r3, r3, r2
 134 0050 E360     		str	r3, [r4, #12]
 135 0052 2268     		ldr	r2, [r4]
 136 0054 9342     		cmp	r3, r2
 137 0056 02D2     		bcs	.L16
 138 0058 A368     		ldr	r3, [r4, #8]
 139 005a 0B44     		add	r3, r3, r1
 140 005c E360     		str	r3, [r4, #12]
 141              	.L16:
 142 005e 022D     		cmp	r5, #2
 143 0060 01D0     		beq	.L23
 144 0062 0020     		movs	r0, #0
 145 0064 D5E7     		b	.L14
 146              	.L23:
 147 0066 26B1     		cbz	r6, .L20
 148 0068 013E     		subs	r6, r6, #1
 149 006a 0020     		movs	r0, #0
 150 006c D1E7     		b	.L14
 151              	.L18:
 152 006e 2846     		mov	r0, r5
 153 0070 CFE7     		b	.L14
 154              	.L20:
 155 0072 0020     		movs	r0, #0
 156 0074 CDE7     		b	.L14
 158              		.section	.text.prvCopyDataFromQueue,"ax",%progbits
 159              		.align	1
 160              		.syntax unified
 161              		.thumb
 162              		.thumb_func
 164              	prvCopyDataFromQueue:
 165              		@ args = 0, pretend = 0, frame = 0
 166              		@ frame_needed = 0, uses_anonymous_args = 0
 167 0000 0346     		mov	r3, r0
 168 0002 026C     		ldr	r2, [r0, #64]
 169 0004 6AB1     		cbz	r2, .L28
 170 0006 10B5     		push	{r4, lr}
 171 0008 0846     		mov	r0, r1
 172 000a D968     		ldr	r1, [r3, #12]
 173 000c 1144     		add	r1, r1, r2
 174 000e D960     		str	r1, [r3, #12]
 175 0010 9C68     		ldr	r4, [r3, #8]
 176 0012 A142     		cmp	r1, r4
 177 0014 01D3     		bcc	.L26
 178 0016 1968     		ldr	r1, [r3]
 179 0018 D960     		str	r1, [r3, #12]
 180              	.L26:
ARM GAS  C:\Users\Rick\AppData\Local\Temp\ccAPjVmb.s 			page 4


 181 001a D968     		ldr	r1, [r3, #12]
 182 001c FFF7FEFF 		bl	memcpy
 183 0020 10BD     		pop	{r4, pc}
 184              	.L28:
 185 0022 7047     		bx	lr
 187              		.section	.text.prvUnlockQueue,"ax",%progbits
 188              		.align	1
 189              		.syntax unified
 190              		.thumb
 191              		.thumb_func
 193              	prvUnlockQueue:
 194              		@ args = 0, pretend = 0, frame = 0
 195              		@ frame_needed = 0, uses_anonymous_args = 0
 196 0000 38B5     		push	{r3, r4, r5, lr}
 197 0002 0546     		mov	r5, r0
 198 0004 FFF7FEFF 		bl	vPortEnterCritical
 199 0008 95F84540 		ldrb	r4, [r5, #69]	@ zero_extendqisi2
 200 000c 64B2     		sxtb	r4, r4
 201 000e 01E0     		b	.L32
 202              	.L34:
 203 0010 013C     		subs	r4, r4, #1
 204 0012 64B2     		sxtb	r4, r4
 205              	.L32:
 206 0014 002C     		cmp	r4, #0
 207 0016 0ADD     		ble	.L33
 208 0018 6B6A     		ldr	r3, [r5, #36]
 209 001a 43B1     		cbz	r3, .L33
 210 001c 05F12400 		add	r0, r5, #36
 211 0020 FFF7FEFF 		bl	xTaskRemoveFromEventList
 212 0024 0028     		cmp	r0, #0
 213 0026 F3D0     		beq	.L34
 214 0028 FFF7FEFF 		bl	vTaskMissedYield
 215 002c F0E7     		b	.L34
 216              	.L33:
 217 002e FF23     		movs	r3, #255
 218 0030 85F84530 		strb	r3, [r5, #69]
 219 0034 FFF7FEFF 		bl	vPortExitCritical
 220 0038 FFF7FEFF 		bl	vPortEnterCritical
 221 003c 95F84440 		ldrb	r4, [r5, #68]	@ zero_extendqisi2
 222 0040 64B2     		sxtb	r4, r4
 223 0042 01E0     		b	.L36
 224              	.L38:
 225 0044 013C     		subs	r4, r4, #1
 226 0046 64B2     		sxtb	r4, r4
 227              	.L36:
 228 0048 002C     		cmp	r4, #0
 229 004a 0ADD     		ble	.L37
 230 004c 2B69     		ldr	r3, [r5, #16]
 231 004e 43B1     		cbz	r3, .L37
 232 0050 05F11000 		add	r0, r5, #16
 233 0054 FFF7FEFF 		bl	xTaskRemoveFromEventList
 234 0058 0028     		cmp	r0, #0
 235 005a F3D0     		beq	.L38
 236 005c FFF7FEFF 		bl	vTaskMissedYield
 237 0060 F0E7     		b	.L38
 238              	.L37:
 239 0062 FF23     		movs	r3, #255
ARM GAS  C:\Users\Rick\AppData\Local\Temp\ccAPjVmb.s 			page 5


 240 0064 85F84430 		strb	r3, [r5, #68]
 241 0068 FFF7FEFF 		bl	vPortExitCritical
 242 006c 38BD     		pop	{r3, r4, r5, pc}
 244              		.section	.text.xQueueGenericReset,"ax",%progbits
 245              		.align	1
 246              		.global	xQueueGenericReset
 247              		.syntax unified
 248              		.thumb
 249              		.thumb_func
 251              	xQueueGenericReset:
 252              		@ args = 0, pretend = 0, frame = 0
 253              		@ frame_needed = 0, uses_anonymous_args = 0
 254 0000 38B5     		push	{r3, r4, r5, lr}
 255 0002 E0B1     		cbz	r0, .L47
 256 0004 0D46     		mov	r5, r1
 257 0006 0446     		mov	r4, r0
 258 0008 FFF7FEFF 		bl	vPortEnterCritical
 259 000c 2368     		ldr	r3, [r4]
 260 000e E26B     		ldr	r2, [r4, #60]
 261 0010 216C     		ldr	r1, [r4, #64]
 262 0012 01FB0230 		mla	r0, r1, r2, r3
 263 0016 A060     		str	r0, [r4, #8]
 264 0018 0020     		movs	r0, #0
 265 001a A063     		str	r0, [r4, #56]
 266 001c 6360     		str	r3, [r4, #4]
 267 001e 013A     		subs	r2, r2, #1
 268 0020 02FB0133 		mla	r3, r2, r1, r3
 269 0024 E360     		str	r3, [r4, #12]
 270 0026 FF23     		movs	r3, #255
 271 0028 84F84430 		strb	r3, [r4, #68]
 272 002c 84F84530 		strb	r3, [r4, #69]
 273 0030 FDB9     		cbnz	r5, .L44
 274 0032 2369     		ldr	r3, [r4, #16]
 275 0034 63B9     		cbnz	r3, .L48
 276              	.L45:
 277 0036 FFF7FEFF 		bl	vPortExitCritical
 278 003a 0120     		movs	r0, #1
 279 003c 38BD     		pop	{r3, r4, r5, pc}
 280              	.L47:
 281              		.syntax unified
 282              	@ 195 "Middlewares/Third_Party/FreeRTOS/Source/portable/GCC/ARM_CM4F/portmacro.h" 1
 283 003e 4FF05003 			mov r3, #80												
 284 0042 83F31188 		msr basepri, r3											
 285 0046 BFF36F8F 		isb														
 286 004a BFF34F8F 		dsb														
 287              	
 288              	@ 0 "" 2
 289              		.thumb
 290              		.syntax unified
 291              	.L43:
 292 004e FEE7     		b	.L43
 293              	.L48:
 294 0050 04F11000 		add	r0, r4, #16
 295 0054 FFF7FEFF 		bl	xTaskRemoveFromEventList
 296 0058 0028     		cmp	r0, #0
 297 005a ECD0     		beq	.L45
 298 005c 4FF0E023 		mov	r3, #-536813568
ARM GAS  C:\Users\Rick\AppData\Local\Temp\ccAPjVmb.s 			page 6


 299 0060 4FF08052 		mov	r2, #268435456
 300 0064 C3F8042D 		str	r2, [r3, #3332]
 301              		.syntax unified
 302              	@ 281 "Middlewares/Third_Party/FreeRTOS/Source/queue.c" 1
 303 0068 BFF34F8F 		dsb
 304              	@ 0 "" 2
 305              	@ 281 "Middlewares/Third_Party/FreeRTOS/Source/queue.c" 1
 306 006c BFF36F8F 		isb
 307              	@ 0 "" 2
 308              		.thumb
 309              		.syntax unified
 310 0070 E1E7     		b	.L45
 311              	.L44:
 312 0072 04F11000 		add	r0, r4, #16
 313 0076 FFF7FEFF 		bl	vListInitialise
 314 007a 04F12400 		add	r0, r4, #36
 315 007e FFF7FEFF 		bl	vListInitialise
 316 0082 D8E7     		b	.L45
 318              		.section	.text.prvInitialiseNewQueue,"ax",%progbits
 319              		.align	1
 320              		.syntax unified
 321              		.thumb
 322              		.thumb_func
 324              	prvInitialiseNewQueue:
 325              		@ args = 4, pretend = 0, frame = 0
 326              		@ frame_needed = 0, uses_anonymous_args = 0
 327 0000 10B5     		push	{r4, lr}
 328 0002 0346     		mov	r3, r0
 329 0004 0298     		ldr	r0, [sp, #8]
 330 0006 0C46     		mov	r4, r1
 331 0008 31B9     		cbnz	r1, .L50
 332 000a 0060     		str	r0, [r0]
 333              	.L51:
 334 000c C363     		str	r3, [r0, #60]
 335 000e 0464     		str	r4, [r0, #64]
 336 0010 0121     		movs	r1, #1
 337 0012 FFF7FEFF 		bl	xQueueGenericReset
 338 0016 10BD     		pop	{r4, pc}
 339              	.L50:
 340 0018 0260     		str	r2, [r0]
 341 001a F7E7     		b	.L51
 343              		.section	.text.xQueueGenericCreateStatic,"ax",%progbits
 344              		.align	1
 345              		.global	xQueueGenericCreateStatic
 346              		.syntax unified
 347              		.thumb
 348              		.thumb_func
 350              	xQueueGenericCreateStatic:
 351              		@ args = 4, pretend = 0, frame = 8
 352              		@ frame_needed = 0, uses_anonymous_args = 0
 353 0000 40B9     		cbnz	r0, .L54
 354              		.syntax unified
 355              	@ 195 "Middlewares/Third_Party/FreeRTOS/Source/portable/GCC/ARM_CM4F/portmacro.h" 1
 356 0002 4FF05003 			mov r3, #80												
 357 0006 83F31188 		msr basepri, r3											
 358 000a BFF36F8F 		isb														
 359 000e BFF34F8F 		dsb														
ARM GAS  C:\Users\Rick\AppData\Local\Temp\ccAPjVmb.s 			page 7


 360              	
 361              	@ 0 "" 2
 362              		.thumb
 363              		.syntax unified
 364              	.L55:
 365 0012 FEE7     		b	.L55
 366              	.L54:
 367 0014 10B5     		push	{r4, lr}
 368 0016 84B0     		sub	sp, sp, #16
 369 0018 1C46     		mov	r4, r3
 370 001a 8446     		mov	ip, r0
 371 001c 53B1     		cbz	r3, .L66
 372 001e 92B1     		cbz	r2, .L58
 373 0020 89B9     		cbnz	r1, .L58
 374              		.syntax unified
 375              	@ 195 "Middlewares/Third_Party/FreeRTOS/Source/portable/GCC/ARM_CM4F/portmacro.h" 1
 376 0022 4FF05003 			mov r3, #80												
 377 0026 83F31188 		msr basepri, r3											
 378 002a BFF36F8F 		isb														
 379 002e BFF34F8F 		dsb														
 380              	
 381              	@ 0 "" 2
 382              		.thumb
 383              		.syntax unified
 384              	.L59:
 385 0032 FEE7     		b	.L59
 386              	.L66:
 387              		.syntax unified
 388              	@ 195 "Middlewares/Third_Party/FreeRTOS/Source/portable/GCC/ARM_CM4F/portmacro.h" 1
 389 0034 4FF05003 			mov r3, #80												
 390 0038 83F31188 		msr basepri, r3											
 391 003c BFF36F8F 		isb														
 392 0040 BFF34F8F 		dsb														
 393              	
 394              	@ 0 "" 2
 395              		.thumb
 396              		.syntax unified
 397              	.L57:
 398 0044 FEE7     		b	.L57
 399              	.L58:
 400 0046 6AB1     		cbz	r2, .L67
 401              	.L60:
 402 0048 4823     		movs	r3, #72
 403 004a 0393     		str	r3, [sp, #12]
 404 004c 039B     		ldr	r3, [sp, #12]
 405 004e 482B     		cmp	r3, #72
 406 0050 13D0     		beq	.L62
 407              		.syntax unified
 408              	@ 195 "Middlewares/Third_Party/FreeRTOS/Source/portable/GCC/ARM_CM4F/portmacro.h" 1
 409 0052 4FF05003 			mov r3, #80												
 410 0056 83F31188 		msr basepri, r3											
 411 005a BFF36F8F 		isb														
 412 005e BFF34F8F 		dsb														
 413              	
 414              	@ 0 "" 2
 415              		.thumb
 416              		.syntax unified
ARM GAS  C:\Users\Rick\AppData\Local\Temp\ccAPjVmb.s 			page 8


 417              	.L63:
 418 0062 FEE7     		b	.L63
 419              	.L67:
 420 0064 0029     		cmp	r1, #0
 421 0066 EFD0     		beq	.L60
 422              		.syntax unified
 423              	@ 195 "Middlewares/Third_Party/FreeRTOS/Source/portable/GCC/ARM_CM4F/portmacro.h" 1
 424 0068 4FF05003 			mov r3, #80												
 425 006c 83F31188 		msr basepri, r3											
 426 0070 BFF36F8F 		isb														
 427 0074 BFF34F8F 		dsb														
 428              	
 429              	@ 0 "" 2
 430              		.thumb
 431              		.syntax unified
 432              	.L61:
 433 0078 FEE7     		b	.L61
 434              	.L62:
 435 007a 039B     		ldr	r3, [sp, #12]
 436 007c 0123     		movs	r3, #1
 437 007e 84F84630 		strb	r3, [r4, #70]
 438 0082 0094     		str	r4, [sp]
 439 0084 9DF81830 		ldrb	r3, [sp, #24]	@ zero_extendqisi2
 440 0088 6046     		mov	r0, ip
 441 008a FFF7FEFF 		bl	prvInitialiseNewQueue
 442 008e 2046     		mov	r0, r4
 443 0090 04B0     		add	sp, sp, #16
 444              		@ sp needed
 445 0092 10BD     		pop	{r4, pc}
 447              		.section	.text.xQueueGenericCreate,"ax",%progbits
 448              		.align	1
 449              		.global	xQueueGenericCreate
 450              		.syntax unified
 451              		.thumb
 452              		.thumb_func
 454              	xQueueGenericCreate:
 455              		@ args = 0, pretend = 0, frame = 0
 456              		@ frame_needed = 0, uses_anonymous_args = 0
 457 0000 40B9     		cbnz	r0, .L69
 458              		.syntax unified
 459              	@ 195 "Middlewares/Third_Party/FreeRTOS/Source/portable/GCC/ARM_CM4F/portmacro.h" 1
 460 0002 4FF05003 			mov r3, #80												
 461 0006 83F31188 		msr basepri, r3											
 462 000a BFF36F8F 		isb														
 463 000e BFF34F8F 		dsb														
 464              	
 465              	@ 0 "" 2
 466              		.thumb
 467              		.syntax unified
 468              	.L70:
 469 0012 FEE7     		b	.L70
 470              	.L69:
 471 0014 F0B5     		push	{r4, r5, r6, r7, lr}
 472 0016 83B0     		sub	sp, sp, #12
 473 0018 0D46     		mov	r5, r1
 474 001a 1446     		mov	r4, r2
 475 001c 0646     		mov	r6, r0
ARM GAS  C:\Users\Rick\AppData\Local\Temp\ccAPjVmb.s 			page 9


 476 001e 01FB00F0 		mul	r0, r1, r0
 477 0022 4830     		adds	r0, r0, #72
 478 0024 FFF7FEFF 		bl	pvPortMalloc
 479 0028 0746     		mov	r7, r0
 480 002a 50B1     		cbz	r0, .L68
 481 002c 0023     		movs	r3, #0
 482 002e 80F84630 		strb	r3, [r0, #70]
 483 0032 0090     		str	r0, [sp]
 484 0034 2346     		mov	r3, r4
 485 0036 00F14802 		add	r2, r0, #72
 486 003a 2946     		mov	r1, r5
 487 003c 3046     		mov	r0, r6
 488 003e FFF7FEFF 		bl	prvInitialiseNewQueue
 489              	.L68:
 490 0042 3846     		mov	r0, r7
 491 0044 03B0     		add	sp, sp, #12
 492              		@ sp needed
 493 0046 F0BD     		pop	{r4, r5, r6, r7, pc}
 495              		.section	.text.xQueueGenericSend,"ax",%progbits
 496              		.align	1
 497              		.global	xQueueGenericSend
 498              		.syntax unified
 499              		.thumb
 500              		.thumb_func
 502              	xQueueGenericSend:
 503              		@ args = 0, pretend = 0, frame = 16
 504              		@ frame_needed = 0, uses_anonymous_args = 0
 505 0000 F0B5     		push	{r4, r5, r6, r7, lr}
 506 0002 85B0     		sub	sp, sp, #20
 507 0004 0192     		str	r2, [sp, #4]
 508 0006 88B1     		cbz	r0, .L98
 509 0008 0F46     		mov	r7, r1
 510 000a 1D46     		mov	r5, r3
 511 000c 0446     		mov	r4, r0
 512 000e B1B1     		cbz	r1, .L99
 513              	.L77:
 514 0010 022D     		cmp	r5, #2
 515 0012 20D1     		bne	.L79
 516 0014 E36B     		ldr	r3, [r4, #60]
 517 0016 012B     		cmp	r3, #1
 518 0018 1DD0     		beq	.L79
 519              		.syntax unified
 520              	@ 195 "Middlewares/Third_Party/FreeRTOS/Source/portable/GCC/ARM_CM4F/portmacro.h" 1
 521 001a 4FF05003 			mov r3, #80												
 522 001e 83F31188 		msr basepri, r3											
 523 0022 BFF36F8F 		isb														
 524 0026 BFF34F8F 		dsb														
 525              	
 526              	@ 0 "" 2
 527              		.thumb
 528              		.syntax unified
 529              	.L80:
 530 002a FEE7     		b	.L80
 531              	.L98:
 532              		.syntax unified
 533              	@ 195 "Middlewares/Third_Party/FreeRTOS/Source/portable/GCC/ARM_CM4F/portmacro.h" 1
 534 002c 4FF05003 			mov r3, #80												
ARM GAS  C:\Users\Rick\AppData\Local\Temp\ccAPjVmb.s 			page 10


 535 0030 83F31188 		msr basepri, r3											
 536 0034 BFF36F8F 		isb														
 537 0038 BFF34F8F 		dsb														
 538              	
 539              	@ 0 "" 2
 540              		.thumb
 541              		.syntax unified
 542              	.L76:
 543 003c FEE7     		b	.L76
 544              	.L99:
 545 003e 036C     		ldr	r3, [r0, #64]
 546 0040 002B     		cmp	r3, #0
 547 0042 E5D0     		beq	.L77
 548              		.syntax unified
 549              	@ 195 "Middlewares/Third_Party/FreeRTOS/Source/portable/GCC/ARM_CM4F/portmacro.h" 1
 550 0044 4FF05003 			mov r3, #80												
 551 0048 83F31188 		msr basepri, r3											
 552 004c BFF36F8F 		isb														
 553 0050 BFF34F8F 		dsb														
 554              	
 555              	@ 0 "" 2
 556              		.thumb
 557              		.syntax unified
 558              	.L78:
 559 0054 FEE7     		b	.L78
 560              	.L79:
 561 0056 FFF7FEFF 		bl	xTaskGetSchedulerState
 562 005a 0646     		mov	r6, r0
 563 005c 58B9     		cbnz	r0, .L96
 564 005e 019B     		ldr	r3, [sp, #4]
 565 0060 002B     		cmp	r3, #0
 566 0062 48D0     		beq	.L83
 567              		.syntax unified
 568              	@ 195 "Middlewares/Third_Party/FreeRTOS/Source/portable/GCC/ARM_CM4F/portmacro.h" 1
 569 0064 4FF05003 			mov r3, #80												
 570 0068 83F31188 		msr basepri, r3											
 571 006c BFF36F8F 		isb														
 572 0070 BFF34F8F 		dsb														
 573              	
 574              	@ 0 "" 2
 575              		.thumb
 576              		.syntax unified
 577              	.L82:
 578 0074 FEE7     		b	.L82
 579              	.L96:
 580 0076 0026     		movs	r6, #0
 581 0078 3DE0     		b	.L83
 582              	.L84:
 583 007a 2A46     		mov	r2, r5
 584 007c 3946     		mov	r1, r7
 585 007e 2046     		mov	r0, r4
 586 0080 FFF7FEFF 		bl	prvCopyDataToQueue
 587 0084 636A     		ldr	r3, [r4, #36]
 588 0086 7BB9     		cbnz	r3, .L100
 589 0088 48B1     		cbz	r0, .L87
 590 008a 4FF0E023 		mov	r3, #-536813568
 591 008e 4FF08052 		mov	r2, #268435456
ARM GAS  C:\Users\Rick\AppData\Local\Temp\ccAPjVmb.s 			page 11


 592 0092 C3F8042D 		str	r2, [r3, #3332]
 593              		.syntax unified
 594              	@ 858 "Middlewares/Third_Party/FreeRTOS/Source/queue.c" 1
 595 0096 BFF34F8F 		dsb
 596              	@ 0 "" 2
 597              	@ 858 "Middlewares/Third_Party/FreeRTOS/Source/queue.c" 1
 598 009a BFF36F8F 		isb
 599              	@ 0 "" 2
 600              		.thumb
 601              		.syntax unified
 602              	.L87:
 603 009e FFF7FEFF 		bl	vPortExitCritical
 604 00a2 0120     		movs	r0, #1
 605              	.L74:
 606 00a4 05B0     		add	sp, sp, #20
 607              		@ sp needed
 608 00a6 F0BD     		pop	{r4, r5, r6, r7, pc}
 609              	.L100:
 610 00a8 04F12400 		add	r0, r4, #36
 611 00ac FFF7FEFF 		bl	xTaskRemoveFromEventList
 612 00b0 0028     		cmp	r0, #0
 613 00b2 F4D0     		beq	.L87
 614 00b4 4FF0E023 		mov	r3, #-536813568
 615 00b8 4FF08052 		mov	r2, #268435456
 616 00bc C3F8042D 		str	r2, [r3, #3332]
 617              		.syntax unified
 618              	@ 845 "Middlewares/Third_Party/FreeRTOS/Source/queue.c" 1
 619 00c0 BFF34F8F 		dsb
 620              	@ 0 "" 2
 621              	@ 845 "Middlewares/Third_Party/FreeRTOS/Source/queue.c" 1
 622 00c4 BFF36F8F 		isb
 623              	@ 0 "" 2
 624              		.thumb
 625              		.syntax unified
 626 00c8 E9E7     		b	.L87
 627              	.L101:
 628 00ca FFF7FEFF 		bl	vPortExitCritical
 629 00ce 0020     		movs	r0, #0
 630 00d0 E8E7     		b	.L74
 631              	.L102:
 632 00d2 02A8     		add	r0, sp, #8
 633 00d4 FFF7FEFF 		bl	vTaskInternalSetTimeOutState
 634 00d8 0126     		movs	r6, #1
 635 00da 19E0     		b	.L90
 636              	.L103:
 637 00dc 0023     		movs	r3, #0
 638 00de 84F84430 		strb	r3, [r4, #68]
 639 00e2 21E0     		b	.L91
 640              	.L104:
 641 00e4 0023     		movs	r3, #0
 642 00e6 84F84530 		strb	r3, [r4, #69]
 643 00ea 23E0     		b	.L92
 644              	.L94:
 645 00ec 2046     		mov	r0, r4
 646 00ee FFF7FEFF 		bl	prvUnlockQueue
 647 00f2 FFF7FEFF 		bl	xTaskResumeAll
 648              	.L83:
ARM GAS  C:\Users\Rick\AppData\Local\Temp\ccAPjVmb.s 			page 12


 649 00f6 FFF7FEFF 		bl	vPortEnterCritical
 650 00fa A26B     		ldr	r2, [r4, #56]
 651 00fc E36B     		ldr	r3, [r4, #60]
 652 00fe 9A42     		cmp	r2, r3
 653 0100 BBD3     		bcc	.L84
 654 0102 022D     		cmp	r5, #2
 655 0104 B9D0     		beq	.L84
 656 0106 019B     		ldr	r3, [sp, #4]
 657 0108 002B     		cmp	r3, #0
 658 010a DED0     		beq	.L101
 659 010c 002E     		cmp	r6, #0
 660 010e E0D0     		beq	.L102
 661              	.L90:
 662 0110 FFF7FEFF 		bl	vPortExitCritical
 663 0114 FFF7FEFF 		bl	vTaskSuspendAll
 664 0118 FFF7FEFF 		bl	vPortEnterCritical
 665 011c 94F84420 		ldrb	r2, [r4, #68]	@ zero_extendqisi2
 666 0120 52B2     		sxtb	r2, r2
 667 0122 B2F1FF3F 		cmp	r2, #-1
 668 0126 D9D0     		beq	.L103
 669              	.L91:
 670 0128 94F84520 		ldrb	r2, [r4, #69]	@ zero_extendqisi2
 671 012c 52B2     		sxtb	r2, r2
 672 012e B2F1FF3F 		cmp	r2, #-1
 673 0132 D7D0     		beq	.L104
 674              	.L92:
 675 0134 FFF7FEFF 		bl	vPortExitCritical
 676 0138 01A9     		add	r1, sp, #4
 677 013a 02A8     		add	r0, sp, #8
 678 013c FFF7FEFF 		bl	xTaskCheckForTimeOut
 679 0140 D8B9     		cbnz	r0, .L93
 680 0142 2046     		mov	r0, r4
 681 0144 FFF7FEFF 		bl	prvIsQueueFull
 682 0148 0028     		cmp	r0, #0
 683 014a CFD0     		beq	.L94
 684 014c 0199     		ldr	r1, [sp, #4]
 685 014e 04F11000 		add	r0, r4, #16
 686 0152 FFF7FEFF 		bl	vTaskPlaceOnEventList
 687 0156 2046     		mov	r0, r4
 688 0158 FFF7FEFF 		bl	prvUnlockQueue
 689 015c FFF7FEFF 		bl	xTaskResumeAll
 690 0160 0028     		cmp	r0, #0
 691 0162 C8D1     		bne	.L83
 692 0164 4FF0E023 		mov	r3, #-536813568
 693 0168 4FF08052 		mov	r2, #268435456
 694 016c C3F8042D 		str	r2, [r3, #3332]
 695              		.syntax unified
 696              	@ 927 "Middlewares/Third_Party/FreeRTOS/Source/queue.c" 1
 697 0170 BFF34F8F 		dsb
 698              	@ 0 "" 2
 699              	@ 927 "Middlewares/Third_Party/FreeRTOS/Source/queue.c" 1
 700 0174 BFF36F8F 		isb
 701              	@ 0 "" 2
 702              		.thumb
 703              		.syntax unified
 704 0178 BDE7     		b	.L83
 705              	.L93:
ARM GAS  C:\Users\Rick\AppData\Local\Temp\ccAPjVmb.s 			page 13


 706 017a 2046     		mov	r0, r4
 707 017c FFF7FEFF 		bl	prvUnlockQueue
 708 0180 FFF7FEFF 		bl	xTaskResumeAll
 709 0184 0020     		movs	r0, #0
 710 0186 8DE7     		b	.L74
 712              		.section	.text.prvInitialiseMutex,"ax",%progbits
 713              		.align	1
 714              		.syntax unified
 715              		.thumb
 716              		.thumb_func
 718              	prvInitialiseMutex:
 719              		@ args = 0, pretend = 0, frame = 0
 720              		@ frame_needed = 0, uses_anonymous_args = 0
 721 0000 48B1     		cbz	r0, .L108
 722 0002 08B5     		push	{r3, lr}
 723 0004 0021     		movs	r1, #0
 724 0006 8160     		str	r1, [r0, #8]
 725 0008 0160     		str	r1, [r0]
 726 000a C160     		str	r1, [r0, #12]
 727 000c 0B46     		mov	r3, r1
 728 000e 0A46     		mov	r2, r1
 729 0010 FFF7FEFF 		bl	xQueueGenericSend
 730 0014 08BD     		pop	{r3, pc}
 731              	.L108:
 732 0016 7047     		bx	lr
 734              		.section	.text.xQueueCreateMutex,"ax",%progbits
 735              		.align	1
 736              		.global	xQueueCreateMutex
 737              		.syntax unified
 738              		.thumb
 739              		.thumb_func
 741              	xQueueCreateMutex:
 742              		@ args = 0, pretend = 0, frame = 0
 743              		@ frame_needed = 0, uses_anonymous_args = 0
 744 0000 10B5     		push	{r4, lr}
 745 0002 0246     		mov	r2, r0
 746 0004 0021     		movs	r1, #0
 747 0006 0120     		movs	r0, #1
 748 0008 FFF7FEFF 		bl	xQueueGenericCreate
 749 000c 0446     		mov	r4, r0
 750 000e FFF7FEFF 		bl	prvInitialiseMutex
 751 0012 2046     		mov	r0, r4
 752 0014 10BD     		pop	{r4, pc}
 754              		.section	.text.xQueueCreateMutexStatic,"ax",%progbits
 755              		.align	1
 756              		.global	xQueueCreateMutexStatic
 757              		.syntax unified
 758              		.thumb
 759              		.thumb_func
 761              	xQueueCreateMutexStatic:
 762              		@ args = 0, pretend = 0, frame = 0
 763              		@ frame_needed = 0, uses_anonymous_args = 0
 764 0000 10B5     		push	{r4, lr}
 765 0002 82B0     		sub	sp, sp, #8
 766 0004 0B46     		mov	r3, r1
 767 0006 0090     		str	r0, [sp]
 768 0008 0022     		movs	r2, #0
ARM GAS  C:\Users\Rick\AppData\Local\Temp\ccAPjVmb.s 			page 14


 769 000a 1146     		mov	r1, r2
 770 000c 0120     		movs	r0, #1
 771 000e FFF7FEFF 		bl	xQueueGenericCreateStatic
 772 0012 0446     		mov	r4, r0
 773 0014 FFF7FEFF 		bl	prvInitialiseMutex
 774 0018 2046     		mov	r0, r4
 775 001a 02B0     		add	sp, sp, #8
 776              		@ sp needed
 777 001c 10BD     		pop	{r4, pc}
 779              		.section	.text.xQueueGenericSendFromISR,"ax",%progbits
 780              		.align	1
 781              		.global	xQueueGenericSendFromISR
 782              		.syntax unified
 783              		.thumb
 784              		.thumb_func
 786              	xQueueGenericSendFromISR:
 787              		@ args = 0, pretend = 0, frame = 0
 788              		@ frame_needed = 0, uses_anonymous_args = 0
 789 0000 2DE9F843 		push	{r3, r4, r5, r6, r7, r8, r9, lr}
 790 0004 90B1     		cbz	r0, .L130
 791 0006 0F46     		mov	r7, r1
 792 0008 1646     		mov	r6, r2
 793 000a 1C46     		mov	r4, r3
 794 000c 0546     		mov	r5, r0
 795 000e B1B1     		cbz	r1, .L131
 796              	.L118:
 797 0010 022C     		cmp	r4, #2
 798 0012 20D1     		bne	.L120
 799 0014 EB6B     		ldr	r3, [r5, #60]
 800 0016 012B     		cmp	r3, #1
 801 0018 1DD0     		beq	.L120
 802              		.syntax unified
 803              	@ 195 "Middlewares/Third_Party/FreeRTOS/Source/portable/GCC/ARM_CM4F/portmacro.h" 1
 804 001a 4FF05003 			mov r3, #80												
 805 001e 83F31188 		msr basepri, r3											
 806 0022 BFF36F8F 		isb														
 807 0026 BFF34F8F 		dsb														
 808              	
 809              	@ 0 "" 2
 810              		.thumb
 811              		.syntax unified
 812              	.L121:
 813 002a FEE7     		b	.L121
 814              	.L130:
 815              		.syntax unified
 816              	@ 195 "Middlewares/Third_Party/FreeRTOS/Source/portable/GCC/ARM_CM4F/portmacro.h" 1
 817 002c 4FF05003 			mov r3, #80												
 818 0030 83F31188 		msr basepri, r3											
 819 0034 BFF36F8F 		isb														
 820 0038 BFF34F8F 		dsb														
 821              	
 822              	@ 0 "" 2
 823              		.thumb
 824              		.syntax unified
 825              	.L117:
 826 003c FEE7     		b	.L117
 827              	.L131:
ARM GAS  C:\Users\Rick\AppData\Local\Temp\ccAPjVmb.s 			page 15


 828 003e 036C     		ldr	r3, [r0, #64]
 829 0040 002B     		cmp	r3, #0
 830 0042 E5D0     		beq	.L118
 831              		.syntax unified
 832              	@ 195 "Middlewares/Third_Party/FreeRTOS/Source/portable/GCC/ARM_CM4F/portmacro.h" 1
 833 0044 4FF05003 			mov r3, #80												
 834 0048 83F31188 		msr basepri, r3											
 835 004c BFF36F8F 		isb														
 836 0050 BFF34F8F 		dsb														
 837              	
 838              	@ 0 "" 2
 839              		.thumb
 840              		.syntax unified
 841              	.L119:
 842 0054 FEE7     		b	.L119
 843              	.L120:
 844 0056 FFF7FEFF 		bl	vPortValidateInterruptPriority
 845              		.syntax unified
 846              	@ 211 "Middlewares/Third_Party/FreeRTOS/Source/portable/GCC/ARM_CM4F/portmacro.h" 1
 847 005a EFF31188 			mrs r8, basepri											
 848 005e 4FF05003 		mov r3, #80												
 849 0062 83F31188 		msr basepri, r3											
 850 0066 BFF36F8F 		isb														
 851 006a BFF34F8F 		dsb														
 852              	
 853              	@ 0 "" 2
 854              		.thumb
 855              		.syntax unified
 856 006e AA6B     		ldr	r2, [r5, #56]
 857 0070 EB6B     		ldr	r3, [r5, #60]
 858 0072 9A42     		cmp	r2, r3
 859 0074 06D3     		bcc	.L122
 860 0076 022C     		cmp	r4, #2
 861 0078 04D0     		beq	.L122
 862 007a 0020     		movs	r0, #0
 863              	.L123:
 864              		.syntax unified
 865              	@ 229 "Middlewares/Third_Party/FreeRTOS/Source/portable/GCC/ARM_CM4F/portmacro.h" 1
 866 007c 88F31188 			msr basepri, r8	
 867              	@ 0 "" 2
 868              		.thumb
 869              		.syntax unified
 870 0080 BDE8F883 		pop	{r3, r4, r5, r6, r7, r8, r9, pc}
 871              	.L122:
 872 0084 95F84590 		ldrb	r9, [r5, #69]	@ zero_extendqisi2
 873 0088 4FFA89F9 		sxtb	r9, r9
 874 008c AB6B     		ldr	r3, [r5, #56]
 875 008e 2246     		mov	r2, r4
 876 0090 3946     		mov	r1, r7
 877 0092 2846     		mov	r0, r5
 878 0094 FFF7FEFF 		bl	prvCopyDataToQueue
 879 0098 B9F1FF3F 		cmp	r9, #-1
 880 009c 06D0     		beq	.L132
 881 009e 09F10103 		add	r3, r9, #1
 882 00a2 5BB2     		sxtb	r3, r3
 883 00a4 85F84530 		strb	r3, [r5, #69]
 884 00a8 0120     		movs	r0, #1
ARM GAS  C:\Users\Rick\AppData\Local\Temp\ccAPjVmb.s 			page 16


 885 00aa E7E7     		b	.L123
 886              	.L132:
 887 00ac 6B6A     		ldr	r3, [r5, #36]
 888 00ae 0BB9     		cbnz	r3, .L133
 889 00b0 0120     		movs	r0, #1
 890 00b2 E3E7     		b	.L123
 891              	.L133:
 892 00b4 05F12400 		add	r0, r5, #36
 893 00b8 FFF7FEFF 		bl	xTaskRemoveFromEventList
 894 00bc 18B1     		cbz	r0, .L127
 895 00be 26B1     		cbz	r6, .L128
 896 00c0 0120     		movs	r0, #1
 897 00c2 3060     		str	r0, [r6]
 898 00c4 DAE7     		b	.L123
 899              	.L127:
 900 00c6 0120     		movs	r0, #1
 901 00c8 D8E7     		b	.L123
 902              	.L128:
 903 00ca 0120     		movs	r0, #1
 904 00cc D6E7     		b	.L123
 906              		.section	.text.xQueueGiveFromISR,"ax",%progbits
 907              		.align	1
 908              		.global	xQueueGiveFromISR
 909              		.syntax unified
 910              		.thumb
 911              		.thumb_func
 913              	xQueueGiveFromISR:
 914              		@ args = 0, pretend = 0, frame = 0
 915              		@ frame_needed = 0, uses_anonymous_args = 0
 916 0000 68B1     		cbz	r0, .L149
 917 0002 70B5     		push	{r4, r5, r6, lr}
 918 0004 0C46     		mov	r4, r1
 919 0006 0546     		mov	r5, r0
 920 0008 036C     		ldr	r3, [r0, #64]
 921 000a 8BB1     		cbz	r3, .L137
 922              		.syntax unified
 923              	@ 195 "Middlewares/Third_Party/FreeRTOS/Source/portable/GCC/ARM_CM4F/portmacro.h" 1
 924 000c 4FF05003 			mov r3, #80												
 925 0010 83F31188 		msr basepri, r3											
 926 0014 BFF36F8F 		isb														
 927 0018 BFF34F8F 		dsb														
 928              	
 929              	@ 0 "" 2
 930              		.thumb
 931              		.syntax unified
 932              	.L138:
 933 001c FEE7     		b	.L138
 934              	.L149:
 935              		.syntax unified
 936              	@ 195 "Middlewares/Third_Party/FreeRTOS/Source/portable/GCC/ARM_CM4F/portmacro.h" 1
 937 001e 4FF05003 			mov r3, #80												
 938 0022 83F31188 		msr basepri, r3											
 939 0026 BFF36F8F 		isb														
 940 002a BFF34F8F 		dsb														
 941              	
 942              	@ 0 "" 2
 943              		.thumb
ARM GAS  C:\Users\Rick\AppData\Local\Temp\ccAPjVmb.s 			page 17


 944              		.syntax unified
 945              	.L136:
 946 002e FEE7     		b	.L136
 947              	.L137:
 948 0030 0368     		ldr	r3, [r0]
 949 0032 EBB1     		cbz	r3, .L150
 950              	.L139:
 951 0034 FFF7FEFF 		bl	vPortValidateInterruptPriority
 952              		.syntax unified
 953              	@ 211 "Middlewares/Third_Party/FreeRTOS/Source/portable/GCC/ARM_CM4F/portmacro.h" 1
 954 0038 EFF31186 			mrs r6, basepri											
 955 003c 4FF05003 		mov r3, #80												
 956 0040 83F31188 		msr basepri, r3											
 957 0044 BFF36F8F 		isb														
 958 0048 BFF34F8F 		dsb														
 959              	
 960              	@ 0 "" 2
 961              		.thumb
 962              		.syntax unified
 963 004c AA6B     		ldr	r2, [r5, #56]
 964 004e EB6B     		ldr	r3, [r5, #60]
 965 0050 9342     		cmp	r3, r2
 966 0052 26D9     		bls	.L143
 967 0054 95F84530 		ldrb	r3, [r5, #69]	@ zero_extendqisi2
 968 0058 5BB2     		sxtb	r3, r3
 969 005a 0132     		adds	r2, r2, #1
 970 005c AA63     		str	r2, [r5, #56]
 971 005e B3F1FF3F 		cmp	r3, #-1
 972 0062 11D0     		beq	.L151
 973 0064 0133     		adds	r3, r3, #1
 974 0066 5BB2     		sxtb	r3, r3
 975 0068 85F84530 		strb	r3, [r5, #69]
 976 006c 0120     		movs	r0, #1
 977 006e 19E0     		b	.L141
 978              	.L150:
 979 0070 8368     		ldr	r3, [r0, #8]
 980 0072 002B     		cmp	r3, #0
 981 0074 DED0     		beq	.L139
 982              		.syntax unified
 983              	@ 195 "Middlewares/Third_Party/FreeRTOS/Source/portable/GCC/ARM_CM4F/portmacro.h" 1
 984 0076 4FF05003 			mov r3, #80												
 985 007a 83F31188 		msr basepri, r3											
 986 007e BFF36F8F 		isb														
 987 0082 BFF34F8F 		dsb														
 988              	
 989              	@ 0 "" 2
 990              		.thumb
 991              		.syntax unified
 992              	.L140:
 993 0086 FEE7     		b	.L140
 994              	.L151:
 995 0088 6B6A     		ldr	r3, [r5, #36]
 996 008a 0BB9     		cbnz	r3, .L152
 997 008c 0120     		movs	r0, #1
 998 008e 09E0     		b	.L141
 999              	.L152:
 1000 0090 05F12400 		add	r0, r5, #36
ARM GAS  C:\Users\Rick\AppData\Local\Temp\ccAPjVmb.s 			page 18


 1001 0094 FFF7FEFF 		bl	xTaskRemoveFromEventList
 1002 0098 38B1     		cbz	r0, .L145
 1003 009a 44B1     		cbz	r4, .L146
 1004 009c 0120     		movs	r0, #1
 1005 009e 2060     		str	r0, [r4]
 1006 00a0 00E0     		b	.L141
 1007              	.L143:
 1008 00a2 0020     		movs	r0, #0
 1009              	.L141:
 1010              		.syntax unified
 1011              	@ 229 "Middlewares/Third_Party/FreeRTOS/Source/portable/GCC/ARM_CM4F/portmacro.h" 1
 1012 00a4 86F31188 			msr basepri, r6	
 1013              	@ 0 "" 2
 1014              		.thumb
 1015              		.syntax unified
 1016 00a8 70BD     		pop	{r4, r5, r6, pc}
 1017              	.L145:
 1018 00aa 0120     		movs	r0, #1
 1019 00ac FAE7     		b	.L141
 1020              	.L146:
 1021 00ae 0120     		movs	r0, #1
 1022 00b0 F8E7     		b	.L141
 1024              		.section	.text.xQueueReceive,"ax",%progbits
 1025              		.align	1
 1026              		.global	xQueueReceive
 1027              		.syntax unified
 1028              		.thumb
 1029              		.thumb_func
 1031              	xQueueReceive:
 1032              		@ args = 0, pretend = 0, frame = 16
 1033              		@ frame_needed = 0, uses_anonymous_args = 0
 1034 0000 F0B5     		push	{r4, r5, r6, r7, lr}
 1035 0002 85B0     		sub	sp, sp, #20
 1036 0004 0192     		str	r2, [sp, #4]
 1037 0006 90B1     		cbz	r0, .L173
 1038 0008 0F46     		mov	r7, r1
 1039 000a 0446     		mov	r4, r0
 1040 000c C1B1     		cbz	r1, .L174
 1041              	.L156:
 1042 000e FFF7FEFF 		bl	xTaskGetSchedulerState
 1043 0012 0646     		mov	r6, r0
 1044 0014 00BB     		cbnz	r0, .L171
 1045 0016 019B     		ldr	r3, [sp, #4]
 1046 0018 002B     		cmp	r3, #0
 1047 001a 5ED0     		beq	.L160
 1048              		.syntax unified
 1049              	@ 195 "Middlewares/Third_Party/FreeRTOS/Source/portable/GCC/ARM_CM4F/portmacro.h" 1
 1050 001c 4FF05003 			mov r3, #80												
 1051 0020 83F31188 		msr basepri, r3											
 1052 0024 BFF36F8F 		isb														
 1053 0028 BFF34F8F 		dsb														
 1054              	
 1055              	@ 0 "" 2
 1056              		.thumb
 1057              		.syntax unified
 1058              	.L159:
 1059 002c FEE7     		b	.L159
ARM GAS  C:\Users\Rick\AppData\Local\Temp\ccAPjVmb.s 			page 19


 1060              	.L173:
 1061              		.syntax unified
 1062              	@ 195 "Middlewares/Third_Party/FreeRTOS/Source/portable/GCC/ARM_CM4F/portmacro.h" 1
 1063 002e 4FF05003 			mov r3, #80												
 1064 0032 83F31188 		msr basepri, r3											
 1065 0036 BFF36F8F 		isb														
 1066 003a BFF34F8F 		dsb														
 1067              	
 1068              	@ 0 "" 2
 1069              		.thumb
 1070              		.syntax unified
 1071              	.L155:
 1072 003e FEE7     		b	.L155
 1073              	.L174:
 1074 0040 036C     		ldr	r3, [r0, #64]
 1075 0042 002B     		cmp	r3, #0
 1076 0044 E3D0     		beq	.L156
 1077              		.syntax unified
 1078              	@ 195 "Middlewares/Third_Party/FreeRTOS/Source/portable/GCC/ARM_CM4F/portmacro.h" 1
 1079 0046 4FF05003 			mov r3, #80												
 1080 004a 83F31188 		msr basepri, r3											
 1081 004e BFF36F8F 		isb														
 1082 0052 BFF34F8F 		dsb														
 1083              	
 1084              	@ 0 "" 2
 1085              		.thumb
 1086              		.syntax unified
 1087              	.L157:
 1088 0056 FEE7     		b	.L157
 1089              	.L171:
 1090 0058 0026     		movs	r6, #0
 1091 005a 3EE0     		b	.L160
 1092              	.L177:
 1093 005c 3946     		mov	r1, r7
 1094 005e 2046     		mov	r0, r4
 1095 0060 FFF7FEFF 		bl	prvCopyDataFromQueue
 1096 0064 013D     		subs	r5, r5, #1
 1097 0066 A563     		str	r5, [r4, #56]
 1098 0068 2369     		ldr	r3, [r4, #16]
 1099 006a 23B9     		cbnz	r3, .L175
 1100              	.L162:
 1101 006c FFF7FEFF 		bl	vPortExitCritical
 1102 0070 0120     		movs	r0, #1
 1103              	.L153:
 1104 0072 05B0     		add	sp, sp, #20
 1105              		@ sp needed
 1106 0074 F0BD     		pop	{r4, r5, r6, r7, pc}
 1107              	.L175:
 1108 0076 04F11000 		add	r0, r4, #16
 1109 007a FFF7FEFF 		bl	xTaskRemoveFromEventList
 1110 007e 0028     		cmp	r0, #0
 1111 0080 F4D0     		beq	.L162
 1112 0082 4FF0E023 		mov	r3, #-536813568
 1113 0086 4FF08052 		mov	r2, #268435456
 1114 008a C3F8042D 		str	r2, [r3, #3332]
 1115              		.syntax unified
 1116              	@ 1323 "Middlewares/Third_Party/FreeRTOS/Source/queue.c" 1
ARM GAS  C:\Users\Rick\AppData\Local\Temp\ccAPjVmb.s 			page 20


 1117 008e BFF34F8F 		dsb
 1118              	@ 0 "" 2
 1119              	@ 1323 "Middlewares/Third_Party/FreeRTOS/Source/queue.c" 1
 1120 0092 BFF36F8F 		isb
 1121              	@ 0 "" 2
 1122              		.thumb
 1123              		.syntax unified
 1124 0096 E9E7     		b	.L162
 1125              	.L178:
 1126 0098 FFF7FEFF 		bl	vPortExitCritical
 1127 009c 0020     		movs	r0, #0
 1128 009e E8E7     		b	.L153
 1129              	.L179:
 1130 00a0 02A8     		add	r0, sp, #8
 1131 00a2 FFF7FEFF 		bl	vTaskInternalSetTimeOutState
 1132 00a6 0126     		movs	r6, #1
 1133 00a8 21E0     		b	.L165
 1134              	.L180:
 1135 00aa 0023     		movs	r3, #0
 1136 00ac 84F84430 		strb	r3, [r4, #68]
 1137 00b0 29E0     		b	.L166
 1138              	.L181:
 1139 00b2 0023     		movs	r3, #0
 1140 00b4 84F84530 		strb	r3, [r4, #69]
 1141 00b8 2BE0     		b	.L167
 1142              	.L169:
 1143 00ba 2046     		mov	r0, r4
 1144 00bc FFF7FEFF 		bl	prvUnlockQueue
 1145 00c0 FFF7FEFF 		bl	xTaskResumeAll
 1146 00c4 09E0     		b	.L160
 1147              	.L168:
 1148 00c6 2046     		mov	r0, r4
 1149 00c8 FFF7FEFF 		bl	prvUnlockQueue
 1150 00cc FFF7FEFF 		bl	xTaskResumeAll
 1151 00d0 2046     		mov	r0, r4
 1152 00d2 FFF7FEFF 		bl	prvIsQueueEmpty
 1153 00d6 0028     		cmp	r0, #0
 1154 00d8 3FD1     		bne	.L176
 1155              	.L160:
 1156 00da FFF7FEFF 		bl	vPortEnterCritical
 1157 00de A56B     		ldr	r5, [r4, #56]
 1158 00e0 002D     		cmp	r5, #0
 1159 00e2 BBD1     		bne	.L177
 1160 00e4 019B     		ldr	r3, [sp, #4]
 1161 00e6 002B     		cmp	r3, #0
 1162 00e8 D6D0     		beq	.L178
 1163 00ea 002E     		cmp	r6, #0
 1164 00ec D8D0     		beq	.L179
 1165              	.L165:
 1166 00ee FFF7FEFF 		bl	vPortExitCritical
 1167 00f2 FFF7FEFF 		bl	vTaskSuspendAll
 1168 00f6 FFF7FEFF 		bl	vPortEnterCritical
 1169 00fa 94F84430 		ldrb	r3, [r4, #68]	@ zero_extendqisi2
 1170 00fe 5BB2     		sxtb	r3, r3
 1171 0100 B3F1FF3F 		cmp	r3, #-1
 1172 0104 D1D0     		beq	.L180
 1173              	.L166:
ARM GAS  C:\Users\Rick\AppData\Local\Temp\ccAPjVmb.s 			page 21


 1174 0106 94F84530 		ldrb	r3, [r4, #69]	@ zero_extendqisi2
 1175 010a 5BB2     		sxtb	r3, r3
 1176 010c B3F1FF3F 		cmp	r3, #-1
 1177 0110 CFD0     		beq	.L181
 1178              	.L167:
 1179 0112 FFF7FEFF 		bl	vPortExitCritical
 1180 0116 01A9     		add	r1, sp, #4
 1181 0118 02A8     		add	r0, sp, #8
 1182 011a FFF7FEFF 		bl	xTaskCheckForTimeOut
 1183 011e 0028     		cmp	r0, #0
 1184 0120 D1D1     		bne	.L168
 1185 0122 2046     		mov	r0, r4
 1186 0124 FFF7FEFF 		bl	prvIsQueueEmpty
 1187 0128 0028     		cmp	r0, #0
 1188 012a C6D0     		beq	.L169
 1189 012c 0199     		ldr	r1, [sp, #4]
 1190 012e 04F12400 		add	r0, r4, #36
 1191 0132 FFF7FEFF 		bl	vTaskPlaceOnEventList
 1192 0136 2046     		mov	r0, r4
 1193 0138 FFF7FEFF 		bl	prvUnlockQueue
 1194 013c FFF7FEFF 		bl	xTaskResumeAll
 1195 0140 0028     		cmp	r0, #0
 1196 0142 CAD1     		bne	.L160
 1197 0144 4FF0E023 		mov	r3, #-536813568
 1198 0148 4FF08052 		mov	r2, #268435456
 1199 014c C3F8042D 		str	r2, [r3, #3332]
 1200              		.syntax unified
 1201              	@ 1382 "Middlewares/Third_Party/FreeRTOS/Source/queue.c" 1
 1202 0150 BFF34F8F 		dsb
 1203              	@ 0 "" 2
 1204              	@ 1382 "Middlewares/Third_Party/FreeRTOS/Source/queue.c" 1
 1205 0154 BFF36F8F 		isb
 1206              	@ 0 "" 2
 1207              		.thumb
 1208              		.syntax unified
 1209 0158 BFE7     		b	.L160
 1210              	.L176:
 1211 015a 0020     		movs	r0, #0
 1212 015c 89E7     		b	.L153
 1214              		.section	.text.xQueueSemaphoreTake,"ax",%progbits
 1215              		.align	1
 1216              		.global	xQueueSemaphoreTake
 1217              		.syntax unified
 1218              		.thumb
 1219              		.thumb_func
 1221              	xQueueSemaphoreTake:
 1222              		@ args = 0, pretend = 0, frame = 16
 1223              		@ frame_needed = 0, uses_anonymous_args = 0
 1224 0000 70B5     		push	{r4, r5, r6, lr}
 1225 0002 84B0     		sub	sp, sp, #16
 1226 0004 0191     		str	r1, [sp, #4]
 1227 0006 58B1     		cbz	r0, .L208
 1228 0008 0446     		mov	r4, r0
 1229 000a 036C     		ldr	r3, [r0, #64]
 1230 000c 8BB1     		cbz	r3, .L185
 1231              		.syntax unified
 1232              	@ 195 "Middlewares/Third_Party/FreeRTOS/Source/portable/GCC/ARM_CM4F/portmacro.h" 1
ARM GAS  C:\Users\Rick\AppData\Local\Temp\ccAPjVmb.s 			page 22


 1233 000e 4FF05003 			mov r3, #80												
 1234 0012 83F31188 		msr basepri, r3											
 1235 0016 BFF36F8F 		isb														
 1236 001a BFF34F8F 		dsb														
 1237              	
 1238              	@ 0 "" 2
 1239              		.thumb
 1240              		.syntax unified
 1241              	.L186:
 1242 001e FEE7     		b	.L186
 1243              	.L208:
 1244              		.syntax unified
 1245              	@ 195 "Middlewares/Third_Party/FreeRTOS/Source/portable/GCC/ARM_CM4F/portmacro.h" 1
 1246 0020 4FF05003 			mov r3, #80												
 1247 0024 83F31188 		msr basepri, r3											
 1248 0028 BFF36F8F 		isb														
 1249 002c BFF34F8F 		dsb														
 1250              	
 1251              	@ 0 "" 2
 1252              		.thumb
 1253              		.syntax unified
 1254              	.L184:
 1255 0030 FEE7     		b	.L184
 1256              	.L185:
 1257 0032 FFF7FEFF 		bl	xTaskGetSchedulerState
 1258 0036 0546     		mov	r5, r0
 1259 0038 50B9     		cbnz	r0, .L205
 1260 003a 019B     		ldr	r3, [sp, #4]
 1261 003c 5BB1     		cbz	r3, .L206
 1262              		.syntax unified
 1263              	@ 195 "Middlewares/Third_Party/FreeRTOS/Source/portable/GCC/ARM_CM4F/portmacro.h" 1
 1264 003e 4FF05003 			mov r3, #80												
 1265 0042 83F31188 		msr basepri, r3											
 1266 0046 BFF36F8F 		isb														
 1267 004a BFF34F8F 		dsb														
 1268              	
 1269              	@ 0 "" 2
 1270              		.thumb
 1271              		.syntax unified
 1272              	.L188:
 1273 004e FEE7     		b	.L188
 1274              	.L205:
 1275 0050 0026     		movs	r6, #0
 1276 0052 3546     		mov	r5, r6
 1277 0054 55E0     		b	.L189
 1278              	.L206:
 1279 0056 0646     		mov	r6, r0
 1280 0058 53E0     		b	.L189
 1281              	.L212:
 1282 005a 013B     		subs	r3, r3, #1
 1283 005c A363     		str	r3, [r4, #56]
 1284 005e 2368     		ldr	r3, [r4]
 1285 0060 3BB1     		cbz	r3, .L209
 1286              	.L191:
 1287 0062 2369     		ldr	r3, [r4, #16]
 1288 0064 4BB9     		cbnz	r3, .L210
 1289              	.L192:
ARM GAS  C:\Users\Rick\AppData\Local\Temp\ccAPjVmb.s 			page 23


 1290 0066 FFF7FEFF 		bl	vPortExitCritical
 1291 006a 0126     		movs	r6, #1
 1292              	.L182:
 1293 006c 3046     		mov	r0, r6
 1294 006e 04B0     		add	sp, sp, #16
 1295              		@ sp needed
 1296 0070 70BD     		pop	{r4, r5, r6, pc}
 1297              	.L209:
 1298 0072 FFF7FEFF 		bl	pvTaskIncrementMutexHeldCount
 1299 0076 A060     		str	r0, [r4, #8]
 1300 0078 F3E7     		b	.L191
 1301              	.L210:
 1302 007a 04F11000 		add	r0, r4, #16
 1303 007e FFF7FEFF 		bl	xTaskRemoveFromEventList
 1304 0082 0028     		cmp	r0, #0
 1305 0084 EFD0     		beq	.L192
 1306 0086 4FF0E023 		mov	r3, #-536813568
 1307 008a 4FF08052 		mov	r2, #268435456
 1308 008e C3F8042D 		str	r2, [r3, #3332]
 1309              		.syntax unified
 1310              	@ 1485 "Middlewares/Third_Party/FreeRTOS/Source/queue.c" 1
 1311 0092 BFF34F8F 		dsb
 1312              	@ 0 "" 2
 1313              	@ 1485 "Middlewares/Third_Party/FreeRTOS/Source/queue.c" 1
 1314 0096 BFF36F8F 		isb
 1315              	@ 0 "" 2
 1316              		.thumb
 1317              		.syntax unified
 1318 009a E4E7     		b	.L192
 1319              	.L213:
 1320 009c 46B1     		cbz	r6, .L195
 1321              		.syntax unified
 1322              	@ 195 "Middlewares/Third_Party/FreeRTOS/Source/portable/GCC/ARM_CM4F/portmacro.h" 1
 1323 009e 4FF05003 			mov r3, #80												
 1324 00a2 83F31188 		msr basepri, r3											
 1325 00a6 BFF36F8F 		isb														
 1326 00aa BFF34F8F 		dsb														
 1327              	
 1328              	@ 0 "" 2
 1329              		.thumb
 1330              		.syntax unified
 1331              	.L196:
 1332 00ae FEE7     		b	.L196
 1333              	.L195:
 1334 00b0 FFF7FEFF 		bl	vPortExitCritical
 1335 00b4 DAE7     		b	.L182
 1336              	.L214:
 1337 00b6 02A8     		add	r0, sp, #8
 1338 00b8 FFF7FEFF 		bl	vTaskInternalSetTimeOutState
 1339 00bc 0125     		movs	r5, #1
 1340 00be 2AE0     		b	.L197
 1341              	.L215:
 1342 00c0 0023     		movs	r3, #0
 1343 00c2 84F84430 		strb	r3, [r4, #68]
 1344 00c6 32E0     		b	.L198
 1345              	.L216:
 1346 00c8 0023     		movs	r3, #0
ARM GAS  C:\Users\Rick\AppData\Local\Temp\ccAPjVmb.s 			page 24


 1347 00ca 84F84530 		strb	r3, [r4, #69]
 1348 00ce 34E0     		b	.L199
 1349              	.L217:
 1350 00d0 FFF7FEFF 		bl	vPortEnterCritical
 1351 00d4 A068     		ldr	r0, [r4, #8]
 1352 00d6 FFF7FEFF 		bl	xTaskPriorityInherit
 1353 00da 0646     		mov	r6, r0
 1354 00dc FFF7FEFF 		bl	vPortExitCritical
 1355 00e0 3BE0     		b	.L202
 1356              	.L201:
 1357 00e2 2046     		mov	r0, r4
 1358 00e4 FFF7FEFF 		bl	prvUnlockQueue
 1359 00e8 FFF7FEFF 		bl	xTaskResumeAll
 1360 00ec 09E0     		b	.L189
 1361              	.L200:
 1362 00ee 2046     		mov	r0, r4
 1363 00f0 FFF7FEFF 		bl	prvUnlockQueue
 1364 00f4 FFF7FEFF 		bl	xTaskResumeAll
 1365 00f8 2046     		mov	r0, r4
 1366 00fa FFF7FEFF 		bl	prvIsQueueEmpty
 1367 00fe 0028     		cmp	r0, #0
 1368 0100 42D1     		bne	.L211
 1369              	.L189:
 1370 0102 FFF7FEFF 		bl	vPortEnterCritical
 1371 0106 A36B     		ldr	r3, [r4, #56]
 1372 0108 002B     		cmp	r3, #0
 1373 010a A6D1     		bne	.L212
 1374 010c 019B     		ldr	r3, [sp, #4]
 1375 010e 002B     		cmp	r3, #0
 1376 0110 C4D0     		beq	.L213
 1377 0112 002D     		cmp	r5, #0
 1378 0114 CFD0     		beq	.L214
 1379              	.L197:
 1380 0116 FFF7FEFF 		bl	vPortExitCritical
 1381 011a FFF7FEFF 		bl	vTaskSuspendAll
 1382 011e FFF7FEFF 		bl	vPortEnterCritical
 1383 0122 94F84430 		ldrb	r3, [r4, #68]	@ zero_extendqisi2
 1384 0126 5BB2     		sxtb	r3, r3
 1385 0128 B3F1FF3F 		cmp	r3, #-1
 1386 012c C8D0     		beq	.L215
 1387              	.L198:
 1388 012e 94F84530 		ldrb	r3, [r4, #69]	@ zero_extendqisi2
 1389 0132 5BB2     		sxtb	r3, r3
 1390 0134 B3F1FF3F 		cmp	r3, #-1
 1391 0138 C6D0     		beq	.L216
 1392              	.L199:
 1393 013a FFF7FEFF 		bl	vPortExitCritical
 1394 013e 01A9     		add	r1, sp, #4
 1395 0140 02A8     		add	r0, sp, #8
 1396 0142 FFF7FEFF 		bl	xTaskCheckForTimeOut
 1397 0146 0028     		cmp	r0, #0
 1398 0148 D1D1     		bne	.L200
 1399 014a 2046     		mov	r0, r4
 1400 014c FFF7FEFF 		bl	prvIsQueueEmpty
 1401 0150 0028     		cmp	r0, #0
 1402 0152 C6D0     		beq	.L201
 1403 0154 2368     		ldr	r3, [r4]
ARM GAS  C:\Users\Rick\AppData\Local\Temp\ccAPjVmb.s 			page 25


 1404 0156 002B     		cmp	r3, #0
 1405 0158 BAD0     		beq	.L217
 1406              	.L202:
 1407 015a 0199     		ldr	r1, [sp, #4]
 1408 015c 04F12400 		add	r0, r4, #36
 1409 0160 FFF7FEFF 		bl	vTaskPlaceOnEventList
 1410 0164 2046     		mov	r0, r4
 1411 0166 FFF7FEFF 		bl	prvUnlockQueue
 1412 016a FFF7FEFF 		bl	xTaskResumeAll
 1413 016e 0028     		cmp	r0, #0
 1414 0170 C7D1     		bne	.L189
 1415 0172 4FF0E023 		mov	r3, #-536813568
 1416 0176 4FF08052 		mov	r2, #268435456
 1417 017a C3F8042D 		str	r2, [r3, #3332]
 1418              		.syntax unified
 1419              	@ 1573 "Middlewares/Third_Party/FreeRTOS/Source/queue.c" 1
 1420 017e BFF34F8F 		dsb
 1421              	@ 0 "" 2
 1422              	@ 1573 "Middlewares/Third_Party/FreeRTOS/Source/queue.c" 1
 1423 0182 BFF36F8F 		isb
 1424              	@ 0 "" 2
 1425              		.thumb
 1426              		.syntax unified
 1427 0186 BCE7     		b	.L189
 1428              	.L211:
 1429 0188 0EB9     		cbnz	r6, .L218
 1430              	.L204:
 1431 018a 0026     		movs	r6, #0
 1432 018c 6EE7     		b	.L182
 1433              	.L218:
 1434 018e FFF7FEFF 		bl	vPortEnterCritical
 1435 0192 2046     		mov	r0, r4
 1436 0194 FFF7FEFF 		bl	prvGetDisinheritPriorityAfterTimeout
 1437 0198 0146     		mov	r1, r0
 1438 019a A068     		ldr	r0, [r4, #8]
 1439 019c FFF7FEFF 		bl	vTaskPriorityDisinheritAfterTimeout
 1440 01a0 FFF7FEFF 		bl	vPortExitCritical
 1441 01a4 F1E7     		b	.L204
 1443              		.section	.text.xQueuePeek,"ax",%progbits
 1444              		.align	1
 1445              		.global	xQueuePeek
 1446              		.syntax unified
 1447              		.thumb
 1448              		.thumb_func
 1450              	xQueuePeek:
 1451              		@ args = 0, pretend = 0, frame = 16
 1452              		@ frame_needed = 0, uses_anonymous_args = 0
 1453 0000 70B5     		push	{r4, r5, r6, lr}
 1454 0002 84B0     		sub	sp, sp, #16
 1455 0004 0192     		str	r2, [sp, #4]
 1456 0006 90B1     		cbz	r0, .L239
 1457 0008 0E46     		mov	r6, r1
 1458 000a 0446     		mov	r4, r0
 1459 000c C1B1     		cbz	r1, .L240
 1460              	.L222:
 1461 000e FFF7FEFF 		bl	xTaskGetSchedulerState
 1462 0012 0546     		mov	r5, r0
ARM GAS  C:\Users\Rick\AppData\Local\Temp\ccAPjVmb.s 			page 26


 1463 0014 00BB     		cbnz	r0, .L237
 1464 0016 019B     		ldr	r3, [sp, #4]
 1465 0018 002B     		cmp	r3, #0
 1466 001a 5ED0     		beq	.L226
 1467              		.syntax unified
 1468              	@ 195 "Middlewares/Third_Party/FreeRTOS/Source/portable/GCC/ARM_CM4F/portmacro.h" 1
 1469 001c 4FF05003 			mov r3, #80												
 1470 0020 83F31188 		msr basepri, r3											
 1471 0024 BFF36F8F 		isb														
 1472 0028 BFF34F8F 		dsb														
 1473              	
 1474              	@ 0 "" 2
 1475              		.thumb
 1476              		.syntax unified
 1477              	.L225:
 1478 002c FEE7     		b	.L225
 1479              	.L239:
 1480              		.syntax unified
 1481              	@ 195 "Middlewares/Third_Party/FreeRTOS/Source/portable/GCC/ARM_CM4F/portmacro.h" 1
 1482 002e 4FF05003 			mov r3, #80												
 1483 0032 83F31188 		msr basepri, r3											
 1484 0036 BFF36F8F 		isb														
 1485 003a BFF34F8F 		dsb														
 1486              	
 1487              	@ 0 "" 2
 1488              		.thumb
 1489              		.syntax unified
 1490              	.L221:
 1491 003e FEE7     		b	.L221
 1492              	.L240:
 1493 0040 036C     		ldr	r3, [r0, #64]
 1494 0042 002B     		cmp	r3, #0
 1495 0044 E3D0     		beq	.L222
 1496              		.syntax unified
 1497              	@ 195 "Middlewares/Third_Party/FreeRTOS/Source/portable/GCC/ARM_CM4F/portmacro.h" 1
 1498 0046 4FF05003 			mov r3, #80												
 1499 004a 83F31188 		msr basepri, r3											
 1500 004e BFF36F8F 		isb														
 1501 0052 BFF34F8F 		dsb														
 1502              	
 1503              	@ 0 "" 2
 1504              		.thumb
 1505              		.syntax unified
 1506              	.L223:
 1507 0056 FEE7     		b	.L223
 1508              	.L237:
 1509 0058 0025     		movs	r5, #0
 1510 005a 3EE0     		b	.L226
 1511              	.L243:
 1512 005c E568     		ldr	r5, [r4, #12]
 1513 005e 3146     		mov	r1, r6
 1514 0060 2046     		mov	r0, r4
 1515 0062 FFF7FEFF 		bl	prvCopyDataFromQueue
 1516 0066 E560     		str	r5, [r4, #12]
 1517 0068 636A     		ldr	r3, [r4, #36]
 1518 006a 23B9     		cbnz	r3, .L241
 1519              	.L228:
ARM GAS  C:\Users\Rick\AppData\Local\Temp\ccAPjVmb.s 			page 27


 1520 006c FFF7FEFF 		bl	vPortExitCritical
 1521 0070 0120     		movs	r0, #1
 1522              	.L219:
 1523 0072 04B0     		add	sp, sp, #16
 1524              		@ sp needed
 1525 0074 70BD     		pop	{r4, r5, r6, pc}
 1526              	.L241:
 1527 0076 04F12400 		add	r0, r4, #36
 1528 007a FFF7FEFF 		bl	xTaskRemoveFromEventList
 1529 007e 0028     		cmp	r0, #0
 1530 0080 F4D0     		beq	.L228
 1531 0082 4FF0E023 		mov	r3, #-536813568
 1532 0086 4FF08052 		mov	r2, #268435456
 1533 008a C3F8042D 		str	r2, [r3, #3332]
 1534              		.syntax unified
 1535              	@ 1689 "Middlewares/Third_Party/FreeRTOS/Source/queue.c" 1
 1536 008e BFF34F8F 		dsb
 1537              	@ 0 "" 2
 1538              	@ 1689 "Middlewares/Third_Party/FreeRTOS/Source/queue.c" 1
 1539 0092 BFF36F8F 		isb
 1540              	@ 0 "" 2
 1541              		.thumb
 1542              		.syntax unified
 1543 0096 E9E7     		b	.L228
 1544              	.L244:
 1545 0098 FFF7FEFF 		bl	vPortExitCritical
 1546 009c 0020     		movs	r0, #0
 1547 009e E8E7     		b	.L219
 1548              	.L245:
 1549 00a0 02A8     		add	r0, sp, #8
 1550 00a2 FFF7FEFF 		bl	vTaskInternalSetTimeOutState
 1551 00a6 0125     		movs	r5, #1
 1552 00a8 21E0     		b	.L231
 1553              	.L246:
 1554 00aa 0023     		movs	r3, #0
 1555 00ac 84F84430 		strb	r3, [r4, #68]
 1556 00b0 29E0     		b	.L232
 1557              	.L247:
 1558 00b2 0023     		movs	r3, #0
 1559 00b4 84F84530 		strb	r3, [r4, #69]
 1560 00b8 2BE0     		b	.L233
 1561              	.L235:
 1562 00ba 2046     		mov	r0, r4
 1563 00bc FFF7FEFF 		bl	prvUnlockQueue
 1564 00c0 FFF7FEFF 		bl	xTaskResumeAll
 1565 00c4 09E0     		b	.L226
 1566              	.L234:
 1567 00c6 2046     		mov	r0, r4
 1568 00c8 FFF7FEFF 		bl	prvUnlockQueue
 1569 00cc FFF7FEFF 		bl	xTaskResumeAll
 1570 00d0 2046     		mov	r0, r4
 1571 00d2 FFF7FEFF 		bl	prvIsQueueEmpty
 1572 00d6 0028     		cmp	r0, #0
 1573 00d8 3FD1     		bne	.L242
 1574              	.L226:
 1575 00da FFF7FEFF 		bl	vPortEnterCritical
 1576 00de A36B     		ldr	r3, [r4, #56]
ARM GAS  C:\Users\Rick\AppData\Local\Temp\ccAPjVmb.s 			page 28


 1577 00e0 002B     		cmp	r3, #0
 1578 00e2 BBD1     		bne	.L243
 1579 00e4 019B     		ldr	r3, [sp, #4]
 1580 00e6 002B     		cmp	r3, #0
 1581 00e8 D6D0     		beq	.L244
 1582 00ea 002D     		cmp	r5, #0
 1583 00ec D8D0     		beq	.L245
 1584              	.L231:
 1585 00ee FFF7FEFF 		bl	vPortExitCritical
 1586 00f2 FFF7FEFF 		bl	vTaskSuspendAll
 1587 00f6 FFF7FEFF 		bl	vPortEnterCritical
 1588 00fa 94F84430 		ldrb	r3, [r4, #68]	@ zero_extendqisi2
 1589 00fe 5BB2     		sxtb	r3, r3
 1590 0100 B3F1FF3F 		cmp	r3, #-1
 1591 0104 D1D0     		beq	.L246
 1592              	.L232:
 1593 0106 94F84530 		ldrb	r3, [r4, #69]	@ zero_extendqisi2
 1594 010a 5BB2     		sxtb	r3, r3
 1595 010c B3F1FF3F 		cmp	r3, #-1
 1596 0110 CFD0     		beq	.L247
 1597              	.L233:
 1598 0112 FFF7FEFF 		bl	vPortExitCritical
 1599 0116 01A9     		add	r1, sp, #4
 1600 0118 02A8     		add	r0, sp, #8
 1601 011a FFF7FEFF 		bl	xTaskCheckForTimeOut
 1602 011e 0028     		cmp	r0, #0
 1603 0120 D1D1     		bne	.L234
 1604 0122 2046     		mov	r0, r4
 1605 0124 FFF7FEFF 		bl	prvIsQueueEmpty
 1606 0128 0028     		cmp	r0, #0
 1607 012a C6D0     		beq	.L235
 1608 012c 0199     		ldr	r1, [sp, #4]
 1609 012e 04F12400 		add	r0, r4, #36
 1610 0132 FFF7FEFF 		bl	vTaskPlaceOnEventList
 1611 0136 2046     		mov	r0, r4
 1612 0138 FFF7FEFF 		bl	prvUnlockQueue
 1613 013c FFF7FEFF 		bl	xTaskResumeAll
 1614 0140 0028     		cmp	r0, #0
 1615 0142 CAD1     		bne	.L226
 1616 0144 4FF0E023 		mov	r3, #-536813568
 1617 0148 4FF08052 		mov	r2, #268435456
 1618 014c C3F8042D 		str	r2, [r3, #3332]
 1619              		.syntax unified
 1620              	@ 1749 "Middlewares/Third_Party/FreeRTOS/Source/queue.c" 1
 1621 0150 BFF34F8F 		dsb
 1622              	@ 0 "" 2
 1623              	@ 1749 "Middlewares/Third_Party/FreeRTOS/Source/queue.c" 1
 1624 0154 BFF36F8F 		isb
 1625              	@ 0 "" 2
 1626              		.thumb
 1627              		.syntax unified
 1628 0158 BFE7     		b	.L226
 1629              	.L242:
 1630 015a 0020     		movs	r0, #0
 1631 015c 89E7     		b	.L219
 1633              		.section	.text.xQueueReceiveFromISR,"ax",%progbits
 1634              		.align	1
ARM GAS  C:\Users\Rick\AppData\Local\Temp\ccAPjVmb.s 			page 29


 1635              		.global	xQueueReceiveFromISR
 1636              		.syntax unified
 1637              		.thumb
 1638              		.thumb_func
 1640              	xQueueReceiveFromISR:
 1641              		@ args = 0, pretend = 0, frame = 0
 1642              		@ frame_needed = 0, uses_anonymous_args = 0
 1643 0000 2DE9F843 		push	{r3, r4, r5, r6, r7, r8, r9, lr}
 1644 0004 B0B1     		cbz	r0, .L260
 1645 0006 0D46     		mov	r5, r1
 1646 0008 9046     		mov	r8, r2
 1647 000a 0446     		mov	r4, r0
 1648 000c D9B1     		cbz	r1, .L261
 1649              	.L251:
 1650 000e FFF7FEFF 		bl	vPortValidateInterruptPriority
 1651              		.syntax unified
 1652              	@ 211 "Middlewares/Third_Party/FreeRTOS/Source/portable/GCC/ARM_CM4F/portmacro.h" 1
 1653 0012 EFF31187 			mrs r7, basepri											
 1654 0016 4FF05003 		mov r3, #80												
 1655 001a 83F31188 		msr basepri, r3											
 1656 001e BFF36F8F 		isb														
 1657 0022 BFF34F8F 		dsb														
 1658              	
 1659              	@ 0 "" 2
 1660              		.thumb
 1661              		.syntax unified
 1662 0026 A66B     		ldr	r6, [r4, #56]
 1663 0028 CEB9     		cbnz	r6, .L262
 1664 002a 0020     		movs	r0, #0
 1665              	.L253:
 1666              		.syntax unified
 1667              	@ 229 "Middlewares/Third_Party/FreeRTOS/Source/portable/GCC/ARM_CM4F/portmacro.h" 1
 1668 002c 87F31188 			msr basepri, r7	
 1669              	@ 0 "" 2
 1670              		.thumb
 1671              		.syntax unified
 1672 0030 BDE8F883 		pop	{r3, r4, r5, r6, r7, r8, r9, pc}
 1673              	.L260:
 1674              		.syntax unified
 1675              	@ 195 "Middlewares/Third_Party/FreeRTOS/Source/portable/GCC/ARM_CM4F/portmacro.h" 1
 1676 0034 4FF05003 			mov r3, #80												
 1677 0038 83F31188 		msr basepri, r3											
 1678 003c BFF36F8F 		isb														
 1679 0040 BFF34F8F 		dsb														
 1680              	
 1681              	@ 0 "" 2
 1682              		.thumb
 1683              		.syntax unified
 1684              	.L250:
 1685 0044 FEE7     		b	.L250
 1686              	.L261:
 1687 0046 036C     		ldr	r3, [r0, #64]
 1688 0048 002B     		cmp	r3, #0
 1689 004a E0D0     		beq	.L251
 1690              		.syntax unified
 1691              	@ 195 "Middlewares/Third_Party/FreeRTOS/Source/portable/GCC/ARM_CM4F/portmacro.h" 1
 1692 004c 4FF05003 			mov r3, #80												
ARM GAS  C:\Users\Rick\AppData\Local\Temp\ccAPjVmb.s 			page 30


 1693 0050 83F31188 		msr basepri, r3											
 1694 0054 BFF36F8F 		isb														
 1695 0058 BFF34F8F 		dsb														
 1696              	
 1697              	@ 0 "" 2
 1698              		.thumb
 1699              		.syntax unified
 1700              	.L252:
 1701 005c FEE7     		b	.L252
 1702              	.L262:
 1703 005e 94F84490 		ldrb	r9, [r4, #68]	@ zero_extendqisi2
 1704 0062 4FFA89F9 		sxtb	r9, r9
 1705 0066 2946     		mov	r1, r5
 1706 0068 2046     		mov	r0, r4
 1707 006a FFF7FEFF 		bl	prvCopyDataFromQueue
 1708 006e 731E     		subs	r3, r6, #1
 1709 0070 A363     		str	r3, [r4, #56]
 1710 0072 B9F1FF3F 		cmp	r9, #-1
 1711 0076 06D0     		beq	.L263
 1712 0078 09F10103 		add	r3, r9, #1
 1713 007c 5BB2     		sxtb	r3, r3
 1714 007e 84F84430 		strb	r3, [r4, #68]
 1715 0082 0120     		movs	r0, #1
 1716 0084 D2E7     		b	.L253
 1717              	.L263:
 1718 0086 2369     		ldr	r3, [r4, #16]
 1719 0088 0BB9     		cbnz	r3, .L264
 1720 008a 0120     		movs	r0, #1
 1721 008c CEE7     		b	.L253
 1722              	.L264:
 1723 008e 04F11000 		add	r0, r4, #16
 1724 0092 FFF7FEFF 		bl	xTaskRemoveFromEventList
 1725 0096 30B1     		cbz	r0, .L257
 1726 0098 B8F1000F 		cmp	r8, #0
 1727 009c 05D0     		beq	.L258
 1728 009e 0120     		movs	r0, #1
 1729 00a0 C8F80000 		str	r0, [r8]
 1730 00a4 C2E7     		b	.L253
 1731              	.L257:
 1732 00a6 0120     		movs	r0, #1
 1733 00a8 C0E7     		b	.L253
 1734              	.L258:
 1735 00aa 0120     		movs	r0, #1
 1736 00ac BEE7     		b	.L253
 1738              		.section	.text.xQueuePeekFromISR,"ax",%progbits
 1739              		.align	1
 1740              		.global	xQueuePeekFromISR
 1741              		.syntax unified
 1742              		.thumb
 1743              		.thumb_func
 1745              	xQueuePeekFromISR:
 1746              		@ args = 0, pretend = 0, frame = 0
 1747              		@ frame_needed = 0, uses_anonymous_args = 0
 1748 0000 F8B5     		push	{r3, r4, r5, r6, r7, lr}
 1749 0002 68B1     		cbz	r0, .L275
 1750 0004 0D46     		mov	r5, r1
 1751 0006 0446     		mov	r4, r0
ARM GAS  C:\Users\Rick\AppData\Local\Temp\ccAPjVmb.s 			page 31


 1752 0008 99B1     		cbz	r1, .L276
 1753              	.L268:
 1754 000a 236C     		ldr	r3, [r4, #64]
 1755 000c EBB9     		cbnz	r3, .L270
 1756              		.syntax unified
 1757              	@ 195 "Middlewares/Third_Party/FreeRTOS/Source/portable/GCC/ARM_CM4F/portmacro.h" 1
 1758 000e 4FF05003 			mov r3, #80												
 1759 0012 83F31188 		msr basepri, r3											
 1760 0016 BFF36F8F 		isb														
 1761 001a BFF34F8F 		dsb														
 1762              	
 1763              	@ 0 "" 2
 1764              		.thumb
 1765              		.syntax unified
 1766              	.L271:
 1767 001e FEE7     		b	.L271
 1768              	.L275:
 1769              		.syntax unified
 1770              	@ 195 "Middlewares/Third_Party/FreeRTOS/Source/portable/GCC/ARM_CM4F/portmacro.h" 1
 1771 0020 4FF05003 			mov r3, #80												
 1772 0024 83F31188 		msr basepri, r3											
 1773 0028 BFF36F8F 		isb														
 1774 002c BFF34F8F 		dsb														
 1775              	
 1776              	@ 0 "" 2
 1777              		.thumb
 1778              		.syntax unified
 1779              	.L267:
 1780 0030 FEE7     		b	.L267
 1781              	.L276:
 1782 0032 036C     		ldr	r3, [r0, #64]
 1783 0034 002B     		cmp	r3, #0
 1784 0036 E8D0     		beq	.L268
 1785              		.syntax unified
 1786              	@ 195 "Middlewares/Third_Party/FreeRTOS/Source/portable/GCC/ARM_CM4F/portmacro.h" 1
 1787 0038 4FF05003 			mov r3, #80												
 1788 003c 83F31188 		msr basepri, r3											
 1789 0040 BFF36F8F 		isb														
 1790 0044 BFF34F8F 		dsb														
 1791              	
 1792              	@ 0 "" 2
 1793              		.thumb
 1794              		.syntax unified
 1795              	.L269:
 1796 0048 FEE7     		b	.L269
 1797              	.L270:
 1798 004a FFF7FEFF 		bl	vPortValidateInterruptPriority
 1799              		.syntax unified
 1800              	@ 211 "Middlewares/Third_Party/FreeRTOS/Source/portable/GCC/ARM_CM4F/portmacro.h" 1
 1801 004e EFF31186 			mrs r6, basepri											
 1802 0052 4FF05003 		mov r3, #80												
 1803 0056 83F31188 		msr basepri, r3											
 1804 005a BFF36F8F 		isb														
 1805 005e BFF34F8F 		dsb														
 1806              	
 1807              	@ 0 "" 2
 1808              		.thumb
ARM GAS  C:\Users\Rick\AppData\Local\Temp\ccAPjVmb.s 			page 32


 1809              		.syntax unified
 1810 0062 A36B     		ldr	r3, [r4, #56]
 1811 0064 1BB9     		cbnz	r3, .L277
 1812 0066 0020     		movs	r0, #0
 1813              	.L272:
 1814              		.syntax unified
 1815              	@ 229 "Middlewares/Third_Party/FreeRTOS/Source/portable/GCC/ARM_CM4F/portmacro.h" 1
 1816 0068 86F31188 			msr basepri, r6	
 1817              	@ 0 "" 2
 1818              		.thumb
 1819              		.syntax unified
 1820 006c F8BD     		pop	{r3, r4, r5, r6, r7, pc}
 1821              	.L277:
 1822 006e E768     		ldr	r7, [r4, #12]
 1823 0070 2946     		mov	r1, r5
 1824 0072 2046     		mov	r0, r4
 1825 0074 FFF7FEFF 		bl	prvCopyDataFromQueue
 1826 0078 E760     		str	r7, [r4, #12]
 1827 007a 0120     		movs	r0, #1
 1828 007c F4E7     		b	.L272
 1830              		.section	.text.uxQueueMessagesWaiting,"ax",%progbits
 1831              		.align	1
 1832              		.global	uxQueueMessagesWaiting
 1833              		.syntax unified
 1834              		.thumb
 1835              		.thumb_func
 1837              	uxQueueMessagesWaiting:
 1838              		@ args = 0, pretend = 0, frame = 0
 1839              		@ frame_needed = 0, uses_anonymous_args = 0
 1840 0000 40B1     		cbz	r0, .L283
 1841 0002 10B5     		push	{r4, lr}
 1842 0004 0446     		mov	r4, r0
 1843 0006 FFF7FEFF 		bl	vPortEnterCritical
 1844 000a A46B     		ldr	r4, [r4, #56]
 1845 000c FFF7FEFF 		bl	vPortExitCritical
 1846 0010 2046     		mov	r0, r4
 1847 0012 10BD     		pop	{r4, pc}
 1848              	.L283:
 1849              		.syntax unified
 1850              	@ 195 "Middlewares/Third_Party/FreeRTOS/Source/portable/GCC/ARM_CM4F/portmacro.h" 1
 1851 0014 4FF05003 			mov r3, #80												
 1852 0018 83F31188 		msr basepri, r3											
 1853 001c BFF36F8F 		isb														
 1854 0020 BFF34F8F 		dsb														
 1855              	
 1856              	@ 0 "" 2
 1857              		.thumb
 1858              		.syntax unified
 1859              	.L280:
 1860 0024 FEE7     		b	.L280
 1862              		.section	.text.uxQueueSpacesAvailable,"ax",%progbits
 1863              		.align	1
 1864              		.global	uxQueueSpacesAvailable
 1865              		.syntax unified
 1866              		.thumb
 1867              		.thumb_func
 1869              	uxQueueSpacesAvailable:
ARM GAS  C:\Users\Rick\AppData\Local\Temp\ccAPjVmb.s 			page 33


 1870              		@ args = 0, pretend = 0, frame = 0
 1871              		@ frame_needed = 0, uses_anonymous_args = 0
 1872 0000 38B5     		push	{r3, r4, r5, lr}
 1873 0002 48B1     		cbz	r0, .L288
 1874 0004 0546     		mov	r5, r0
 1875 0006 FFF7FEFF 		bl	vPortEnterCritical
 1876 000a EC6B     		ldr	r4, [r5, #60]
 1877 000c AB6B     		ldr	r3, [r5, #56]
 1878 000e E41A     		subs	r4, r4, r3
 1879 0010 FFF7FEFF 		bl	vPortExitCritical
 1880 0014 2046     		mov	r0, r4
 1881 0016 38BD     		pop	{r3, r4, r5, pc}
 1882              	.L288:
 1883              		.syntax unified
 1884              	@ 195 "Middlewares/Third_Party/FreeRTOS/Source/portable/GCC/ARM_CM4F/portmacro.h" 1
 1885 0018 4FF05003 			mov r3, #80												
 1886 001c 83F31188 		msr basepri, r3											
 1887 0020 BFF36F8F 		isb														
 1888 0024 BFF34F8F 		dsb														
 1889              	
 1890              	@ 0 "" 2
 1891              		.thumb
 1892              		.syntax unified
 1893              	.L286:
 1894 0028 FEE7     		b	.L286
 1896              		.section	.text.uxQueueMessagesWaitingFromISR,"ax",%progbits
 1897              		.align	1
 1898              		.global	uxQueueMessagesWaitingFromISR
 1899              		.syntax unified
 1900              		.thumb
 1901              		.thumb_func
 1903              	uxQueueMessagesWaitingFromISR:
 1904              		@ args = 0, pretend = 0, frame = 0
 1905              		@ frame_needed = 0, uses_anonymous_args = 0
 1906              		@ link register save eliminated.
 1907 0000 08B1     		cbz	r0, .L292
 1908 0002 806B     		ldr	r0, [r0, #56]
 1909 0004 7047     		bx	lr
 1910              	.L292:
 1911              		.syntax unified
 1912              	@ 195 "Middlewares/Third_Party/FreeRTOS/Source/portable/GCC/ARM_CM4F/portmacro.h" 1
 1913 0006 4FF05003 			mov r3, #80												
 1914 000a 83F31188 		msr basepri, r3											
 1915 000e BFF36F8F 		isb														
 1916 0012 BFF34F8F 		dsb														
 1917              	
 1918              	@ 0 "" 2
 1919              		.thumb
 1920              		.syntax unified
 1921              	.L291:
 1922 0016 FEE7     		b	.L291
 1924              		.section	.text.xQueueIsQueueEmptyFromISR,"ax",%progbits
 1925              		.align	1
 1926              		.global	xQueueIsQueueEmptyFromISR
 1927              		.syntax unified
 1928              		.thumb
 1929              		.thumb_func
ARM GAS  C:\Users\Rick\AppData\Local\Temp\ccAPjVmb.s 			page 34


 1931              	xQueueIsQueueEmptyFromISR:
 1932              		@ args = 0, pretend = 0, frame = 0
 1933              		@ frame_needed = 0, uses_anonymous_args = 0
 1934              		@ link register save eliminated.
 1935 0000 18B1     		cbz	r0, .L298
 1936 0002 836B     		ldr	r3, [r0, #56]
 1937 0004 53B9     		cbnz	r3, .L297
 1938 0006 0120     		movs	r0, #1
 1939 0008 7047     		bx	lr
 1940              	.L298:
 1941              		.syntax unified
 1942              	@ 195 "Middlewares/Third_Party/FreeRTOS/Source/portable/GCC/ARM_CM4F/portmacro.h" 1
 1943 000a 4FF05003 			mov r3, #80												
 1944 000e 83F31188 		msr basepri, r3											
 1945 0012 BFF36F8F 		isb														
 1946 0016 BFF34F8F 		dsb														
 1947              	
 1948              	@ 0 "" 2
 1949              		.thumb
 1950              		.syntax unified
 1951              	.L295:
 1952 001a FEE7     		b	.L295
 1953              	.L297:
 1954 001c 0020     		movs	r0, #0
 1955 001e 7047     		bx	lr
 1957              		.section	.text.xQueueIsQueueFullFromISR,"ax",%progbits
 1958              		.align	1
 1959              		.global	xQueueIsQueueFullFromISR
 1960              		.syntax unified
 1961              		.thumb
 1962              		.thumb_func
 1964              	xQueueIsQueueFullFromISR:
 1965              		@ args = 0, pretend = 0, frame = 0
 1966              		@ frame_needed = 0, uses_anonymous_args = 0
 1967              		@ link register save eliminated.
 1968 0000 28B1     		cbz	r0, .L304
 1969 0002 826B     		ldr	r2, [r0, #56]
 1970 0004 C36B     		ldr	r3, [r0, #60]
 1971 0006 9A42     		cmp	r2, r3
 1972 0008 0AD0     		beq	.L305
 1973 000a 0020     		movs	r0, #0
 1974 000c 7047     		bx	lr
 1975              	.L304:
 1976              		.syntax unified
 1977              	@ 195 "Middlewares/Third_Party/FreeRTOS/Source/portable/GCC/ARM_CM4F/portmacro.h" 1
 1978 000e 4FF05003 			mov r3, #80												
 1979 0012 83F31188 		msr basepri, r3											
 1980 0016 BFF36F8F 		isb														
 1981 001a BFF34F8F 		dsb														
 1982              	
 1983              	@ 0 "" 2
 1984              		.thumb
 1985              		.syntax unified
 1986              	.L301:
 1987 001e FEE7     		b	.L301
 1988              	.L305:
 1989 0020 0120     		movs	r0, #1
ARM GAS  C:\Users\Rick\AppData\Local\Temp\ccAPjVmb.s 			page 35


 1990 0022 7047     		bx	lr
 1992              		.section	.text.vQueueAddToRegistry,"ax",%progbits
 1993              		.align	1
 1994              		.global	vQueueAddToRegistry
 1995              		.syntax unified
 1996              		.thumb
 1997              		.thumb_func
 1999              	vQueueAddToRegistry:
 2000              		@ args = 0, pretend = 0, frame = 0
 2001              		@ frame_needed = 0, uses_anonymous_args = 0
 2002              		@ link register save eliminated.
 2003 0000 0023     		movs	r3, #0
 2004              	.L307:
 2005 0002 072B     		cmp	r3, #7
 2006 0004 0CD8     		bhi	.L311
 2007 0006 074A     		ldr	r2, .L313
 2008 0008 52F83320 		ldr	r2, [r2, r3, lsl #3]
 2009 000c 0AB1     		cbz	r2, .L312
 2010 000e 0133     		adds	r3, r3, #1
 2011 0010 F7E7     		b	.L307
 2012              	.L312:
 2013 0012 044A     		ldr	r2, .L313
 2014 0014 42F83310 		str	r1, [r2, r3, lsl #3]
 2015 0018 02EBC302 		add	r2, r2, r3, lsl #3
 2016 001c 5060     		str	r0, [r2, #4]
 2017 001e 7047     		bx	lr
 2018              	.L311:
 2019 0020 7047     		bx	lr
 2020              	.L314:
 2021 0022 00BF     		.align	2
 2022              	.L313:
 2023 0024 00000000 		.word	xQueueRegistry
 2025              		.section	.text.pcQueueGetName,"ax",%progbits
 2026              		.align	1
 2027              		.global	pcQueueGetName
 2028              		.syntax unified
 2029              		.thumb
 2030              		.thumb_func
 2032              	pcQueueGetName:
 2033              		@ args = 0, pretend = 0, frame = 0
 2034              		@ frame_needed = 0, uses_anonymous_args = 0
 2035              		@ link register save eliminated.
 2036 0000 0023     		movs	r3, #0
 2037              	.L316:
 2038 0002 072B     		cmp	r3, #7
 2039 0004 0BD8     		bhi	.L320
 2040 0006 074A     		ldr	r2, .L322
 2041 0008 02EBC302 		add	r2, r2, r3, lsl #3
 2042 000c 5268     		ldr	r2, [r2, #4]
 2043 000e 8242     		cmp	r2, r0
 2044 0010 01D0     		beq	.L321
 2045 0012 0133     		adds	r3, r3, #1
 2046 0014 F5E7     		b	.L316
 2047              	.L321:
 2048 0016 034A     		ldr	r2, .L322
 2049 0018 52F83300 		ldr	r0, [r2, r3, lsl #3]
 2050 001c 7047     		bx	lr
ARM GAS  C:\Users\Rick\AppData\Local\Temp\ccAPjVmb.s 			page 36


 2051              	.L320:
 2052 001e 0020     		movs	r0, #0
 2053 0020 7047     		bx	lr
 2054              	.L323:
 2055 0022 00BF     		.align	2
 2056              	.L322:
 2057 0024 00000000 		.word	xQueueRegistry
 2059              		.section	.text.vQueueUnregisterQueue,"ax",%progbits
 2060              		.align	1
 2061              		.global	vQueueUnregisterQueue
 2062              		.syntax unified
 2063              		.thumb
 2064              		.thumb_func
 2066              	vQueueUnregisterQueue:
 2067              		@ args = 0, pretend = 0, frame = 0
 2068              		@ frame_needed = 0, uses_anonymous_args = 0
 2069              		@ link register save eliminated.
 2070 0000 0023     		movs	r3, #0
 2071              	.L325:
 2072 0002 072B     		cmp	r3, #7
 2073 0004 0FD8     		bhi	.L329
 2074 0006 084A     		ldr	r2, .L331
 2075 0008 02EBC302 		add	r2, r2, r3, lsl #3
 2076 000c 5268     		ldr	r2, [r2, #4]
 2077 000e 8242     		cmp	r2, r0
 2078 0010 01D0     		beq	.L330
 2079 0012 0133     		adds	r3, r3, #1
 2080 0014 F5E7     		b	.L325
 2081              	.L330:
 2082 0016 044A     		ldr	r2, .L331
 2083 0018 0021     		movs	r1, #0
 2084 001a 42F83310 		str	r1, [r2, r3, lsl #3]
 2085 001e 02EBC302 		add	r2, r2, r3, lsl #3
 2086 0022 5160     		str	r1, [r2, #4]
 2087 0024 7047     		bx	lr
 2088              	.L329:
 2089 0026 7047     		bx	lr
 2090              	.L332:
 2091              		.align	2
 2092              	.L331:
 2093 0028 00000000 		.word	xQueueRegistry
 2095              		.section	.text.vQueueDelete,"ax",%progbits
 2096              		.align	1
 2097              		.global	vQueueDelete
 2098              		.syntax unified
 2099              		.thumb
 2100              		.thumb_func
 2102              	vQueueDelete:
 2103              		@ args = 0, pretend = 0, frame = 0
 2104              		@ frame_needed = 0, uses_anonymous_args = 0
 2105 0000 38B1     		cbz	r0, .L339
 2106 0002 10B5     		push	{r4, lr}
 2107 0004 0446     		mov	r4, r0
 2108 0006 FFF7FEFF 		bl	vQueueUnregisterQueue
 2109 000a 94F84630 		ldrb	r3, [r4, #70]	@ zero_extendqisi2
 2110 000e 4BB1     		cbz	r3, .L340
 2111              	.L333:
ARM GAS  C:\Users\Rick\AppData\Local\Temp\ccAPjVmb.s 			page 37


 2112 0010 10BD     		pop	{r4, pc}
 2113              	.L339:
 2114              		.syntax unified
 2115              	@ 195 "Middlewares/Third_Party/FreeRTOS/Source/portable/GCC/ARM_CM4F/portmacro.h" 1
 2116 0012 4FF05003 			mov r3, #80												
 2117 0016 83F31188 		msr basepri, r3											
 2118 001a BFF36F8F 		isb														
 2119 001e BFF34F8F 		dsb														
 2120              	
 2121              	@ 0 "" 2
 2122              		.thumb
 2123              		.syntax unified
 2124              	.L335:
 2125 0022 FEE7     		b	.L335
 2126              	.L340:
 2127 0024 2046     		mov	r0, r4
 2128 0026 FFF7FEFF 		bl	vPortFree
 2129 002a F1E7     		b	.L333
 2131              		.global	xQueueRegistry
 2132              		.section	.bss.xQueueRegistry,"aw",%nobits
 2133              		.align	2
 2136              	xQueueRegistry:
 2137 0000 00000000 		.space	64
 2137      00000000 
 2137      00000000 
 2137      00000000 
 2137      00000000 
 2138              		.ident	"GCC: (xPack GNU Arm Embedded GCC x86_64) 14.2.1 20241119"
ARM GAS  C:\Users\Rick\AppData\Local\Temp\ccAPjVmb.s 			page 38

