ARM GAS  C:\Users\Rick\AppData\Local\Temp\ccE9oKvg.s 			page 1


   1              		.cpu cortex-m4
   2              		.arch armv7e-m
   3              		.fpu fpv4-sp-d16
   4              		.eabi_attribute 27, 1
   5              		.eabi_attribute 28, 1
   6              		.eabi_attribute 20, 1
   7              		.eabi_attribute 21, 1
   8              		.eabi_attribute 23, 3
   9              		.eabi_attribute 24, 1
  10              		.eabi_attribute 25, 1
  11              		.eabi_attribute 26, 1
  12              		.eabi_attribute 30, 1
  13              		.eabi_attribute 34, 1
  14              		.eabi_attribute 18, 4
  15              		.file	"state.c"
  16              		.text
  17              		.section	.text.led_ctl,"ax",%progbits
  18              		.align	1
  19              		.global	led_ctl
  20              		.syntax unified
  21              		.thumb
  22              		.thumb_func
  24              	led_ctl:
  25              		@ args = 0, pretend = 0, frame = 0
  26              		@ frame_needed = 0, uses_anonymous_args = 0
  27 0000 10B5     		push	{r4, lr}
  28 0002 0446     		mov	r4, r0
  29 0004 10F0010F 		tst	r0, #1
  30 0008 15D0     		beq	.L2
  31 000a 0022     		movs	r2, #0
  32 000c 0821     		movs	r1, #8
  33 000e 1348     		ldr	r0, .L9
  34 0010 FFF7FEFF 		bl	HAL_GPIO_WritePin
  35              	.L3:
  36 0014 14F0020F 		tst	r4, #2
  37 0018 13D0     		beq	.L4
  38 001a 0022     		movs	r2, #0
  39 001c 0421     		movs	r1, #4
  40 001e 0F48     		ldr	r0, .L9
  41 0020 FFF7FEFF 		bl	HAL_GPIO_WritePin
  42              	.L5:
  43 0024 14F0040F 		tst	r4, #4
  44 0028 11D0     		beq	.L6
  45 002a 0022     		movs	r2, #0
  46 002c 0221     		movs	r1, #2
  47 002e 0B48     		ldr	r0, .L9
  48 0030 FFF7FEFF 		bl	HAL_GPIO_WritePin
  49              	.L1:
  50 0034 10BD     		pop	{r4, pc}
  51              	.L2:
  52 0036 0122     		movs	r2, #1
  53 0038 0821     		movs	r1, #8
  54 003a 0848     		ldr	r0, .L9
  55 003c FFF7FEFF 		bl	HAL_GPIO_WritePin
  56 0040 E8E7     		b	.L3
  57              	.L4:
  58 0042 0122     		movs	r2, #1
ARM GAS  C:\Users\Rick\AppData\Local\Temp\ccE9oKvg.s 			page 2


  59 0044 0421     		movs	r1, #4
  60 0046 0548     		ldr	r0, .L9
  61 0048 FFF7FEFF 		bl	HAL_GPIO_WritePin
  62 004c EAE7     		b	.L5
  63              	.L6:
  64 004e 0122     		movs	r2, #1
  65 0050 0221     		movs	r1, #2
  66 0052 0248     		ldr	r0, .L9
  67 0054 FFF7FEFF 		bl	HAL_GPIO_WritePin
  68 0058 ECE7     		b	.L1
  69              	.L10:
  70 005a 00BF     		.align	2
  71              	.L9:
  72 005c 00080240 		.word	1073874944
  74              		.section	.text.state_step,"ax",%progbits
  75              		.align	1
  76              		.global	state_step
  77              		.syntax unified
  78              		.thumb
  79              		.thumb_func
  81              	state_step:
  82              		@ args = 0, pretend = 0, frame = 0
  83              		@ frame_needed = 0, uses_anonymous_args = 0
  84 0000 08B5     		push	{r3, lr}
  85 0002 0E4B     		ldr	r3, .L16
  86 0004 1878     		ldrb	r0, [r3]	@ zero_extendqisi2
  87 0006 FFF7FEFF 		bl	led_ctl
  88 000a 0D4B     		ldr	r3, .L16+4
  89 000c 1B78     		ldrb	r3, [r3]	@ zero_extendqisi2
  90 000e 5BB9     		cbnz	r3, .L12
  91 0010 0A4A     		ldr	r2, .L16
  92 0012 1378     		ldrb	r3, [r2]	@ zero_extendqisi2
  93 0014 5B00     		lsls	r3, r3, #1
  94 0016 DBB2     		uxtb	r3, r3
  95 0018 1370     		strb	r3, [r2]
  96 001a 042B     		cmp	r3, #4
  97 001c 00D0     		beq	.L15
  98              	.L11:
  99 001e 08BD     		pop	{r3, pc}
 100              	.L15:
 101 0020 074B     		ldr	r3, .L16+4
 102 0022 0122     		movs	r2, #1
 103 0024 1A70     		strb	r2, [r3]
 104 0026 FAE7     		b	.L11
 105              	.L12:
 106 0028 044A     		ldr	r2, .L16
 107 002a 1378     		ldrb	r3, [r2]	@ zero_extendqisi2
 108 002c 5B08     		lsrs	r3, r3, #1
 109 002e 1370     		strb	r3, [r2]
 110 0030 012B     		cmp	r3, #1
 111 0032 F4D1     		bne	.L11
 112 0034 024B     		ldr	r3, .L16+4
 113 0036 0022     		movs	r2, #0
 114 0038 1A70     		strb	r2, [r3]
 115 003a F0E7     		b	.L11
 116              	.L17:
 117              		.align	2
ARM GAS  C:\Users\Rick\AppData\Local\Temp\ccE9oKvg.s 			page 3


 118              	.L16:
 119 003c 00000000 		.word	g_led_state
 120 0040 00000000 		.word	dir.0
 122              		.section	.bss.dir.0,"aw",%nobits
 125              	dir.0:
 126 0000 00       		.space	1
 127              		.section	.data.g_led_state,"aw"
 130              	g_led_state:
 131 0000 01       		.byte	1
 132              		.ident	"GCC: (xPack GNU Arm Embedded GCC x86_64) 14.2.1 20241119"
ARM GAS  C:\Users\Rick\AppData\Local\Temp\ccE9oKvg.s 			page 4


DEFINED SYMBOLS
                            *ABS*:00000000 state.c
C:\Users\Rick\AppData\Local\Temp\ccE9oKvg.s:18     .text.led_ctl:00000000 $t
C:\Users\Rick\AppData\Local\Temp\ccE9oKvg.s:24     .text.led_ctl:00000000 led_ctl
C:\Users\Rick\AppData\Local\Temp\ccE9oKvg.s:72     .text.led_ctl:0000005c $d
C:\Users\Rick\AppData\Local\Temp\ccE9oKvg.s:75     .text.state_step:00000000 $t
C:\Users\Rick\AppData\Local\Temp\ccE9oKvg.s:81     .text.state_step:00000000 state_step
C:\Users\Rick\AppData\Local\Temp\ccE9oKvg.s:119    .text.state_step:0000003c $d
C:\Users\Rick\AppData\Local\Temp\ccE9oKvg.s:130    .data.g_led_state:00000000 g_led_state
C:\Users\Rick\AppData\Local\Temp\ccE9oKvg.s:125    .bss.dir.0:00000000 dir.0
C:\Users\Rick\AppData\Local\Temp\ccE9oKvg.s:126    .bss.dir.0:00000000 $d

UNDEFINED SYMBOLS
HAL_GPIO_WritePin
