ARM GAS  C:\Users\Rick\AppData\Local\Temp\cctVQbVn.s 			page 1


   1              		.cpu cortex-m4
   2              		.arch armv7e-m
   3              		.fpu fpv4-sp-d16
   4              		.eabi_attribute 27, 1
   5              		.eabi_attribute 28, 1
   6              		.eabi_attribute 20, 1
   7              		.eabi_attribute 21, 1
   8              		.eabi_attribute 23, 3
   9              		.eabi_attribute 24, 1
  10              		.eabi_attribute 25, 1
  11              		.eabi_attribute 26, 1
  12              		.eabi_attribute 30, 1
  13              		.eabi_attribute 34, 1
  14              		.eabi_attribute 18, 4
  15              		.file	"stm32f4xx_it.c"
  16              		.text
  17              		.section	.text.NMI_Handler,"ax",%progbits
  18              		.align	1
  19              		.global	NMI_Handler
  20              		.syntax unified
  21              		.thumb
  22              		.thumb_func
  24              	NMI_Handler:
  25              		@ Volatile: function does not return.
  26              		@ args = 0, pretend = 0, frame = 0
  27              		@ frame_needed = 0, uses_anonymous_args = 0
  28              		@ link register save eliminated.
  29              	.L2:
  30 0000 FEE7     		b	.L2
  32              		.section	.text.HardFault_Handler,"ax",%progbits
  33              		.align	1
  34              		.global	HardFault_Handler
  35              		.syntax unified
  36              		.thumb
  37              		.thumb_func
  39              	HardFault_Handler:
  40              		@ Volatile: function does not return.
  41              		@ args = 0, pretend = 0, frame = 0
  42              		@ frame_needed = 0, uses_anonymous_args = 0
  43              		@ link register save eliminated.
  44              	.L4:
  45 0000 FEE7     		b	.L4
  47              		.section	.text.MemManage_Handler,"ax",%progbits
  48              		.align	1
  49              		.global	MemManage_Handler
  50              		.syntax unified
  51              		.thumb
  52              		.thumb_func
  54              	MemManage_Handler:
  55              		@ Volatile: function does not return.
  56              		@ args = 0, pretend = 0, frame = 0
  57              		@ frame_needed = 0, uses_anonymous_args = 0
  58              		@ link register save eliminated.
  59              	.L6:
  60 0000 FEE7     		b	.L6
  62              		.section	.text.BusFault_Handler,"ax",%progbits
  63              		.align	1
ARM GAS  C:\Users\Rick\AppData\Local\Temp\cctVQbVn.s 			page 2


  64              		.global	BusFault_Handler
  65              		.syntax unified
  66              		.thumb
  67              		.thumb_func
  69              	BusFault_Handler:
  70              		@ Volatile: function does not return.
  71              		@ args = 0, pretend = 0, frame = 0
  72              		@ frame_needed = 0, uses_anonymous_args = 0
  73              		@ link register save eliminated.
  74              	.L8:
  75 0000 FEE7     		b	.L8
  77              		.section	.text.UsageFault_Handler,"ax",%progbits
  78              		.align	1
  79              		.global	UsageFault_Handler
  80              		.syntax unified
  81              		.thumb
  82              		.thumb_func
  84              	UsageFault_Handler:
  85              		@ Volatile: function does not return.
  86              		@ args = 0, pretend = 0, frame = 0
  87              		@ frame_needed = 0, uses_anonymous_args = 0
  88              		@ link register save eliminated.
  89              	.L10:
  90 0000 FEE7     		b	.L10
  92              		.section	.text.DebugMon_Handler,"ax",%progbits
  93              		.align	1
  94              		.global	DebugMon_Handler
  95              		.syntax unified
  96              		.thumb
  97              		.thumb_func
  99              	DebugMon_Handler:
 100              		@ args = 0, pretend = 0, frame = 0
 101              		@ frame_needed = 0, uses_anonymous_args = 0
 102              		@ link register save eliminated.
 103 0000 7047     		bx	lr
 105              		.section	.text.DMA1_Stream1_IRQHandler,"ax",%progbits
 106              		.align	1
 107              		.global	DMA1_Stream1_IRQHandler
 108              		.syntax unified
 109              		.thumb
 110              		.thumb_func
 112              	DMA1_Stream1_IRQHandler:
 113              		@ args = 0, pretend = 0, frame = 0
 114              		@ frame_needed = 0, uses_anonymous_args = 0
 115 0000 08B5     		push	{r3, lr}
 116 0002 0248     		ldr	r0, .L14
 117 0004 FFF7FEFF 		bl	HAL_DMA_IRQHandler
 118 0008 08BD     		pop	{r3, pc}
 119              	.L15:
 120 000a 00BF     		.align	2
 121              	.L14:
 122 000c 00000000 		.word	hdma_usart3_rx
 124              		.section	.text.DMA1_Stream3_IRQHandler,"ax",%progbits
 125              		.align	1
 126              		.global	DMA1_Stream3_IRQHandler
 127              		.syntax unified
 128              		.thumb
ARM GAS  C:\Users\Rick\AppData\Local\Temp\cctVQbVn.s 			page 3


 129              		.thumb_func
 131              	DMA1_Stream3_IRQHandler:
 132              		@ args = 0, pretend = 0, frame = 0
 133              		@ frame_needed = 0, uses_anonymous_args = 0
 134 0000 08B5     		push	{r3, lr}
 135 0002 0248     		ldr	r0, .L18
 136 0004 FFF7FEFF 		bl	HAL_DMA_IRQHandler
 137 0008 08BD     		pop	{r3, pc}
 138              	.L19:
 139 000a 00BF     		.align	2
 140              	.L18:
 141 000c 00000000 		.word	hdma_usart3_tx
 143              		.section	.text.TIM1_BRK_TIM9_IRQHandler,"ax",%progbits
 144              		.align	1
 145              		.global	TIM1_BRK_TIM9_IRQHandler
 146              		.syntax unified
 147              		.thumb
 148              		.thumb_func
 150              	TIM1_BRK_TIM9_IRQHandler:
 151              		@ args = 0, pretend = 0, frame = 0
 152              		@ frame_needed = 0, uses_anonymous_args = 0
 153 0000 08B5     		push	{r3, lr}
 154 0002 0248     		ldr	r0, .L22
 155 0004 FFF7FEFF 		bl	HAL_TIM_IRQHandler
 156 0008 08BD     		pop	{r3, pc}
 157              	.L23:
 158 000a 00BF     		.align	2
 159              	.L22:
 160 000c 00000000 		.word	htim1
 162              		.section	.text.TIM1_UP_TIM10_IRQHandler,"ax",%progbits
 163              		.align	1
 164              		.global	TIM1_UP_TIM10_IRQHandler
 165              		.syntax unified
 166              		.thumb
 167              		.thumb_func
 169              	TIM1_UP_TIM10_IRQHandler:
 170              		@ args = 0, pretend = 0, frame = 0
 171              		@ frame_needed = 0, uses_anonymous_args = 0
 172 0000 08B5     		push	{r3, lr}
 173 0002 0248     		ldr	r0, .L26
 174 0004 FFF7FEFF 		bl	HAL_TIM_IRQHandler
 175 0008 08BD     		pop	{r3, pc}
 176              	.L27:
 177 000a 00BF     		.align	2
 178              	.L26:
 179 000c 00000000 		.word	htim1
 181              		.section	.text.TIM1_CC_IRQHandler,"ax",%progbits
 182              		.align	1
 183              		.global	TIM1_CC_IRQHandler
 184              		.syntax unified
 185              		.thumb
 186              		.thumb_func
 188              	TIM1_CC_IRQHandler:
 189              		@ args = 0, pretend = 0, frame = 0
 190              		@ frame_needed = 0, uses_anonymous_args = 0
 191 0000 08B5     		push	{r3, lr}
 192 0002 0248     		ldr	r0, .L30
ARM GAS  C:\Users\Rick\AppData\Local\Temp\cctVQbVn.s 			page 4


 193 0004 FFF7FEFF 		bl	HAL_TIM_IRQHandler
 194 0008 08BD     		pop	{r3, pc}
 195              	.L31:
 196 000a 00BF     		.align	2
 197              	.L30:
 198 000c 00000000 		.word	htim1
 200              		.section	.text.USART3_IRQHandler,"ax",%progbits
 201              		.align	1
 202              		.global	USART3_IRQHandler
 203              		.syntax unified
 204              		.thumb
 205              		.thumb_func
 207              	USART3_IRQHandler:
 208              		@ args = 0, pretend = 0, frame = 0
 209              		@ frame_needed = 0, uses_anonymous_args = 0
 210 0000 08B5     		push	{r3, lr}
 211 0002 0248     		ldr	r0, .L34
 212 0004 FFF7FEFF 		bl	HAL_UART_IRQHandler
 213 0008 08BD     		pop	{r3, pc}
 214              	.L35:
 215 000a 00BF     		.align	2
 216              	.L34:
 217 000c 00000000 		.word	huart3
 219              		.section	.text.TIM6_DAC_IRQHandler,"ax",%progbits
 220              		.align	1
 221              		.global	TIM6_DAC_IRQHandler
 222              		.syntax unified
 223              		.thumb
 224              		.thumb_func
 226              	TIM6_DAC_IRQHandler:
 227              		@ args = 0, pretend = 0, frame = 0
 228              		@ frame_needed = 0, uses_anonymous_args = 0
 229 0000 08B5     		push	{r3, lr}
 230 0002 0248     		ldr	r0, .L38
 231 0004 FFF7FEFF 		bl	HAL_TIM_IRQHandler
 232 0008 08BD     		pop	{r3, pc}
 233              	.L39:
 234 000a 00BF     		.align	2
 235              	.L38:
 236 000c 00000000 		.word	htim6
 238              		.ident	"GCC: (xPack GNU Arm Embedded GCC x86_64) 14.2.1 20241119"
ARM GAS  C:\Users\Rick\AppData\Local\Temp\cctVQbVn.s 			page 5

