ARM GAS  C:\Users\Rick\AppData\Local\Temp\ccOCGcTc.s 			page 1


   1              		.cpu cortex-m4
   2              		.arch armv7e-m
   3              		.fpu fpv4-sp-d16
   4              		.eabi_attribute 27, 1
   5              		.eabi_attribute 28, 1
   6              		.eabi_attribute 20, 1
   7              		.eabi_attribute 21, 1
   8              		.eabi_attribute 23, 3
   9              		.eabi_attribute 24, 1
  10              		.eabi_attribute 25, 1
  11              		.eabi_attribute 26, 1
  12              		.eabi_attribute 30, 1
  13              		.eabi_attribute 34, 1
  14              		.eabi_attribute 18, 4
  15              		.file	"stm32f4xx_hal_rcc_ex.c"
  16              		.text
  17              		.section	.text.HAL_RCCEx_PeriphCLKConfig,"ax",%progbits
  18              		.align	1
  19              		.global	HAL_RCCEx_PeriphCLKConfig
  20              		.syntax unified
  21              		.thumb
  22              		.thumb_func
  24              	HAL_RCCEx_PeriphCLKConfig:
  25              		@ args = 0, pretend = 0, frame = 8
  26              		@ frame_needed = 0, uses_anonymous_args = 0
  27 0000 F0B5     		push	{r4, r5, r6, r7, lr}
  28 0002 83B0     		sub	sp, sp, #12
  29 0004 0446     		mov	r4, r0
  30 0006 0668     		ldr	r6, [r0]
  31 0008 16F00106 		ands	r6, r6, #1
  32 000c 0DD0     		beq	.L2
  33 000e 964A     		ldr	r2, .L73
  34 0010 D2F88C30 		ldr	r3, [r2, #140]
  35 0014 23F0C063 		bic	r3, r3, #100663296
  36 0018 816B     		ldr	r1, [r0, #56]
  37 001a 0B43     		orrs	r3, r3, r1
  38 001c C2F88C30 		str	r3, [r2, #140]
  39 0020 836B     		ldr	r3, [r0, #56]
  40 0022 002B     		cmp	r3, #0
  41 0024 00F09B80 		beq	.L45
  42 0028 0026     		movs	r6, #0
  43              	.L2:
  44 002a 2368     		ldr	r3, [r4]
  45 002c 13F0020F 		tst	r3, #2
  46 0030 0BD0     		beq	.L3
  47 0032 8D4A     		ldr	r2, .L73
  48 0034 D2F88C30 		ldr	r3, [r2, #140]
  49 0038 23F0C053 		bic	r3, r3, #402653184
  50 003c E16B     		ldr	r1, [r4, #60]
  51 003e 0B43     		orrs	r3, r3, r1
  52 0040 C2F88C30 		str	r3, [r2, #140]
  53 0044 E36B     		ldr	r3, [r4, #60]
  54 0046 03B9     		cbnz	r3, .L3
  55 0048 0126     		movs	r6, #1
  56              	.L3:
  57 004a 2568     		ldr	r5, [r4]
  58 004c 15F00405 		ands	r5, r5, #4
ARM GAS  C:\Users\Rick\AppData\Local\Temp\ccOCGcTc.s 			page 2


  59 0050 0FD0     		beq	.L4
  60 0052 854A     		ldr	r2, .L73
  61 0054 D2F88C30 		ldr	r3, [r2, #140]
  62 0058 23F44013 		bic	r3, r3, #3145728
  63 005c 216B     		ldr	r1, [r4, #48]
  64 005e 0B43     		orrs	r3, r3, r1
  65 0060 C2F88C30 		str	r3, [r2, #140]
  66 0064 236B     		ldr	r3, [r4, #48]
  67 0066 B3F5801F 		cmp	r3, #1048576
  68 006a 7AD0     		beq	.L60
  69              	.L5:
  70 006c 002B     		cmp	r3, #0
  71 006e 7AD0     		beq	.L48
  72 0070 0025     		movs	r5, #0
  73              	.L4:
  74 0072 2368     		ldr	r3, [r4]
  75 0074 13F0080F 		tst	r3, #8
  76 0078 0ED0     		beq	.L6
  77 007a 7B4A     		ldr	r2, .L73
  78 007c D2F88C30 		ldr	r3, [r2, #140]
  79 0080 23F44003 		bic	r3, r3, #12582912
  80 0084 616B     		ldr	r1, [r4, #52]
  81 0086 0B43     		orrs	r3, r3, r1
  82 0088 C2F88C30 		str	r3, [r2, #140]
  83 008c 636B     		ldr	r3, [r4, #52]
  84 008e B3F5800F 		cmp	r3, #4194304
  85 0092 6AD0     		beq	.L61
  86              	.L7:
  87 0094 03B9     		cbnz	r3, .L6
  88 0096 0125     		movs	r5, #1
  89              	.L6:
  90 0098 2368     		ldr	r3, [r4]
  91 009a 13F0200F 		tst	r3, #32
  92 009e 66D1     		bne	.L62
  93              	.L8:
  94 00a0 2368     		ldr	r3, [r4]
  95 00a2 13F0100F 		tst	r3, #16
  96 00a6 04D0     		beq	.L17
  97 00a8 94F85820 		ldrb	r2, [r4, #88]	@ zero_extendqisi2
  98 00ac 6F4B     		ldr	r3, .L73+4
  99 00ae C3F8E021 		str	r2, [r3, #480]
 100              	.L17:
 101 00b2 2368     		ldr	r3, [r4]
 102 00b4 13F0800F 		tst	r3, #128
 103 00b8 08D0     		beq	.L18
 104 00ba 6B4A     		ldr	r2, .L73
 105 00bc D2F89430 		ldr	r3, [r2, #148]
 106 00c0 23F44003 		bic	r3, r3, #12582912
 107 00c4 E16C     		ldr	r1, [r4, #76]
 108 00c6 0B43     		orrs	r3, r3, r1
 109 00c8 C2F89430 		str	r3, [r2, #148]
 110              	.L18:
 111 00cc 2368     		ldr	r3, [r4]
 112 00ce 13F0400F 		tst	r3, #64
 113 00d2 08D0     		beq	.L19
 114 00d4 644A     		ldr	r2, .L73
 115 00d6 D2F89430 		ldr	r3, [r2, #148]
ARM GAS  C:\Users\Rick\AppData\Local\Temp\ccOCGcTc.s 			page 3


 116 00da 23F08063 		bic	r3, r3, #67108864
 117 00de A16C     		ldr	r1, [r4, #72]
 118 00e0 0B43     		orrs	r3, r3, r1
 119 00e2 C2F89430 		str	r3, [r2, #148]
 120              	.L19:
 121 00e6 2368     		ldr	r3, [r4]
 122 00e8 13F4807F 		tst	r3, #256
 123 00ec 0DD0     		beq	.L20
 124 00ee 5E4A     		ldr	r2, .L73
 125 00f0 D2F89430 		ldr	r3, [r2, #148]
 126 00f4 23F00063 		bic	r3, r3, #134217728
 127 00f8 616D     		ldr	r1, [r4, #84]
 128 00fa 0B43     		orrs	r3, r3, r1
 129 00fc C2F89430 		str	r3, [r2, #148]
 130 0100 636D     		ldr	r3, [r4, #84]
 131 0102 B3F1006F 		cmp	r3, #134217728
 132 0106 00F09B80 		beq	.L63
 133              	.L20:
 134 010a 2368     		ldr	r3, [r4]
 135 010c 13F4007F 		tst	r3, #512
 136 0110 08D0     		beq	.L21
 137 0112 554A     		ldr	r2, .L73
 138 0114 D2F89430 		ldr	r3, [r2, #148]
 139 0118 23F08053 		bic	r3, r3, #268435456
 140 011c 616C     		ldr	r1, [r4, #68]
 141 011e 0B43     		orrs	r3, r3, r1
 142 0120 C2F89430 		str	r3, [r2, #148]
 143              	.L21:
 144 0124 2368     		ldr	r3, [r4]
 145 0126 13F4806F 		tst	r3, #1024
 146 012a 0CD0     		beq	.L22
 147 012c 4E4A     		ldr	r2, .L73
 148 012e D2F89430 		ldr	r3, [r2, #148]
 149 0132 23F00053 		bic	r3, r3, #536870912
 150 0136 216D     		ldr	r1, [r4, #80]
 151 0138 0B43     		orrs	r3, r3, r1
 152 013a C2F89430 		str	r3, [r2, #148]
 153 013e 236D     		ldr	r3, [r4, #80]
 154 0140 B3F1005F 		cmp	r3, #536870912
 155 0144 7ED0     		beq	.L23
 156              	.L22:
 157 0146 002E     		cmp	r6, #0
 158 0148 7CD1     		bne	.L23
 159 014a 2368     		ldr	r3, [r4]
 160 014c B3F5006F 		cmp	r3, #2048
 161 0150 78D0     		beq	.L23
 162              	.L24:
 163 0152 012D     		cmp	r5, #1
 164 0154 00F02581 		beq	.L64
 165 0158 0020     		movs	r0, #0
 166              	.L10:
 167 015a 03B0     		add	sp, sp, #12
 168              		@ sp needed
 169 015c F0BD     		pop	{r4, r5, r6, r7, pc}
 170              	.L45:
 171 015e 0126     		movs	r6, #1
 172 0160 63E7     		b	.L2
ARM GAS  C:\Users\Rick\AppData\Local\Temp\ccOCGcTc.s 			page 4


 173              	.L60:
 174 0162 0126     		movs	r6, #1
 175 0164 82E7     		b	.L5
 176              	.L48:
 177 0166 0125     		movs	r5, #1
 178 0168 83E7     		b	.L4
 179              	.L61:
 180 016a 0126     		movs	r6, #1
 181 016c 92E7     		b	.L7
 182              	.L62:
 183 016e 0023     		movs	r3, #0
 184 0170 0193     		str	r3, [sp, #4]
 185 0172 3D4B     		ldr	r3, .L73
 186 0174 1A6C     		ldr	r2, [r3, #64]
 187 0176 42F08052 		orr	r2, r2, #268435456
 188 017a 1A64     		str	r2, [r3, #64]
 189 017c 1B6C     		ldr	r3, [r3, #64]
 190 017e 03F08053 		and	r3, r3, #268435456
 191 0182 0193     		str	r3, [sp, #4]
 192 0184 019B     		ldr	r3, [sp, #4]
 193 0186 3A4A     		ldr	r2, .L73+8
 194 0188 1368     		ldr	r3, [r2]
 195 018a 43F48073 		orr	r3, r3, #256
 196 018e 1360     		str	r3, [r2]
 197 0190 FFF7FEFF 		bl	HAL_GetTick
 198 0194 0746     		mov	r7, r0
 199              	.L9:
 200 0196 364B     		ldr	r3, .L73+8
 201 0198 1B68     		ldr	r3, [r3]
 202 019a 13F4807F 		tst	r3, #256
 203 019e 06D1     		bne	.L65
 204 01a0 FFF7FEFF 		bl	HAL_GetTick
 205 01a4 C01B     		subs	r0, r0, r7
 206 01a6 0228     		cmp	r0, #2
 207 01a8 F5D9     		bls	.L9
 208 01aa 0320     		movs	r0, #3
 209 01ac D5E7     		b	.L10
 210              	.L65:
 211 01ae 2E4B     		ldr	r3, .L73
 212 01b0 1B6F     		ldr	r3, [r3, #112]
 213 01b2 13F44073 		ands	r3, r3, #768
 214 01b6 14D0     		beq	.L12
 215 01b8 226C     		ldr	r2, [r4, #64]
 216 01ba 02F44072 		and	r2, r2, #768
 217 01be 9A42     		cmp	r2, r3
 218 01c0 0FD0     		beq	.L12
 219 01c2 294B     		ldr	r3, .L73
 220 01c4 1A6F     		ldr	r2, [r3, #112]
 221 01c6 22F44072 		bic	r2, r2, #768
 222 01ca 2A49     		ldr	r1, .L73+12
 223 01cc 0120     		movs	r0, #1
 224 01ce C1F8400E 		str	r0, [r1, #3648]
 225 01d2 0020     		movs	r0, #0
 226 01d4 C1F8400E 		str	r0, [r1, #3648]
 227 01d8 1A67     		str	r2, [r3, #112]
 228 01da 1B6F     		ldr	r3, [r3, #112]
 229 01dc 13F0010F 		tst	r3, #1
ARM GAS  C:\Users\Rick\AppData\Local\Temp\ccOCGcTc.s 			page 5


 230 01e0 12D1     		bne	.L66
 231              	.L12:
 232 01e2 236C     		ldr	r3, [r4, #64]
 233 01e4 03F44072 		and	r2, r3, #768
 234 01e8 B2F5407F 		cmp	r2, #768
 235 01ec 1DD0     		beq	.L67
 236 01ee 1E4A     		ldr	r2, .L73
 237 01f0 9368     		ldr	r3, [r2, #8]
 238 01f2 23F4F813 		bic	r3, r3, #2031616
 239 01f6 9360     		str	r3, [r2, #8]
 240              	.L16:
 241 01f8 1B49     		ldr	r1, .L73
 242 01fa 0B6F     		ldr	r3, [r1, #112]
 243 01fc 226C     		ldr	r2, [r4, #64]
 244 01fe C2F30B02 		ubfx	r2, r2, #0, #12
 245 0202 1343     		orrs	r3, r3, r2
 246 0204 0B67     		str	r3, [r1, #112]
 247 0206 4BE7     		b	.L8
 248              	.L66:
 249 0208 FFF7FEFF 		bl	HAL_GetTick
 250 020c 0746     		mov	r7, r0
 251              	.L13:
 252 020e 164B     		ldr	r3, .L73
 253 0210 1B6F     		ldr	r3, [r3, #112]
 254 0212 13F0020F 		tst	r3, #2
 255 0216 E4D1     		bne	.L12
 256 0218 FFF7FEFF 		bl	HAL_GetTick
 257 021c C01B     		subs	r0, r0, r7
 258 021e 41F28833 		movw	r3, #5000
 259 0222 9842     		cmp	r0, r3
 260 0224 F3D9     		bls	.L13
 261 0226 0320     		movs	r0, #3
 262 0228 97E7     		b	.L10
 263              	.L67:
 264 022a 0F49     		ldr	r1, .L73
 265 022c 8A68     		ldr	r2, [r1, #8]
 266 022e 22F4F812 		bic	r2, r2, #2031616
 267 0232 23F07043 		bic	r3, r3, #-268435456
 268 0236 23F44073 		bic	r3, r3, #768
 269 023a 1343     		orrs	r3, r3, r2
 270 023c 8B60     		str	r3, [r1, #8]
 271 023e DBE7     		b	.L16
 272              	.L63:
 273 0240 0125     		movs	r5, #1
 274 0242 62E7     		b	.L20
 275              	.L23:
 276 0244 0B4B     		ldr	r3, .L73+12
 277 0246 0022     		movs	r2, #0
 278 0248 9A66     		str	r2, [r3, #104]
 279 024a FFF7FEFF 		bl	HAL_GetTick
 280 024e 0646     		mov	r6, r0
 281              	.L25:
 282 0250 054B     		ldr	r3, .L73
 283 0252 1B68     		ldr	r3, [r3]
 284 0254 13F0006F 		tst	r3, #134217728
 285 0258 0ED0     		beq	.L68
 286 025a FFF7FEFF 		bl	HAL_GetTick
ARM GAS  C:\Users\Rick\AppData\Local\Temp\ccOCGcTc.s 			page 6


 287 025e 801B     		subs	r0, r0, r6
 288 0260 0228     		cmp	r0, #2
 289 0262 F5D9     		bls	.L25
 290 0264 0320     		movs	r0, #3
 291 0266 78E7     		b	.L10
 292              	.L74:
 293              		.align	2
 294              	.L73:
 295 0268 00380240 		.word	1073887232
 296 026c 00104742 		.word	1111953408
 297 0270 00700040 		.word	1073770496
 298 0274 00004742 		.word	1111949312
 299              	.L68:
 300 0278 2368     		ldr	r3, [r4]
 301 027a 13F0010F 		tst	r3, #1
 302 027e 01D0     		beq	.L27
 303 0280 A26B     		ldr	r2, [r4, #56]
 304 0282 22B1     		cbz	r2, .L28
 305              	.L27:
 306 0284 13F0020F 		tst	r3, #2
 307 0288 15D0     		beq	.L29
 308 028a E36B     		ldr	r3, [r4, #60]
 309 028c 9BB9     		cbnz	r3, .L29
 310              	.L28:
 311 028e 774A     		ldr	r2, .L75
 312 0290 D2F88400 		ldr	r0, [r2, #132]
 313 0294 D2F88410 		ldr	r1, [r2, #132]
 314 0298 6368     		ldr	r3, [r4, #4]
 315 029a A668     		ldr	r6, [r4, #8]
 316 029c 43EA8613 		orr	r3, r3, r6, lsl #6
 317 02a0 00F44030 		and	r0, r0, #196608
 318 02a4 0343     		orrs	r3, r3, r0
 319 02a6 01F07061 		and	r1, r1, #251658240
 320 02aa 0B43     		orrs	r3, r3, r1
 321 02ac 6169     		ldr	r1, [r4, #20]
 322 02ae 43EA0173 		orr	r3, r3, r1, lsl #28
 323 02b2 C2F88430 		str	r3, [r2, #132]
 324              	.L29:
 325 02b6 2368     		ldr	r3, [r4]
 326 02b8 13F0040F 		tst	r3, #4
 327 02bc 03D0     		beq	.L30
 328 02be 226B     		ldr	r2, [r4, #48]
 329 02c0 B2F5801F 		cmp	r2, #1048576
 330 02c4 06D0     		beq	.L31
 331              	.L30:
 332 02c6 13F0080F 		tst	r3, #8
 333 02ca 20D0     		beq	.L32
 334 02cc 636B     		ldr	r3, [r4, #52]
 335 02ce B3F5800F 		cmp	r3, #4194304
 336 02d2 1CD1     		bne	.L32
 337              	.L31:
 338 02d4 654A     		ldr	r2, .L75
 339 02d6 D2F88400 		ldr	r0, [r2, #132]
 340 02da D2F88410 		ldr	r1, [r2, #132]
 341 02de 6368     		ldr	r3, [r4, #4]
 342 02e0 A668     		ldr	r6, [r4, #8]
 343 02e2 43EA8613 		orr	r3, r3, r6, lsl #6
ARM GAS  C:\Users\Rick\AppData\Local\Temp\ccOCGcTc.s 			page 7


 344 02e6 00F44030 		and	r0, r0, #196608
 345 02ea 0343     		orrs	r3, r3, r0
 346 02ec 2069     		ldr	r0, [r4, #16]
 347 02ee 43EA0063 		orr	r3, r3, r0, lsl #24
 348 02f2 01F0E041 		and	r1, r1, #1879048192
 349 02f6 0B43     		orrs	r3, r3, r1
 350 02f8 C2F88430 		str	r3, [r2, #132]
 351 02fc D2F88C30 		ldr	r3, [r2, #140]
 352 0300 23F01F03 		bic	r3, r3, #31
 353 0304 A16A     		ldr	r1, [r4, #40]
 354 0306 0139     		subs	r1, r1, #1
 355 0308 0B43     		orrs	r3, r3, r1
 356 030a C2F88C30 		str	r3, [r2, #140]
 357              	.L32:
 358 030e 2368     		ldr	r3, [r4]
 359 0310 13F4806F 		tst	r3, #1024
 360 0314 03D0     		beq	.L33
 361 0316 236D     		ldr	r3, [r4, #80]
 362 0318 B3F1005F 		cmp	r3, #536870912
 363 031c 28D0     		beq	.L69
 364              	.L33:
 365 031e 2368     		ldr	r3, [r4]
 366 0320 13F4006F 		tst	r3, #2048
 367 0324 11D0     		beq	.L34
 368 0326 6368     		ldr	r3, [r4, #4]
 369 0328 A268     		ldr	r2, [r4, #8]
 370 032a 43EA8213 		orr	r3, r3, r2, lsl #6
 371 032e E268     		ldr	r2, [r4, #12]
 372 0330 5208     		lsrs	r2, r2, #1
 373 0332 013A     		subs	r2, r2, #1
 374 0334 43EA0243 		orr	r3, r3, r2, lsl #16
 375 0338 2269     		ldr	r2, [r4, #16]
 376 033a 43EA0263 		orr	r3, r3, r2, lsl #24
 377 033e 6269     		ldr	r2, [r4, #20]
 378 0340 43EA0273 		orr	r3, r3, r2, lsl #28
 379 0344 494A     		ldr	r2, .L75
 380 0346 C2F88430 		str	r3, [r2, #132]
 381              	.L34:
 382 034a 494B     		ldr	r3, .L75+4
 383 034c 0122     		movs	r2, #1
 384 034e 9A66     		str	r2, [r3, #104]
 385 0350 FFF7FEFF 		bl	HAL_GetTick
 386 0354 0646     		mov	r6, r0
 387              	.L35:
 388 0356 454B     		ldr	r3, .L75
 389 0358 1B68     		ldr	r3, [r3]
 390 035a 13F0006F 		tst	r3, #134217728
 391 035e 7FF4F8AE 		bne	.L24
 392 0362 FFF7FEFF 		bl	HAL_GetTick
 393 0366 801B     		subs	r0, r0, r6
 394 0368 0228     		cmp	r0, #2
 395 036a F4D9     		bls	.L35
 396 036c 0320     		movs	r0, #3
 397 036e F4E6     		b	.L10
 398              	.L69:
 399 0370 3E48     		ldr	r0, .L75
 400 0372 D0F88420 		ldr	r2, [r0, #132]
ARM GAS  C:\Users\Rick\AppData\Local\Temp\ccOCGcTc.s 			page 8


 401 0376 C2F30142 		ubfx	r2, r2, #16, #2
 402 037a 0132     		adds	r2, r2, #1
 403 037c D0F88460 		ldr	r6, [r0, #132]
 404 0380 6368     		ldr	r3, [r4, #4]
 405 0382 A168     		ldr	r1, [r4, #8]
 406 0384 43EA8113 		orr	r3, r3, r1, lsl #6
 407 0388 E168     		ldr	r1, [r4, #12]
 408 038a 4908     		lsrs	r1, r1, #1
 409 038c 0139     		subs	r1, r1, #1
 410 038e 43EA0143 		orr	r3, r3, r1, lsl #16
 411 0392 43EA4263 		orr	r3, r3, r2, lsl #25
 412 0396 06F0E042 		and	r2, r6, #1879048192
 413 039a 1343     		orrs	r3, r3, r2
 414 039c C0F88430 		str	r3, [r0, #132]
 415 03a0 BDE7     		b	.L33
 416              	.L64:
 417 03a2 334B     		ldr	r3, .L75+4
 418 03a4 0022     		movs	r2, #0
 419 03a6 1A67     		str	r2, [r3, #112]
 420 03a8 FFF7FEFF 		bl	HAL_GetTick
 421 03ac 0546     		mov	r5, r0
 422              	.L37:
 423 03ae 2F4B     		ldr	r3, .L75
 424 03b0 1B68     		ldr	r3, [r3]
 425 03b2 13F0005F 		tst	r3, #536870912
 426 03b6 06D0     		beq	.L70
 427 03b8 FFF7FEFF 		bl	HAL_GetTick
 428 03bc 401B     		subs	r0, r0, r5
 429 03be 0228     		cmp	r0, #2
 430 03c0 F5D9     		bls	.L37
 431 03c2 0320     		movs	r0, #3
 432 03c4 C9E6     		b	.L10
 433              	.L70:
 434 03c6 2368     		ldr	r3, [r4]
 435 03c8 13F0040F 		tst	r3, #4
 436 03cc 01D0     		beq	.L39
 437 03ce 226B     		ldr	r2, [r4, #48]
 438 03d0 22B1     		cbz	r2, .L40
 439              	.L39:
 440 03d2 13F0080F 		tst	r3, #8
 441 03d6 1AD0     		beq	.L41
 442 03d8 636B     		ldr	r3, [r4, #52]
 443 03da C3B9     		cbnz	r3, .L41
 444              	.L40:
 445 03dc 234A     		ldr	r2, .L75
 446 03de D2F88810 		ldr	r1, [r2, #136]
 447 03e2 A369     		ldr	r3, [r4, #24]
 448 03e4 E069     		ldr	r0, [r4, #28]
 449 03e6 43EA8013 		orr	r3, r3, r0, lsl #6
 450 03ea 01F44031 		and	r1, r1, #196608
 451 03ee 0B43     		orrs	r3, r3, r1
 452 03f0 616A     		ldr	r1, [r4, #36]
 453 03f2 43EA0163 		orr	r3, r3, r1, lsl #24
 454 03f6 C2F88830 		str	r3, [r2, #136]
 455 03fa D2F88C30 		ldr	r3, [r2, #140]
 456 03fe 23F4F853 		bic	r3, r3, #7936
 457 0402 E16A     		ldr	r1, [r4, #44]
ARM GAS  C:\Users\Rick\AppData\Local\Temp\ccOCGcTc.s 			page 9


 458 0404 0139     		subs	r1, r1, #1
 459 0406 43EA0123 		orr	r3, r3, r1, lsl #8
 460 040a C2F88C30 		str	r3, [r2, #140]
 461              	.L41:
 462 040e 2368     		ldr	r3, [r4]
 463 0410 13F4807F 		tst	r3, #256
 464 0414 03D0     		beq	.L42
 465 0416 636D     		ldr	r3, [r4, #84]
 466 0418 B3F1006F 		cmp	r3, #134217728
 467 041c 11D0     		beq	.L71
 468              	.L42:
 469 041e 144B     		ldr	r3, .L75+4
 470 0420 0122     		movs	r2, #1
 471 0422 1A67     		str	r2, [r3, #112]
 472 0424 FFF7FEFF 		bl	HAL_GetTick
 473 0428 0446     		mov	r4, r0
 474              	.L43:
 475 042a 104B     		ldr	r3, .L75
 476 042c 1B68     		ldr	r3, [r3]
 477 042e 13F0005F 		tst	r3, #536870912
 478 0432 18D1     		bne	.L72
 479 0434 FFF7FEFF 		bl	HAL_GetTick
 480 0438 001B     		subs	r0, r0, r4
 481 043a 0228     		cmp	r0, #2
 482 043c F5D9     		bls	.L43
 483 043e 0320     		movs	r0, #3
 484 0440 8BE6     		b	.L10
 485              	.L71:
 486 0442 0A48     		ldr	r0, .L75
 487 0444 D0F88810 		ldr	r1, [r0, #136]
 488 0448 A369     		ldr	r3, [r4, #24]
 489 044a E269     		ldr	r2, [r4, #28]
 490 044c 43EA8213 		orr	r3, r3, r2, lsl #6
 491 0450 226A     		ldr	r2, [r4, #32]
 492 0452 5208     		lsrs	r2, r2, #1
 493 0454 013A     		subs	r2, r2, #1
 494 0456 43EA0243 		orr	r3, r3, r2, lsl #16
 495 045a 01F07062 		and	r2, r1, #251658240
 496 045e 1343     		orrs	r3, r3, r2
 497 0460 C0F88830 		str	r3, [r0, #136]
 498 0464 DBE7     		b	.L42
 499              	.L72:
 500 0466 0020     		movs	r0, #0
 501 0468 77E6     		b	.L10
 502              	.L76:
 503 046a 00BF     		.align	2
 504              	.L75:
 505 046c 00380240 		.word	1073887232
 506 0470 00004742 		.word	1111949312
 508              		.section	.text.HAL_RCCEx_GetPeriphCLKConfig,"ax",%progbits
 509              		.align	1
 510              		.global	HAL_RCCEx_GetPeriphCLKConfig
 511              		.syntax unified
 512              		.thumb
 513              		.thumb_func
 515              	HAL_RCCEx_GetPeriphCLKConfig:
 516              		@ args = 0, pretend = 0, frame = 0
ARM GAS  C:\Users\Rick\AppData\Local\Temp\ccOCGcTc.s 			page 10


 517              		@ frame_needed = 0, uses_anonymous_args = 0
 518              		@ link register save eliminated.
 519 0000 40F2FF73 		movw	r3, #2047
 520 0004 0360     		str	r3, [r0]
 521 0006 3F4B     		ldr	r3, .L80
 522 0008 D3F88420 		ldr	r2, [r3, #132]
 523 000c 02F03F02 		and	r2, r2, #63
 524 0010 4260     		str	r2, [r0, #4]
 525 0012 D3F88420 		ldr	r2, [r3, #132]
 526 0016 C2F38812 		ubfx	r2, r2, #6, #9
 527 001a 8260     		str	r2, [r0, #8]
 528 001c D3F88420 		ldr	r2, [r3, #132]
 529 0020 C2F30142 		ubfx	r2, r2, #16, #2
 530 0024 0132     		adds	r2, r2, #1
 531 0026 5200     		lsls	r2, r2, #1
 532 0028 C260     		str	r2, [r0, #12]
 533 002a D3F88420 		ldr	r2, [r3, #132]
 534 002e C2F30362 		ubfx	r2, r2, #24, #4
 535 0032 0261     		str	r2, [r0, #16]
 536 0034 D3F88420 		ldr	r2, [r3, #132]
 537 0038 C2F30272 		ubfx	r2, r2, #28, #3
 538 003c 4261     		str	r2, [r0, #20]
 539 003e D3F88820 		ldr	r2, [r3, #136]
 540 0042 02F03F02 		and	r2, r2, #63
 541 0046 8261     		str	r2, [r0, #24]
 542 0048 D3F88820 		ldr	r2, [r3, #136]
 543 004c C2F38812 		ubfx	r2, r2, #6, #9
 544 0050 C261     		str	r2, [r0, #28]
 545 0052 D3F88820 		ldr	r2, [r3, #136]
 546 0056 C2F30142 		ubfx	r2, r2, #16, #2
 547 005a 0132     		adds	r2, r2, #1
 548 005c 5200     		lsls	r2, r2, #1
 549 005e 0262     		str	r2, [r0, #32]
 550 0060 D3F88820 		ldr	r2, [r3, #136]
 551 0064 C2F30362 		ubfx	r2, r2, #24, #4
 552 0068 4262     		str	r2, [r0, #36]
 553 006a D3F88C20 		ldr	r2, [r3, #140]
 554 006e 02F01F02 		and	r2, r2, #31
 555 0072 8262     		str	r2, [r0, #40]
 556 0074 D3F88C20 		ldr	r2, [r3, #140]
 557 0078 C2F30422 		ubfx	r2, r2, #8, #5
 558 007c C262     		str	r2, [r0, #44]
 559 007e D3F88C20 		ldr	r2, [r3, #140]
 560 0082 02F44012 		and	r2, r2, #3145728
 561 0086 0263     		str	r2, [r0, #48]
 562 0088 D3F88C20 		ldr	r2, [r3, #140]
 563 008c 02F44002 		and	r2, r2, #12582912
 564 0090 4263     		str	r2, [r0, #52]
 565 0092 D3F88C20 		ldr	r2, [r3, #140]
 566 0096 02F0C062 		and	r2, r2, #100663296
 567 009a 8263     		str	r2, [r0, #56]
 568 009c D3F88C20 		ldr	r2, [r3, #140]
 569 00a0 02F0C052 		and	r2, r2, #402653184
 570 00a4 C263     		str	r2, [r0, #60]
 571 00a6 9968     		ldr	r1, [r3, #8]
 572 00a8 01F4F811 		and	r1, r1, #2031616
 573 00ac 1A6F     		ldr	r2, [r3, #112]
ARM GAS  C:\Users\Rick\AppData\Local\Temp\ccOCGcTc.s 			page 11


 574 00ae 02F44072 		and	r2, r2, #768
 575 00b2 0A43     		orrs	r2, r2, r1
 576 00b4 0264     		str	r2, [r0, #64]
 577 00b6 D3F89420 		ldr	r2, [r3, #148]
 578 00ba 02F08062 		and	r2, r2, #67108864
 579 00be 8264     		str	r2, [r0, #72]
 580 00c0 D3F89420 		ldr	r2, [r3, #148]
 581 00c4 02F44002 		and	r2, r2, #12582912
 582 00c8 C264     		str	r2, [r0, #76]
 583 00ca D3F89420 		ldr	r2, [r3, #148]
 584 00ce 02F00062 		and	r2, r2, #134217728
 585 00d2 4265     		str	r2, [r0, #84]
 586 00d4 D3F89420 		ldr	r2, [r3, #148]
 587 00d8 02F08052 		and	r2, r2, #268435456
 588 00dc 4264     		str	r2, [r0, #68]
 589 00de D3F89420 		ldr	r2, [r3, #148]
 590 00e2 02F00052 		and	r2, r2, #536870912
 591 00e6 0265     		str	r2, [r0, #80]
 592 00e8 D3F88C30 		ldr	r3, [r3, #140]
 593 00ec 13F0807F 		tst	r3, #16777216
 594 00f0 03D1     		bne	.L78
 595 00f2 0023     		movs	r3, #0
 596 00f4 80F85830 		strb	r3, [r0, #88]
 597 00f8 7047     		bx	lr
 598              	.L78:
 599 00fa 0123     		movs	r3, #1
 600 00fc 80F85830 		strb	r3, [r0, #88]
 601 0100 7047     		bx	lr
 602              	.L81:
 603 0102 00BF     		.align	2
 604              	.L80:
 605 0104 00380240 		.word	1073887232
 607              		.section	.text.HAL_RCCEx_GetPeriphCLKFreq,"ax",%progbits
 608              		.align	1
 609              		.global	HAL_RCCEx_GetPeriphCLKFreq
 610              		.syntax unified
 611              		.thumb
 612              		.thumb_func
 614              	HAL_RCCEx_GetPeriphCLKFreq:
 615              		@ args = 0, pretend = 0, frame = 0
 616              		@ frame_needed = 0, uses_anonymous_args = 0
 617              		@ link register save eliminated.
 618 0000 0138     		subs	r0, r0, #1
 619 0002 0728     		cmp	r0, #7
 620 0004 00F25C81 		bhi	.L115
 621 0008 DFE810F0 		tbh	[pc, r0, lsl #1]
 622              	.L85:
 623 000c A100     		.2byte	(.L87-.L85)/2
 624 000e FE00     		.2byte	(.L86-.L85)/2
 625 0010 5A01     		.2byte	(.L115-.L85)/2
 626 0012 0800     		.2byte	(.L84-.L85)/2
 627 0014 5A01     		.2byte	(.L115-.L85)/2
 628 0016 5A01     		.2byte	(.L115-.L85)/2
 629 0018 5A01     		.2byte	(.L115-.L85)/2
 630 001a 0800     		.2byte	(.L84-.L85)/2
 631              		.p2align 1
 632              	.L84:
ARM GAS  C:\Users\Rick\AppData\Local\Temp\ccOCGcTc.s 			page 12


 633 001c AC4B     		ldr	r3, .L123
 634 001e D3F88C30 		ldr	r3, [r3, #140]
 635 0022 03F47003 		and	r3, r3, #15728640
 636 0026 B3F5401F 		cmp	r3, #3145728
 637 002a 00F04B81 		beq	.L116
 638 002e 0BD9     		bls	.L119
 639 0030 B3F5000F 		cmp	r3, #8388608
 640 0034 67D0     		beq	.L90
 641 0036 B3F5400F 		cmp	r3, #12582912
 642 003a 00F08480 		beq	.L92
 643 003e B3F5800F 		cmp	r3, #4194304
 644 0042 35D0     		beq	.L89
 645 0044 0020     		movs	r0, #0
 646 0046 7047     		bx	lr
 647              	.L119:
 648 0048 B3F5801F 		cmp	r3, #1048576
 649 004c 30D0     		beq	.L89
 650 004e B3F5001F 		cmp	r3, #2097152
 651 0052 58D0     		beq	.L90
 652 0054 0BBB     		cbnz	r3, .L120
 653 0056 9E4B     		ldr	r3, .L123
 654 0058 5B68     		ldr	r3, [r3, #4]
 655 005a 13F4800F 		tst	r3, #4194304
 656 005e 1ED1     		bne	.L93
 657 0060 9B4B     		ldr	r3, .L123
 658 0062 D3F88830 		ldr	r3, [r3, #136]
 659 0066 03F03F03 		and	r3, r3, #63
 660 006a 9A49     		ldr	r1, .L123+4
 661 006c B1FBF3F1 		udiv	r1, r1, r3
 662              	.L94:
 663 0070 974B     		ldr	r3, .L123
 664 0072 D3F88820 		ldr	r2, [r3, #136]
 665 0076 C2F30362 		ubfx	r2, r2, #24, #4
 666 007a D3F88800 		ldr	r0, [r3, #136]
 667 007e C0F38810 		ubfx	r0, r0, #6, #9
 668 0082 01FB00F0 		mul	r0, r1, r0
 669 0086 B0FBF2F0 		udiv	r0, r0, r2
 670 008a D3F88C30 		ldr	r3, [r3, #140]
 671 008e C3F30423 		ubfx	r3, r3, #8, #5
 672 0092 0133     		adds	r3, r3, #1
 673 0094 B0FBF3F0 		udiv	r0, r0, r3
 674 0098 7047     		bx	lr
 675              	.L120:
 676 009a 0020     		movs	r0, #0
 677 009c 7047     		bx	lr
 678              	.L93:
 679 009e 8C4B     		ldr	r3, .L123
 680 00a0 D3F88830 		ldr	r3, [r3, #136]
 681 00a4 03F03F03 		and	r3, r3, #63
 682 00a8 8A49     		ldr	r1, .L123+4
 683 00aa B1FBF3F1 		udiv	r1, r1, r3
 684 00ae DFE7     		b	.L94
 685              	.L89:
 686 00b0 874B     		ldr	r3, .L123
 687 00b2 5B68     		ldr	r3, [r3, #4]
 688 00b4 13F4800F 		tst	r3, #4194304
 689 00b8 1CD1     		bne	.L95
ARM GAS  C:\Users\Rick\AppData\Local\Temp\ccOCGcTc.s 			page 13


 690 00ba 854B     		ldr	r3, .L123
 691 00bc D3F88430 		ldr	r3, [r3, #132]
 692 00c0 03F03F03 		and	r3, r3, #63
 693 00c4 8349     		ldr	r1, .L123+4
 694 00c6 B1FBF3F1 		udiv	r1, r1, r3
 695              	.L96:
 696 00ca 814B     		ldr	r3, .L123
 697 00cc D3F88420 		ldr	r2, [r3, #132]
 698 00d0 C2F30362 		ubfx	r2, r2, #24, #4
 699 00d4 D3F88400 		ldr	r0, [r3, #132]
 700 00d8 C0F38810 		ubfx	r0, r0, #6, #9
 701 00dc 01FB00F0 		mul	r0, r1, r0
 702 00e0 B0FBF2F0 		udiv	r0, r0, r2
 703 00e4 D3F88C30 		ldr	r3, [r3, #140]
 704 00e8 03F01F03 		and	r3, r3, #31
 705 00ec 0133     		adds	r3, r3, #1
 706 00ee B0FBF3F0 		udiv	r0, r0, r3
 707 00f2 7047     		bx	lr
 708              	.L95:
 709 00f4 764B     		ldr	r3, .L123
 710 00f6 D3F88430 		ldr	r3, [r3, #132]
 711 00fa 03F03F03 		and	r3, r3, #63
 712 00fe 7549     		ldr	r1, .L123+4
 713 0100 B1FBF3F1 		udiv	r1, r1, r3
 714 0104 E1E7     		b	.L96
 715              	.L90:
 716 0106 724B     		ldr	r3, .L123
 717 0108 5B68     		ldr	r3, [r3, #4]
 718 010a 13F4800F 		tst	r3, #4194304
 719 010e 12D1     		bne	.L97
 720 0110 6F4B     		ldr	r3, .L123
 721 0112 5B68     		ldr	r3, [r3, #4]
 722 0114 03F03F03 		and	r3, r3, #63
 723 0118 6E4A     		ldr	r2, .L123+4
 724 011a B2FBF3F2 		udiv	r2, r2, r3
 725              	.L98:
 726 011e 6C49     		ldr	r1, .L123
 727 0120 4B68     		ldr	r3, [r1, #4]
 728 0122 C3F30273 		ubfx	r3, r3, #28, #3
 729 0126 4868     		ldr	r0, [r1, #4]
 730 0128 C0F38810 		ubfx	r0, r0, #6, #9
 731 012c 02FB00F0 		mul	r0, r2, r0
 732 0130 B0FBF3F0 		udiv	r0, r0, r3
 733 0134 7047     		bx	lr
 734              	.L97:
 735 0136 664B     		ldr	r3, .L123
 736 0138 5B68     		ldr	r3, [r3, #4]
 737 013a 03F03F03 		and	r3, r3, #63
 738 013e 654A     		ldr	r2, .L123+4
 739 0140 B2FBF3F2 		udiv	r2, r2, r3
 740 0144 EBE7     		b	.L98
 741              	.L92:
 742 0146 624B     		ldr	r3, .L123
 743 0148 5B68     		ldr	r3, [r3, #4]
 744 014a 6248     		ldr	r0, .L123+4
 745 014c 7047     		bx	lr
 746              	.L87:
ARM GAS  C:\Users\Rick\AppData\Local\Temp\ccOCGcTc.s 			page 14


 747 014e 604B     		ldr	r3, .L123
 748 0150 D3F88C30 		ldr	r3, [r3, #140]
 749 0154 03F0C063 		and	r3, r3, #100663296
 750 0158 B3F1806F 		cmp	r3, #67108864
 751 015c 34D0     		beq	.L99
 752 015e 06D8     		bhi	.L100
 753 0160 73B1     		cbz	r3, .L101
 754 0162 B3F1007F 		cmp	r3, #33554432
 755 0166 40F0AF80 		bne	.L117
 756 016a 5B48     		ldr	r0, .L123+8
 757 016c 7047     		bx	lr
 758              	.L100:
 759 016e B3F1C06F 		cmp	r3, #100663296
 760 0172 03D1     		bne	.L121
 761 0174 564B     		ldr	r3, .L123
 762 0176 5B68     		ldr	r3, [r3, #4]
 763 0178 5648     		ldr	r0, .L123+4
 764 017a 7047     		bx	lr
 765              	.L121:
 766 017c 0020     		movs	r0, #0
 767 017e 7047     		bx	lr
 768              	.L101:
 769 0180 534B     		ldr	r3, .L123
 770 0182 5B68     		ldr	r3, [r3, #4]
 771 0184 13F4800F 		tst	r3, #4194304
 772 0188 15D0     		beq	.L103
 773 018a 514B     		ldr	r3, .L123
 774 018c D3F88420 		ldr	r2, [r3, #132]
 775 0190 02F03F02 		and	r2, r2, #63
 776 0194 4F4B     		ldr	r3, .L123+4
 777 0196 B3FBF2F3 		udiv	r3, r3, r2
 778              	.L104:
 779 019a 4D4A     		ldr	r2, .L123
 780 019c D2F88400 		ldr	r0, [r2, #132]
 781 01a0 C0F38810 		ubfx	r0, r0, #6, #9
 782 01a4 03FB00F0 		mul	r0, r3, r0
 783 01a8 D2F88430 		ldr	r3, [r2, #132]
 784 01ac C3F30273 		ubfx	r3, r3, #28, #3
 785 01b0 B0FBF3F0 		udiv	r0, r0, r3
 786 01b4 7047     		bx	lr
 787              	.L103:
 788 01b6 464B     		ldr	r3, .L123
 789 01b8 D3F88420 		ldr	r2, [r3, #132]
 790 01bc 02F03F02 		and	r2, r2, #63
 791 01c0 444B     		ldr	r3, .L123+4
 792 01c2 B3FBF2F3 		udiv	r3, r3, r2
 793 01c6 E8E7     		b	.L104
 794              	.L99:
 795 01c8 414B     		ldr	r3, .L123
 796 01ca 5B68     		ldr	r3, [r3, #4]
 797 01cc 13F4800F 		tst	r3, #4194304
 798 01d0 12D0     		beq	.L105
 799 01d2 3F4B     		ldr	r3, .L123
 800 01d4 5A68     		ldr	r2, [r3, #4]
 801 01d6 02F03F02 		and	r2, r2, #63
 802 01da 3E4B     		ldr	r3, .L123+4
 803 01dc B3FBF2F3 		udiv	r3, r3, r2
ARM GAS  C:\Users\Rick\AppData\Local\Temp\ccOCGcTc.s 			page 15


 804              	.L106:
 805 01e0 3B4A     		ldr	r2, .L123
 806 01e2 5068     		ldr	r0, [r2, #4]
 807 01e4 C0F38810 		ubfx	r0, r0, #6, #9
 808 01e8 03FB00F0 		mul	r0, r3, r0
 809 01ec 5368     		ldr	r3, [r2, #4]
 810 01ee C3F30273 		ubfx	r3, r3, #28, #3
 811 01f2 B0FBF3F0 		udiv	r0, r0, r3
 812 01f6 7047     		bx	lr
 813              	.L105:
 814 01f8 354B     		ldr	r3, .L123
 815 01fa 5A68     		ldr	r2, [r3, #4]
 816 01fc 02F03F02 		and	r2, r2, #63
 817 0200 344B     		ldr	r3, .L123+4
 818 0202 B3FBF2F3 		udiv	r3, r3, r2
 819 0206 EBE7     		b	.L106
 820              	.L86:
 821 0208 314B     		ldr	r3, .L123
 822 020a D3F88C30 		ldr	r3, [r3, #140]
 823 020e 03F0C053 		and	r3, r3, #402653184
 824 0212 B3F1805F 		cmp	r3, #268435456
 825 0216 33D0     		beq	.L107
 826 0218 05D8     		bhi	.L108
 827 021a 6BB1     		cbz	r3, .L109
 828 021c B3F1006F 		cmp	r3, #134217728
 829 0220 54D1     		bne	.L118
 830 0222 2D48     		ldr	r0, .L123+8
 831 0224 7047     		bx	lr
 832              	.L108:
 833 0226 B3F1C05F 		cmp	r3, #402653184
 834 022a 03D1     		bne	.L122
 835 022c 284B     		ldr	r3, .L123
 836 022e 5B68     		ldr	r3, [r3, #4]
 837 0230 2848     		ldr	r0, .L123+4
 838 0232 7047     		bx	lr
 839              	.L122:
 840 0234 0020     		movs	r0, #0
 841 0236 7047     		bx	lr
 842              	.L109:
 843 0238 254B     		ldr	r3, .L123
 844 023a 5B68     		ldr	r3, [r3, #4]
 845 023c 13F4800F 		tst	r3, #4194304
 846 0240 15D0     		beq	.L111
 847 0242 234B     		ldr	r3, .L123
 848 0244 D3F88420 		ldr	r2, [r3, #132]
 849 0248 02F03F02 		and	r2, r2, #63
 850 024c 214B     		ldr	r3, .L123+4
 851 024e B3FBF2F3 		udiv	r3, r3, r2
 852              	.L112:
 853 0252 1F4A     		ldr	r2, .L123
 854 0254 D2F88400 		ldr	r0, [r2, #132]
 855 0258 C0F38810 		ubfx	r0, r0, #6, #9
 856 025c 03FB00F0 		mul	r0, r3, r0
 857 0260 D2F88430 		ldr	r3, [r2, #132]
 858 0264 C3F30273 		ubfx	r3, r3, #28, #3
 859 0268 B0FBF3F0 		udiv	r0, r0, r3
 860 026c 7047     		bx	lr
ARM GAS  C:\Users\Rick\AppData\Local\Temp\ccOCGcTc.s 			page 16


 861              	.L111:
 862 026e 184B     		ldr	r3, .L123
 863 0270 D3F88420 		ldr	r2, [r3, #132]
 864 0274 02F03F02 		and	r2, r2, #63
 865 0278 164B     		ldr	r3, .L123+4
 866 027a B3FBF2F3 		udiv	r3, r3, r2
 867 027e E8E7     		b	.L112
 868              	.L107:
 869 0280 134B     		ldr	r3, .L123
 870 0282 5B68     		ldr	r3, [r3, #4]
 871 0284 13F4800F 		tst	r3, #4194304
 872 0288 12D0     		beq	.L113
 873 028a 114B     		ldr	r3, .L123
 874 028c 5A68     		ldr	r2, [r3, #4]
 875 028e 02F03F02 		and	r2, r2, #63
 876 0292 104B     		ldr	r3, .L123+4
 877 0294 B3FBF2F3 		udiv	r3, r3, r2
 878              	.L114:
 879 0298 0D4A     		ldr	r2, .L123
 880 029a 5068     		ldr	r0, [r2, #4]
 881 029c C0F38810 		ubfx	r0, r0, #6, #9
 882 02a0 03FB00F0 		mul	r0, r3, r0
 883 02a4 5368     		ldr	r3, [r2, #4]
 884 02a6 C3F30273 		ubfx	r3, r3, #28, #3
 885 02aa B0FBF3F0 		udiv	r0, r0, r3
 886 02ae 7047     		bx	lr
 887              	.L113:
 888 02b0 074B     		ldr	r3, .L123
 889 02b2 5A68     		ldr	r2, [r3, #4]
 890 02b4 02F03F02 		and	r2, r2, #63
 891 02b8 064B     		ldr	r3, .L123+4
 892 02ba B3FBF2F3 		udiv	r3, r3, r2
 893 02be EBE7     		b	.L114
 894              	.L115:
 895 02c0 0020     		movs	r0, #0
 896 02c2 7047     		bx	lr
 897              	.L116:
 898 02c4 0448     		ldr	r0, .L123+8
 899 02c6 7047     		bx	lr
 900              	.L117:
 901 02c8 0020     		movs	r0, #0
 902 02ca 7047     		bx	lr
 903              	.L118:
 904 02cc 0020     		movs	r0, #0
 905 02ce 7047     		bx	lr
 906              	.L124:
 907              		.align	2
 908              	.L123:
 909 02d0 00380240 		.word	1073887232
 910 02d4 0024F400 		.word	16000000
 911 02d8 0080BB00 		.word	12288000
 913              		.section	.text.HAL_RCCEx_SelectLSEMode,"ax",%progbits
 914              		.align	1
 915              		.global	HAL_RCCEx_SelectLSEMode
 916              		.syntax unified
 917              		.thumb
 918              		.thumb_func
ARM GAS  C:\Users\Rick\AppData\Local\Temp\ccOCGcTc.s 			page 17


 920              	HAL_RCCEx_SelectLSEMode:
 921              		@ args = 0, pretend = 0, frame = 0
 922              		@ frame_needed = 0, uses_anonymous_args = 0
 923              		@ link register save eliminated.
 924 0000 0128     		cmp	r0, #1
 925 0002 05D0     		beq	.L128
 926 0004 054A     		ldr	r2, .L129
 927 0006 136F     		ldr	r3, [r2, #112]
 928 0008 23F00803 		bic	r3, r3, #8
 929 000c 1367     		str	r3, [r2, #112]
 930 000e 7047     		bx	lr
 931              	.L128:
 932 0010 024A     		ldr	r2, .L129
 933 0012 136F     		ldr	r3, [r2, #112]
 934 0014 43F00803 		orr	r3, r3, #8
 935 0018 1367     		str	r3, [r2, #112]
 936 001a 7047     		bx	lr
 937              	.L130:
 938              		.align	2
 939              	.L129:
 940 001c 00380240 		.word	1073887232
 942              		.section	.text.HAL_RCCEx_EnablePLLI2S,"ax",%progbits
 943              		.align	1
 944              		.global	HAL_RCCEx_EnablePLLI2S
 945              		.syntax unified
 946              		.thumb
 947              		.thumb_func
 949              	HAL_RCCEx_EnablePLLI2S:
 950              		@ args = 0, pretend = 0, frame = 0
 951              		@ frame_needed = 0, uses_anonymous_args = 0
 952 0000 38B5     		push	{r3, r4, r5, lr}
 953 0002 0546     		mov	r5, r0
 954 0004 1B4B     		ldr	r3, .L142
 955 0006 0022     		movs	r2, #0
 956 0008 9A66     		str	r2, [r3, #104]
 957 000a FFF7FEFF 		bl	HAL_GetTick
 958 000e 0446     		mov	r4, r0
 959              	.L132:
 960 0010 194B     		ldr	r3, .L142+4
 961 0012 1B68     		ldr	r3, [r3]
 962 0014 13F0006F 		tst	r3, #134217728
 963 0018 06D0     		beq	.L140
 964 001a FFF7FEFF 		bl	HAL_GetTick
 965 001e 001B     		subs	r0, r0, r4
 966 0020 0228     		cmp	r0, #2
 967 0022 F5D9     		bls	.L132
 968 0024 0320     		movs	r0, #3
 969              	.L133:
 970 0026 38BD     		pop	{r3, r4, r5, pc}
 971              	.L140:
 972 0028 2B68     		ldr	r3, [r5]
 973 002a 6A68     		ldr	r2, [r5, #4]
 974 002c 43EA8213 		orr	r3, r3, r2, lsl #6
 975 0030 AA68     		ldr	r2, [r5, #8]
 976 0032 5208     		lsrs	r2, r2, #1
 977 0034 013A     		subs	r2, r2, #1
 978 0036 43EA0243 		orr	r3, r3, r2, lsl #16
ARM GAS  C:\Users\Rick\AppData\Local\Temp\ccOCGcTc.s 			page 18


 979 003a EA68     		ldr	r2, [r5, #12]
 980 003c 43EA0263 		orr	r3, r3, r2, lsl #24
 981 0040 2A69     		ldr	r2, [r5, #16]
 982 0042 43EA0273 		orr	r3, r3, r2, lsl #28
 983 0046 0C4A     		ldr	r2, .L142+4
 984 0048 C2F88430 		str	r3, [r2, #132]
 985 004c 094B     		ldr	r3, .L142
 986 004e 0122     		movs	r2, #1
 987 0050 9A66     		str	r2, [r3, #104]
 988 0052 FFF7FEFF 		bl	HAL_GetTick
 989 0056 0446     		mov	r4, r0
 990              	.L135:
 991 0058 074B     		ldr	r3, .L142+4
 992 005a 1B68     		ldr	r3, [r3]
 993 005c 13F0006F 		tst	r3, #134217728
 994 0060 06D1     		bne	.L141
 995 0062 FFF7FEFF 		bl	HAL_GetTick
 996 0066 001B     		subs	r0, r0, r4
 997 0068 0228     		cmp	r0, #2
 998 006a F5D9     		bls	.L135
 999 006c 0320     		movs	r0, #3
 1000 006e DAE7     		b	.L133
 1001              	.L141:
 1002 0070 0020     		movs	r0, #0
 1003 0072 D8E7     		b	.L133
 1004              	.L143:
 1005              		.align	2
 1006              	.L142:
 1007 0074 00004742 		.word	1111949312
 1008 0078 00380240 		.word	1073887232
 1010              		.section	.text.HAL_RCCEx_DisablePLLI2S,"ax",%progbits
 1011              		.align	1
 1012              		.global	HAL_RCCEx_DisablePLLI2S
 1013              		.syntax unified
 1014              		.thumb
 1015              		.thumb_func
 1017              	HAL_RCCEx_DisablePLLI2S:
 1018              		@ args = 0, pretend = 0, frame = 0
 1019              		@ frame_needed = 0, uses_anonymous_args = 0
 1020 0000 10B5     		push	{r4, lr}
 1021 0002 0A4B     		ldr	r3, .L151
 1022 0004 0022     		movs	r2, #0
 1023 0006 9A66     		str	r2, [r3, #104]
 1024 0008 FFF7FEFF 		bl	HAL_GetTick
 1025 000c 0446     		mov	r4, r0
 1026              	.L145:
 1027 000e 084B     		ldr	r3, .L151+4
 1028 0010 1B68     		ldr	r3, [r3]
 1029 0012 13F0006F 		tst	r3, #134217728
 1030 0016 06D0     		beq	.L150
 1031 0018 FFF7FEFF 		bl	HAL_GetTick
 1032 001c 001B     		subs	r0, r0, r4
 1033 001e 0228     		cmp	r0, #2
 1034 0020 F5D9     		bls	.L145
 1035 0022 0320     		movs	r0, #3
 1036 0024 00E0     		b	.L146
 1037              	.L150:
ARM GAS  C:\Users\Rick\AppData\Local\Temp\ccOCGcTc.s 			page 19


 1038 0026 0020     		movs	r0, #0
 1039              	.L146:
 1040 0028 10BD     		pop	{r4, pc}
 1041              	.L152:
 1042 002a 00BF     		.align	2
 1043              	.L151:
 1044 002c 00004742 		.word	1111949312
 1045 0030 00380240 		.word	1073887232
 1047              		.section	.text.HAL_RCCEx_EnablePLLSAI,"ax",%progbits
 1048              		.align	1
 1049              		.global	HAL_RCCEx_EnablePLLSAI
 1050              		.syntax unified
 1051              		.thumb
 1052              		.thumb_func
 1054              	HAL_RCCEx_EnablePLLSAI:
 1055              		@ args = 0, pretend = 0, frame = 0
 1056              		@ frame_needed = 0, uses_anonymous_args = 0
 1057 0000 38B5     		push	{r3, r4, r5, lr}
 1058 0002 0546     		mov	r5, r0
 1059 0004 1A4B     		ldr	r3, .L164
 1060 0006 0022     		movs	r2, #0
 1061 0008 1A67     		str	r2, [r3, #112]
 1062 000a FFF7FEFF 		bl	HAL_GetTick
 1063 000e 0446     		mov	r4, r0
 1064              	.L154:
 1065 0010 184B     		ldr	r3, .L164+4
 1066 0012 1B68     		ldr	r3, [r3]
 1067 0014 13F0005F 		tst	r3, #536870912
 1068 0018 06D0     		beq	.L162
 1069 001a FFF7FEFF 		bl	HAL_GetTick
 1070 001e 001B     		subs	r0, r0, r4
 1071 0020 0228     		cmp	r0, #2
 1072 0022 F5D9     		bls	.L154
 1073 0024 0320     		movs	r0, #3
 1074              	.L155:
 1075 0026 38BD     		pop	{r3, r4, r5, pc}
 1076              	.L162:
 1077 0028 2B68     		ldr	r3, [r5]
 1078 002a 6A68     		ldr	r2, [r5, #4]
 1079 002c 43EA8213 		orr	r3, r3, r2, lsl #6
 1080 0030 AA68     		ldr	r2, [r5, #8]
 1081 0032 5208     		lsrs	r2, r2, #1
 1082 0034 013A     		subs	r2, r2, #1
 1083 0036 43EA0243 		orr	r3, r3, r2, lsl #16
 1084 003a EA68     		ldr	r2, [r5, #12]
 1085 003c 43EA0263 		orr	r3, r3, r2, lsl #24
 1086 0040 0C4A     		ldr	r2, .L164+4
 1087 0042 C2F88830 		str	r3, [r2, #136]
 1088 0046 0A4B     		ldr	r3, .L164
 1089 0048 0122     		movs	r2, #1
 1090 004a 1A67     		str	r2, [r3, #112]
 1091 004c FFF7FEFF 		bl	HAL_GetTick
 1092 0050 0446     		mov	r4, r0
 1093              	.L157:
 1094 0052 084B     		ldr	r3, .L164+4
 1095 0054 1B68     		ldr	r3, [r3]
 1096 0056 13F0005F 		tst	r3, #536870912
ARM GAS  C:\Users\Rick\AppData\Local\Temp\ccOCGcTc.s 			page 20


 1097 005a 06D1     		bne	.L163
 1098 005c FFF7FEFF 		bl	HAL_GetTick
 1099 0060 001B     		subs	r0, r0, r4
 1100 0062 0228     		cmp	r0, #2
 1101 0064 F5D9     		bls	.L157
 1102 0066 0320     		movs	r0, #3
 1103 0068 DDE7     		b	.L155
 1104              	.L163:
 1105 006a 0020     		movs	r0, #0
 1106 006c DBE7     		b	.L155
 1107              	.L165:
 1108 006e 00BF     		.align	2
 1109              	.L164:
 1110 0070 00004742 		.word	1111949312
 1111 0074 00380240 		.word	1073887232
 1113              		.section	.text.HAL_RCCEx_DisablePLLSAI,"ax",%progbits
 1114              		.align	1
 1115              		.global	HAL_RCCEx_DisablePLLSAI
 1116              		.syntax unified
 1117              		.thumb
 1118              		.thumb_func
 1120              	HAL_RCCEx_DisablePLLSAI:
 1121              		@ args = 0, pretend = 0, frame = 0
 1122              		@ frame_needed = 0, uses_anonymous_args = 0
 1123 0000 10B5     		push	{r4, lr}
 1124 0002 0A4B     		ldr	r3, .L173
 1125 0004 0022     		movs	r2, #0
 1126 0006 1A67     		str	r2, [r3, #112]
 1127 0008 FFF7FEFF 		bl	HAL_GetTick
 1128 000c 0446     		mov	r4, r0
 1129              	.L167:
 1130 000e 084B     		ldr	r3, .L173+4
 1131 0010 1B68     		ldr	r3, [r3]
 1132 0012 13F0005F 		tst	r3, #536870912
 1133 0016 06D0     		beq	.L172
 1134 0018 FFF7FEFF 		bl	HAL_GetTick
 1135 001c 001B     		subs	r0, r0, r4
 1136 001e 0228     		cmp	r0, #2
 1137 0020 F5D9     		bls	.L167
 1138 0022 0320     		movs	r0, #3
 1139 0024 00E0     		b	.L168
 1140              	.L172:
 1141 0026 0020     		movs	r0, #0
 1142              	.L168:
 1143 0028 10BD     		pop	{r4, pc}
 1144              	.L174:
 1145 002a 00BF     		.align	2
 1146              	.L173:
 1147 002c 00004742 		.word	1111949312
 1148 0030 00380240 		.word	1073887232
 1150              		.section	.text.HAL_RCC_GetSysClockFreq,"ax",%progbits
 1151              		.align	1
 1152              		.global	HAL_RCC_GetSysClockFreq
 1153              		.syntax unified
 1154              		.thumb
 1155              		.thumb_func
 1157              	HAL_RCC_GetSysClockFreq:
ARM GAS  C:\Users\Rick\AppData\Local\Temp\ccOCGcTc.s 			page 21


 1158              		@ args = 0, pretend = 0, frame = 0
 1159              		@ frame_needed = 0, uses_anonymous_args = 0
 1160 0000 08B5     		push	{r3, lr}
 1161 0002 5E4B     		ldr	r3, .L184
 1162 0004 9B68     		ldr	r3, [r3, #8]
 1163 0006 03F00C03 		and	r3, r3, #12
 1164 000a 082B     		cmp	r3, #8
 1165 000c 03D0     		beq	.L176
 1166 000e 0C2B     		cmp	r3, #12
 1167 0010 5BD0     		beq	.L177
 1168 0012 5B48     		ldr	r0, .L184+4
 1169 0014 33E0     		b	.L175
 1170              	.L176:
 1171 0016 594B     		ldr	r3, .L184
 1172 0018 5A68     		ldr	r2, [r3, #4]
 1173 001a 02F03F02 		and	r2, r2, #63
 1174 001e 5B68     		ldr	r3, [r3, #4]
 1175 0020 13F4800F 		tst	r3, #4194304
 1176 0024 2CD0     		beq	.L179
 1177 0026 554B     		ldr	r3, .L184
 1178 0028 5868     		ldr	r0, [r3, #4]
 1179 002a C0F38810 		ubfx	r0, r0, #6, #9
 1180 002e 4FEA401C 		lsl	ip, r0, #5
 1181 0032 BCEB000C 		subs	ip, ip, r0
 1182 0036 6EEB0E0E 		sbc	lr, lr, lr
 1183 003a 4FEA8E13 		lsl	r3, lr, #6
 1184 003e 43EA9C63 		orr	r3, r3, ip, lsr #26
 1185 0042 4FEA8C11 		lsl	r1, ip, #6
 1186 0046 B1EB0C01 		subs	r1, r1, ip
 1187 004a 63EB0E03 		sbc	r3, r3, lr
 1188 004e DB00     		lsls	r3, r3, #3
 1189 0050 43EA5173 		orr	r3, r3, r1, lsr #29
 1190 0054 C900     		lsls	r1, r1, #3
 1191 0056 11EB000C 		adds	ip, r1, r0
 1192 005a 43F10003 		adc	r3, r3, #0
 1193 005e 9902     		lsls	r1, r3, #10
 1194 0060 0023     		movs	r3, #0
 1195 0062 4FEA8C20 		lsl	r0, ip, #10
 1196 0066 41EA9C51 		orr	r1, r1, ip, lsr #22
 1197 006a FFF7FEFF 		bl	__aeabi_uldivmod
 1198              	.L180:
 1199 006e 434B     		ldr	r3, .L184
 1200 0070 5B68     		ldr	r3, [r3, #4]
 1201 0072 C3F30143 		ubfx	r3, r3, #16, #2
 1202 0076 0133     		adds	r3, r3, #1
 1203 0078 5B00     		lsls	r3, r3, #1
 1204 007a B0FBF3F0 		udiv	r0, r0, r3
 1205              	.L175:
 1206 007e 08BD     		pop	{r3, pc}
 1207              	.L179:
 1208 0080 3E4B     		ldr	r3, .L184
 1209 0082 5868     		ldr	r0, [r3, #4]
 1210 0084 C0F38810 		ubfx	r0, r0, #6, #9
 1211 0088 4FEA401C 		lsl	ip, r0, #5
 1212 008c BCEB000C 		subs	ip, ip, r0
 1213 0090 6EEB0E0E 		sbc	lr, lr, lr
 1214 0094 4FEA8E13 		lsl	r3, lr, #6
ARM GAS  C:\Users\Rick\AppData\Local\Temp\ccOCGcTc.s 			page 22


 1215 0098 43EA9C63 		orr	r3, r3, ip, lsr #26
 1216 009c 4FEA8C11 		lsl	r1, ip, #6
 1217 00a0 B1EB0C01 		subs	r1, r1, ip
 1218 00a4 63EB0E03 		sbc	r3, r3, lr
 1219 00a8 DB00     		lsls	r3, r3, #3
 1220 00aa 43EA5173 		orr	r3, r3, r1, lsr #29
 1221 00ae C900     		lsls	r1, r1, #3
 1222 00b0 11EB000C 		adds	ip, r1, r0
 1223 00b4 43F10003 		adc	r3, r3, #0
 1224 00b8 9902     		lsls	r1, r3, #10
 1225 00ba 0023     		movs	r3, #0
 1226 00bc 4FEA8C20 		lsl	r0, ip, #10
 1227 00c0 41EA9C51 		orr	r1, r1, ip, lsr #22
 1228 00c4 FFF7FEFF 		bl	__aeabi_uldivmod
 1229 00c8 D1E7     		b	.L180
 1230              	.L177:
 1231 00ca 2C4B     		ldr	r3, .L184
 1232 00cc 5A68     		ldr	r2, [r3, #4]
 1233 00ce 02F03F02 		and	r2, r2, #63
 1234 00d2 5B68     		ldr	r3, [r3, #4]
 1235 00d4 13F4800F 		tst	r3, #4194304
 1236 00d8 2AD0     		beq	.L181
 1237 00da 284B     		ldr	r3, .L184
 1238 00dc 5868     		ldr	r0, [r3, #4]
 1239 00de C0F38810 		ubfx	r0, r0, #6, #9
 1240 00e2 4FEA401C 		lsl	ip, r0, #5
 1241 00e6 BCEB000C 		subs	ip, ip, r0
 1242 00ea 6EEB0E0E 		sbc	lr, lr, lr
 1243 00ee 4FEA8E13 		lsl	r3, lr, #6
 1244 00f2 43EA9C63 		orr	r3, r3, ip, lsr #26
 1245 00f6 4FEA8C11 		lsl	r1, ip, #6
 1246 00fa B1EB0C01 		subs	r1, r1, ip
 1247 00fe 63EB0E03 		sbc	r3, r3, lr
 1248 0102 DB00     		lsls	r3, r3, #3
 1249 0104 43EA5173 		orr	r3, r3, r1, lsr #29
 1250 0108 C900     		lsls	r1, r1, #3
 1251 010a 11EB000C 		adds	ip, r1, r0
 1252 010e 43F10003 		adc	r3, r3, #0
 1253 0112 9902     		lsls	r1, r3, #10
 1254 0114 0023     		movs	r3, #0
 1255 0116 4FEA8C20 		lsl	r0, ip, #10
 1256 011a 41EA9C51 		orr	r1, r1, ip, lsr #22
 1257 011e FFF7FEFF 		bl	__aeabi_uldivmod
 1258              	.L182:
 1259 0122 164B     		ldr	r3, .L184
 1260 0124 5B68     		ldr	r3, [r3, #4]
 1261 0126 C3F30273 		ubfx	r3, r3, #28, #3
 1262 012a B0FBF3F0 		udiv	r0, r0, r3
 1263 012e A6E7     		b	.L175
 1264              	.L181:
 1265 0130 124B     		ldr	r3, .L184
 1266 0132 5868     		ldr	r0, [r3, #4]
 1267 0134 C0F38810 		ubfx	r0, r0, #6, #9
 1268 0138 4FEA401C 		lsl	ip, r0, #5
 1269 013c BCEB000C 		subs	ip, ip, r0
 1270 0140 6EEB0E0E 		sbc	lr, lr, lr
 1271 0144 4FEA8E13 		lsl	r3, lr, #6
ARM GAS  C:\Users\Rick\AppData\Local\Temp\ccOCGcTc.s 			page 23


 1272 0148 43EA9C63 		orr	r3, r3, ip, lsr #26
 1273 014c 4FEA8C11 		lsl	r1, ip, #6
 1274 0150 B1EB0C01 		subs	r1, r1, ip
 1275 0154 63EB0E03 		sbc	r3, r3, lr
 1276 0158 DB00     		lsls	r3, r3, #3
 1277 015a 43EA5173 		orr	r3, r3, r1, lsr #29
 1278 015e C900     		lsls	r1, r1, #3
 1279 0160 11EB000C 		adds	ip, r1, r0
 1280 0164 43F10003 		adc	r3, r3, #0
 1281 0168 9902     		lsls	r1, r3, #10
 1282 016a 0023     		movs	r3, #0
 1283 016c 4FEA8C20 		lsl	r0, ip, #10
 1284 0170 41EA9C51 		orr	r1, r1, ip, lsr #22
 1285 0174 FFF7FEFF 		bl	__aeabi_uldivmod
 1286 0178 D3E7     		b	.L182
 1287              	.L185:
 1288 017a 00BF     		.align	2
 1289              	.L184:
 1290 017c 00380240 		.word	1073887232
 1291 0180 0024F400 		.word	16000000
 1293              		.section	.text.HAL_RCC_DeInit,"ax",%progbits
 1294              		.align	1
 1295              		.global	HAL_RCC_DeInit
 1296              		.syntax unified
 1297              		.thumb
 1298              		.thumb_func
 1300              	HAL_RCC_DeInit:
 1301              		@ args = 0, pretend = 0, frame = 0
 1302              		@ frame_needed = 0, uses_anonymous_args = 0
 1303 0000 38B5     		push	{r3, r4, r5, lr}
 1304 0002 FFF7FEFF 		bl	HAL_GetTick
 1305 0006 0446     		mov	r4, r0
 1306 0008 564A     		ldr	r2, .L213
 1307 000a 1368     		ldr	r3, [r2]
 1308 000c 43F00103 		orr	r3, r3, #1
 1309 0010 1360     		str	r3, [r2]
 1310              	.L187:
 1311 0012 544B     		ldr	r3, .L213
 1312 0014 1B68     		ldr	r3, [r3]
 1313 0016 13F0020F 		tst	r3, #2
 1314 001a 06D1     		bne	.L207
 1315 001c FFF7FEFF 		bl	HAL_GetTick
 1316 0020 001B     		subs	r0, r0, r4
 1317 0022 0228     		cmp	r0, #2
 1318 0024 F5D9     		bls	.L187
 1319 0026 0320     		movs	r0, #3
 1320              	.L188:
 1321 0028 38BD     		pop	{r3, r4, r5, pc}
 1322              	.L207:
 1323 002a 4E4D     		ldr	r5, .L213
 1324 002c 2B68     		ldr	r3, [r5]
 1325 002e 43F08003 		orr	r3, r3, #128
 1326 0032 2B60     		str	r3, [r5]
 1327 0034 FFF7FEFF 		bl	HAL_GetTick
 1328 0038 0446     		mov	r4, r0
 1329 003a 0023     		movs	r3, #0
 1330 003c AB60     		str	r3, [r5, #8]
ARM GAS  C:\Users\Rick\AppData\Local\Temp\ccOCGcTc.s 			page 24


 1331              	.L190:
 1332 003e 494B     		ldr	r3, .L213
 1333 0040 9B68     		ldr	r3, [r3, #8]
 1334 0042 13F00C0F 		tst	r3, #12
 1335 0046 08D0     		beq	.L208
 1336 0048 FFF7FEFF 		bl	HAL_GetTick
 1337 004c 001B     		subs	r0, r0, r4
 1338 004e 41F28833 		movw	r3, #5000
 1339 0052 9842     		cmp	r0, r3
 1340 0054 F3D9     		bls	.L190
 1341 0056 0320     		movs	r0, #3
 1342 0058 E6E7     		b	.L188
 1343              	.L208:
 1344 005a FFF7FEFF 		bl	HAL_GetTick
 1345 005e 0446     		mov	r4, r0
 1346 0060 404A     		ldr	r2, .L213
 1347 0062 1368     		ldr	r3, [r2]
 1348 0064 23F45023 		bic	r3, r3, #851968
 1349 0068 1360     		str	r3, [r2]
 1350              	.L192:
 1351 006a 3E4B     		ldr	r3, .L213
 1352 006c 1B68     		ldr	r3, [r3]
 1353 006e 13F4003F 		tst	r3, #131072
 1354 0072 06D0     		beq	.L209
 1355 0074 FFF7FEFF 		bl	HAL_GetTick
 1356 0078 001B     		subs	r0, r0, r4
 1357 007a 6428     		cmp	r0, #100
 1358 007c F5D9     		bls	.L192
 1359 007e 0320     		movs	r0, #3
 1360 0080 D2E7     		b	.L188
 1361              	.L209:
 1362 0082 FFF7FEFF 		bl	HAL_GetTick
 1363 0086 0446     		mov	r4, r0
 1364 0088 364A     		ldr	r2, .L213
 1365 008a 1368     		ldr	r3, [r2]
 1366 008c 23F08073 		bic	r3, r3, #16777216
 1367 0090 1360     		str	r3, [r2]
 1368              	.L194:
 1369 0092 344B     		ldr	r3, .L213
 1370 0094 1B68     		ldr	r3, [r3]
 1371 0096 13F0007F 		tst	r3, #33554432
 1372 009a 06D0     		beq	.L210
 1373 009c FFF7FEFF 		bl	HAL_GetTick
 1374 00a0 001B     		subs	r0, r0, r4
 1375 00a2 0228     		cmp	r0, #2
 1376 00a4 F5D9     		bls	.L194
 1377 00a6 0320     		movs	r0, #3
 1378 00a8 BEE7     		b	.L188
 1379              	.L210:
 1380 00aa FFF7FEFF 		bl	HAL_GetTick
 1381 00ae 0446     		mov	r4, r0
 1382 00b0 2C4A     		ldr	r2, .L213
 1383 00b2 1368     		ldr	r3, [r2]
 1384 00b4 23F08063 		bic	r3, r3, #67108864
 1385 00b8 1360     		str	r3, [r2]
 1386              	.L196:
 1387 00ba 2A4B     		ldr	r3, .L213
ARM GAS  C:\Users\Rick\AppData\Local\Temp\ccOCGcTc.s 			page 25


 1388 00bc 1B68     		ldr	r3, [r3]
 1389 00be 13F0006F 		tst	r3, #134217728
 1390 00c2 06D0     		beq	.L211
 1391 00c4 FFF7FEFF 		bl	HAL_GetTick
 1392 00c8 001B     		subs	r0, r0, r4
 1393 00ca 0228     		cmp	r0, #2
 1394 00cc F5D9     		bls	.L196
 1395 00ce 0320     		movs	r0, #3
 1396 00d0 AAE7     		b	.L188
 1397              	.L211:
 1398 00d2 FFF7FEFF 		bl	HAL_GetTick
 1399 00d6 0446     		mov	r4, r0
 1400 00d8 224A     		ldr	r2, .L213
 1401 00da 1368     		ldr	r3, [r2]
 1402 00dc 23F08053 		bic	r3, r3, #268435456
 1403 00e0 1360     		str	r3, [r2]
 1404              	.L198:
 1405 00e2 204B     		ldr	r3, .L213
 1406 00e4 1B68     		ldr	r3, [r3]
 1407 00e6 13F0005F 		tst	r3, #536870912
 1408 00ea 06D0     		beq	.L212
 1409 00ec FFF7FEFF 		bl	HAL_GetTick
 1410 00f0 001B     		subs	r0, r0, r4
 1411 00f2 0228     		cmp	r0, #2
 1412 00f4 F5D9     		bls	.L198
 1413 00f6 0320     		movs	r0, #3
 1414 00f8 96E7     		b	.L188
 1415              	.L212:
 1416 00fa 1A4B     		ldr	r3, .L213
 1417 00fc 1A4A     		ldr	r2, .L213+4
 1418 00fe 5A60     		str	r2, [r3, #4]
 1419 0100 C3F88420 		str	r2, [r3, #132]
 1420 0104 02F16042 		add	r2, r2, #-536870912
 1421 0108 C3F88820 		str	r2, [r3, #136]
 1422 010c DA68     		ldr	r2, [r3, #12]
 1423 010e 22F4F852 		bic	r2, r2, #7936
 1424 0112 DA60     		str	r2, [r3, #12]
 1425 0114 DA68     		ldr	r2, [r3, #12]
 1426 0116 22F40052 		bic	r2, r2, #8192
 1427 011a DA60     		str	r2, [r3, #12]
 1428 011c DA68     		ldr	r2, [r3, #12]
 1429 011e 22F48042 		bic	r2, r2, #16384
 1430 0122 DA60     		str	r2, [r3, #12]
 1431 0124 DA68     		ldr	r2, [r3, #12]
 1432 0126 42F41F02 		orr	r2, r2, #10420224
 1433 012a DA60     		str	r2, [r3, #12]
 1434 012c DA68     		ldr	r2, [r3, #12]
 1435 012e 42F40012 		orr	r2, r2, #2097152
 1436 0132 DA60     		str	r2, [r3, #12]
 1437 0134 DA68     		ldr	r2, [r3, #12]
 1438 0136 42F48002 		orr	r2, r2, #4194304
 1439 013a DA60     		str	r2, [r3, #12]
 1440 013c 5A6F     		ldr	r2, [r3, #116]
 1441 013e 22F00102 		bic	r2, r2, #1
 1442 0142 5A67     		str	r2, [r3, #116]
 1443 0144 5A6F     		ldr	r2, [r3, #116]
 1444 0146 42F08072 		orr	r2, r2, #16777216
ARM GAS  C:\Users\Rick\AppData\Local\Temp\ccOCGcTc.s 			page 26


 1445 014a 5A67     		str	r2, [r3, #116]
 1446 014c 074B     		ldr	r3, .L213+8
 1447 014e 084A     		ldr	r2, .L213+12
 1448 0150 1A60     		str	r2, [r3]
 1449 0152 084B     		ldr	r3, .L213+16
 1450 0154 1868     		ldr	r0, [r3]
 1451 0156 FFF7FEFF 		bl	HAL_InitTick
 1452 015a 0028     		cmp	r0, #0
 1453 015c 3FF464AF 		beq	.L188
 1454 0160 0120     		movs	r0, #1
 1455 0162 61E7     		b	.L188
 1456              	.L214:
 1457              		.align	2
 1458              	.L213:
 1459 0164 00380240 		.word	1073887232
 1460 0168 10300024 		.word	603992080
 1461 016c 00000000 		.word	SystemCoreClock
 1462 0170 0024F400 		.word	16000000
 1463 0174 00000000 		.word	uwTickPrio
 1465              		.section	.text.HAL_RCC_OscConfig,"ax",%progbits
 1466              		.align	1
 1467              		.global	HAL_RCC_OscConfig
 1468              		.syntax unified
 1469              		.thumb
 1470              		.thumb_func
 1472              	HAL_RCC_OscConfig:
 1473              		@ args = 0, pretend = 0, frame = 8
 1474              		@ frame_needed = 0, uses_anonymous_args = 0
 1475 0000 0028     		cmp	r0, #0
 1476 0002 00F00182 		beq	.L267
 1477 0006 70B5     		push	{r4, r5, r6, lr}
 1478 0008 82B0     		sub	sp, sp, #8
 1479 000a 0446     		mov	r4, r0
 1480 000c 0368     		ldr	r3, [r0]
 1481 000e 13F0010F 		tst	r3, #1
 1482 0012 41D0     		beq	.L217
 1483 0014 994B     		ldr	r3, .L311
 1484 0016 9B68     		ldr	r3, [r3, #8]
 1485 0018 03F00C03 		and	r3, r3, #12
 1486 001c 042B     		cmp	r3, #4
 1487 001e 32D0     		beq	.L218
 1488 0020 964B     		ldr	r3, .L311
 1489 0022 9B68     		ldr	r3, [r3, #8]
 1490 0024 03F00C03 		and	r3, r3, #12
 1491 0028 082B     		cmp	r3, #8
 1492 002a 27D0     		beq	.L295
 1493              	.L219:
 1494 002c 934B     		ldr	r3, .L311
 1495 002e 9B68     		ldr	r3, [r3, #8]
 1496 0030 03F00C03 		and	r3, r3, #12
 1497 0034 0C2B     		cmp	r3, #12
 1498 0036 59D0     		beq	.L296
 1499              	.L220:
 1500 0038 6368     		ldr	r3, [r4, #4]
 1501 003a B3F5803F 		cmp	r3, #65536
 1502 003e 5BD0     		beq	.L297
 1503 0040 B3F5A02F 		cmp	r3, #327680
ARM GAS  C:\Users\Rick\AppData\Local\Temp\ccOCGcTc.s 			page 27


 1504 0044 5ED0     		beq	.L298
 1505 0046 8D4B     		ldr	r3, .L311
 1506 0048 1A68     		ldr	r2, [r3]
 1507 004a 22F48032 		bic	r2, r2, #65536
 1508 004e 1A60     		str	r2, [r3]
 1509 0050 1A68     		ldr	r2, [r3]
 1510 0052 22F48022 		bic	r2, r2, #262144
 1511 0056 1A60     		str	r2, [r3]
 1512              	.L222:
 1513 0058 6368     		ldr	r3, [r4, #4]
 1514 005a 002B     		cmp	r3, #0
 1515 005c 5CD0     		beq	.L224
 1516 005e FFF7FEFF 		bl	HAL_GetTick
 1517 0062 0546     		mov	r5, r0
 1518              	.L225:
 1519 0064 854B     		ldr	r3, .L311
 1520 0066 1B68     		ldr	r3, [r3]
 1521 0068 13F4003F 		tst	r3, #131072
 1522 006c 14D1     		bne	.L217
 1523 006e FFF7FEFF 		bl	HAL_GetTick
 1524 0072 401B     		subs	r0, r0, r5
 1525 0074 6428     		cmp	r0, #100
 1526 0076 F5D9     		bls	.L225
 1527 0078 0320     		movs	r0, #3
 1528 007a CCE1     		b	.L216
 1529              	.L295:
 1530 007c 7F4B     		ldr	r3, .L311
 1531 007e 5B68     		ldr	r3, [r3, #4]
 1532 0080 13F4800F 		tst	r3, #4194304
 1533 0084 D2D0     		beq	.L219
 1534              	.L218:
 1535 0086 7D4B     		ldr	r3, .L311
 1536 0088 1B68     		ldr	r3, [r3]
 1537 008a 13F4003F 		tst	r3, #131072
 1538 008e 03D0     		beq	.L217
 1539 0090 6368     		ldr	r3, [r4, #4]
 1540 0092 002B     		cmp	r3, #0
 1541 0094 00F0BA81 		beq	.L299
 1542              	.L217:
 1543 0098 2368     		ldr	r3, [r4]
 1544 009a 13F0020F 		tst	r3, #2
 1545 009e 60D0     		beq	.L229
 1546 00a0 764B     		ldr	r3, .L311
 1547 00a2 9B68     		ldr	r3, [r3, #8]
 1548 00a4 13F00C0F 		tst	r3, #12
 1549 00a8 4AD0     		beq	.L230
 1550 00aa 744B     		ldr	r3, .L311
 1551 00ac 9B68     		ldr	r3, [r3, #8]
 1552 00ae 03F00C03 		and	r3, r3, #12
 1553 00b2 082B     		cmp	r3, #8
 1554 00b4 3FD0     		beq	.L300
 1555              	.L231:
 1556 00b6 714B     		ldr	r3, .L311
 1557 00b8 9B68     		ldr	r3, [r3, #8]
 1558 00ba 03F00C03 		and	r3, r3, #12
 1559 00be 0C2B     		cmp	r3, #12
 1560 00c0 69D0     		beq	.L301
ARM GAS  C:\Users\Rick\AppData\Local\Temp\ccOCGcTc.s 			page 28


 1561              	.L232:
 1562 00c2 E368     		ldr	r3, [r4, #12]
 1563 00c4 002B     		cmp	r3, #0
 1564 00c6 75D0     		beq	.L234
 1565 00c8 6D4B     		ldr	r3, .L311+4
 1566 00ca 0122     		movs	r2, #1
 1567 00cc 1A60     		str	r2, [r3]
 1568 00ce FFF7FEFF 		bl	HAL_GetTick
 1569 00d2 0546     		mov	r5, r0
 1570              	.L235:
 1571 00d4 694B     		ldr	r3, .L311
 1572 00d6 1B68     		ldr	r3, [r3]
 1573 00d8 13F0020F 		tst	r3, #2
 1574 00dc 61D1     		bne	.L302
 1575 00de FFF7FEFF 		bl	HAL_GetTick
 1576 00e2 401B     		subs	r0, r0, r5
 1577 00e4 0228     		cmp	r0, #2
 1578 00e6 F5D9     		bls	.L235
 1579 00e8 0320     		movs	r0, #3
 1580 00ea 94E1     		b	.L216
 1581              	.L296:
 1582 00ec 634B     		ldr	r3, .L311
 1583 00ee 5B68     		ldr	r3, [r3, #4]
 1584 00f0 13F4800F 		tst	r3, #4194304
 1585 00f4 A0D0     		beq	.L220
 1586 00f6 C6E7     		b	.L218
 1587              	.L297:
 1588 00f8 604A     		ldr	r2, .L311
 1589 00fa 1368     		ldr	r3, [r2]
 1590 00fc 43F48033 		orr	r3, r3, #65536
 1591 0100 1360     		str	r3, [r2]
 1592 0102 A9E7     		b	.L222
 1593              	.L298:
 1594 0104 5D4B     		ldr	r3, .L311
 1595 0106 1A68     		ldr	r2, [r3]
 1596 0108 42F48022 		orr	r2, r2, #262144
 1597 010c 1A60     		str	r2, [r3]
 1598 010e 1A68     		ldr	r2, [r3]
 1599 0110 42F48032 		orr	r2, r2, #65536
 1600 0114 1A60     		str	r2, [r3]
 1601 0116 9FE7     		b	.L222
 1602              	.L224:
 1603 0118 FFF7FEFF 		bl	HAL_GetTick
 1604 011c 0546     		mov	r5, r0
 1605              	.L227:
 1606 011e 574B     		ldr	r3, .L311
 1607 0120 1B68     		ldr	r3, [r3]
 1608 0122 13F4003F 		tst	r3, #131072
 1609 0126 B7D0     		beq	.L217
 1610 0128 FFF7FEFF 		bl	HAL_GetTick
 1611 012c 401B     		subs	r0, r0, r5
 1612 012e 6428     		cmp	r0, #100
 1613 0130 F5D9     		bls	.L227
 1614 0132 0320     		movs	r0, #3
 1615 0134 6FE1     		b	.L216
 1616              	.L300:
 1617 0136 514B     		ldr	r3, .L311
ARM GAS  C:\Users\Rick\AppData\Local\Temp\ccOCGcTc.s 			page 29


 1618 0138 5B68     		ldr	r3, [r3, #4]
 1619 013a 13F4800F 		tst	r3, #4194304
 1620 013e BAD1     		bne	.L231
 1621              	.L230:
 1622 0140 4E4B     		ldr	r3, .L311
 1623 0142 1B68     		ldr	r3, [r3]
 1624 0144 13F0020F 		tst	r3, #2
 1625 0148 03D0     		beq	.L233
 1626 014a E368     		ldr	r3, [r4, #12]
 1627 014c 012B     		cmp	r3, #1
 1628 014e 40F05F81 		bne	.L271
 1629              	.L233:
 1630 0152 4A4A     		ldr	r2, .L311
 1631 0154 1368     		ldr	r3, [r2]
 1632 0156 23F0F803 		bic	r3, r3, #248
 1633 015a 2169     		ldr	r1, [r4, #16]
 1634 015c 43EAC103 		orr	r3, r3, r1, lsl #3
 1635 0160 1360     		str	r3, [r2]
 1636              	.L229:
 1637 0162 2368     		ldr	r3, [r4]
 1638 0164 13F0080F 		tst	r3, #8
 1639 0168 49D0     		beq	.L239
 1640 016a 6369     		ldr	r3, [r4, #20]
 1641 016c 002B     		cmp	r3, #0
 1642 016e 33D0     		beq	.L240
 1643 0170 434B     		ldr	r3, .L311+4
 1644 0172 0122     		movs	r2, #1
 1645 0174 C3F8802E 		str	r2, [r3, #3712]
 1646 0178 FFF7FEFF 		bl	HAL_GetTick
 1647 017c 0546     		mov	r5, r0
 1648              	.L241:
 1649 017e 3F4B     		ldr	r3, .L311
 1650 0180 5B6F     		ldr	r3, [r3, #116]
 1651 0182 13F0020F 		tst	r3, #2
 1652 0186 3AD1     		bne	.L239
 1653 0188 FFF7FEFF 		bl	HAL_GetTick
 1654 018c 401B     		subs	r0, r0, r5
 1655 018e 0228     		cmp	r0, #2
 1656 0190 F5D9     		bls	.L241
 1657 0192 0320     		movs	r0, #3
 1658 0194 3FE1     		b	.L216
 1659              	.L301:
 1660 0196 394B     		ldr	r3, .L311
 1661 0198 5B68     		ldr	r3, [r3, #4]
 1662 019a 13F4800F 		tst	r3, #4194304
 1663 019e 90D1     		bne	.L232
 1664 01a0 CEE7     		b	.L230
 1665              	.L302:
 1666 01a2 364A     		ldr	r2, .L311
 1667 01a4 1368     		ldr	r3, [r2]
 1668 01a6 23F0F803 		bic	r3, r3, #248
 1669 01aa 2169     		ldr	r1, [r4, #16]
 1670 01ac 43EAC103 		orr	r3, r3, r1, lsl #3
 1671 01b0 1360     		str	r3, [r2]
 1672 01b2 D6E7     		b	.L229
 1673              	.L234:
 1674 01b4 324B     		ldr	r3, .L311+4
ARM GAS  C:\Users\Rick\AppData\Local\Temp\ccOCGcTc.s 			page 30


 1675 01b6 0022     		movs	r2, #0
 1676 01b8 1A60     		str	r2, [r3]
 1677 01ba FFF7FEFF 		bl	HAL_GetTick
 1678 01be 0546     		mov	r5, r0
 1679              	.L237:
 1680 01c0 2E4B     		ldr	r3, .L311
 1681 01c2 1B68     		ldr	r3, [r3]
 1682 01c4 13F0020F 		tst	r3, #2
 1683 01c8 CBD0     		beq	.L229
 1684 01ca FFF7FEFF 		bl	HAL_GetTick
 1685 01ce 401B     		subs	r0, r0, r5
 1686 01d0 0228     		cmp	r0, #2
 1687 01d2 F5D9     		bls	.L237
 1688 01d4 0320     		movs	r0, #3
 1689 01d6 1EE1     		b	.L216
 1690              	.L240:
 1691 01d8 294B     		ldr	r3, .L311+4
 1692 01da 0022     		movs	r2, #0
 1693 01dc C3F8802E 		str	r2, [r3, #3712]
 1694 01e0 FFF7FEFF 		bl	HAL_GetTick
 1695 01e4 0546     		mov	r5, r0
 1696              	.L243:
 1697 01e6 254B     		ldr	r3, .L311
 1698 01e8 5B6F     		ldr	r3, [r3, #116]
 1699 01ea 13F0020F 		tst	r3, #2
 1700 01ee 06D0     		beq	.L239
 1701 01f0 FFF7FEFF 		bl	HAL_GetTick
 1702 01f4 401B     		subs	r0, r0, r5
 1703 01f6 0228     		cmp	r0, #2
 1704 01f8 F5D9     		bls	.L243
 1705 01fa 0320     		movs	r0, #3
 1706 01fc 0BE1     		b	.L216
 1707              	.L239:
 1708 01fe 2368     		ldr	r3, [r4]
 1709 0200 13F0040F 		tst	r3, #4
 1710 0204 76D0     		beq	.L245
 1711 0206 1D4B     		ldr	r3, .L311
 1712 0208 1B6C     		ldr	r3, [r3, #64]
 1713 020a 13F0805F 		tst	r3, #268435456
 1714 020e 33D1     		bne	.L276
 1715 0210 0023     		movs	r3, #0
 1716 0212 0193     		str	r3, [sp, #4]
 1717 0214 194B     		ldr	r3, .L311
 1718 0216 1A6C     		ldr	r2, [r3, #64]
 1719 0218 42F08052 		orr	r2, r2, #268435456
 1720 021c 1A64     		str	r2, [r3, #64]
 1721 021e 1B6C     		ldr	r3, [r3, #64]
 1722 0220 03F08053 		and	r3, r3, #268435456
 1723 0224 0193     		str	r3, [sp, #4]
 1724 0226 019B     		ldr	r3, [sp, #4]
 1725 0228 0125     		movs	r5, #1
 1726              	.L246:
 1727 022a 164B     		ldr	r3, .L311+8
 1728 022c 1B68     		ldr	r3, [r3]
 1729 022e 13F4807F 		tst	r3, #256
 1730 0232 29D0     		beq	.L303
 1731              	.L247:
ARM GAS  C:\Users\Rick\AppData\Local\Temp\ccOCGcTc.s 			page 31


 1732 0234 A368     		ldr	r3, [r4, #8]
 1733 0236 012B     		cmp	r3, #1
 1734 0238 3AD0     		beq	.L304
 1735 023a 052B     		cmp	r3, #5
 1736 023c 3ED0     		beq	.L305
 1737 023e 0F4B     		ldr	r3, .L311
 1738 0240 1A6F     		ldr	r2, [r3, #112]
 1739 0242 22F00102 		bic	r2, r2, #1
 1740 0246 1A67     		str	r2, [r3, #112]
 1741 0248 1A6F     		ldr	r2, [r3, #112]
 1742 024a 22F00402 		bic	r2, r2, #4
 1743 024e 1A67     		str	r2, [r3, #112]
 1744              	.L251:
 1745 0250 A368     		ldr	r3, [r4, #8]
 1746 0252 002B     		cmp	r3, #0
 1747 0254 3CD0     		beq	.L253
 1748 0256 FFF7FEFF 		bl	HAL_GetTick
 1749 025a 0646     		mov	r6, r0
 1750              	.L254:
 1751 025c 074B     		ldr	r3, .L311
 1752 025e 1B6F     		ldr	r3, [r3, #112]
 1753 0260 13F0020F 		tst	r3, #2
 1754 0264 45D1     		bne	.L256
 1755 0266 FFF7FEFF 		bl	HAL_GetTick
 1756 026a 801B     		subs	r0, r0, r6
 1757 026c 41F28833 		movw	r3, #5000
 1758 0270 9842     		cmp	r0, r3
 1759 0272 F3D9     		bls	.L254
 1760 0274 0320     		movs	r0, #3
 1761 0276 CEE0     		b	.L216
 1762              	.L276:
 1763 0278 0025     		movs	r5, #0
 1764 027a D6E7     		b	.L246
 1765              	.L312:
 1766              		.align	2
 1767              	.L311:
 1768 027c 00380240 		.word	1073887232
 1769 0280 00004742 		.word	1111949312
 1770 0284 00700040 		.word	1073770496
 1771              	.L303:
 1772 0288 6B4A     		ldr	r2, .L313
 1773 028a 1368     		ldr	r3, [r2]
 1774 028c 43F48073 		orr	r3, r3, #256
 1775 0290 1360     		str	r3, [r2]
 1776 0292 FFF7FEFF 		bl	HAL_GetTick
 1777 0296 0646     		mov	r6, r0
 1778              	.L248:
 1779 0298 674B     		ldr	r3, .L313
 1780 029a 1B68     		ldr	r3, [r3]
 1781 029c 13F4807F 		tst	r3, #256
 1782 02a0 C8D1     		bne	.L247
 1783 02a2 FFF7FEFF 		bl	HAL_GetTick
 1784 02a6 801B     		subs	r0, r0, r6
 1785 02a8 0228     		cmp	r0, #2
 1786 02aa F5D9     		bls	.L248
 1787 02ac 0320     		movs	r0, #3
 1788 02ae B2E0     		b	.L216
ARM GAS  C:\Users\Rick\AppData\Local\Temp\ccOCGcTc.s 			page 32


 1789              	.L304:
 1790 02b0 624A     		ldr	r2, .L313+4
 1791 02b2 136F     		ldr	r3, [r2, #112]
 1792 02b4 43F00103 		orr	r3, r3, #1
 1793 02b8 1367     		str	r3, [r2, #112]
 1794 02ba C9E7     		b	.L251
 1795              	.L305:
 1796 02bc 5F4B     		ldr	r3, .L313+4
 1797 02be 1A6F     		ldr	r2, [r3, #112]
 1798 02c0 42F00402 		orr	r2, r2, #4
 1799 02c4 1A67     		str	r2, [r3, #112]
 1800 02c6 1A6F     		ldr	r2, [r3, #112]
 1801 02c8 42F00102 		orr	r2, r2, #1
 1802 02cc 1A67     		str	r2, [r3, #112]
 1803 02ce BFE7     		b	.L251
 1804              	.L253:
 1805 02d0 FFF7FEFF 		bl	HAL_GetTick
 1806 02d4 0646     		mov	r6, r0
 1807              	.L257:
 1808 02d6 594B     		ldr	r3, .L313+4
 1809 02d8 1B6F     		ldr	r3, [r3, #112]
 1810 02da 13F0020F 		tst	r3, #2
 1811 02de 08D0     		beq	.L256
 1812 02e0 FFF7FEFF 		bl	HAL_GetTick
 1813 02e4 801B     		subs	r0, r0, r6
 1814 02e6 41F28833 		movw	r3, #5000
 1815 02ea 9842     		cmp	r0, r3
 1816 02ec F3D9     		bls	.L257
 1817 02ee 0320     		movs	r0, #3
 1818 02f0 91E0     		b	.L216
 1819              	.L256:
 1820 02f2 EDB9     		cbnz	r5, .L306
 1821              	.L245:
 1822 02f4 A369     		ldr	r3, [r4, #24]
 1823 02f6 002B     		cmp	r3, #0
 1824 02f8 00F08C80 		beq	.L280
 1825 02fc 4F4A     		ldr	r2, .L313+4
 1826 02fe 9268     		ldr	r2, [r2, #8]
 1827 0300 02F00C02 		and	r2, r2, #12
 1828 0304 082A     		cmp	r2, #8
 1829 0306 54D0     		beq	.L259
 1830 0308 022B     		cmp	r3, #2
 1831 030a 17D0     		beq	.L307
 1832 030c 4C4B     		ldr	r3, .L313+8
 1833 030e 0022     		movs	r2, #0
 1834 0310 1A66     		str	r2, [r3, #96]
 1835 0312 FFF7FEFF 		bl	HAL_GetTick
 1836 0316 0446     		mov	r4, r0
 1837              	.L265:
 1838 0318 484B     		ldr	r3, .L313+4
 1839 031a 1B68     		ldr	r3, [r3]
 1840 031c 13F0007F 		tst	r3, #33554432
 1841 0320 45D0     		beq	.L308
 1842 0322 FFF7FEFF 		bl	HAL_GetTick
 1843 0326 001B     		subs	r0, r0, r4
 1844 0328 0228     		cmp	r0, #2
 1845 032a F5D9     		bls	.L265
ARM GAS  C:\Users\Rick\AppData\Local\Temp\ccOCGcTc.s 			page 33


 1846 032c 0320     		movs	r0, #3
 1847 032e 72E0     		b	.L216
 1848              	.L306:
 1849 0330 424A     		ldr	r2, .L313+4
 1850 0332 136C     		ldr	r3, [r2, #64]
 1851 0334 23F08053 		bic	r3, r3, #268435456
 1852 0338 1364     		str	r3, [r2, #64]
 1853 033a DBE7     		b	.L245
 1854              	.L307:
 1855 033c 404B     		ldr	r3, .L313+8
 1856 033e 0022     		movs	r2, #0
 1857 0340 1A66     		str	r2, [r3, #96]
 1858 0342 FFF7FEFF 		bl	HAL_GetTick
 1859 0346 0546     		mov	r5, r0
 1860              	.L261:
 1861 0348 3C4B     		ldr	r3, .L313+4
 1862 034a 1B68     		ldr	r3, [r3]
 1863 034c 13F0007F 		tst	r3, #33554432
 1864 0350 06D0     		beq	.L309
 1865 0352 FFF7FEFF 		bl	HAL_GetTick
 1866 0356 401B     		subs	r0, r0, r5
 1867 0358 0228     		cmp	r0, #2
 1868 035a F5D9     		bls	.L261
 1869 035c 0320     		movs	r0, #3
 1870 035e 5AE0     		b	.L216
 1871              	.L309:
 1872 0360 E369     		ldr	r3, [r4, #28]
 1873 0362 226A     		ldr	r2, [r4, #32]
 1874 0364 1343     		orrs	r3, r3, r2
 1875 0366 626A     		ldr	r2, [r4, #36]
 1876 0368 43EA8213 		orr	r3, r3, r2, lsl #6
 1877 036c A26A     		ldr	r2, [r4, #40]
 1878 036e 5208     		lsrs	r2, r2, #1
 1879 0370 013A     		subs	r2, r2, #1
 1880 0372 43EA0243 		orr	r3, r3, r2, lsl #16
 1881 0376 E26A     		ldr	r2, [r4, #44]
 1882 0378 43EA0263 		orr	r3, r3, r2, lsl #24
 1883 037c 226B     		ldr	r2, [r4, #48]
 1884 037e 43EA0273 		orr	r3, r3, r2, lsl #28
 1885 0382 2E4A     		ldr	r2, .L313+4
 1886 0384 5360     		str	r3, [r2, #4]
 1887 0386 2E4B     		ldr	r3, .L313+8
 1888 0388 0122     		movs	r2, #1
 1889 038a 1A66     		str	r2, [r3, #96]
 1890 038c FFF7FEFF 		bl	HAL_GetTick
 1891 0390 0446     		mov	r4, r0
 1892              	.L263:
 1893 0392 2A4B     		ldr	r3, .L313+4
 1894 0394 1B68     		ldr	r3, [r3]
 1895 0396 13F0007F 		tst	r3, #33554432
 1896 039a 06D1     		bne	.L310
 1897 039c FFF7FEFF 		bl	HAL_GetTick
 1898 03a0 001B     		subs	r0, r0, r4
 1899 03a2 0228     		cmp	r0, #2
 1900 03a4 F5D9     		bls	.L263
 1901 03a6 0320     		movs	r0, #3
 1902 03a8 35E0     		b	.L216
ARM GAS  C:\Users\Rick\AppData\Local\Temp\ccOCGcTc.s 			page 34


 1903              	.L310:
 1904 03aa 0020     		movs	r0, #0
 1905 03ac 33E0     		b	.L216
 1906              	.L308:
 1907 03ae 0020     		movs	r0, #0
 1908 03b0 31E0     		b	.L216
 1909              	.L259:
 1910 03b2 012B     		cmp	r3, #1
 1911 03b4 31D0     		beq	.L284
 1912 03b6 214B     		ldr	r3, .L313+4
 1913 03b8 5B68     		ldr	r3, [r3, #4]
 1914 03ba 03F48001 		and	r1, r3, #4194304
 1915 03be E269     		ldr	r2, [r4, #28]
 1916 03c0 9142     		cmp	r1, r2
 1917 03c2 2CD1     		bne	.L285
 1918 03c4 03F03F02 		and	r2, r3, #63
 1919 03c8 216A     		ldr	r1, [r4, #32]
 1920 03ca 8A42     		cmp	r2, r1
 1921 03cc 29D1     		bne	.L286
 1922 03ce 616A     		ldr	r1, [r4, #36]
 1923 03d0 47F6C072 		movw	r2, #32704
 1924 03d4 1A40     		ands	r2, r2, r3
 1925 03d6 B2EB811F 		cmp	r2, r1, lsl #6
 1926 03da 24D1     		bne	.L287
 1927 03dc 03F44031 		and	r1, r3, #196608
 1928 03e0 A26A     		ldr	r2, [r4, #40]
 1929 03e2 5208     		lsrs	r2, r2, #1
 1930 03e4 013A     		subs	r2, r2, #1
 1931 03e6 B1EB024F 		cmp	r1, r2, lsl #16
 1932 03ea 1ED1     		bne	.L288
 1933 03ec 03F07062 		and	r2, r3, #251658240
 1934 03f0 E16A     		ldr	r1, [r4, #44]
 1935 03f2 B2EB016F 		cmp	r2, r1, lsl #24
 1936 03f6 1AD1     		bne	.L289
 1937 03f8 03F0E043 		and	r3, r3, #1879048192
 1938 03fc 226B     		ldr	r2, [r4, #48]
 1939 03fe B3EB027F 		cmp	r3, r2, lsl #28
 1940 0402 16D1     		bne	.L290
 1941 0404 0020     		movs	r0, #0
 1942 0406 06E0     		b	.L216
 1943              	.L267:
 1944 0408 0120     		movs	r0, #1
 1945 040a 7047     		bx	lr
 1946              	.L299:
 1947 040c 0120     		movs	r0, #1
 1948 040e 02E0     		b	.L216
 1949              	.L271:
 1950 0410 0120     		movs	r0, #1
 1951 0412 00E0     		b	.L216
 1952              	.L280:
 1953 0414 0020     		movs	r0, #0
 1954              	.L216:
 1955 0416 02B0     		add	sp, sp, #8
 1956              		@ sp needed
 1957 0418 70BD     		pop	{r4, r5, r6, pc}
 1958              	.L284:
 1959 041a 0120     		movs	r0, #1
ARM GAS  C:\Users\Rick\AppData\Local\Temp\ccOCGcTc.s 			page 35


 1960 041c FBE7     		b	.L216
 1961              	.L285:
 1962 041e 0120     		movs	r0, #1
 1963 0420 F9E7     		b	.L216
 1964              	.L286:
 1965 0422 0120     		movs	r0, #1
 1966 0424 F7E7     		b	.L216
 1967              	.L287:
 1968 0426 0120     		movs	r0, #1
 1969 0428 F5E7     		b	.L216
 1970              	.L288:
 1971 042a 0120     		movs	r0, #1
 1972 042c F3E7     		b	.L216
 1973              	.L289:
 1974 042e 0120     		movs	r0, #1
 1975 0430 F1E7     		b	.L216
 1976              	.L290:
 1977 0432 0120     		movs	r0, #1
 1978 0434 EFE7     		b	.L216
 1979              	.L314:
 1980 0436 00BF     		.align	2
 1981              	.L313:
 1982 0438 00700040 		.word	1073770496
 1983 043c 00380240 		.word	1073887232
 1984 0440 00004742 		.word	1111949312
 1986              		.section	.text.HAL_RCC_GetOscConfig,"ax",%progbits
 1987              		.align	1
 1988              		.global	HAL_RCC_GetOscConfig
 1989              		.syntax unified
 1990              		.thumb
 1991              		.thumb_func
 1993              	HAL_RCC_GetOscConfig:
 1994              		@ args = 0, pretend = 0, frame = 0
 1995              		@ frame_needed = 0, uses_anonymous_args = 0
 1996              		@ link register save eliminated.
 1997 0000 0F23     		movs	r3, #15
 1998 0002 0360     		str	r3, [r0]
 1999 0004 324B     		ldr	r3, .L328
 2000 0006 1B68     		ldr	r3, [r3]
 2001 0008 13F4802F 		tst	r3, #262144
 2002 000c 3FD0     		beq	.L316
 2003 000e 4FF4A023 		mov	r3, #327680
 2004 0012 4360     		str	r3, [r0, #4]
 2005              	.L317:
 2006 0014 2E4B     		ldr	r3, .L328
 2007 0016 1B68     		ldr	r3, [r3]
 2008 0018 13F0010F 		tst	r3, #1
 2009 001c 43D0     		beq	.L319
 2010 001e 0123     		movs	r3, #1
 2011 0020 C360     		str	r3, [r0, #12]
 2012              	.L320:
 2013 0022 2B4A     		ldr	r2, .L328
 2014 0024 1368     		ldr	r3, [r2]
 2015 0026 C3F3C403 		ubfx	r3, r3, #3, #5
 2016 002a 0361     		str	r3, [r0, #16]
 2017 002c 136F     		ldr	r3, [r2, #112]
 2018 002e 13F0040F 		tst	r3, #4
ARM GAS  C:\Users\Rick\AppData\Local\Temp\ccOCGcTc.s 			page 36


 2019 0032 3BD0     		beq	.L321
 2020 0034 0523     		movs	r3, #5
 2021 0036 8360     		str	r3, [r0, #8]
 2022              	.L322:
 2023 0038 254B     		ldr	r3, .L328
 2024 003a 5B6F     		ldr	r3, [r3, #116]
 2025 003c 13F0010F 		tst	r3, #1
 2026 0040 3FD0     		beq	.L324
 2027 0042 0123     		movs	r3, #1
 2028 0044 4361     		str	r3, [r0, #20]
 2029              	.L325:
 2030 0046 224B     		ldr	r3, .L328
 2031 0048 1B68     		ldr	r3, [r3]
 2032 004a 13F0807F 		tst	r3, #16777216
 2033 004e 3BD0     		beq	.L326
 2034 0050 0223     		movs	r3, #2
 2035 0052 8361     		str	r3, [r0, #24]
 2036              	.L327:
 2037 0054 1E4A     		ldr	r2, .L328
 2038 0056 5368     		ldr	r3, [r2, #4]
 2039 0058 03F48003 		and	r3, r3, #4194304
 2040 005c C361     		str	r3, [r0, #28]
 2041 005e 5368     		ldr	r3, [r2, #4]
 2042 0060 03F03F03 		and	r3, r3, #63
 2043 0064 0362     		str	r3, [r0, #32]
 2044 0066 5368     		ldr	r3, [r2, #4]
 2045 0068 C3F38813 		ubfx	r3, r3, #6, #9
 2046 006c 4362     		str	r3, [r0, #36]
 2047 006e 5368     		ldr	r3, [r2, #4]
 2048 0070 03F44033 		and	r3, r3, #196608
 2049 0074 03F58033 		add	r3, r3, #65536
 2050 0078 DB0B     		lsrs	r3, r3, #15
 2051 007a 8362     		str	r3, [r0, #40]
 2052 007c 5368     		ldr	r3, [r2, #4]
 2053 007e C3F30363 		ubfx	r3, r3, #24, #4
 2054 0082 C362     		str	r3, [r0, #44]
 2055 0084 5368     		ldr	r3, [r2, #4]
 2056 0086 C3F30273 		ubfx	r3, r3, #28, #3
 2057 008a 0363     		str	r3, [r0, #48]
 2058 008c 7047     		bx	lr
 2059              	.L316:
 2060 008e 104B     		ldr	r3, .L328
 2061 0090 1B68     		ldr	r3, [r3]
 2062 0092 13F4803F 		tst	r3, #65536
 2063 0096 03D0     		beq	.L318
 2064 0098 4FF48033 		mov	r3, #65536
 2065 009c 4360     		str	r3, [r0, #4]
 2066 009e B9E7     		b	.L317
 2067              	.L318:
 2068 00a0 0023     		movs	r3, #0
 2069 00a2 4360     		str	r3, [r0, #4]
 2070 00a4 B6E7     		b	.L317
 2071              	.L319:
 2072 00a6 0023     		movs	r3, #0
 2073 00a8 C360     		str	r3, [r0, #12]
 2074 00aa BAE7     		b	.L320
 2075              	.L321:
ARM GAS  C:\Users\Rick\AppData\Local\Temp\ccOCGcTc.s 			page 37


 2076 00ac 084B     		ldr	r3, .L328
 2077 00ae 1B6F     		ldr	r3, [r3, #112]
 2078 00b0 13F0010F 		tst	r3, #1
 2079 00b4 02D0     		beq	.L323
 2080 00b6 0123     		movs	r3, #1
 2081 00b8 8360     		str	r3, [r0, #8]
 2082 00ba BDE7     		b	.L322
 2083              	.L323:
 2084 00bc 0023     		movs	r3, #0
 2085 00be 8360     		str	r3, [r0, #8]
 2086 00c0 BAE7     		b	.L322
 2087              	.L324:
 2088 00c2 0023     		movs	r3, #0
 2089 00c4 4361     		str	r3, [r0, #20]
 2090 00c6 BEE7     		b	.L325
 2091              	.L326:
 2092 00c8 0123     		movs	r3, #1
 2093 00ca 8361     		str	r3, [r0, #24]
 2094 00cc C2E7     		b	.L327
 2095              	.L329:
 2096 00ce 00BF     		.align	2
 2097              	.L328:
 2098 00d0 00380240 		.word	1073887232
 2100              		.global	__aeabi_uldivmod
 2101              		.ident	"GCC: (xPack GNU Arm Embedded GCC x86_64) 14.2.1 20241119"
ARM GAS  C:\Users\Rick\AppData\Local\Temp\ccOCGcTc.s 			page 38

