ARM GAS  C:\Users\Rick\AppData\Local\Temp\ccGOCLVW.s 			page 1


   1              		.cpu cortex-m4
   2              		.arch armv7e-m
   3              		.fpu fpv4-sp-d16
   4              		.eabi_attribute 27, 1
   5              		.eabi_attribute 28, 1
   6              		.eabi_attribute 20, 1
   7              		.eabi_attribute 21, 1
   8              		.eabi_attribute 23, 3
   9              		.eabi_attribute 24, 1
  10              		.eabi_attribute 25, 1
  11              		.eabi_attribute 26, 1
  12              		.eabi_attribute 30, 1
  13              		.eabi_attribute 34, 1
  14              		.eabi_attribute 18, 4
  15              		.file	"stm32f4xx_hal_i2c.c"
  16              		.text
  17              		.section	.text.I2C_Flush_DR,"ax",%progbits
  18              		.align	1
  19              		.syntax unified
  20              		.thumb
  21              		.thumb_func
  23              	I2C_Flush_DR:
  24              		@ args = 0, pretend = 0, frame = 0
  25              		@ frame_needed = 0, uses_anonymous_args = 0
  26              		@ link register save eliminated.
  27 0000 0368     		ldr	r3, [r0]
  28 0002 5A69     		ldr	r2, [r3, #20]
  29 0004 12F0800F 		tst	r2, #128
  30 0008 01D0     		beq	.L1
  31 000a 0022     		movs	r2, #0
  32 000c 1A61     		str	r2, [r3, #16]
  33              	.L1:
  34 000e 7047     		bx	lr
  36              		.section	.text.I2C_Master_SB,"ax",%progbits
  37              		.align	1
  38              		.syntax unified
  39              		.thumb
  40              		.thumb_func
  42              	I2C_Master_SB:
  43              		@ args = 0, pretend = 0, frame = 0
  44              		@ frame_needed = 0, uses_anonymous_args = 0
  45              		@ link register save eliminated.
  46 0000 90F83E30 		ldrb	r3, [r0, #62]	@ zero_extendqisi2
  47 0004 402B     		cmp	r3, #64
  48 0006 10D0     		beq	.L13
  49 0008 0369     		ldr	r3, [r0, #16]
  50 000a B3F5804F 		cmp	r3, #16384
  51 000e 1BD0     		beq	.L14
  52 0010 036D     		ldr	r3, [r0, #80]
  53 0012 002B     		cmp	r3, #0
  54 0014 38D1     		bne	.L12
  55 0016 436C     		ldr	r3, [r0, #68]
  56 0018 C3F3C813 		ubfx	r3, r3, #7, #9
  57 001c 0268     		ldr	r2, [r0]
  58 001e 03F00603 		and	r3, r3, #6
  59 0022 43F0F003 		orr	r3, r3, #240
  60 0026 1361     		str	r3, [r2, #16]
ARM GAS  C:\Users\Rick\AppData\Local\Temp\ccGOCLVW.s 			page 2


  61 0028 7047     		bx	lr
  62              	.L13:
  63 002a 036D     		ldr	r3, [r0, #80]
  64 002c 2BB9     		cbnz	r3, .L5
  65 002e 436C     		ldr	r3, [r0, #68]
  66 0030 0268     		ldr	r2, [r0]
  67 0032 03F0FE03 		and	r3, r3, #254
  68 0036 1361     		str	r3, [r2, #16]
  69 0038 7047     		bx	lr
  70              	.L5:
  71 003a 436C     		ldr	r3, [r0, #68]
  72 003c 0268     		ldr	r2, [r0]
  73 003e 43F00103 		orr	r3, r3, #1
  74 0042 DBB2     		uxtb	r3, r3
  75 0044 1361     		str	r3, [r2, #16]
  76 0046 7047     		bx	lr
  77              	.L14:
  78 0048 90F83D30 		ldrb	r3, [r0, #61]	@ zero_extendqisi2
  79 004c 212B     		cmp	r3, #33
  80 004e 0FD0     		beq	.L15
  81 0050 436C     		ldr	r3, [r0, #68]
  82 0052 0268     		ldr	r2, [r0]
  83 0054 43F00103 		orr	r3, r3, #1
  84 0058 DBB2     		uxtb	r3, r3
  85 005a 1361     		str	r3, [r2, #16]
  86              	.L9:
  87 005c 436B     		ldr	r3, [r0, #52]
  88 005e 6BB1     		cbz	r3, .L10
  89 0060 DB6B     		ldr	r3, [r3, #60]
  90 0062 5BB1     		cbz	r3, .L10
  91              	.L11:
  92 0064 0268     		ldr	r2, [r0]
  93 0066 5368     		ldr	r3, [r2, #4]
  94 0068 43F40063 		orr	r3, r3, #2048
  95 006c 5360     		str	r3, [r2, #4]
  96 006e 7047     		bx	lr
  97              	.L15:
  98 0070 436C     		ldr	r3, [r0, #68]
  99 0072 0268     		ldr	r2, [r0]
 100 0074 03F0FE03 		and	r3, r3, #254
 101 0078 1361     		str	r3, [r2, #16]
 102 007a EFE7     		b	.L9
 103              	.L10:
 104 007c 836B     		ldr	r3, [r0, #56]
 105 007e 33B1     		cbz	r3, .L3
 106 0080 DB6B     		ldr	r3, [r3, #60]
 107 0082 002B     		cmp	r3, #0
 108 0084 EED1     		bne	.L11
 109 0086 02E0     		b	.L3
 110              	.L12:
 111 0088 036D     		ldr	r3, [r0, #80]
 112 008a 012B     		cmp	r3, #1
 113 008c 00D0     		beq	.L16
 114              	.L3:
 115 008e 7047     		bx	lr
 116              	.L16:
 117 0090 436C     		ldr	r3, [r0, #68]
ARM GAS  C:\Users\Rick\AppData\Local\Temp\ccGOCLVW.s 			page 3


 118 0092 C3F3C813 		ubfx	r3, r3, #7, #9
 119 0096 0268     		ldr	r2, [r0]
 120 0098 03F00603 		and	r3, r3, #6
 121 009c 43F0F103 		orr	r3, r3, #241
 122 00a0 1361     		str	r3, [r2, #16]
 123 00a2 F4E7     		b	.L3
 125              		.section	.text.I2C_Master_ADD10,"ax",%progbits
 126              		.align	1
 127              		.syntax unified
 128              		.thumb
 129              		.thumb_func
 131              	I2C_Master_ADD10:
 132              		@ args = 0, pretend = 0, frame = 0
 133              		@ frame_needed = 0, uses_anonymous_args = 0
 134              		@ link register save eliminated.
 135 0000 436C     		ldr	r3, [r0, #68]
 136 0002 0268     		ldr	r2, [r0]
 137 0004 DBB2     		uxtb	r3, r3
 138 0006 1361     		str	r3, [r2, #16]
 139 0008 436B     		ldr	r3, [r0, #52]
 140 000a 3BB1     		cbz	r3, .L18
 141 000c DB6B     		ldr	r3, [r3, #60]
 142 000e 2BB1     		cbz	r3, .L18
 143              	.L19:
 144 0010 0268     		ldr	r2, [r0]
 145 0012 5368     		ldr	r3, [r2, #4]
 146 0014 43F40063 		orr	r3, r3, #2048
 147 0018 5360     		str	r3, [r2, #4]
 148              	.L17:
 149 001a 7047     		bx	lr
 150              	.L18:
 151 001c 836B     		ldr	r3, [r0, #56]
 152 001e 002B     		cmp	r3, #0
 153 0020 FBD0     		beq	.L17
 154 0022 DB6B     		ldr	r3, [r3, #60]
 155 0024 002B     		cmp	r3, #0
 156 0026 F3D1     		bne	.L19
 157 0028 F7E7     		b	.L17
 159              		.section	.text.I2C_Master_ADDR,"ax",%progbits
 160              		.align	1
 161              		.syntax unified
 162              		.thumb
 163              		.thumb_func
 165              	I2C_Master_ADDR:
 166              		@ args = 0, pretend = 0, frame = 40
 167              		@ frame_needed = 0, uses_anonymous_args = 0
 168              		@ link register save eliminated.
 169 0000 10B4     		push	{r4}
 170 0002 8BB0     		sub	sp, sp, #44
 171 0004 90F83E30 		ldrb	r3, [r0, #62]	@ zero_extendqisi2
 172 0008 C16A     		ldr	r1, [r0, #44]
 173 000a 046B     		ldr	r4, [r0, #48]
 174 000c 90F83D20 		ldrb	r2, [r0, #61]	@ zero_extendqisi2
 175 0010 222A     		cmp	r2, #34
 176 0012 0BD0     		beq	.L49
 177 0014 0023     		movs	r3, #0
 178 0016 0993     		str	r3, [sp, #36]
ARM GAS  C:\Users\Rick\AppData\Local\Temp\ccGOCLVW.s 			page 4


 179 0018 0368     		ldr	r3, [r0]
 180 001a 5A69     		ldr	r2, [r3, #20]
 181 001c 0992     		str	r2, [sp, #36]
 182 001e 9B69     		ldr	r3, [r3, #24]
 183 0020 0993     		str	r3, [sp, #36]
 184 0022 099B     		ldr	r3, [sp, #36]
 185              	.L21:
 186 0024 0BB0     		add	sp, sp, #44
 187              		@ sp needed
 188 0026 5DF8044B 		ldr	r4, [sp], #4
 189 002a 7047     		bx	lr
 190              	.L49:
 191 002c DBB2     		uxtb	r3, r3
 192 002e 026D     		ldr	r2, [r0, #80]
 193 0030 0AB9     		cbnz	r2, .L23
 194 0032 402B     		cmp	r3, #64
 195 0034 17D0     		beq	.L50
 196              	.L23:
 197 0036 036D     		ldr	r3, [r0, #80]
 198 0038 1BB9     		cbnz	r3, .L25
 199 003a 0369     		ldr	r3, [r0, #16]
 200 003c B3F5404F 		cmp	r3, #49152
 201 0040 1AD0     		beq	.L51
 202              	.L25:
 203 0042 438D     		ldrh	r3, [r0, #42]
 204 0044 9BB2     		uxth	r3, r3
 205 0046 002B     		cmp	r3, #0
 206 0048 26D1     		bne	.L26
 207 004a 0293     		str	r3, [sp, #8]
 208 004c 0368     		ldr	r3, [r0]
 209 004e 5A69     		ldr	r2, [r3, #20]
 210 0050 0292     		str	r2, [sp, #8]
 211 0052 9A69     		ldr	r2, [r3, #24]
 212 0054 0292     		str	r2, [sp, #8]
 213 0056 029A     		ldr	r2, [sp, #8]
 214 0058 1A68     		ldr	r2, [r3]
 215 005a 42F40072 		orr	r2, r2, #512
 216 005e 1A60     		str	r2, [r3]
 217              	.L27:
 218 0060 0023     		movs	r3, #0
 219 0062 0365     		str	r3, [r0, #80]
 220 0064 DEE7     		b	.L21
 221              	.L50:
 222 0066 0023     		movs	r3, #0
 223 0068 0093     		str	r3, [sp]
 224 006a 0368     		ldr	r3, [r0]
 225 006c 5A69     		ldr	r2, [r3, #20]
 226 006e 0092     		str	r2, [sp]
 227 0070 9B69     		ldr	r3, [r3, #24]
 228 0072 0093     		str	r3, [sp]
 229 0074 009B     		ldr	r3, [sp]
 230 0076 D5E7     		b	.L21
 231              	.L51:
 232 0078 0023     		movs	r3, #0
 233 007a 0193     		str	r3, [sp, #4]
 234 007c 0368     		ldr	r3, [r0]
 235 007e 5A69     		ldr	r2, [r3, #20]
ARM GAS  C:\Users\Rick\AppData\Local\Temp\ccGOCLVW.s 			page 5


 236 0080 0192     		str	r2, [sp, #4]
 237 0082 9A69     		ldr	r2, [r3, #24]
 238 0084 0192     		str	r2, [sp, #4]
 239 0086 019A     		ldr	r2, [sp, #4]
 240 0088 1A68     		ldr	r2, [r3]
 241 008a 42F48072 		orr	r2, r2, #256
 242 008e 1A60     		str	r2, [r3]
 243 0090 036D     		ldr	r3, [r0, #80]
 244 0092 0133     		adds	r3, r3, #1
 245 0094 0365     		str	r3, [r0, #80]
 246 0096 C5E7     		b	.L21
 247              	.L26:
 248 0098 438D     		ldrh	r3, [r0, #42]
 249 009a 9BB2     		uxth	r3, r3
 250 009c 012B     		cmp	r3, #1
 251 009e 26D0     		beq	.L52
 252 00a0 438D     		ldrh	r3, [r0, #42]
 253 00a2 9BB2     		uxth	r3, r3
 254 00a4 022B     		cmp	r3, #2
 255 00a6 7CD0     		beq	.L53
 256 00a8 0268     		ldr	r2, [r0]
 257 00aa 1368     		ldr	r3, [r2]
 258 00ac 43F48063 		orr	r3, r3, #1024
 259 00b0 1360     		str	r3, [r2]
 260 00b2 0368     		ldr	r3, [r0]
 261 00b4 5A68     		ldr	r2, [r3, #4]
 262 00b6 12F4006F 		tst	r2, #2048
 263 00ba 0FD0     		beq	.L44
 264 00bc 2029     		cmp	r1, #32
 265 00be 00F2AE80 		bhi	.L45
 266 00c2 0829     		cmp	r1, #8
 267 00c4 C0F0A780 		bcc	.L54
 268 00c8 0839     		subs	r1, r1, #8
 269 00ca 574A     		ldr	r2, .L58
 270 00cc CA40     		lsrs	r2, r2, r1
 271 00ce 12F0010F 		tst	r2, #1
 272 00d2 03D0     		beq	.L44
 273              	.L47:
 274 00d4 5A68     		ldr	r2, [r3, #4]
 275 00d6 42F48052 		orr	r2, r2, #4096
 276 00da 5A60     		str	r2, [r3, #4]
 277              	.L44:
 278 00dc 0023     		movs	r3, #0
 279 00de 0893     		str	r3, [sp, #32]
 280 00e0 0368     		ldr	r3, [r0]
 281 00e2 5A69     		ldr	r2, [r3, #20]
 282 00e4 0892     		str	r2, [sp, #32]
 283 00e6 9B69     		ldr	r3, [r3, #24]
 284 00e8 0893     		str	r3, [sp, #32]
 285 00ea 089B     		ldr	r3, [sp, #32]
 286 00ec B8E7     		b	.L27
 287              	.L52:
 288 00ee 11F5803F 		cmn	r1, #65536
 289 00f2 11D0     		beq	.L55
 290 00f4 0829     		cmp	r1, #8
 291 00f6 34D0     		beq	.L31
 292 00f8 2029     		cmp	r1, #32
ARM GAS  C:\Users\Rick\AppData\Local\Temp\ccGOCLVW.s 			page 6


 293 00fa 32D0     		beq	.L31
 294 00fc 122C     		cmp	r4, #18
 295 00fe 2ED0     		beq	.L56
 296 0100 0429     		cmp	r1, #4
 297 0102 40D0     		beq	.L34
 298              	.L33:
 299 0104 0229     		cmp	r1, #2
 300 0106 3ED0     		beq	.L34
 301 0108 1029     		cmp	r1, #16
 302 010a 3CD0     		beq	.L34
 303 010c 0268     		ldr	r2, [r0]
 304 010e 1368     		ldr	r3, [r2]
 305 0110 23F48063 		bic	r3, r3, #1024
 306 0114 1360     		str	r3, [r2]
 307 0116 3BE0     		b	.L35
 308              	.L55:
 309 0118 0268     		ldr	r2, [r0]
 310 011a 1368     		ldr	r3, [r2]
 311 011c 23F48063 		bic	r3, r3, #1024
 312 0120 1360     		str	r3, [r2]
 313 0122 0368     		ldr	r3, [r0]
 314 0124 5A68     		ldr	r2, [r3, #4]
 315 0126 12F4006F 		tst	r2, #2048
 316 012a 0CD0     		beq	.L30
 317 012c 1A68     		ldr	r2, [r3]
 318 012e 22F48062 		bic	r2, r2, #1024
 319 0132 1A60     		str	r2, [r3]
 320 0134 0023     		movs	r3, #0
 321 0136 0393     		str	r3, [sp, #12]
 322 0138 0368     		ldr	r3, [r0]
 323 013a 5A69     		ldr	r2, [r3, #20]
 324 013c 0392     		str	r2, [sp, #12]
 325 013e 9B69     		ldr	r3, [r3, #24]
 326 0140 0393     		str	r3, [sp, #12]
 327 0142 039B     		ldr	r3, [sp, #12]
 328 0144 8CE7     		b	.L27
 329              	.L30:
 330 0146 0022     		movs	r2, #0
 331 0148 0492     		str	r2, [sp, #16]
 332 014a 5A69     		ldr	r2, [r3, #20]
 333 014c 0492     		str	r2, [sp, #16]
 334 014e 9A69     		ldr	r2, [r3, #24]
 335 0150 0492     		str	r2, [sp, #16]
 336 0152 049A     		ldr	r2, [sp, #16]
 337 0154 1A68     		ldr	r2, [r3]
 338 0156 42F40072 		orr	r2, r2, #512
 339 015a 1A60     		str	r2, [r3]
 340 015c 80E7     		b	.L27
 341              	.L56:
 342 015e 0129     		cmp	r1, #1
 343 0160 D0D0     		beq	.L33
 344              	.L31:
 345 0162 0268     		ldr	r2, [r0]
 346 0164 1368     		ldr	r3, [r2]
 347 0166 23F48063 		bic	r3, r3, #1024
 348 016a 1360     		str	r3, [r2]
 349 016c 0023     		movs	r3, #0
ARM GAS  C:\Users\Rick\AppData\Local\Temp\ccGOCLVW.s 			page 7


 350 016e 0693     		str	r3, [sp, #24]
 351 0170 0368     		ldr	r3, [r0]
 352 0172 5A69     		ldr	r2, [r3, #20]
 353 0174 0692     		str	r2, [sp, #24]
 354 0176 9A69     		ldr	r2, [r3, #24]
 355 0178 0692     		str	r2, [sp, #24]
 356 017a 069A     		ldr	r2, [sp, #24]
 357 017c 1A68     		ldr	r2, [r3]
 358 017e 42F40072 		orr	r2, r2, #512
 359 0182 1A60     		str	r2, [r3]
 360 0184 6CE7     		b	.L27
 361              	.L34:
 362 0186 0268     		ldr	r2, [r0]
 363 0188 1368     		ldr	r3, [r2]
 364 018a 43F48063 		orr	r3, r3, #1024
 365 018e 1360     		str	r3, [r2]
 366              	.L35:
 367 0190 0023     		movs	r3, #0
 368 0192 0593     		str	r3, [sp, #20]
 369 0194 0368     		ldr	r3, [r0]
 370 0196 5A69     		ldr	r2, [r3, #20]
 371 0198 0592     		str	r2, [sp, #20]
 372 019a 9B69     		ldr	r3, [r3, #24]
 373 019c 0593     		str	r3, [sp, #20]
 374 019e 059B     		ldr	r3, [sp, #20]
 375 01a0 5EE7     		b	.L27
 376              	.L53:
 377 01a2 1029     		cmp	r1, #16
 378 01a4 0AD8     		bhi	.L37
 379 01a6 214B     		ldr	r3, .L58+4
 380 01a8 CB40     		lsrs	r3, r3, r1
 381 01aa 13F0010F 		tst	r3, #1
 382 01ae 05D0     		beq	.L37
 383 01b0 0268     		ldr	r2, [r0]
 384 01b2 1368     		ldr	r3, [r2]
 385 01b4 43F48063 		orr	r3, r3, #1024
 386 01b8 1360     		str	r3, [r2]
 387 01ba 09E0     		b	.L39
 388              	.L37:
 389 01bc 0268     		ldr	r2, [r0]
 390 01be 1368     		ldr	r3, [r2]
 391 01c0 23F48063 		bic	r3, r3, #1024
 392 01c4 1360     		str	r3, [r2]
 393 01c6 0268     		ldr	r2, [r0]
 394 01c8 1368     		ldr	r3, [r2]
 395 01ca 43F40063 		orr	r3, r3, #2048
 396 01ce 1360     		str	r3, [r2]
 397              	.L39:
 398 01d0 0368     		ldr	r3, [r0]
 399 01d2 5A68     		ldr	r2, [r3, #4]
 400 01d4 12F4006F 		tst	r2, #2048
 401 01d8 0DD0     		beq	.L40
 402 01da 2029     		cmp	r1, #32
 403 01dc 17D8     		bhi	.L41
 404 01de 0829     		cmp	r1, #8
 405 01e0 12D3     		bcc	.L57
 406 01e2 0839     		subs	r1, r1, #8
ARM GAS  C:\Users\Rick\AppData\Local\Temp\ccGOCLVW.s 			page 8


 407 01e4 104A     		ldr	r2, .L58
 408 01e6 CA40     		lsrs	r2, r2, r1
 409 01e8 12F0010F 		tst	r2, #1
 410 01ec 03D0     		beq	.L40
 411              	.L43:
 412 01ee 5A68     		ldr	r2, [r3, #4]
 413 01f0 42F48052 		orr	r2, r2, #4096
 414 01f4 5A60     		str	r2, [r3, #4]
 415              	.L40:
 416 01f6 0023     		movs	r3, #0
 417 01f8 0793     		str	r3, [sp, #28]
 418 01fa 0368     		ldr	r3, [r0]
 419 01fc 5A69     		ldr	r2, [r3, #20]
 420 01fe 0792     		str	r2, [sp, #28]
 421 0200 9B69     		ldr	r3, [r3, #24]
 422 0202 0793     		str	r3, [sp, #28]
 423 0204 079B     		ldr	r3, [sp, #28]
 424 0206 2BE7     		b	.L27
 425              	.L57:
 426 0208 0129     		cmp	r1, #1
 427 020a F4D1     		bne	.L40
 428 020c EFE7     		b	.L43
 429              	.L41:
 430 020e 11F5803F 		cmn	r1, #65536
 431 0212 F0D1     		bne	.L40
 432 0214 EBE7     		b	.L43
 433              	.L54:
 434 0216 0129     		cmp	r1, #1
 435 0218 7FF460AF 		bne	.L44
 436 021c 5AE7     		b	.L47
 437              	.L45:
 438 021e 11F5803F 		cmn	r1, #65536
 439 0222 7FF45BAF 		bne	.L44
 440 0226 55E7     		b	.L47
 441              	.L59:
 442              		.align	2
 443              	.L58:
 444 0228 01010001 		.word	16777473
 445 022c 14000100 		.word	65556
 447              		.section	.text.I2C_SlaveTransmit_BTF,"ax",%progbits
 448              		.align	1
 449              		.syntax unified
 450              		.thumb
 451              		.thumb_func
 453              	I2C_SlaveTransmit_BTF:
 454              		@ args = 0, pretend = 0, frame = 0
 455              		@ frame_needed = 0, uses_anonymous_args = 0
 456              		@ link register save eliminated.
 457 0000 438D     		ldrh	r3, [r0, #42]
 458 0002 9BB2     		uxth	r3, r3
 459 0004 5BB1     		cbz	r3, .L60
 460 0006 426A     		ldr	r2, [r0, #36]
 461 0008 0368     		ldr	r3, [r0]
 462 000a 1278     		ldrb	r2, [r2]	@ zero_extendqisi2
 463 000c 1A61     		str	r2, [r3, #16]
 464 000e 436A     		ldr	r3, [r0, #36]
 465 0010 0133     		adds	r3, r3, #1
ARM GAS  C:\Users\Rick\AppData\Local\Temp\ccGOCLVW.s 			page 9


 466 0012 4362     		str	r3, [r0, #36]
 467 0014 438D     		ldrh	r3, [r0, #42]
 468 0016 9BB2     		uxth	r3, r3
 469 0018 013B     		subs	r3, r3, #1
 470 001a 9BB2     		uxth	r3, r3
 471 001c 4385     		strh	r3, [r0, #42]	@ movhi
 472              	.L60:
 473 001e 7047     		bx	lr
 475              		.section	.text.I2C_SlaveReceive_BTF,"ax",%progbits
 476              		.align	1
 477              		.syntax unified
 478              		.thumb
 479              		.thumb_func
 481              	I2C_SlaveReceive_BTF:
 482              		@ args = 0, pretend = 0, frame = 0
 483              		@ frame_needed = 0, uses_anonymous_args = 0
 484              		@ link register save eliminated.
 485 0000 438D     		ldrh	r3, [r0, #42]
 486 0002 9BB2     		uxth	r3, r3
 487 0004 5BB1     		cbz	r3, .L62
 488 0006 0368     		ldr	r3, [r0]
 489 0008 1A69     		ldr	r2, [r3, #16]
 490 000a 436A     		ldr	r3, [r0, #36]
 491 000c 1A70     		strb	r2, [r3]
 492 000e 436A     		ldr	r3, [r0, #36]
 493 0010 0133     		adds	r3, r3, #1
 494 0012 4362     		str	r3, [r0, #36]
 495 0014 438D     		ldrh	r3, [r0, #42]
 496 0016 9BB2     		uxth	r3, r3
 497 0018 013B     		subs	r3, r3, #1
 498 001a 9BB2     		uxth	r3, r3
 499 001c 4385     		strh	r3, [r0, #42]	@ movhi
 500              	.L62:
 501 001e 7047     		bx	lr
 503              		.section	.text.I2C_WaitOnSTOPRequestThroughIT,"ax",%progbits
 504              		.align	1
 505              		.syntax unified
 506              		.thumb
 507              		.thumb_func
 509              	I2C_WaitOnSTOPRequestThroughIT:
 510              		@ args = 0, pretend = 0, frame = 8
 511              		@ frame_needed = 0, uses_anonymous_args = 0
 512              		@ link register save eliminated.
 513 0000 82B0     		sub	sp, sp, #8
 514 0002 0023     		movs	r3, #0
 515 0004 0193     		str	r3, [sp, #4]
 516 0006 0E4B     		ldr	r3, .L70
 517 0008 1B68     		ldr	r3, [r3]
 518 000a DB08     		lsrs	r3, r3, #3
 519 000c 0D4A     		ldr	r2, .L70+4
 520 000e A2FB0323 		umull	r2, r3, r2, r3
 521 0012 1B0A     		lsrs	r3, r3, #8
 522 0014 03EB8303 		add	r3, r3, r3, lsl #2
 523 0018 0193     		str	r3, [sp, #4]
 524              	.L67:
 525 001a 019B     		ldr	r3, [sp, #4]
 526 001c 013B     		subs	r3, r3, #1
ARM GAS  C:\Users\Rick\AppData\Local\Temp\ccGOCLVW.s 			page 10


 527 001e 0193     		str	r3, [sp, #4]
 528 0020 019B     		ldr	r3, [sp, #4]
 529 0022 33B1     		cbz	r3, .L69
 530 0024 0368     		ldr	r3, [r0]
 531 0026 1B68     		ldr	r3, [r3]
 532 0028 13F4007F 		tst	r3, #512
 533 002c F5D1     		bne	.L67
 534 002e 0020     		movs	r0, #0
 535 0030 04E0     		b	.L66
 536              	.L69:
 537 0032 036C     		ldr	r3, [r0, #64]
 538 0034 43F02003 		orr	r3, r3, #32
 539 0038 0364     		str	r3, [r0, #64]
 540 003a 0120     		movs	r0, #1
 541              	.L66:
 542 003c 02B0     		add	sp, sp, #8
 543              		@ sp needed
 544 003e 7047     		bx	lr
 545              	.L71:
 546              		.align	2
 547              	.L70:
 548 0040 00000000 		.word	SystemCoreClock
 549 0044 89B5F814 		.word	351843721
 551              		.section	.text.I2C_IsAcknowledgeFailed,"ax",%progbits
 552              		.align	1
 553              		.syntax unified
 554              		.thumb
 555              		.thumb_func
 557              	I2C_IsAcknowledgeFailed:
 558              		@ args = 0, pretend = 0, frame = 0
 559              		@ frame_needed = 0, uses_anonymous_args = 0
 560              		@ link register save eliminated.
 561 0000 0368     		ldr	r3, [r0]
 562 0002 5A69     		ldr	r2, [r3, #20]
 563 0004 12F4806F 		tst	r2, #1024
 564 0008 01D1     		bne	.L75
 565 000a 0020     		movs	r0, #0
 566 000c 7047     		bx	lr
 567              	.L75:
 568 000e 6FF48062 		mvn	r2, #1024
 569 0012 5A61     		str	r2, [r3, #20]
 570 0014 0023     		movs	r3, #0
 571 0016 0363     		str	r3, [r0, #48]
 572 0018 2022     		movs	r2, #32
 573 001a 80F83D20 		strb	r2, [r0, #61]
 574 001e 80F83E30 		strb	r3, [r0, #62]
 575 0022 026C     		ldr	r2, [r0, #64]
 576 0024 42F00402 		orr	r2, r2, #4
 577 0028 0264     		str	r2, [r0, #64]
 578 002a 80F83C30 		strb	r3, [r0, #60]
 579 002e 0120     		movs	r0, #1
 580 0030 7047     		bx	lr
 582              		.section	.text.I2C_ConvertOtherXferOptions,"ax",%progbits
 583              		.align	1
 584              		.syntax unified
 585              		.thumb
 586              		.thumb_func
ARM GAS  C:\Users\Rick\AppData\Local\Temp\ccGOCLVW.s 			page 11


 588              	I2C_ConvertOtherXferOptions:
 589              		@ args = 0, pretend = 0, frame = 0
 590              		@ frame_needed = 0, uses_anonymous_args = 0
 591              		@ link register save eliminated.
 592 0000 C36A     		ldr	r3, [r0, #44]
 593 0002 B3F52A0F 		cmp	r3, #11141120
 594 0006 04D0     		beq	.L79
 595 0008 C36A     		ldr	r3, [r0, #44]
 596 000a B3F12A4F 		cmp	r3, #-1442840576
 597 000e 03D0     		beq	.L80
 598              	.L76:
 599 0010 7047     		bx	lr
 600              	.L79:
 601 0012 0123     		movs	r3, #1
 602 0014 C362     		str	r3, [r0, #44]
 603 0016 7047     		bx	lr
 604              	.L80:
 605 0018 0823     		movs	r3, #8
 606 001a C362     		str	r3, [r0, #44]
 607 001c F8E7     		b	.L76
 609              		.section	.text.I2C_WaitOnFlagUntilTimeout,"ax",%progbits
 610              		.align	1
 611              		.syntax unified
 612              		.thumb
 613              		.thumb_func
 615              	I2C_WaitOnFlagUntilTimeout:
 616              		@ args = 4, pretend = 0, frame = 0
 617              		@ frame_needed = 0, uses_anonymous_args = 0
 618 0000 2DE9F041 		push	{r4, r5, r6, r7, r8, lr}
 619 0004 0646     		mov	r6, r0
 620 0006 0C46     		mov	r4, r1
 621 0008 1746     		mov	r7, r2
 622 000a 9846     		mov	r8, r3
 623 000c 3BE0     		b	.L83
 624              	.L94:
 625 000e FFF7FEFF 		bl	HAL_GetTick
 626 0012 069B     		ldr	r3, [sp, #24]
 627 0014 C01A     		subs	r0, r0, r3
 628 0016 4045     		cmp	r0, r8
 629 0018 02D8     		bhi	.L84
 630 001a B8F1000F 		cmp	r8, #0
 631 001e 32D1     		bne	.L83
 632              	.L84:
 633 0020 012D     		cmp	r5, #1
 634 0022 18D0     		beq	.L92
 635 0024 3368     		ldr	r3, [r6]
 636 0026 9B69     		ldr	r3, [r3, #24]
 637 0028 24EA0303 		bic	r3, r4, r3
 638 002c 9BB2     		uxth	r3, r3
 639 002e B3FA83F3 		clz	r3, r3
 640 0032 5B09     		lsrs	r3, r3, #5
 641              	.L86:
 642 0034 9F42     		cmp	r7, r3
 643 0036 26D1     		bne	.L83
 644 0038 0023     		movs	r3, #0
 645 003a 3363     		str	r3, [r6, #48]
 646 003c 2022     		movs	r2, #32
ARM GAS  C:\Users\Rick\AppData\Local\Temp\ccGOCLVW.s 			page 12


 647 003e 86F83D20 		strb	r2, [r6, #61]
 648 0042 86F83E30 		strb	r3, [r6, #62]
 649 0046 326C     		ldr	r2, [r6, #64]
 650 0048 42F02002 		orr	r2, r2, #32
 651 004c 3264     		str	r2, [r6, #64]
 652 004e 86F83C30 		strb	r3, [r6, #60]
 653 0052 0120     		movs	r0, #1
 654 0054 27E0     		b	.L87
 655              	.L92:
 656 0056 3368     		ldr	r3, [r6]
 657 0058 5B69     		ldr	r3, [r3, #20]
 658 005a 24EA0303 		bic	r3, r4, r3
 659 005e 9BB2     		uxth	r3, r3
 660 0060 B3FA83F3 		clz	r3, r3
 661 0064 5B09     		lsrs	r3, r3, #5
 662 0066 E5E7     		b	.L86
 663              	.L95:
 664 0068 3368     		ldr	r3, [r6]
 665 006a 5B69     		ldr	r3, [r3, #20]
 666 006c 24EA030C 		bic	ip, r4, r3
 667 0070 1FFA8CFC 		uxth	ip, ip
 668 0074 BCFA8CFC 		clz	ip, ip
 669 0078 4FEA5C1C 		lsr	ip, ip, #5
 670              	.L89:
 671 007c 6745     		cmp	r7, ip
 672 007e 11D1     		bne	.L93
 673 0080 B8F1FF3F 		cmp	r8, #-1
 674 0084 C3D1     		bne	.L94
 675              	.L83:
 676 0086 C4F30745 		ubfx	r5, r4, #16, #8
 677 008a 012D     		cmp	r5, #1
 678 008c ECD0     		beq	.L95
 679 008e 3368     		ldr	r3, [r6]
 680 0090 9B69     		ldr	r3, [r3, #24]
 681 0092 24EA030C 		bic	ip, r4, r3
 682 0096 1FFA8CFC 		uxth	ip, ip
 683 009a BCFA8CFC 		clz	ip, ip
 684 009e 4FEA5C1C 		lsr	ip, ip, #5
 685 00a2 EBE7     		b	.L89
 686              	.L93:
 687 00a4 0020     		movs	r0, #0
 688              	.L87:
 689 00a6 BDE8F081 		pop	{r4, r5, r6, r7, r8, pc}
 691              		.section	.text.I2C_WaitOnMasterAddressFlagUntilTimeout,"ax",%progbits
 692              		.align	1
 693              		.syntax unified
 694              		.thumb
 695              		.thumb_func
 697              	I2C_WaitOnMasterAddressFlagUntilTimeout:
 698              		@ args = 0, pretend = 0, frame = 0
 699              		@ frame_needed = 0, uses_anonymous_args = 0
 700 0000 2DE9F843 		push	{r3, r4, r5, r6, r7, r8, r9, lr}
 701 0004 0546     		mov	r5, r0
 702 0006 0E46     		mov	r6, r1
 703 0008 9046     		mov	r8, r2
 704 000a 9946     		mov	r9, r3
 705 000c 53E0     		b	.L100
ARM GAS  C:\Users\Rick\AppData\Local\Temp\ccGOCLVW.s 			page 13


 706              	.L110:
 707 000e 1A68     		ldr	r2, [r3]
 708 0010 42F40072 		orr	r2, r2, #512
 709 0014 1A60     		str	r2, [r3]
 710 0016 2B68     		ldr	r3, [r5]
 711 0018 6FF48062 		mvn	r2, #1024
 712 001c 5A61     		str	r2, [r3, #20]
 713 001e 0023     		movs	r3, #0
 714 0020 2B63     		str	r3, [r5, #48]
 715 0022 2022     		movs	r2, #32
 716 0024 85F83D20 		strb	r2, [r5, #61]
 717 0028 85F83E30 		strb	r3, [r5, #62]
 718 002c 2A6C     		ldr	r2, [r5, #64]
 719 002e 42F00402 		orr	r2, r2, #4
 720 0032 2A64     		str	r2, [r5, #64]
 721 0034 85F83C30 		strb	r3, [r5, #60]
 722 0038 0120     		movs	r0, #1
 723 003a 4AE0     		b	.L99
 724              	.L111:
 725 003c FFF7FEFF 		bl	HAL_GetTick
 726 0040 A0EB0900 		sub	r0, r0, r9
 727 0044 4045     		cmp	r0, r8
 728 0046 02D8     		bhi	.L101
 729 0048 B8F1000F 		cmp	r8, #0
 730 004c 33D1     		bne	.L100
 731              	.L101:
 732 004e 012F     		cmp	r7, #1
 733 0050 17D0     		beq	.L108
 734 0052 2B68     		ldr	r3, [r5]
 735 0054 9B69     		ldr	r3, [r3, #24]
 736 0056 26EA0303 		bic	r3, r6, r3
 737 005a 9BB2     		uxth	r3, r3
 738 005c 003B     		subs	r3, r3, #0
 739 005e 18BF     		it	ne
 740 0060 0123     		movne	r3, #1
 741              	.L103:
 742 0062 43B3     		cbz	r3, .L100
 743 0064 0023     		movs	r3, #0
 744 0066 2B63     		str	r3, [r5, #48]
 745 0068 2022     		movs	r2, #32
 746 006a 85F83D20 		strb	r2, [r5, #61]
 747 006e 85F83E30 		strb	r3, [r5, #62]
 748 0072 2A6C     		ldr	r2, [r5, #64]
 749 0074 42F02002 		orr	r2, r2, #32
 750 0078 2A64     		str	r2, [r5, #64]
 751 007a 85F83C30 		strb	r3, [r5, #60]
 752 007e 0120     		movs	r0, #1
 753 0080 27E0     		b	.L99
 754              	.L108:
 755 0082 2B68     		ldr	r3, [r5]
 756 0084 5B69     		ldr	r3, [r3, #20]
 757 0086 26EA0303 		bic	r3, r6, r3
 758 008a 9BB2     		uxth	r3, r3
 759 008c 003B     		subs	r3, r3, #0
 760 008e 18BF     		it	ne
 761 0090 0123     		movne	r3, #1
 762 0092 E6E7     		b	.L103
ARM GAS  C:\Users\Rick\AppData\Local\Temp\ccGOCLVW.s 			page 14


 763              	.L104:
 764 0094 2B68     		ldr	r3, [r5]
 765 0096 9C69     		ldr	r4, [r3, #24]
 766 0098 26EA0404 		bic	r4, r6, r4
 767 009c A4B2     		uxth	r4, r4
 768 009e 003C     		subs	r4, r4, #0
 769 00a0 18BF     		it	ne
 770 00a2 0124     		movne	r4, #1
 771              	.L105:
 772 00a4 A4B1     		cbz	r4, .L109
 773 00a6 2B68     		ldr	r3, [r5]
 774 00a8 5A69     		ldr	r2, [r3, #20]
 775 00aa 12F4806F 		tst	r2, #1024
 776 00ae AED1     		bne	.L110
 777 00b0 B8F1FF3F 		cmp	r8, #-1
 778 00b4 C2D1     		bne	.L111
 779              	.L100:
 780 00b6 C6F30747 		ubfx	r7, r6, #16, #8
 781 00ba 012F     		cmp	r7, #1
 782 00bc EAD1     		bne	.L104
 783 00be 2B68     		ldr	r3, [r5]
 784 00c0 5C69     		ldr	r4, [r3, #20]
 785 00c2 26EA0404 		bic	r4, r6, r4
 786 00c6 A4B2     		uxth	r4, r4
 787 00c8 003C     		subs	r4, r4, #0
 788 00ca 18BF     		it	ne
 789 00cc 0124     		movne	r4, #1
 790 00ce E9E7     		b	.L105
 791              	.L109:
 792 00d0 0020     		movs	r0, #0
 793              	.L99:
 794 00d2 BDE8F883 		pop	{r3, r4, r5, r6, r7, r8, r9, pc}
 796              		.section	.text.I2C_MasterRequestWrite,"ax",%progbits
 797              		.align	1
 798              		.syntax unified
 799              		.thumb
 800              		.thumb_func
 802              	I2C_MasterRequestWrite:
 803              		@ args = 0, pretend = 0, frame = 0
 804              		@ frame_needed = 0, uses_anonymous_args = 0
 805 0000 F0B5     		push	{r4, r5, r6, r7, lr}
 806 0002 83B0     		sub	sp, sp, #12
 807 0004 0446     		mov	r4, r0
 808 0006 0D46     		mov	r5, r1
 809 0008 1646     		mov	r6, r2
 810 000a 1F46     		mov	r7, r3
 811 000c C36A     		ldr	r3, [r0, #44]
 812 000e 082B     		cmp	r3, #8
 813 0010 0DD0     		beq	.L113
 814 0012 012B     		cmp	r3, #1
 815 0014 0BD0     		beq	.L113
 816 0016 13F5803F 		cmn	r3, #65536
 817 001a 08D0     		beq	.L113
 818 001c 036B     		ldr	r3, [r0, #48]
 819 001e 122B     		cmp	r3, #18
 820 0020 0AD1     		bne	.L115
 821 0022 0268     		ldr	r2, [r0]
ARM GAS  C:\Users\Rick\AppData\Local\Temp\ccGOCLVW.s 			page 15


 822 0024 1368     		ldr	r3, [r2]
 823 0026 43F48073 		orr	r3, r3, #256
 824 002a 1360     		str	r3, [r2]
 825 002c 04E0     		b	.L115
 826              	.L113:
 827 002e 2268     		ldr	r2, [r4]
 828 0030 1368     		ldr	r3, [r2]
 829 0032 43F48073 		orr	r3, r3, #256
 830 0036 1360     		str	r3, [r2]
 831              	.L115:
 832 0038 0097     		str	r7, [sp]
 833 003a 3346     		mov	r3, r6
 834 003c 0022     		movs	r2, #0
 835 003e 4FF00111 		mov	r1, #65537
 836 0042 2046     		mov	r0, r4
 837 0044 FFF7FEFF 		bl	I2C_WaitOnFlagUntilTimeout
 838 0048 80B9     		cbnz	r0, .L124
 839 004a 2369     		ldr	r3, [r4, #16]
 840 004c B3F5804F 		cmp	r3, #16384
 841 0050 16D1     		bne	.L119
 842 0052 2368     		ldr	r3, [r4]
 843 0054 05F0FE05 		and	r5, r5, #254
 844 0058 1D61     		str	r5, [r3, #16]
 845              	.L120:
 846 005a 3B46     		mov	r3, r7
 847 005c 3246     		mov	r2, r6
 848 005e 1349     		ldr	r1, .L126
 849 0060 2046     		mov	r0, r4
 850 0062 FFF7FEFF 		bl	I2C_WaitOnMasterAddressFlagUntilTimeout
 851 0066 F8B9     		cbnz	r0, .L125
 852              	.L118:
 853 0068 03B0     		add	sp, sp, #12
 854              		@ sp needed
 855 006a F0BD     		pop	{r4, r5, r6, r7, pc}
 856              	.L124:
 857 006c 2368     		ldr	r3, [r4]
 858 006e 1B68     		ldr	r3, [r3]
 859 0070 13F4807F 		tst	r3, #256
 860 0074 02D0     		beq	.L117
 861 0076 4FF40073 		mov	r3, #512
 862 007a 2364     		str	r3, [r4, #64]
 863              	.L117:
 864 007c 0320     		movs	r0, #3
 865 007e F3E7     		b	.L118
 866              	.L119:
 867 0080 EB11     		asrs	r3, r5, #7
 868 0082 2268     		ldr	r2, [r4]
 869 0084 03F00603 		and	r3, r3, #6
 870 0088 43F0F003 		orr	r3, r3, #240
 871 008c 1361     		str	r3, [r2, #16]
 872 008e 3B46     		mov	r3, r7
 873 0090 3246     		mov	r2, r6
 874 0092 0749     		ldr	r1, .L126+4
 875 0094 2046     		mov	r0, r4
 876 0096 FFF7FEFF 		bl	I2C_WaitOnMasterAddressFlagUntilTimeout
 877 009a 18B9     		cbnz	r0, .L121
 878 009c 2368     		ldr	r3, [r4]
ARM GAS  C:\Users\Rick\AppData\Local\Temp\ccGOCLVW.s 			page 16


 879 009e EDB2     		uxtb	r5, r5
 880 00a0 1D61     		str	r5, [r3, #16]
 881 00a2 DAE7     		b	.L120
 882              	.L121:
 883 00a4 0120     		movs	r0, #1
 884 00a6 DFE7     		b	.L118
 885              	.L125:
 886 00a8 0120     		movs	r0, #1
 887 00aa DDE7     		b	.L118
 888              	.L127:
 889              		.align	2
 890              	.L126:
 891 00ac 02000100 		.word	65538
 892 00b0 08000100 		.word	65544
 894              		.section	.text.I2C_MasterRequestRead,"ax",%progbits
 895              		.align	1
 896              		.syntax unified
 897              		.thumb
 898              		.thumb_func
 900              	I2C_MasterRequestRead:
 901              		@ args = 0, pretend = 0, frame = 8
 902              		@ frame_needed = 0, uses_anonymous_args = 0
 903 0000 2DE9F041 		push	{r4, r5, r6, r7, r8, lr}
 904 0004 84B0     		sub	sp, sp, #16
 905 0006 0446     		mov	r4, r0
 906 0008 0D46     		mov	r5, r1
 907 000a 1646     		mov	r6, r2
 908 000c 1F46     		mov	r7, r3
 909 000e C26A     		ldr	r2, [r0, #44]
 910 0010 0168     		ldr	r1, [r0]
 911 0012 0B68     		ldr	r3, [r1]
 912 0014 43F48063 		orr	r3, r3, #1024
 913 0018 0B60     		str	r3, [r1]
 914 001a 082A     		cmp	r2, #8
 915 001c 0DD0     		beq	.L129
 916 001e 012A     		cmp	r2, #1
 917 0020 0BD0     		beq	.L129
 918 0022 12F5803F 		cmn	r2, #65536
 919 0026 08D0     		beq	.L129
 920 0028 036B     		ldr	r3, [r0, #48]
 921 002a 112B     		cmp	r3, #17
 922 002c 0AD1     		bne	.L131
 923 002e 0268     		ldr	r2, [r0]
 924 0030 1368     		ldr	r3, [r2]
 925 0032 43F48073 		orr	r3, r3, #256
 926 0036 1360     		str	r3, [r2]
 927 0038 04E0     		b	.L131
 928              	.L129:
 929 003a 2268     		ldr	r2, [r4]
 930 003c 1368     		ldr	r3, [r2]
 931 003e 43F48073 		orr	r3, r3, #256
 932 0042 1360     		str	r3, [r2]
 933              	.L131:
 934 0044 0097     		str	r7, [sp]
 935 0046 3346     		mov	r3, r6
 936 0048 0022     		movs	r2, #0
 937 004a 4FF00111 		mov	r1, #65537
ARM GAS  C:\Users\Rick\AppData\Local\Temp\ccGOCLVW.s 			page 17


 938 004e 2046     		mov	r0, r4
 939 0050 FFF7FEFF 		bl	I2C_WaitOnFlagUntilTimeout
 940 0054 98B9     		cbnz	r0, .L143
 941 0056 2369     		ldr	r3, [r4, #16]
 942 0058 B3F5804F 		cmp	r3, #16384
 943 005c 19D1     		bne	.L135
 944 005e 2368     		ldr	r3, [r4]
 945 0060 45F00105 		orr	r5, r5, #1
 946 0064 EDB2     		uxtb	r5, r5
 947 0066 1D61     		str	r5, [r3, #16]
 948              	.L136:
 949 0068 3B46     		mov	r3, r7
 950 006a 3246     		mov	r2, r6
 951 006c 2A49     		ldr	r1, .L148
 952 006e 2046     		mov	r0, r4
 953 0070 FFF7FEFF 		bl	I2C_WaitOnMasterAddressFlagUntilTimeout
 954 0074 0028     		cmp	r0, #0
 955 0076 4CD1     		bne	.L144
 956              	.L134:
 957 0078 04B0     		add	sp, sp, #16
 958              		@ sp needed
 959 007a BDE8F081 		pop	{r4, r5, r6, r7, r8, pc}
 960              	.L143:
 961 007e 2368     		ldr	r3, [r4]
 962 0080 1B68     		ldr	r3, [r3]
 963 0082 13F4807F 		tst	r3, #256
 964 0086 02D0     		beq	.L133
 965 0088 4FF40073 		mov	r3, #512
 966 008c 2364     		str	r3, [r4, #64]
 967              	.L133:
 968 008e 0320     		movs	r0, #3
 969 0090 F2E7     		b	.L134
 970              	.L135:
 971 0092 4FEAE518 		asr	r8, r5, #7
 972 0096 08F00608 		and	r8, r8, #6
 973 009a 2368     		ldr	r3, [r4]
 974 009c 48F0F002 		orr	r2, r8, #240
 975 00a0 1A61     		str	r2, [r3, #16]
 976 00a2 3B46     		mov	r3, r7
 977 00a4 3246     		mov	r2, r6
 978 00a6 1D49     		ldr	r1, .L148+4
 979 00a8 2046     		mov	r0, r4
 980 00aa FFF7FEFF 		bl	I2C_WaitOnMasterAddressFlagUntilTimeout
 981 00ae 08B1     		cbz	r0, .L145
 982 00b0 0120     		movs	r0, #1
 983 00b2 E1E7     		b	.L134
 984              	.L145:
 985 00b4 2368     		ldr	r3, [r4]
 986 00b6 EDB2     		uxtb	r5, r5
 987 00b8 1D61     		str	r5, [r3, #16]
 988 00ba 3B46     		mov	r3, r7
 989 00bc 3246     		mov	r2, r6
 990 00be 1649     		ldr	r1, .L148
 991 00c0 2046     		mov	r0, r4
 992 00c2 FFF7FEFF 		bl	I2C_WaitOnMasterAddressFlagUntilTimeout
 993 00c6 08B1     		cbz	r0, .L146
 994 00c8 0120     		movs	r0, #1
ARM GAS  C:\Users\Rick\AppData\Local\Temp\ccGOCLVW.s 			page 18


 995 00ca D5E7     		b	.L134
 996              	.L146:
 997 00cc 0022     		movs	r2, #0
 998 00ce 0392     		str	r2, [sp, #12]
 999 00d0 2368     		ldr	r3, [r4]
 1000 00d2 5969     		ldr	r1, [r3, #20]
 1001 00d4 0391     		str	r1, [sp, #12]
 1002 00d6 9969     		ldr	r1, [r3, #24]
 1003 00d8 0391     		str	r1, [sp, #12]
 1004 00da 0399     		ldr	r1, [sp, #12]
 1005 00dc 1968     		ldr	r1, [r3]
 1006 00de 41F48071 		orr	r1, r1, #256
 1007 00e2 1960     		str	r1, [r3]
 1008 00e4 0097     		str	r7, [sp]
 1009 00e6 3346     		mov	r3, r6
 1010 00e8 4FF00111 		mov	r1, #65537
 1011 00ec 2046     		mov	r0, r4
 1012 00ee FFF7FEFF 		bl	I2C_WaitOnFlagUntilTimeout
 1013 00f2 20B9     		cbnz	r0, .L147
 1014 00f4 2268     		ldr	r2, [r4]
 1015 00f6 48F0F103 		orr	r3, r8, #241
 1016 00fa 1361     		str	r3, [r2, #16]
 1017 00fc B4E7     		b	.L136
 1018              	.L147:
 1019 00fe 2368     		ldr	r3, [r4]
 1020 0100 1B68     		ldr	r3, [r3]
 1021 0102 13F4807F 		tst	r3, #256
 1022 0106 02D0     		beq	.L138
 1023 0108 4FF40073 		mov	r3, #512
 1024 010c 2364     		str	r3, [r4, #64]
 1025              	.L138:
 1026 010e 0320     		movs	r0, #3
 1027 0110 B2E7     		b	.L134
 1028              	.L144:
 1029 0112 0120     		movs	r0, #1
 1030 0114 B0E7     		b	.L134
 1031              	.L149:
 1032 0116 00BF     		.align	2
 1033              	.L148:
 1034 0118 02000100 		.word	65538
 1035 011c 08000100 		.word	65544
 1037              		.section	.text.I2C_WaitOnTXEFlagUntilTimeout,"ax",%progbits
 1038              		.align	1
 1039              		.syntax unified
 1040              		.thumb
 1041              		.thumb_func
 1043              	I2C_WaitOnTXEFlagUntilTimeout:
 1044              		@ args = 0, pretend = 0, frame = 0
 1045              		@ frame_needed = 0, uses_anonymous_args = 0
 1046 0000 70B5     		push	{r4, r5, r6, lr}
 1047 0002 0446     		mov	r4, r0
 1048 0004 0D46     		mov	r5, r1
 1049 0006 1646     		mov	r6, r2
 1050              	.L153:
 1051 0008 2368     		ldr	r3, [r4]
 1052 000a 5B69     		ldr	r3, [r3, #20]
 1053 000c 13F0800F 		tst	r3, #128
ARM GAS  C:\Users\Rick\AppData\Local\Temp\ccGOCLVW.s 			page 19


 1054 0010 21D1     		bne	.L158
 1055 0012 2046     		mov	r0, r4
 1056 0014 FFF7FEFF 		bl	I2C_IsAcknowledgeFailed
 1057 0018 F8B9     		cbnz	r0, .L156
 1058 001a B5F1FF3F 		cmp	r5, #-1
 1059 001e F3D0     		beq	.L153
 1060 0020 FFF7FEFF 		bl	HAL_GetTick
 1061 0024 801B     		subs	r0, r0, r6
 1062 0026 A842     		cmp	r0, r5
 1063 0028 01D8     		bhi	.L154
 1064 002a 002D     		cmp	r5, #0
 1065 002c ECD1     		bne	.L153
 1066              	.L154:
 1067 002e 2368     		ldr	r3, [r4]
 1068 0030 5B69     		ldr	r3, [r3, #20]
 1069 0032 13F0800F 		tst	r3, #128
 1070 0036 E7D1     		bne	.L153
 1071 0038 0023     		movs	r3, #0
 1072 003a 2363     		str	r3, [r4, #48]
 1073 003c 2022     		movs	r2, #32
 1074 003e 84F83D20 		strb	r2, [r4, #61]
 1075 0042 84F83E30 		strb	r3, [r4, #62]
 1076 0046 226C     		ldr	r2, [r4, #64]
 1077 0048 42F02002 		orr	r2, r2, #32
 1078 004c 2264     		str	r2, [r4, #64]
 1079 004e 84F83C30 		strb	r3, [r4, #60]
 1080 0052 0120     		movs	r0, #1
 1081 0054 00E0     		b	.L152
 1082              	.L158:
 1083 0056 0020     		movs	r0, #0
 1084              	.L152:
 1085 0058 70BD     		pop	{r4, r5, r6, pc}
 1086              	.L156:
 1087 005a 0120     		movs	r0, #1
 1088 005c FCE7     		b	.L152
 1090              		.section	.text.I2C_RequestMemoryWrite,"ax",%progbits
 1091              		.align	1
 1092              		.syntax unified
 1093              		.thumb
 1094              		.thumb_func
 1096              	I2C_RequestMemoryWrite:
 1097              		@ args = 8, pretend = 0, frame = 8
 1098              		@ frame_needed = 0, uses_anonymous_args = 0
 1099 0000 2DE9F043 		push	{r4, r5, r6, r7, r8, r9, lr}
 1100 0004 85B0     		sub	sp, sp, #20
 1101 0006 0446     		mov	r4, r0
 1102 0008 0D46     		mov	r5, r1
 1103 000a 9146     		mov	r9, r2
 1104 000c 1F46     		mov	r7, r3
 1105 000e DDF83080 		ldr	r8, [sp, #48]
 1106 0012 0D9E     		ldr	r6, [sp, #52]
 1107 0014 0368     		ldr	r3, [r0]
 1108 0016 1968     		ldr	r1, [r3]
 1109 0018 41F48071 		orr	r1, r1, #256
 1110 001c 1960     		str	r1, [r3]
 1111 001e 0096     		str	r6, [sp]
 1112 0020 4346     		mov	r3, r8
ARM GAS  C:\Users\Rick\AppData\Local\Temp\ccGOCLVW.s 			page 20


 1113 0022 0022     		movs	r2, #0
 1114 0024 4FF00111 		mov	r1, #65537
 1115 0028 FFF7FEFF 		bl	I2C_WaitOnFlagUntilTimeout
 1116 002c 60B9     		cbnz	r0, .L170
 1117 002e 2368     		ldr	r3, [r4]
 1118 0030 05F0FE05 		and	r5, r5, #254
 1119 0034 1D61     		str	r5, [r3, #16]
 1120 0036 3346     		mov	r3, r6
 1121 0038 4246     		mov	r2, r8
 1122 003a 2649     		ldr	r1, .L176
 1123 003c 2046     		mov	r0, r4
 1124 003e FFF7FEFF 		bl	I2C_WaitOnMasterAddressFlagUntilTimeout
 1125 0042 68B1     		cbz	r0, .L171
 1126 0044 0120     		movs	r0, #1
 1127 0046 08E0     		b	.L162
 1128              	.L170:
 1129 0048 2368     		ldr	r3, [r4]
 1130 004a 1B68     		ldr	r3, [r3]
 1131 004c 13F4807F 		tst	r3, #256
 1132 0050 02D0     		beq	.L161
 1133 0052 4FF40073 		mov	r3, #512
 1134 0056 2364     		str	r3, [r4, #64]
 1135              	.L161:
 1136 0058 0320     		movs	r0, #3
 1137              	.L162:
 1138 005a 05B0     		add	sp, sp, #20
 1139              		@ sp needed
 1140 005c BDE8F083 		pop	{r4, r5, r6, r7, r8, r9, pc}
 1141              	.L171:
 1142 0060 0023     		movs	r3, #0
 1143 0062 0393     		str	r3, [sp, #12]
 1144 0064 2368     		ldr	r3, [r4]
 1145 0066 5A69     		ldr	r2, [r3, #20]
 1146 0068 0392     		str	r2, [sp, #12]
 1147 006a 9B69     		ldr	r3, [r3, #24]
 1148 006c 0393     		str	r3, [sp, #12]
 1149 006e 039B     		ldr	r3, [sp, #12]
 1150 0070 3246     		mov	r2, r6
 1151 0072 4146     		mov	r1, r8
 1152 0074 2046     		mov	r0, r4
 1153 0076 FFF7FEFF 		bl	I2C_WaitOnTXEFlagUntilTimeout
 1154 007a 30B9     		cbnz	r0, .L172
 1155 007c 012F     		cmp	r7, #1
 1156 007e 0FD1     		bne	.L165
 1157 0080 2368     		ldr	r3, [r4]
 1158 0082 5FFA89F6 		uxtb	r6, r9
 1159 0086 1E61     		str	r6, [r3, #16]
 1160 0088 E7E7     		b	.L162
 1161              	.L172:
 1162 008a 236C     		ldr	r3, [r4, #64]
 1163 008c 042B     		cmp	r3, #4
 1164 008e 01D0     		beq	.L173
 1165              	.L164:
 1166 0090 0120     		movs	r0, #1
 1167 0092 E2E7     		b	.L162
 1168              	.L173:
 1169 0094 2268     		ldr	r2, [r4]
ARM GAS  C:\Users\Rick\AppData\Local\Temp\ccGOCLVW.s 			page 21


 1170 0096 1368     		ldr	r3, [r2]
 1171 0098 43F40073 		orr	r3, r3, #512
 1172 009c 1360     		str	r3, [r2]
 1173 009e F7E7     		b	.L164
 1174              	.L165:
 1175 00a0 2368     		ldr	r3, [r4]
 1176 00a2 4FEA1922 		lsr	r2, r9, #8
 1177 00a6 1A61     		str	r2, [r3, #16]
 1178 00a8 3246     		mov	r2, r6
 1179 00aa 4146     		mov	r1, r8
 1180 00ac 2046     		mov	r0, r4
 1181 00ae FFF7FEFF 		bl	I2C_WaitOnTXEFlagUntilTimeout
 1182 00b2 20B9     		cbnz	r0, .L174
 1183 00b4 2368     		ldr	r3, [r4]
 1184 00b6 5FFA89F6 		uxtb	r6, r9
 1185 00ba 1E61     		str	r6, [r3, #16]
 1186 00bc CDE7     		b	.L162
 1187              	.L174:
 1188 00be 236C     		ldr	r3, [r4, #64]
 1189 00c0 042B     		cmp	r3, #4
 1190 00c2 01D0     		beq	.L175
 1191              	.L167:
 1192 00c4 0120     		movs	r0, #1
 1193 00c6 C8E7     		b	.L162
 1194              	.L175:
 1195 00c8 2268     		ldr	r2, [r4]
 1196 00ca 1368     		ldr	r3, [r2]
 1197 00cc 43F40073 		orr	r3, r3, #512
 1198 00d0 1360     		str	r3, [r2]
 1199 00d2 F7E7     		b	.L167
 1200              	.L177:
 1201              		.align	2
 1202              	.L176:
 1203 00d4 02000100 		.word	65538
 1205              		.section	.text.I2C_RequestMemoryRead,"ax",%progbits
 1206              		.align	1
 1207              		.syntax unified
 1208              		.thumb
 1209              		.thumb_func
 1211              	I2C_RequestMemoryRead:
 1212              		@ args = 8, pretend = 0, frame = 8
 1213              		@ frame_needed = 0, uses_anonymous_args = 0
 1214 0000 2DE9F047 		push	{r4, r5, r6, r7, r8, r9, r10, lr}
 1215 0004 84B0     		sub	sp, sp, #16
 1216 0006 0446     		mov	r4, r0
 1217 0008 0D46     		mov	r5, r1
 1218 000a 1646     		mov	r6, r2
 1219 000c 9946     		mov	r9, r3
 1220 000e 0C9F     		ldr	r7, [sp, #48]
 1221 0010 DDF83480 		ldr	r8, [sp, #52]
 1222 0014 0268     		ldr	r2, [r0]
 1223 0016 1368     		ldr	r3, [r2]
 1224 0018 43F48063 		orr	r3, r3, #1024
 1225 001c 1360     		str	r3, [r2]
 1226 001e 0368     		ldr	r3, [r0]
 1227 0020 1968     		ldr	r1, [r3]
 1228 0022 41F48071 		orr	r1, r1, #256
ARM GAS  C:\Users\Rick\AppData\Local\Temp\ccGOCLVW.s 			page 22


 1229 0026 1960     		str	r1, [r3]
 1230 0028 CDF80080 		str	r8, [sp]
 1231 002c 3B46     		mov	r3, r7
 1232 002e 0022     		movs	r2, #0
 1233 0030 4FF00111 		mov	r1, #65537
 1234 0034 FFF7FEFF 		bl	I2C_WaitOnFlagUntilTimeout
 1235 0038 70B9     		cbnz	r0, .L195
 1236 003a 5FFA85FA 		uxtb	r10, r5
 1237 003e 2368     		ldr	r3, [r4]
 1238 0040 05F0FE05 		and	r5, r5, #254
 1239 0044 1D61     		str	r5, [r3, #16]
 1240 0046 4346     		mov	r3, r8
 1241 0048 3A46     		mov	r2, r7
 1242 004a 4149     		ldr	r1, .L203
 1243 004c 2046     		mov	r0, r4
 1244 004e FFF7FEFF 		bl	I2C_WaitOnMasterAddressFlagUntilTimeout
 1245 0052 68B1     		cbz	r0, .L196
 1246 0054 0120     		movs	r0, #1
 1247 0056 08E0     		b	.L181
 1248              	.L195:
 1249 0058 2368     		ldr	r3, [r4]
 1250 005a 1B68     		ldr	r3, [r3]
 1251 005c 13F4807F 		tst	r3, #256
 1252 0060 02D0     		beq	.L180
 1253 0062 4FF40073 		mov	r3, #512
 1254 0066 2364     		str	r3, [r4, #64]
 1255              	.L180:
 1256 0068 0320     		movs	r0, #3
 1257              	.L181:
 1258 006a 04B0     		add	sp, sp, #16
 1259              		@ sp needed
 1260 006c BDE8F087 		pop	{r4, r5, r6, r7, r8, r9, r10, pc}
 1261              	.L196:
 1262 0070 0023     		movs	r3, #0
 1263 0072 0393     		str	r3, [sp, #12]
 1264 0074 2368     		ldr	r3, [r4]
 1265 0076 5A69     		ldr	r2, [r3, #20]
 1266 0078 0392     		str	r2, [sp, #12]
 1267 007a 9B69     		ldr	r3, [r3, #24]
 1268 007c 0393     		str	r3, [sp, #12]
 1269 007e 039B     		ldr	r3, [sp, #12]
 1270 0080 4246     		mov	r2, r8
 1271 0082 3946     		mov	r1, r7
 1272 0084 2046     		mov	r0, r4
 1273 0086 FFF7FEFF 		bl	I2C_WaitOnTXEFlagUntilTimeout
 1274 008a 80B9     		cbnz	r0, .L197
 1275 008c B9F1010F 		cmp	r9, #1
 1276 0090 18D1     		bne	.L184
 1277 0092 2368     		ldr	r3, [r4]
 1278 0094 F6B2     		uxtb	r6, r6
 1279 0096 1E61     		str	r6, [r3, #16]
 1280              	.L185:
 1281 0098 4246     		mov	r2, r8
 1282 009a 3946     		mov	r1, r7
 1283 009c 2046     		mov	r0, r4
 1284 009e FFF7FEFF 		bl	I2C_WaitOnTXEFlagUntilTimeout
 1285 00a2 68B3     		cbz	r0, .L188
ARM GAS  C:\Users\Rick\AppData\Local\Temp\ccGOCLVW.s 			page 23


 1286 00a4 236C     		ldr	r3, [r4, #64]
 1287 00a6 042B     		cmp	r3, #4
 1288 00a8 24D0     		beq	.L198
 1289              	.L189:
 1290 00aa 0120     		movs	r0, #1
 1291 00ac DDE7     		b	.L181
 1292              	.L197:
 1293 00ae 236C     		ldr	r3, [r4, #64]
 1294 00b0 042B     		cmp	r3, #4
 1295 00b2 01D0     		beq	.L199
 1296              	.L183:
 1297 00b4 0120     		movs	r0, #1
 1298 00b6 D8E7     		b	.L181
 1299              	.L199:
 1300 00b8 2268     		ldr	r2, [r4]
 1301 00ba 1368     		ldr	r3, [r2]
 1302 00bc 43F40073 		orr	r3, r3, #512
 1303 00c0 1360     		str	r3, [r2]
 1304 00c2 F7E7     		b	.L183
 1305              	.L184:
 1306 00c4 2368     		ldr	r3, [r4]
 1307 00c6 320A     		lsrs	r2, r6, #8
 1308 00c8 1A61     		str	r2, [r3, #16]
 1309 00ca 4246     		mov	r2, r8
 1310 00cc 3946     		mov	r1, r7
 1311 00ce 2046     		mov	r0, r4
 1312 00d0 FFF7FEFF 		bl	I2C_WaitOnTXEFlagUntilTimeout
 1313 00d4 18B9     		cbnz	r0, .L200
 1314 00d6 2368     		ldr	r3, [r4]
 1315 00d8 F6B2     		uxtb	r6, r6
 1316 00da 1E61     		str	r6, [r3, #16]
 1317 00dc DCE7     		b	.L185
 1318              	.L200:
 1319 00de 236C     		ldr	r3, [r4, #64]
 1320 00e0 042B     		cmp	r3, #4
 1321 00e2 01D0     		beq	.L201
 1322              	.L187:
 1323 00e4 0120     		movs	r0, #1
 1324 00e6 C0E7     		b	.L181
 1325              	.L201:
 1326 00e8 2268     		ldr	r2, [r4]
 1327 00ea 1368     		ldr	r3, [r2]
 1328 00ec 43F40073 		orr	r3, r3, #512
 1329 00f0 1360     		str	r3, [r2]
 1330 00f2 F7E7     		b	.L187
 1331              	.L198:
 1332 00f4 2268     		ldr	r2, [r4]
 1333 00f6 1368     		ldr	r3, [r2]
 1334 00f8 43F40073 		orr	r3, r3, #512
 1335 00fc 1360     		str	r3, [r2]
 1336 00fe D4E7     		b	.L189
 1337              	.L188:
 1338 0100 2268     		ldr	r2, [r4]
 1339 0102 1368     		ldr	r3, [r2]
 1340 0104 43F48073 		orr	r3, r3, #256
 1341 0108 1360     		str	r3, [r2]
 1342 010a CDF80080 		str	r8, [sp]
ARM GAS  C:\Users\Rick\AppData\Local\Temp\ccGOCLVW.s 			page 24


 1343 010e 3B46     		mov	r3, r7
 1344 0110 0022     		movs	r2, #0
 1345 0112 4FF00111 		mov	r1, #65537
 1346 0116 2046     		mov	r0, r4
 1347 0118 FFF7FEFF 		bl	I2C_WaitOnFlagUntilTimeout
 1348 011c 68B9     		cbnz	r0, .L202
 1349 011e 2268     		ldr	r2, [r4]
 1350 0120 4AF00103 		orr	r3, r10, #1
 1351 0124 1361     		str	r3, [r2, #16]
 1352 0126 4346     		mov	r3, r8
 1353 0128 3A46     		mov	r2, r7
 1354 012a 0949     		ldr	r1, .L203
 1355 012c 2046     		mov	r0, r4
 1356 012e FFF7FEFF 		bl	I2C_WaitOnMasterAddressFlagUntilTimeout
 1357 0132 0028     		cmp	r0, #0
 1358 0134 99D0     		beq	.L181
 1359 0136 0120     		movs	r0, #1
 1360 0138 97E7     		b	.L181
 1361              	.L202:
 1362 013a 2368     		ldr	r3, [r4]
 1363 013c 1B68     		ldr	r3, [r3]
 1364 013e 13F4807F 		tst	r3, #256
 1365 0142 02D0     		beq	.L191
 1366 0144 4FF40073 		mov	r3, #512
 1367 0148 2364     		str	r3, [r4, #64]
 1368              	.L191:
 1369 014a 0320     		movs	r0, #3
 1370 014c 8DE7     		b	.L181
 1371              	.L204:
 1372 014e 00BF     		.align	2
 1373              	.L203:
 1374 0150 02000100 		.word	65538
 1376              		.section	.text.I2C_WaitOnBTFFlagUntilTimeout,"ax",%progbits
 1377              		.align	1
 1378              		.syntax unified
 1379              		.thumb
 1380              		.thumb_func
 1382              	I2C_WaitOnBTFFlagUntilTimeout:
 1383              		@ args = 0, pretend = 0, frame = 0
 1384              		@ frame_needed = 0, uses_anonymous_args = 0
 1385 0000 70B5     		push	{r4, r5, r6, lr}
 1386 0002 0446     		mov	r4, r0
 1387 0004 0D46     		mov	r5, r1
 1388 0006 1646     		mov	r6, r2
 1389              	.L208:
 1390 0008 2368     		ldr	r3, [r4]
 1391 000a 5B69     		ldr	r3, [r3, #20]
 1392 000c 13F0040F 		tst	r3, #4
 1393 0010 21D1     		bne	.L213
 1394 0012 2046     		mov	r0, r4
 1395 0014 FFF7FEFF 		bl	I2C_IsAcknowledgeFailed
 1396 0018 F8B9     		cbnz	r0, .L211
 1397 001a B5F1FF3F 		cmp	r5, #-1
 1398 001e F3D0     		beq	.L208
 1399 0020 FFF7FEFF 		bl	HAL_GetTick
 1400 0024 801B     		subs	r0, r0, r6
 1401 0026 A842     		cmp	r0, r5
ARM GAS  C:\Users\Rick\AppData\Local\Temp\ccGOCLVW.s 			page 25


 1402 0028 01D8     		bhi	.L209
 1403 002a 002D     		cmp	r5, #0
 1404 002c ECD1     		bne	.L208
 1405              	.L209:
 1406 002e 2368     		ldr	r3, [r4]
 1407 0030 5B69     		ldr	r3, [r3, #20]
 1408 0032 13F0040F 		tst	r3, #4
 1409 0036 E7D1     		bne	.L208
 1410 0038 0023     		movs	r3, #0
 1411 003a 2363     		str	r3, [r4, #48]
 1412 003c 2022     		movs	r2, #32
 1413 003e 84F83D20 		strb	r2, [r4, #61]
 1414 0042 84F83E30 		strb	r3, [r4, #62]
 1415 0046 226C     		ldr	r2, [r4, #64]
 1416 0048 42F02002 		orr	r2, r2, #32
 1417 004c 2264     		str	r2, [r4, #64]
 1418 004e 84F83C30 		strb	r3, [r4, #60]
 1419 0052 0120     		movs	r0, #1
 1420 0054 00E0     		b	.L207
 1421              	.L213:
 1422 0056 0020     		movs	r0, #0
 1423              	.L207:
 1424 0058 70BD     		pop	{r4, r5, r6, pc}
 1425              	.L211:
 1426 005a 0120     		movs	r0, #1
 1427 005c FCE7     		b	.L207
 1429              		.section	.text.I2C_WaitOnRXNEFlagUntilTimeout,"ax",%progbits
 1430              		.align	1
 1431              		.syntax unified
 1432              		.thumb
 1433              		.thumb_func
 1435              	I2C_WaitOnRXNEFlagUntilTimeout:
 1436              		@ args = 0, pretend = 0, frame = 0
 1437              		@ frame_needed = 0, uses_anonymous_args = 0
 1438 0000 70B5     		push	{r4, r5, r6, lr}
 1439 0002 0446     		mov	r4, r0
 1440 0004 0D46     		mov	r5, r1
 1441 0006 1646     		mov	r6, r2
 1442 0008 14E0     		b	.L215
 1443              	.L223:
 1444 000a 6FF01002 		mvn	r2, #16
 1445 000e 5A61     		str	r2, [r3, #20]
 1446 0010 0023     		movs	r3, #0
 1447 0012 2363     		str	r3, [r4, #48]
 1448 0014 2022     		movs	r2, #32
 1449 0016 84F83D20 		strb	r2, [r4, #61]
 1450 001a 84F83E30 		strb	r3, [r4, #62]
 1451 001e 226C     		ldr	r2, [r4, #64]
 1452 0020 2264     		str	r2, [r4, #64]
 1453 0022 84F83C30 		strb	r3, [r4, #60]
 1454 0026 0120     		movs	r0, #1
 1455 0028 25E0     		b	.L217
 1456              	.L218:
 1457 002a 2368     		ldr	r3, [r4]
 1458 002c 5B69     		ldr	r3, [r3, #20]
 1459 002e 13F0400F 		tst	r3, #64
 1460 0032 10D0     		beq	.L221
ARM GAS  C:\Users\Rick\AppData\Local\Temp\ccGOCLVW.s 			page 26


 1461              	.L215:
 1462 0034 2368     		ldr	r3, [r4]
 1463 0036 5869     		ldr	r0, [r3, #20]
 1464 0038 10F0400F 		tst	r0, #64
 1465 003c 1AD1     		bne	.L222
 1466 003e 5869     		ldr	r0, [r3, #20]
 1467 0040 10F0100F 		tst	r0, #16
 1468 0044 E1D1     		bne	.L223
 1469 0046 FFF7FEFF 		bl	HAL_GetTick
 1470 004a 801B     		subs	r0, r0, r6
 1471 004c A842     		cmp	r0, r5
 1472 004e ECD8     		bhi	.L218
 1473 0050 002D     		cmp	r5, #0
 1474 0052 EFD1     		bne	.L215
 1475 0054 E9E7     		b	.L218
 1476              	.L221:
 1477 0056 0023     		movs	r3, #0
 1478 0058 2363     		str	r3, [r4, #48]
 1479 005a 2022     		movs	r2, #32
 1480 005c 84F83D20 		strb	r2, [r4, #61]
 1481 0060 84F83E30 		strb	r3, [r4, #62]
 1482 0064 226C     		ldr	r2, [r4, #64]
 1483 0066 42F02002 		orr	r2, r2, #32
 1484 006a 2264     		str	r2, [r4, #64]
 1485 006c 84F83C30 		strb	r3, [r4, #60]
 1486 0070 0120     		movs	r0, #1
 1487 0072 00E0     		b	.L217
 1488              	.L222:
 1489 0074 0020     		movs	r0, #0
 1490              	.L217:
 1491 0076 70BD     		pop	{r4, r5, r6, pc}
 1493              		.section	.text.I2C_WaitOnSTOPFlagUntilTimeout,"ax",%progbits
 1494              		.align	1
 1495              		.syntax unified
 1496              		.thumb
 1497              		.thumb_func
 1499              	I2C_WaitOnSTOPFlagUntilTimeout:
 1500              		@ args = 0, pretend = 0, frame = 0
 1501              		@ frame_needed = 0, uses_anonymous_args = 0
 1502 0000 70B5     		push	{r4, r5, r6, lr}
 1503 0002 0446     		mov	r4, r0
 1504 0004 0D46     		mov	r5, r1
 1505 0006 1646     		mov	r6, r2
 1506 0008 04E0     		b	.L225
 1507              	.L227:
 1508 000a 2368     		ldr	r3, [r4]
 1509 000c 5B69     		ldr	r3, [r3, #20]
 1510 000e 13F0100F 		tst	r3, #16
 1511 0012 10D0     		beq	.L231
 1512              	.L225:
 1513 0014 2368     		ldr	r3, [r4]
 1514 0016 5B69     		ldr	r3, [r3, #20]
 1515 0018 13F0100F 		tst	r3, #16
 1516 001c 1AD1     		bne	.L232
 1517 001e 2046     		mov	r0, r4
 1518 0020 FFF7FEFF 		bl	I2C_IsAcknowledgeFailed
 1519 0024 C0B9     		cbnz	r0, .L229
ARM GAS  C:\Users\Rick\AppData\Local\Temp\ccGOCLVW.s 			page 27


 1520 0026 FFF7FEFF 		bl	HAL_GetTick
 1521 002a 801B     		subs	r0, r0, r6
 1522 002c A842     		cmp	r0, r5
 1523 002e ECD8     		bhi	.L227
 1524 0030 002D     		cmp	r5, #0
 1525 0032 EFD1     		bne	.L225
 1526 0034 E9E7     		b	.L227
 1527              	.L231:
 1528 0036 0023     		movs	r3, #0
 1529 0038 2363     		str	r3, [r4, #48]
 1530 003a 2022     		movs	r2, #32
 1531 003c 84F83D20 		strb	r2, [r4, #61]
 1532 0040 84F83E30 		strb	r3, [r4, #62]
 1533 0044 226C     		ldr	r2, [r4, #64]
 1534 0046 42F02002 		orr	r2, r2, #32
 1535 004a 2264     		str	r2, [r4, #64]
 1536 004c 84F83C30 		strb	r3, [r4, #60]
 1537 0050 0120     		movs	r0, #1
 1538 0052 00E0     		b	.L226
 1539              	.L232:
 1540 0054 0020     		movs	r0, #0
 1541              	.L226:
 1542 0056 70BD     		pop	{r4, r5, r6, pc}
 1543              	.L229:
 1544 0058 0120     		movs	r0, #1
 1545 005a FCE7     		b	.L226
 1547              		.section	.text.HAL_I2C_MspInit,"ax",%progbits
 1548              		.align	1
 1549              		.weak	HAL_I2C_MspInit
 1550              		.syntax unified
 1551              		.thumb
 1552              		.thumb_func
 1554              	HAL_I2C_MspInit:
 1555              		@ args = 0, pretend = 0, frame = 0
 1556              		@ frame_needed = 0, uses_anonymous_args = 0
 1557              		@ link register save eliminated.
 1558 0000 7047     		bx	lr
 1560              		.section	.text.HAL_I2C_Init,"ax",%progbits
 1561              		.align	1
 1562              		.global	HAL_I2C_Init
 1563              		.syntax unified
 1564              		.thumb
 1565              		.thumb_func
 1567              	HAL_I2C_Init:
 1568              		@ args = 0, pretend = 0, frame = 0
 1569              		@ frame_needed = 0, uses_anonymous_args = 0
 1570 0000 0028     		cmp	r0, #0
 1571 0002 00F0CC80 		beq	.L246
 1572 0006 70B5     		push	{r4, r5, r6, lr}
 1573 0008 0446     		mov	r4, r0
 1574 000a 90F83D30 		ldrb	r3, [r0, #61]	@ zero_extendqisi2
 1575 000e 002B     		cmp	r3, #0
 1576 0010 77D0     		beq	.L254
 1577              	.L236:
 1578 0012 2423     		movs	r3, #36
 1579 0014 84F83D30 		strb	r3, [r4, #61]
 1580 0018 2268     		ldr	r2, [r4]
ARM GAS  C:\Users\Rick\AppData\Local\Temp\ccGOCLVW.s 			page 28


 1581 001a 1368     		ldr	r3, [r2]
 1582 001c 23F00103 		bic	r3, r3, #1
 1583 0020 1360     		str	r3, [r2]
 1584 0022 2268     		ldr	r2, [r4]
 1585 0024 1368     		ldr	r3, [r2]
 1586 0026 43F40043 		orr	r3, r3, #32768
 1587 002a 1360     		str	r3, [r2]
 1588 002c 2268     		ldr	r2, [r4]
 1589 002e 1368     		ldr	r3, [r2]
 1590 0030 23F40043 		bic	r3, r3, #32768
 1591 0034 1360     		str	r3, [r2]
 1592 0036 FFF7FEFF 		bl	HAL_RCC_GetPCLK1Freq
 1593 003a 6268     		ldr	r2, [r4, #4]
 1594 003c 5A4B     		ldr	r3, .L255
 1595 003e 9A42     		cmp	r2, r3
 1596 0040 64D8     		bhi	.L237
 1597 0042 5A4B     		ldr	r3, .L255+4
 1598 0044 9842     		cmp	r0, r3
 1599 0046 8CBF     		ite	hi
 1600 0048 0023     		movhi	r3, #0
 1601 004a 0123     		movls	r3, #1
 1602              	.L238:
 1603 004c 002B     		cmp	r3, #0
 1604 004e 40F0A880 		bne	.L247
 1605 0052 5749     		ldr	r1, .L255+8
 1606 0054 A1FB0031 		umull	r3, r1, r1, r0
 1607 0058 8B0C     		lsrs	r3, r1, #18
 1608 005a 2568     		ldr	r5, [r4]
 1609 005c 6A68     		ldr	r2, [r5, #4]
 1610 005e 22F03F02 		bic	r2, r2, #63
 1611 0062 42EA9142 		orr	r2, r2, r1, lsr #18
 1612 0066 6A60     		str	r2, [r5, #4]
 1613 0068 2168     		ldr	r1, [r4]
 1614 006a 0A6A     		ldr	r2, [r1, #32]
 1615 006c 22F03F02 		bic	r2, r2, #63
 1616 0070 6668     		ldr	r6, [r4, #4]
 1617 0072 4D4D     		ldr	r5, .L255
 1618 0074 AE42     		cmp	r6, r5
 1619 0076 4FD8     		bhi	.L239
 1620 0078 0133     		adds	r3, r3, #1
 1621              	.L240:
 1622 007a 1343     		orrs	r3, r3, r2
 1623 007c 0B62     		str	r3, [r1, #32]
 1624 007e 2168     		ldr	r1, [r4]
 1625 0080 CA69     		ldr	r2, [r1, #28]
 1626 0082 22F44F42 		bic	r2, r2, #52992
 1627 0086 22F0FF02 		bic	r2, r2, #255
 1628 008a 6568     		ldr	r5, [r4, #4]
 1629 008c 464B     		ldr	r3, .L255
 1630 008e 9D42     		cmp	r5, r3
 1631 0090 4CD8     		bhi	.L241
 1632 0092 431E     		subs	r3, r0, #1
 1633 0094 6D00     		lsls	r5, r5, #1
 1634 0096 B3FBF5F3 		udiv	r3, r3, r5
 1635 009a 0133     		adds	r3, r3, #1
 1636 009c 40F6FC70 		movw	r0, #4092
 1637 00a0 0342     		tst	r3, r0
ARM GAS  C:\Users\Rick\AppData\Local\Temp\ccGOCLVW.s 			page 29


 1638 00a2 78D0     		beq	.L248
 1639 00a4 C3F30B03 		ubfx	r3, r3, #0, #12
 1640              	.L242:
 1641 00a8 1A43     		orrs	r2, r2, r3
 1642 00aa CA61     		str	r2, [r1, #28]
 1643 00ac 2168     		ldr	r1, [r4]
 1644 00ae 0B68     		ldr	r3, [r1]
 1645 00b0 23F0C003 		bic	r3, r3, #192
 1646 00b4 E269     		ldr	r2, [r4, #28]
 1647 00b6 206A     		ldr	r0, [r4, #32]
 1648 00b8 0243     		orrs	r2, r2, r0
 1649 00ba 1343     		orrs	r3, r3, r2
 1650 00bc 0B60     		str	r3, [r1]
 1651 00be 2168     		ldr	r1, [r4]
 1652 00c0 8B68     		ldr	r3, [r1, #8]
 1653 00c2 23F40343 		bic	r3, r3, #33536
 1654 00c6 23F0FF03 		bic	r3, r3, #255
 1655 00ca 2269     		ldr	r2, [r4, #16]
 1656 00cc E068     		ldr	r0, [r4, #12]
 1657 00ce 0243     		orrs	r2, r2, r0
 1658 00d0 1343     		orrs	r3, r3, r2
 1659 00d2 8B60     		str	r3, [r1, #8]
 1660 00d4 2168     		ldr	r1, [r4]
 1661 00d6 CB68     		ldr	r3, [r1, #12]
 1662 00d8 23F0FF03 		bic	r3, r3, #255
 1663 00dc 6269     		ldr	r2, [r4, #20]
 1664 00de A069     		ldr	r0, [r4, #24]
 1665 00e0 0243     		orrs	r2, r2, r0
 1666 00e2 1343     		orrs	r3, r3, r2
 1667 00e4 CB60     		str	r3, [r1, #12]
 1668 00e6 2268     		ldr	r2, [r4]
 1669 00e8 1368     		ldr	r3, [r2]
 1670 00ea 43F00103 		orr	r3, r3, #1
 1671 00ee 1360     		str	r3, [r2]
 1672 00f0 0020     		movs	r0, #0
 1673 00f2 2064     		str	r0, [r4, #64]
 1674 00f4 2023     		movs	r3, #32
 1675 00f6 84F83D30 		strb	r3, [r4, #61]
 1676 00fa 2063     		str	r0, [r4, #48]
 1677 00fc 84F83E00 		strb	r0, [r4, #62]
 1678              	.L235:
 1679 0100 70BD     		pop	{r4, r5, r6, pc}
 1680              	.L254:
 1681 0102 80F83C30 		strb	r3, [r0, #60]
 1682 0106 FFF7FEFF 		bl	HAL_I2C_MspInit
 1683 010a 82E7     		b	.L236
 1684              	.L237:
 1685 010c 294B     		ldr	r3, .L255+12
 1686 010e 9842     		cmp	r0, r3
 1687 0110 8CBF     		ite	hi
 1688 0112 0023     		movhi	r3, #0
 1689 0114 0123     		movls	r3, #1
 1690 0116 99E7     		b	.L238
 1691              	.L239:
 1692 0118 4FF49675 		mov	r5, #300
 1693 011c 05FB03F3 		mul	r3, r5, r3
 1694 0120 254D     		ldr	r5, .L255+16
ARM GAS  C:\Users\Rick\AppData\Local\Temp\ccGOCLVW.s 			page 30


 1695 0122 A5FB0353 		umull	r5, r3, r5, r3
 1696 0126 9B09     		lsrs	r3, r3, #6
 1697 0128 0133     		adds	r3, r3, #1
 1698 012a A6E7     		b	.L240
 1699              	.L241:
 1700 012c A668     		ldr	r6, [r4, #8]
 1701 012e BEB9     		cbnz	r6, .L243
 1702 0130 431E     		subs	r3, r0, #1
 1703 0132 05EB450C 		add	ip, r5, r5, lsl #1
 1704 0136 B3FBFCF3 		udiv	r3, r3, ip
 1705 013a 0133     		adds	r3, r3, #1
 1706 013c C3F30B03 		ubfx	r3, r3, #0, #12
 1707 0140 B3FA83F3 		clz	r3, r3
 1708 0144 5B09     		lsrs	r3, r3, #5
 1709              	.L244:
 1710 0146 43BB     		cbnz	r3, .L249
 1711 0148 C6B9     		cbnz	r6, .L245
 1712 014a 431E     		subs	r3, r0, #1
 1713 014c 05EB4505 		add	r5, r5, r5, lsl #1
 1714 0150 B3FBF5F3 		udiv	r3, r3, r5
 1715 0154 0133     		adds	r3, r3, #1
 1716 0156 C3F30B03 		ubfx	r3, r3, #0, #12
 1717 015a 43F40043 		orr	r3, r3, #32768
 1718 015e A3E7     		b	.L242
 1719              	.L243:
 1720 0160 431E     		subs	r3, r0, #1
 1721 0162 05EB850C 		add	ip, r5, r5, lsl #2
 1722 0166 0CEB8C0C 		add	ip, ip, ip, lsl #2
 1723 016a B3FBFCF3 		udiv	r3, r3, ip
 1724 016e 0133     		adds	r3, r3, #1
 1725 0170 C3F30B03 		ubfx	r3, r3, #0, #12
 1726 0174 B3FA83F3 		clz	r3, r3
 1727 0178 5B09     		lsrs	r3, r3, #5
 1728 017a E4E7     		b	.L244
 1729              	.L245:
 1730 017c 431E     		subs	r3, r0, #1
 1731 017e 05EB8505 		add	r5, r5, r5, lsl #2
 1732 0182 05EB8505 		add	r5, r5, r5, lsl #2
 1733 0186 B3FBF5F3 		udiv	r3, r3, r5
 1734 018a 0133     		adds	r3, r3, #1
 1735 018c C3F30B03 		ubfx	r3, r3, #0, #12
 1736 0190 43F44043 		orr	r3, r3, #49152
 1737 0194 88E7     		b	.L242
 1738              	.L248:
 1739 0196 0423     		movs	r3, #4
 1740 0198 86E7     		b	.L242
 1741              	.L249:
 1742 019a 0123     		movs	r3, #1
 1743 019c 84E7     		b	.L242
 1744              	.L246:
 1745 019e 0120     		movs	r0, #1
 1746 01a0 7047     		bx	lr
 1747              	.L247:
 1748 01a2 0120     		movs	r0, #1
 1749 01a4 ACE7     		b	.L235
 1750              	.L256:
 1751 01a6 00BF     		.align	2
ARM GAS  C:\Users\Rick\AppData\Local\Temp\ccGOCLVW.s 			page 31


 1752              	.L255:
 1753 01a8 A0860100 		.word	100000
 1754 01ac 7F841E00 		.word	1999999
 1755 01b0 83DE1B43 		.word	1125899907
 1756 01b4 FF083D00 		.word	3999999
 1757 01b8 D34D6210 		.word	274877907
 1759              		.section	.text.HAL_I2C_MspDeInit,"ax",%progbits
 1760              		.align	1
 1761              		.weak	HAL_I2C_MspDeInit
 1762              		.syntax unified
 1763              		.thumb
 1764              		.thumb_func
 1766              	HAL_I2C_MspDeInit:
 1767              		@ args = 0, pretend = 0, frame = 0
 1768              		@ frame_needed = 0, uses_anonymous_args = 0
 1769              		@ link register save eliminated.
 1770 0000 7047     		bx	lr
 1772              		.section	.text.HAL_I2C_DeInit,"ax",%progbits
 1773              		.align	1
 1774              		.global	HAL_I2C_DeInit
 1775              		.syntax unified
 1776              		.thumb
 1777              		.thumb_func
 1779              	HAL_I2C_DeInit:
 1780              		@ args = 0, pretend = 0, frame = 0
 1781              		@ frame_needed = 0, uses_anonymous_args = 0
 1782 0000 A8B1     		cbz	r0, .L260
 1783 0002 10B5     		push	{r4, lr}
 1784 0004 0446     		mov	r4, r0
 1785 0006 2423     		movs	r3, #36
 1786 0008 80F83D30 		strb	r3, [r0, #61]
 1787 000c 0268     		ldr	r2, [r0]
 1788 000e 1368     		ldr	r3, [r2]
 1789 0010 23F00103 		bic	r3, r3, #1
 1790 0014 1360     		str	r3, [r2]
 1791 0016 FFF7FEFF 		bl	HAL_I2C_MspDeInit
 1792 001a 0020     		movs	r0, #0
 1793 001c 2064     		str	r0, [r4, #64]
 1794 001e 84F83D00 		strb	r0, [r4, #61]
 1795 0022 2063     		str	r0, [r4, #48]
 1796 0024 84F83E00 		strb	r0, [r4, #62]
 1797 0028 84F83C00 		strb	r0, [r4, #60]
 1798 002c 10BD     		pop	{r4, pc}
 1799              	.L260:
 1800 002e 0120     		movs	r0, #1
 1801 0030 7047     		bx	lr
 1803              		.section	.text.HAL_I2C_Master_Transmit,"ax",%progbits
 1804              		.align	1
 1805              		.global	HAL_I2C_Master_Transmit
 1806              		.syntax unified
 1807              		.thumb
 1808              		.thumb_func
 1810              	HAL_I2C_Master_Transmit:
 1811              		@ args = 4, pretend = 0, frame = 8
 1812              		@ frame_needed = 0, uses_anonymous_args = 0
 1813 0000 2DE9F043 		push	{r4, r5, r6, r7, r8, r9, lr}
 1814 0004 85B0     		sub	sp, sp, #20
ARM GAS  C:\Users\Rick\AppData\Local\Temp\ccGOCLVW.s 			page 32


 1815 0006 0446     		mov	r4, r0
 1816 0008 0F46     		mov	r7, r1
 1817 000a 9046     		mov	r8, r2
 1818 000c 9946     		mov	r9, r3
 1819 000e 0C9E     		ldr	r6, [sp, #48]
 1820 0010 FFF7FEFF 		bl	HAL_GetTick
 1821 0014 94F83D10 		ldrb	r1, [r4, #61]	@ zero_extendqisi2
 1822 0018 2029     		cmp	r1, #32
 1823 001a 04D0     		beq	.L279
 1824 001c 0227     		movs	r7, #2
 1825              	.L266:
 1826 001e 3846     		mov	r0, r7
 1827 0020 05B0     		add	sp, sp, #20
 1828              		@ sp needed
 1829 0022 BDE8F083 		pop	{r4, r5, r6, r7, r8, r9, pc}
 1830              	.L279:
 1831 0026 0546     		mov	r5, r0
 1832 0028 0090     		str	r0, [sp]
 1833 002a 1923     		movs	r3, #25
 1834 002c 0122     		movs	r2, #1
 1835 002e 4F49     		ldr	r1, .L285
 1836 0030 2046     		mov	r0, r4
 1837 0032 FFF7FEFF 		bl	I2C_WaitOnFlagUntilTimeout
 1838 0036 0028     		cmp	r0, #0
 1839 0038 40F09280 		bne	.L275
 1840 003c 94F83C30 		ldrb	r3, [r4, #60]	@ zero_extendqisi2
 1841 0040 012B     		cmp	r3, #1
 1842 0042 00F08F80 		beq	.L276
 1843 0046 0123     		movs	r3, #1
 1844 0048 84F83C30 		strb	r3, [r4, #60]
 1845 004c 2368     		ldr	r3, [r4]
 1846 004e 1A68     		ldr	r2, [r3]
 1847 0050 12F0010F 		tst	r2, #1
 1848 0054 03D1     		bne	.L267
 1849 0056 1A68     		ldr	r2, [r3]
 1850 0058 42F00102 		orr	r2, r2, #1
 1851 005c 1A60     		str	r2, [r3]
 1852              	.L267:
 1853 005e 2268     		ldr	r2, [r4]
 1854 0060 1368     		ldr	r3, [r2]
 1855 0062 23F40063 		bic	r3, r3, #2048
 1856 0066 1360     		str	r3, [r2]
 1857 0068 2123     		movs	r3, #33
 1858 006a 84F83D30 		strb	r3, [r4, #61]
 1859 006e 1023     		movs	r3, #16
 1860 0070 84F83E30 		strb	r3, [r4, #62]
 1861 0074 0023     		movs	r3, #0
 1862 0076 2364     		str	r3, [r4, #64]
 1863 0078 C4F82480 		str	r8, [r4, #36]
 1864 007c A4F82A90 		strh	r9, [r4, #42]	@ movhi
 1865 0080 638D     		ldrh	r3, [r4, #42]
 1866 0082 2385     		strh	r3, [r4, #40]	@ movhi
 1867 0084 3A4B     		ldr	r3, .L285+4
 1868 0086 E362     		str	r3, [r4, #44]
 1869 0088 2B46     		mov	r3, r5
 1870 008a 3246     		mov	r2, r6
 1871 008c 3946     		mov	r1, r7
ARM GAS  C:\Users\Rick\AppData\Local\Temp\ccGOCLVW.s 			page 33


 1872 008e 2046     		mov	r0, r4
 1873 0090 FFF7FEFF 		bl	I2C_MasterRequestWrite
 1874 0094 0746     		mov	r7, r0
 1875 0096 0028     		cmp	r0, #0
 1876 0098 66D1     		bne	.L277
 1877 009a 0023     		movs	r3, #0
 1878 009c 0393     		str	r3, [sp, #12]
 1879 009e 2368     		ldr	r3, [r4]
 1880 00a0 5A69     		ldr	r2, [r3, #20]
 1881 00a2 0392     		str	r2, [sp, #12]
 1882 00a4 9B69     		ldr	r3, [r3, #24]
 1883 00a6 0393     		str	r3, [sp, #12]
 1884 00a8 039B     		ldr	r3, [sp, #12]
 1885 00aa 11E0     		b	.L268
 1886              	.L283:
 1887 00ac 236C     		ldr	r3, [r4, #64]
 1888 00ae 042B     		cmp	r3, #4
 1889 00b0 01D0     		beq	.L280
 1890              	.L270:
 1891 00b2 0127     		movs	r7, #1
 1892 00b4 B3E7     		b	.L266
 1893              	.L280:
 1894 00b6 2268     		ldr	r2, [r4]
 1895 00b8 1368     		ldr	r3, [r2]
 1896 00ba 43F40073 		orr	r3, r3, #512
 1897 00be 1360     		str	r3, [r2]
 1898 00c0 F7E7     		b	.L270
 1899              	.L271:
 1900 00c2 2A46     		mov	r2, r5
 1901 00c4 3146     		mov	r1, r6
 1902 00c6 2046     		mov	r0, r4
 1903 00c8 FFF7FEFF 		bl	I2C_WaitOnBTFFlagUntilTimeout
 1904 00cc 0028     		cmp	r0, #0
 1905 00ce 2ED1     		bne	.L281
 1906              	.L268:
 1907 00d0 238D     		ldrh	r3, [r4, #40]
 1908 00d2 002B     		cmp	r3, #0
 1909 00d4 36D0     		beq	.L282
 1910 00d6 2A46     		mov	r2, r5
 1911 00d8 3146     		mov	r1, r6
 1912 00da 2046     		mov	r0, r4
 1913 00dc FFF7FEFF 		bl	I2C_WaitOnTXEFlagUntilTimeout
 1914 00e0 0028     		cmp	r0, #0
 1915 00e2 E3D1     		bne	.L283
 1916 00e4 626A     		ldr	r2, [r4, #36]
 1917 00e6 2368     		ldr	r3, [r4]
 1918 00e8 1278     		ldrb	r2, [r2]	@ zero_extendqisi2
 1919 00ea 1A61     		str	r2, [r3, #16]
 1920 00ec 606A     		ldr	r0, [r4, #36]
 1921 00ee 431C     		adds	r3, r0, #1
 1922 00f0 6362     		str	r3, [r4, #36]
 1923 00f2 618D     		ldrh	r1, [r4, #42]
 1924 00f4 89B2     		uxth	r1, r1
 1925 00f6 0139     		subs	r1, r1, #1
 1926 00f8 89B2     		uxth	r1, r1
 1927 00fa 6185     		strh	r1, [r4, #42]	@ movhi
 1928 00fc 238D     		ldrh	r3, [r4, #40]
ARM GAS  C:\Users\Rick\AppData\Local\Temp\ccGOCLVW.s 			page 34


 1929 00fe 013B     		subs	r3, r3, #1
 1930 0100 9BB2     		uxth	r3, r3
 1931 0102 2385     		strh	r3, [r4, #40]	@ movhi
 1932 0104 2268     		ldr	r2, [r4]
 1933 0106 5169     		ldr	r1, [r2, #20]
 1934 0108 11F0040F 		tst	r1, #4
 1935 010c D9D0     		beq	.L271
 1936 010e 002B     		cmp	r3, #0
 1937 0110 D7D0     		beq	.L271
 1938 0112 4378     		ldrb	r3, [r0, #1]	@ zero_extendqisi2
 1939 0114 1361     		str	r3, [r2, #16]
 1940 0116 636A     		ldr	r3, [r4, #36]
 1941 0118 0133     		adds	r3, r3, #1
 1942 011a 6362     		str	r3, [r4, #36]
 1943 011c 638D     		ldrh	r3, [r4, #42]
 1944 011e 9BB2     		uxth	r3, r3
 1945 0120 013B     		subs	r3, r3, #1
 1946 0122 9BB2     		uxth	r3, r3
 1947 0124 6385     		strh	r3, [r4, #42]	@ movhi
 1948 0126 238D     		ldrh	r3, [r4, #40]
 1949 0128 013B     		subs	r3, r3, #1
 1950 012a 2385     		strh	r3, [r4, #40]	@ movhi
 1951 012c C9E7     		b	.L271
 1952              	.L281:
 1953 012e 236C     		ldr	r3, [r4, #64]
 1954 0130 042B     		cmp	r3, #4
 1955 0132 01D0     		beq	.L284
 1956              	.L272:
 1957 0134 0127     		movs	r7, #1
 1958 0136 72E7     		b	.L266
 1959              	.L284:
 1960 0138 2268     		ldr	r2, [r4]
 1961 013a 1368     		ldr	r3, [r2]
 1962 013c 43F40073 		orr	r3, r3, #512
 1963 0140 1360     		str	r3, [r2]
 1964 0142 F7E7     		b	.L272
 1965              	.L282:
 1966 0144 2268     		ldr	r2, [r4]
 1967 0146 1368     		ldr	r3, [r2]
 1968 0148 43F40073 		orr	r3, r3, #512
 1969 014c 1360     		str	r3, [r2]
 1970 014e 2023     		movs	r3, #32
 1971 0150 84F83D30 		strb	r3, [r4, #61]
 1972 0154 0023     		movs	r3, #0
 1973 0156 84F83E30 		strb	r3, [r4, #62]
 1974 015a 84F83C30 		strb	r3, [r4, #60]
 1975 015e 5EE7     		b	.L266
 1976              	.L275:
 1977 0160 0227     		movs	r7, #2
 1978 0162 5CE7     		b	.L266
 1979              	.L276:
 1980 0164 0227     		movs	r7, #2
 1981 0166 5AE7     		b	.L266
 1982              	.L277:
 1983 0168 0127     		movs	r7, #1
 1984 016a 58E7     		b	.L266
 1985              	.L286:
ARM GAS  C:\Users\Rick\AppData\Local\Temp\ccGOCLVW.s 			page 35


 1986              		.align	2
 1987              	.L285:
 1988 016c 02001000 		.word	1048578
 1989 0170 0000FFFF 		.word	-65536
 1991              		.section	.text.HAL_I2C_Master_Receive,"ax",%progbits
 1992              		.align	1
 1993              		.global	HAL_I2C_Master_Receive
 1994              		.syntax unified
 1995              		.thumb
 1996              		.thumb_func
 1998              	HAL_I2C_Master_Receive:
 1999              		@ args = 4, pretend = 0, frame = 16
 2000              		@ frame_needed = 0, uses_anonymous_args = 0
 2001 0000 2DE9F043 		push	{r4, r5, r6, r7, r8, r9, lr}
 2002 0004 87B0     		sub	sp, sp, #28
 2003 0006 0446     		mov	r4, r0
 2004 0008 0F46     		mov	r7, r1
 2005 000a 9046     		mov	r8, r2
 2006 000c 9946     		mov	r9, r3
 2007 000e 0E9E     		ldr	r6, [sp, #56]
 2008 0010 FFF7FEFF 		bl	HAL_GetTick
 2009 0014 94F83D10 		ldrb	r1, [r4, #61]	@ zero_extendqisi2
 2010 0018 2029     		cmp	r1, #32
 2011 001a 04D0     		beq	.L311
 2012 001c 0227     		movs	r7, #2
 2013              	.L288:
 2014 001e 3846     		mov	r0, r7
 2015 0020 07B0     		add	sp, sp, #28
 2016              		@ sp needed
 2017 0022 BDE8F083 		pop	{r4, r5, r6, r7, r8, r9, pc}
 2018              	.L311:
 2019 0026 0546     		mov	r5, r0
 2020 0028 0090     		str	r0, [sp]
 2021 002a 1923     		movs	r3, #25
 2022 002c 0122     		movs	r2, #1
 2023 002e 8A49     		ldr	r1, .L318
 2024 0030 2046     		mov	r0, r4
 2025 0032 FFF7FEFF 		bl	I2C_WaitOnFlagUntilTimeout
 2026 0036 0028     		cmp	r0, #0
 2027 0038 40F05081 		bne	.L302
 2028 003c 94F83C30 		ldrb	r3, [r4, #60]	@ zero_extendqisi2
 2029 0040 012B     		cmp	r3, #1
 2030 0042 00F04D81 		beq	.L303
 2031 0046 0123     		movs	r3, #1
 2032 0048 84F83C30 		strb	r3, [r4, #60]
 2033 004c 2368     		ldr	r3, [r4]
 2034 004e 1A68     		ldr	r2, [r3]
 2035 0050 12F0010F 		tst	r2, #1
 2036 0054 03D1     		bne	.L289
 2037 0056 1A68     		ldr	r2, [r3]
 2038 0058 42F00102 		orr	r2, r2, #1
 2039 005c 1A60     		str	r2, [r3]
 2040              	.L289:
 2041 005e 2268     		ldr	r2, [r4]
 2042 0060 1368     		ldr	r3, [r2]
 2043 0062 23F40063 		bic	r3, r3, #2048
 2044 0066 1360     		str	r3, [r2]
ARM GAS  C:\Users\Rick\AppData\Local\Temp\ccGOCLVW.s 			page 36


 2045 0068 2223     		movs	r3, #34
 2046 006a 84F83D30 		strb	r3, [r4, #61]
 2047 006e 1023     		movs	r3, #16
 2048 0070 84F83E30 		strb	r3, [r4, #62]
 2049 0074 0023     		movs	r3, #0
 2050 0076 2364     		str	r3, [r4, #64]
 2051 0078 C4F82480 		str	r8, [r4, #36]
 2052 007c A4F82A90 		strh	r9, [r4, #42]	@ movhi
 2053 0080 638D     		ldrh	r3, [r4, #42]
 2054 0082 2385     		strh	r3, [r4, #40]	@ movhi
 2055 0084 754B     		ldr	r3, .L318+4
 2056 0086 E362     		str	r3, [r4, #44]
 2057 0088 2B46     		mov	r3, r5
 2058 008a 3246     		mov	r2, r6
 2059 008c 3946     		mov	r1, r7
 2060 008e 2046     		mov	r0, r4
 2061 0090 FFF7FEFF 		bl	I2C_MasterRequestRead
 2062 0094 0746     		mov	r7, r0
 2063 0096 0028     		cmp	r0, #0
 2064 0098 40F02481 		bne	.L304
 2065 009c 238D     		ldrh	r3, [r4, #40]
 2066 009e 5BB9     		cbnz	r3, .L290
 2067 00a0 0293     		str	r3, [sp, #8]
 2068 00a2 2368     		ldr	r3, [r4]
 2069 00a4 5A69     		ldr	r2, [r3, #20]
 2070 00a6 0292     		str	r2, [sp, #8]
 2071 00a8 9A69     		ldr	r2, [r3, #24]
 2072 00aa 0292     		str	r2, [sp, #8]
 2073 00ac 029A     		ldr	r2, [sp, #8]
 2074 00ae 1A68     		ldr	r2, [r3]
 2075 00b0 42F40072 		orr	r2, r2, #512
 2076 00b4 1A60     		str	r2, [r3]
 2077 00b6 7AE0     		b	.L299
 2078              	.L290:
 2079 00b8 012B     		cmp	r3, #1
 2080 00ba 0FD0     		beq	.L312
 2081 00bc 022B     		cmp	r3, #2
 2082 00be 1FD0     		beq	.L313
 2083 00c0 2268     		ldr	r2, [r4]
 2084 00c2 1368     		ldr	r3, [r2]
 2085 00c4 43F48063 		orr	r3, r3, #1024
 2086 00c8 1360     		str	r3, [r2]
 2087 00ca 0023     		movs	r3, #0
 2088 00cc 0593     		str	r3, [sp, #20]
 2089 00ce 2368     		ldr	r3, [r4]
 2090 00d0 5A69     		ldr	r2, [r3, #20]
 2091 00d2 0592     		str	r2, [sp, #20]
 2092 00d4 9B69     		ldr	r3, [r3, #24]
 2093 00d6 0593     		str	r3, [sp, #20]
 2094 00d8 059B     		ldr	r3, [sp, #20]
 2095 00da 68E0     		b	.L299
 2096              	.L312:
 2097 00dc 2268     		ldr	r2, [r4]
 2098 00de 1368     		ldr	r3, [r2]
 2099 00e0 23F48063 		bic	r3, r3, #1024
 2100 00e4 1360     		str	r3, [r2]
 2101 00e6 0023     		movs	r3, #0
ARM GAS  C:\Users\Rick\AppData\Local\Temp\ccGOCLVW.s 			page 37


 2102 00e8 0393     		str	r3, [sp, #12]
 2103 00ea 2368     		ldr	r3, [r4]
 2104 00ec 5A69     		ldr	r2, [r3, #20]
 2105 00ee 0392     		str	r2, [sp, #12]
 2106 00f0 9A69     		ldr	r2, [r3, #24]
 2107 00f2 0392     		str	r2, [sp, #12]
 2108 00f4 039A     		ldr	r2, [sp, #12]
 2109 00f6 1A68     		ldr	r2, [r3]
 2110 00f8 42F40072 		orr	r2, r2, #512
 2111 00fc 1A60     		str	r2, [r3]
 2112 00fe 56E0     		b	.L299
 2113              	.L313:
 2114 0100 2268     		ldr	r2, [r4]
 2115 0102 1368     		ldr	r3, [r2]
 2116 0104 23F48063 		bic	r3, r3, #1024
 2117 0108 1360     		str	r3, [r2]
 2118 010a 2268     		ldr	r2, [r4]
 2119 010c 1368     		ldr	r3, [r2]
 2120 010e 43F40063 		orr	r3, r3, #2048
 2121 0112 1360     		str	r3, [r2]
 2122 0114 0023     		movs	r3, #0
 2123 0116 0493     		str	r3, [sp, #16]
 2124 0118 2368     		ldr	r3, [r4]
 2125 011a 5A69     		ldr	r2, [r3, #20]
 2126 011c 0492     		str	r2, [sp, #16]
 2127 011e 9B69     		ldr	r3, [r3, #24]
 2128 0120 0493     		str	r3, [sp, #16]
 2129 0122 049B     		ldr	r3, [sp, #16]
 2130 0124 43E0     		b	.L299
 2131              	.L315:
 2132 0126 2A46     		mov	r2, r5
 2133 0128 3146     		mov	r1, r6
 2134 012a 2046     		mov	r0, r4
 2135 012c FFF7FEFF 		bl	I2C_WaitOnRXNEFlagUntilTimeout
 2136 0130 0028     		cmp	r0, #0
 2137 0132 40F0D980 		bne	.L305
 2138 0136 2368     		ldr	r3, [r4]
 2139 0138 1A69     		ldr	r2, [r3, #16]
 2140 013a 636A     		ldr	r3, [r4, #36]
 2141 013c 1A70     		strb	r2, [r3]
 2142 013e 636A     		ldr	r3, [r4, #36]
 2143 0140 0133     		adds	r3, r3, #1
 2144 0142 6362     		str	r3, [r4, #36]
 2145 0144 238D     		ldrh	r3, [r4, #40]
 2146 0146 013B     		subs	r3, r3, #1
 2147 0148 2385     		strh	r3, [r4, #40]	@ movhi
 2148 014a 638D     		ldrh	r3, [r4, #42]
 2149 014c 9BB2     		uxth	r3, r3
 2150 014e 013B     		subs	r3, r3, #1
 2151 0150 9BB2     		uxth	r3, r3
 2152 0152 6385     		strh	r3, [r4, #42]	@ movhi
 2153 0154 2BE0     		b	.L299
 2154              	.L316:
 2155 0156 0095     		str	r5, [sp]
 2156 0158 3346     		mov	r3, r6
 2157 015a 0022     		movs	r2, #0
 2158 015c 4049     		ldr	r1, .L318+8
ARM GAS  C:\Users\Rick\AppData\Local\Temp\ccGOCLVW.s 			page 38


 2159 015e 2046     		mov	r0, r4
 2160 0160 FFF7FEFF 		bl	I2C_WaitOnFlagUntilTimeout
 2161 0164 0028     		cmp	r0, #0
 2162 0166 40F0C180 		bne	.L306
 2163 016a 2268     		ldr	r2, [r4]
 2164 016c 1368     		ldr	r3, [r2]
 2165 016e 43F40073 		orr	r3, r3, #512
 2166 0172 1360     		str	r3, [r2]
 2167 0174 2368     		ldr	r3, [r4]
 2168 0176 1A69     		ldr	r2, [r3, #16]
 2169 0178 636A     		ldr	r3, [r4, #36]
 2170 017a 1A70     		strb	r2, [r3]
 2171 017c 626A     		ldr	r2, [r4, #36]
 2172 017e 531C     		adds	r3, r2, #1
 2173 0180 6362     		str	r3, [r4, #36]
 2174 0182 238D     		ldrh	r3, [r4, #40]
 2175 0184 013B     		subs	r3, r3, #1
 2176 0186 2385     		strh	r3, [r4, #40]	@ movhi
 2177 0188 638D     		ldrh	r3, [r4, #42]
 2178 018a 9BB2     		uxth	r3, r3
 2179 018c 013B     		subs	r3, r3, #1
 2180 018e 9BB2     		uxth	r3, r3
 2181 0190 6385     		strh	r3, [r4, #42]	@ movhi
 2182 0192 2368     		ldr	r3, [r4]
 2183 0194 1B69     		ldr	r3, [r3, #16]
 2184 0196 5370     		strb	r3, [r2, #1]
 2185 0198 636A     		ldr	r3, [r4, #36]
 2186 019a 0133     		adds	r3, r3, #1
 2187 019c 6362     		str	r3, [r4, #36]
 2188 019e 238D     		ldrh	r3, [r4, #40]
 2189 01a0 013B     		subs	r3, r3, #1
 2190 01a2 2385     		strh	r3, [r4, #40]	@ movhi
 2191 01a4 638D     		ldrh	r3, [r4, #42]
 2192 01a6 9BB2     		uxth	r3, r3
 2193 01a8 013B     		subs	r3, r3, #1
 2194 01aa 9BB2     		uxth	r3, r3
 2195 01ac 6385     		strh	r3, [r4, #42]	@ movhi
 2196              	.L299:
 2197 01ae 218D     		ldrh	r1, [r4, #40]
 2198 01b0 0029     		cmp	r1, #0
 2199 01b2 00F08A80 		beq	.L314
 2200 01b6 0329     		cmp	r1, #3
 2201 01b8 54D8     		bhi	.L294
 2202 01ba 0129     		cmp	r1, #1
 2203 01bc B3D0     		beq	.L315
 2204 01be 0229     		cmp	r1, #2
 2205 01c0 C9D0     		beq	.L316
 2206 01c2 0095     		str	r5, [sp]
 2207 01c4 3346     		mov	r3, r6
 2208 01c6 0022     		movs	r2, #0
 2209 01c8 2549     		ldr	r1, .L318+8
 2210 01ca 2046     		mov	r0, r4
 2211 01cc FFF7FEFF 		bl	I2C_WaitOnFlagUntilTimeout
 2212 01d0 0028     		cmp	r0, #0
 2213 01d2 40F08D80 		bne	.L307
 2214 01d6 2268     		ldr	r2, [r4]
 2215 01d8 1368     		ldr	r3, [r2]
ARM GAS  C:\Users\Rick\AppData\Local\Temp\ccGOCLVW.s 			page 39


 2216 01da 23F48063 		bic	r3, r3, #1024
 2217 01de 1360     		str	r3, [r2]
 2218 01e0 2368     		ldr	r3, [r4]
 2219 01e2 1A69     		ldr	r2, [r3, #16]
 2220 01e4 636A     		ldr	r3, [r4, #36]
 2221 01e6 1A70     		strb	r2, [r3]
 2222 01e8 636A     		ldr	r3, [r4, #36]
 2223 01ea 0133     		adds	r3, r3, #1
 2224 01ec 6362     		str	r3, [r4, #36]
 2225 01ee 238D     		ldrh	r3, [r4, #40]
 2226 01f0 013B     		subs	r3, r3, #1
 2227 01f2 2385     		strh	r3, [r4, #40]	@ movhi
 2228 01f4 618D     		ldrh	r1, [r4, #42]
 2229 01f6 89B2     		uxth	r1, r1
 2230 01f8 0139     		subs	r1, r1, #1
 2231 01fa 89B2     		uxth	r1, r1
 2232 01fc 6185     		strh	r1, [r4, #42]	@ movhi
 2233 01fe 0095     		str	r5, [sp]
 2234 0200 3346     		mov	r3, r6
 2235 0202 0022     		movs	r2, #0
 2236 0204 1649     		ldr	r1, .L318+8
 2237 0206 2046     		mov	r0, r4
 2238 0208 FFF7FEFF 		bl	I2C_WaitOnFlagUntilTimeout
 2239 020c 0028     		cmp	r0, #0
 2240 020e 71D1     		bne	.L308
 2241 0210 2268     		ldr	r2, [r4]
 2242 0212 1368     		ldr	r3, [r2]
 2243 0214 43F40073 		orr	r3, r3, #512
 2244 0218 1360     		str	r3, [r2]
 2245 021a 2368     		ldr	r3, [r4]
 2246 021c 1A69     		ldr	r2, [r3, #16]
 2247 021e 636A     		ldr	r3, [r4, #36]
 2248 0220 1A70     		strb	r2, [r3]
 2249 0222 626A     		ldr	r2, [r4, #36]
 2250 0224 531C     		adds	r3, r2, #1
 2251 0226 6362     		str	r3, [r4, #36]
 2252 0228 238D     		ldrh	r3, [r4, #40]
 2253 022a 013B     		subs	r3, r3, #1
 2254 022c 2385     		strh	r3, [r4, #40]	@ movhi
 2255 022e 638D     		ldrh	r3, [r4, #42]
 2256 0230 9BB2     		uxth	r3, r3
 2257 0232 013B     		subs	r3, r3, #1
 2258 0234 9BB2     		uxth	r3, r3
 2259 0236 6385     		strh	r3, [r4, #42]	@ movhi
 2260 0238 2368     		ldr	r3, [r4]
 2261 023a 1B69     		ldr	r3, [r3, #16]
 2262 023c 5370     		strb	r3, [r2, #1]
 2263 023e 636A     		ldr	r3, [r4, #36]
 2264 0240 0133     		adds	r3, r3, #1
 2265 0242 6362     		str	r3, [r4, #36]
 2266 0244 238D     		ldrh	r3, [r4, #40]
 2267 0246 013B     		subs	r3, r3, #1
 2268 0248 2385     		strh	r3, [r4, #40]	@ movhi
 2269 024a 638D     		ldrh	r3, [r4, #42]
 2270 024c 9BB2     		uxth	r3, r3
 2271 024e 013B     		subs	r3, r3, #1
 2272 0250 9BB2     		uxth	r3, r3
ARM GAS  C:\Users\Rick\AppData\Local\Temp\ccGOCLVW.s 			page 40


 2273 0252 6385     		strh	r3, [r4, #42]	@ movhi
 2274 0254 ABE7     		b	.L299
 2275              	.L319:
 2276 0256 00BF     		.align	2
 2277              	.L318:
 2278 0258 02001000 		.word	1048578
 2279 025c 0000FFFF 		.word	-65536
 2280 0260 04000100 		.word	65540
 2281              	.L294:
 2282 0264 2A46     		mov	r2, r5
 2283 0266 3146     		mov	r1, r6
 2284 0268 2046     		mov	r0, r4
 2285 026a FFF7FEFF 		bl	I2C_WaitOnRXNEFlagUntilTimeout
 2286 026e 0028     		cmp	r0, #0
 2287 0270 42D1     		bne	.L309
 2288 0272 2368     		ldr	r3, [r4]
 2289 0274 1A69     		ldr	r2, [r3, #16]
 2290 0276 636A     		ldr	r3, [r4, #36]
 2291 0278 1A70     		strb	r2, [r3]
 2292 027a 636A     		ldr	r3, [r4, #36]
 2293 027c 0133     		adds	r3, r3, #1
 2294 027e 6362     		str	r3, [r4, #36]
 2295 0280 228D     		ldrh	r2, [r4, #40]
 2296 0282 013A     		subs	r2, r2, #1
 2297 0284 92B2     		uxth	r2, r2
 2298 0286 2285     		strh	r2, [r4, #40]	@ movhi
 2299 0288 638D     		ldrh	r3, [r4, #42]
 2300 028a 9BB2     		uxth	r3, r3
 2301 028c 013B     		subs	r3, r3, #1
 2302 028e 9BB2     		uxth	r3, r3
 2303 0290 6385     		strh	r3, [r4, #42]	@ movhi
 2304 0292 2368     		ldr	r3, [r4]
 2305 0294 5969     		ldr	r1, [r3, #20]
 2306 0296 11F0040F 		tst	r1, #4
 2307 029a 88D0     		beq	.L299
 2308 029c 032A     		cmp	r2, #3
 2309 029e 0FD0     		beq	.L317
 2310              	.L298:
 2311 02a0 2368     		ldr	r3, [r4]
 2312 02a2 1A69     		ldr	r2, [r3, #16]
 2313 02a4 636A     		ldr	r3, [r4, #36]
 2314 02a6 1A70     		strb	r2, [r3]
 2315 02a8 636A     		ldr	r3, [r4, #36]
 2316 02aa 0133     		adds	r3, r3, #1
 2317 02ac 6362     		str	r3, [r4, #36]
 2318 02ae 238D     		ldrh	r3, [r4, #40]
 2319 02b0 013B     		subs	r3, r3, #1
 2320 02b2 2385     		strh	r3, [r4, #40]	@ movhi
 2321 02b4 638D     		ldrh	r3, [r4, #42]
 2322 02b6 9BB2     		uxth	r3, r3
 2323 02b8 013B     		subs	r3, r3, #1
 2324 02ba 9BB2     		uxth	r3, r3
 2325 02bc 6385     		strh	r3, [r4, #42]	@ movhi
 2326 02be 76E7     		b	.L299
 2327              	.L317:
 2328 02c0 1A68     		ldr	r2, [r3]
 2329 02c2 22F48062 		bic	r2, r2, #1024
ARM GAS  C:\Users\Rick\AppData\Local\Temp\ccGOCLVW.s 			page 41


 2330 02c6 1A60     		str	r2, [r3]
 2331 02c8 EAE7     		b	.L298
 2332              	.L314:
 2333 02ca 2023     		movs	r3, #32
 2334 02cc 84F83D30 		strb	r3, [r4, #61]
 2335 02d0 0023     		movs	r3, #0
 2336 02d2 84F83E30 		strb	r3, [r4, #62]
 2337 02d6 84F83C30 		strb	r3, [r4, #60]
 2338 02da A0E6     		b	.L288
 2339              	.L302:
 2340 02dc 0227     		movs	r7, #2
 2341 02de 9EE6     		b	.L288
 2342              	.L303:
 2343 02e0 0227     		movs	r7, #2
 2344 02e2 9CE6     		b	.L288
 2345              	.L304:
 2346 02e4 0127     		movs	r7, #1
 2347 02e6 9AE6     		b	.L288
 2348              	.L305:
 2349 02e8 0127     		movs	r7, #1
 2350 02ea 98E6     		b	.L288
 2351              	.L306:
 2352 02ec 0127     		movs	r7, #1
 2353 02ee 96E6     		b	.L288
 2354              	.L307:
 2355 02f0 0127     		movs	r7, #1
 2356 02f2 94E6     		b	.L288
 2357              	.L308:
 2358 02f4 0127     		movs	r7, #1
 2359 02f6 92E6     		b	.L288
 2360              	.L309:
 2361 02f8 0127     		movs	r7, #1
 2362 02fa 90E6     		b	.L288
 2364              		.section	.text.HAL_I2C_Slave_Transmit,"ax",%progbits
 2365              		.align	1
 2366              		.global	HAL_I2C_Slave_Transmit
 2367              		.syntax unified
 2368              		.thumb
 2369              		.thumb_func
 2371              	HAL_I2C_Slave_Transmit:
 2372              		@ args = 0, pretend = 0, frame = 8
 2373              		@ frame_needed = 0, uses_anonymous_args = 0
 2374 0000 2DE9F041 		push	{r4, r5, r6, r7, r8, lr}
 2375 0004 84B0     		sub	sp, sp, #16
 2376 0006 0446     		mov	r4, r0
 2377 0008 0D46     		mov	r5, r1
 2378 000a 9046     		mov	r8, r2
 2379 000c 1E46     		mov	r6, r3
 2380 000e FFF7FEFF 		bl	HAL_GetTick
 2381 0012 94F83D30 		ldrb	r3, [r4, #61]	@ zero_extendqisi2
 2382 0016 202B     		cmp	r3, #32
 2383 0018 40F0AE80 		bne	.L328
 2384 001c 0746     		mov	r7, r0
 2385 001e 002D     		cmp	r5, #0
 2386 0020 00F0AE80 		beq	.L329
 2387 0024 B8F1000F 		cmp	r8, #0
 2388 0028 00F0AC80 		beq	.L330
ARM GAS  C:\Users\Rick\AppData\Local\Temp\ccGOCLVW.s 			page 42


 2389 002c 94F83C30 		ldrb	r3, [r4, #60]	@ zero_extendqisi2
 2390 0030 012B     		cmp	r3, #1
 2391 0032 00F0A980 		beq	.L331
 2392 0036 0123     		movs	r3, #1
 2393 0038 84F83C30 		strb	r3, [r4, #60]
 2394 003c 2368     		ldr	r3, [r4]
 2395 003e 1A68     		ldr	r2, [r3]
 2396 0040 12F0010F 		tst	r2, #1
 2397 0044 03D1     		bne	.L322
 2398 0046 1A68     		ldr	r2, [r3]
 2399 0048 42F00102 		orr	r2, r2, #1
 2400 004c 1A60     		str	r2, [r3]
 2401              	.L322:
 2402 004e 2268     		ldr	r2, [r4]
 2403 0050 1368     		ldr	r3, [r2]
 2404 0052 23F40063 		bic	r3, r3, #2048
 2405 0056 1360     		str	r3, [r2]
 2406 0058 2123     		movs	r3, #33
 2407 005a 84F83D30 		strb	r3, [r4, #61]
 2408 005e 2023     		movs	r3, #32
 2409 0060 84F83E30 		strb	r3, [r4, #62]
 2410 0064 0022     		movs	r2, #0
 2411 0066 2264     		str	r2, [r4, #64]
 2412 0068 6562     		str	r5, [r4, #36]
 2413 006a A4F82A80 		strh	r8, [r4, #42]	@ movhi
 2414 006e 638D     		ldrh	r3, [r4, #42]
 2415 0070 2385     		strh	r3, [r4, #40]	@ movhi
 2416 0072 494B     		ldr	r3, .L339
 2417 0074 E362     		str	r3, [r4, #44]
 2418 0076 2168     		ldr	r1, [r4]
 2419 0078 0B68     		ldr	r3, [r1]
 2420 007a 43F48063 		orr	r3, r3, #1024
 2421 007e 0B60     		str	r3, [r1]
 2422 0080 0097     		str	r7, [sp]
 2423 0082 3346     		mov	r3, r6
 2424 0084 4549     		ldr	r1, .L339+4
 2425 0086 2046     		mov	r0, r4
 2426 0088 FFF7FEFF 		bl	I2C_WaitOnFlagUntilTimeout
 2427 008c 0028     		cmp	r0, #0
 2428 008e 7DD1     		bne	.L332
 2429 0090 0023     		movs	r3, #0
 2430 0092 0293     		str	r3, [sp, #8]
 2431 0094 2368     		ldr	r3, [r4]
 2432 0096 5A69     		ldr	r2, [r3, #20]
 2433 0098 0292     		str	r2, [sp, #8]
 2434 009a 9B69     		ldr	r3, [r3, #24]
 2435 009c 0293     		str	r3, [sp, #8]
 2436 009e 029B     		ldr	r3, [sp, #8]
 2437 00a0 2369     		ldr	r3, [r4, #16]
 2438 00a2 B3F5404F 		cmp	r3, #49152
 2439 00a6 33D0     		beq	.L336
 2440              	.L326:
 2441 00a8 238D     		ldrh	r3, [r4, #40]
 2442 00aa 002B     		cmp	r3, #0
 2443 00ac 49D0     		beq	.L337
 2444 00ae 3A46     		mov	r2, r7
 2445 00b0 3146     		mov	r1, r6
ARM GAS  C:\Users\Rick\AppData\Local\Temp\ccGOCLVW.s 			page 43


 2446 00b2 2046     		mov	r0, r4
 2447 00b4 FFF7FEFF 		bl	I2C_WaitOnTXEFlagUntilTimeout
 2448 00b8 0028     		cmp	r0, #0
 2449 00ba 3BD1     		bne	.L338
 2450 00bc 626A     		ldr	r2, [r4, #36]
 2451 00be 2368     		ldr	r3, [r4]
 2452 00c0 1278     		ldrb	r2, [r2]	@ zero_extendqisi2
 2453 00c2 1A61     		str	r2, [r3, #16]
 2454 00c4 626A     		ldr	r2, [r4, #36]
 2455 00c6 531C     		adds	r3, r2, #1
 2456 00c8 6362     		str	r3, [r4, #36]
 2457 00ca B4F82AC0 		ldrh	ip, [r4, #42]
 2458 00ce 1FFA8CFC 		uxth	ip, ip
 2459 00d2 0CF1FF3C 		add	ip, ip, #-1
 2460 00d6 1FFA8CFC 		uxth	ip, ip
 2461 00da A4F82AC0 		strh	ip, [r4, #42]	@ movhi
 2462 00de 258D     		ldrh	r5, [r4, #40]
 2463 00e0 013D     		subs	r5, r5, #1
 2464 00e2 ADB2     		uxth	r5, r5
 2465 00e4 2585     		strh	r5, [r4, #40]	@ movhi
 2466 00e6 2368     		ldr	r3, [r4]
 2467 00e8 5969     		ldr	r1, [r3, #20]
 2468 00ea 11F0040F 		tst	r1, #4
 2469 00ee DBD0     		beq	.L326
 2470 00f0 002D     		cmp	r5, #0
 2471 00f2 D9D0     		beq	.L326
 2472 00f4 5278     		ldrb	r2, [r2, #1]	@ zero_extendqisi2
 2473 00f6 1A61     		str	r2, [r3, #16]
 2474 00f8 636A     		ldr	r3, [r4, #36]
 2475 00fa 0133     		adds	r3, r3, #1
 2476 00fc 6362     		str	r3, [r4, #36]
 2477 00fe 638D     		ldrh	r3, [r4, #42]
 2478 0100 9BB2     		uxth	r3, r3
 2479 0102 013B     		subs	r3, r3, #1
 2480 0104 9BB2     		uxth	r3, r3
 2481 0106 6385     		strh	r3, [r4, #42]	@ movhi
 2482 0108 238D     		ldrh	r3, [r4, #40]
 2483 010a 013B     		subs	r3, r3, #1
 2484 010c 2385     		strh	r3, [r4, #40]	@ movhi
 2485 010e CBE7     		b	.L326
 2486              	.L336:
 2487 0110 0097     		str	r7, [sp]
 2488 0112 3346     		mov	r3, r6
 2489 0114 0022     		movs	r2, #0
 2490 0116 2149     		ldr	r1, .L339+4
 2491 0118 2046     		mov	r0, r4
 2492 011a FFF7FEFF 		bl	I2C_WaitOnFlagUntilTimeout
 2493 011e 0028     		cmp	r0, #0
 2494 0120 36D1     		bne	.L333
 2495 0122 0023     		movs	r3, #0
 2496 0124 0393     		str	r3, [sp, #12]
 2497 0126 2368     		ldr	r3, [r4]
 2498 0128 5A69     		ldr	r2, [r3, #20]
 2499 012a 0392     		str	r2, [sp, #12]
 2500 012c 9B69     		ldr	r3, [r3, #24]
 2501 012e 0393     		str	r3, [sp, #12]
 2502 0130 039B     		ldr	r3, [sp, #12]
ARM GAS  C:\Users\Rick\AppData\Local\Temp\ccGOCLVW.s 			page 44


 2503 0132 B9E7     		b	.L326
 2504              	.L338:
 2505 0134 2268     		ldr	r2, [r4]
 2506 0136 1368     		ldr	r3, [r2]
 2507 0138 23F48063 		bic	r3, r3, #1024
 2508 013c 1360     		str	r3, [r2]
 2509 013e 0120     		movs	r0, #1
 2510 0140 1BE0     		b	.L321
 2511              	.L337:
 2512 0142 0097     		str	r7, [sp]
 2513 0144 3346     		mov	r3, r6
 2514 0146 0022     		movs	r2, #0
 2515 0148 4FF48231 		mov	r1, #66560
 2516 014c 2046     		mov	r0, r4
 2517 014e FFF7FEFF 		bl	I2C_WaitOnFlagUntilTimeout
 2518 0152 F8B9     		cbnz	r0, .L334
 2519 0154 2368     		ldr	r3, [r4]
 2520 0156 6FF48062 		mvn	r2, #1024
 2521 015a 5A61     		str	r2, [r3, #20]
 2522 015c 2268     		ldr	r2, [r4]
 2523 015e 1368     		ldr	r3, [r2]
 2524 0160 23F48063 		bic	r3, r3, #1024
 2525 0164 1360     		str	r3, [r2]
 2526 0166 2023     		movs	r3, #32
 2527 0168 84F83D30 		strb	r3, [r4, #61]
 2528 016c 0023     		movs	r3, #0
 2529 016e 84F83E30 		strb	r3, [r4, #62]
 2530 0172 84F83C30 		strb	r3, [r4, #60]
 2531 0176 00E0     		b	.L321
 2532              	.L328:
 2533 0178 0220     		movs	r0, #2
 2534              	.L321:
 2535 017a 04B0     		add	sp, sp, #16
 2536              		@ sp needed
 2537 017c BDE8F081 		pop	{r4, r5, r6, r7, r8, pc}
 2538              	.L329:
 2539 0180 0120     		movs	r0, #1
 2540 0182 FAE7     		b	.L321
 2541              	.L330:
 2542 0184 0120     		movs	r0, #1
 2543 0186 F8E7     		b	.L321
 2544              	.L331:
 2545 0188 0220     		movs	r0, #2
 2546 018a F6E7     		b	.L321
 2547              	.L332:
 2548 018c 0120     		movs	r0, #1
 2549 018e F4E7     		b	.L321
 2550              	.L333:
 2551 0190 0120     		movs	r0, #1
 2552 0192 F2E7     		b	.L321
 2553              	.L334:
 2554 0194 0120     		movs	r0, #1
 2555 0196 F0E7     		b	.L321
 2556              	.L340:
 2557              		.align	2
 2558              	.L339:
 2559 0198 0000FFFF 		.word	-65536
ARM GAS  C:\Users\Rick\AppData\Local\Temp\ccGOCLVW.s 			page 45


 2560 019c 02000100 		.word	65538
 2562              		.section	.text.HAL_I2C_Slave_Receive,"ax",%progbits
 2563              		.align	1
 2564              		.global	HAL_I2C_Slave_Receive
 2565              		.syntax unified
 2566              		.thumb
 2567              		.thumb_func
 2569              	HAL_I2C_Slave_Receive:
 2570              		@ args = 0, pretend = 0, frame = 8
 2571              		@ frame_needed = 0, uses_anonymous_args = 0
 2572 0000 2DE9F041 		push	{r4, r5, r6, r7, r8, lr}
 2573 0004 84B0     		sub	sp, sp, #16
 2574 0006 0446     		mov	r4, r0
 2575 0008 0D46     		mov	r5, r1
 2576 000a 9046     		mov	r8, r2
 2577 000c 1E46     		mov	r6, r3
 2578 000e FFF7FEFF 		bl	HAL_GetTick
 2579 0012 94F83D30 		ldrb	r3, [r4, #61]	@ zero_extendqisi2
 2580 0016 202B     		cmp	r3, #32
 2581 0018 40F0A080 		bne	.L349
 2582 001c 0746     		mov	r7, r0
 2583 001e 002D     		cmp	r5, #0
 2584 0020 00F0A080 		beq	.L350
 2585 0024 B8F1000F 		cmp	r8, #0
 2586 0028 00F09E80 		beq	.L351
 2587 002c 94F83C30 		ldrb	r3, [r4, #60]	@ zero_extendqisi2
 2588 0030 012B     		cmp	r3, #1
 2589 0032 00F09B80 		beq	.L352
 2590 0036 0123     		movs	r3, #1
 2591 0038 84F83C30 		strb	r3, [r4, #60]
 2592 003c 2368     		ldr	r3, [r4]
 2593 003e 1A68     		ldr	r2, [r3]
 2594 0040 12F0010F 		tst	r2, #1
 2595 0044 03D1     		bne	.L343
 2596 0046 1A68     		ldr	r2, [r3]
 2597 0048 42F00102 		orr	r2, r2, #1
 2598 004c 1A60     		str	r2, [r3]
 2599              	.L343:
 2600 004e 2268     		ldr	r2, [r4]
 2601 0050 1368     		ldr	r3, [r2]
 2602 0052 23F40063 		bic	r3, r3, #2048
 2603 0056 1360     		str	r3, [r2]
 2604 0058 2223     		movs	r3, #34
 2605 005a 84F83D30 		strb	r3, [r4, #61]
 2606 005e 2023     		movs	r3, #32
 2607 0060 84F83E30 		strb	r3, [r4, #62]
 2608 0064 0022     		movs	r2, #0
 2609 0066 2264     		str	r2, [r4, #64]
 2610 0068 6562     		str	r5, [r4, #36]
 2611 006a A4F82A80 		strh	r8, [r4, #42]	@ movhi
 2612 006e 638D     		ldrh	r3, [r4, #42]
 2613 0070 2385     		strh	r3, [r4, #40]	@ movhi
 2614 0072 404B     		ldr	r3, .L357
 2615 0074 E362     		str	r3, [r4, #44]
 2616 0076 2168     		ldr	r1, [r4]
 2617 0078 0B68     		ldr	r3, [r1]
 2618 007a 43F48063 		orr	r3, r3, #1024
ARM GAS  C:\Users\Rick\AppData\Local\Temp\ccGOCLVW.s 			page 46


 2619 007e 0B60     		str	r3, [r1]
 2620 0080 0097     		str	r7, [sp]
 2621 0082 3346     		mov	r3, r6
 2622 0084 3C49     		ldr	r1, .L357+4
 2623 0086 2046     		mov	r0, r4
 2624 0088 FFF7FEFF 		bl	I2C_WaitOnFlagUntilTimeout
 2625 008c 0028     		cmp	r0, #0
 2626 008e 6FD1     		bne	.L353
 2627 0090 0023     		movs	r3, #0
 2628 0092 0293     		str	r3, [sp, #8]
 2629 0094 2368     		ldr	r3, [r4]
 2630 0096 5A69     		ldr	r2, [r3, #20]
 2631 0098 0292     		str	r2, [sp, #8]
 2632 009a 9B69     		ldr	r3, [r3, #24]
 2633 009c 0293     		str	r3, [sp, #8]
 2634 009e 029B     		ldr	r3, [sp, #8]
 2635              	.L344:
 2636 00a0 238D     		ldrh	r3, [r4, #40]
 2637 00a2 002B     		cmp	r3, #0
 2638 00a4 36D0     		beq	.L355
 2639 00a6 3A46     		mov	r2, r7
 2640 00a8 3146     		mov	r1, r6
 2641 00aa 2046     		mov	r0, r4
 2642 00ac FFF7FEFF 		bl	I2C_WaitOnRXNEFlagUntilTimeout
 2643 00b0 48BB     		cbnz	r0, .L356
 2644 00b2 2368     		ldr	r3, [r4]
 2645 00b4 1A69     		ldr	r2, [r3, #16]
 2646 00b6 636A     		ldr	r3, [r4, #36]
 2647 00b8 1A70     		strb	r2, [r3]
 2648 00ba 636A     		ldr	r3, [r4, #36]
 2649 00bc 5A1C     		adds	r2, r3, #1
 2650 00be 6262     		str	r2, [r4, #36]
 2651 00c0 258D     		ldrh	r5, [r4, #40]
 2652 00c2 013D     		subs	r5, r5, #1
 2653 00c4 ADB2     		uxth	r5, r5
 2654 00c6 2585     		strh	r5, [r4, #40]	@ movhi
 2655 00c8 B4F82AC0 		ldrh	ip, [r4, #42]
 2656 00cc 1FFA8CFC 		uxth	ip, ip
 2657 00d0 0CF1FF3C 		add	ip, ip, #-1
 2658 00d4 1FFA8CFC 		uxth	ip, ip
 2659 00d8 A4F82AC0 		strh	ip, [r4, #42]	@ movhi
 2660 00dc 2268     		ldr	r2, [r4]
 2661 00de 5169     		ldr	r1, [r2, #20]
 2662 00e0 11F0040F 		tst	r1, #4
 2663 00e4 DCD0     		beq	.L344
 2664 00e6 002D     		cmp	r5, #0
 2665 00e8 DAD0     		beq	.L344
 2666 00ea 1269     		ldr	r2, [r2, #16]
 2667 00ec 5A70     		strb	r2, [r3, #1]
 2668 00ee 636A     		ldr	r3, [r4, #36]
 2669 00f0 0133     		adds	r3, r3, #1
 2670 00f2 6362     		str	r3, [r4, #36]
 2671 00f4 238D     		ldrh	r3, [r4, #40]
 2672 00f6 013B     		subs	r3, r3, #1
 2673 00f8 2385     		strh	r3, [r4, #40]	@ movhi
 2674 00fa 638D     		ldrh	r3, [r4, #42]
 2675 00fc 9BB2     		uxth	r3, r3
ARM GAS  C:\Users\Rick\AppData\Local\Temp\ccGOCLVW.s 			page 47


 2676 00fe 013B     		subs	r3, r3, #1
 2677 0100 9BB2     		uxth	r3, r3
 2678 0102 6385     		strh	r3, [r4, #42]	@ movhi
 2679 0104 CCE7     		b	.L344
 2680              	.L356:
 2681 0106 2268     		ldr	r2, [r4]
 2682 0108 1368     		ldr	r3, [r2]
 2683 010a 23F48063 		bic	r3, r3, #1024
 2684 010e 1360     		str	r3, [r2]
 2685 0110 0120     		movs	r0, #1
 2686 0112 24E0     		b	.L342
 2687              	.L355:
 2688 0114 3A46     		mov	r2, r7
 2689 0116 3146     		mov	r1, r6
 2690 0118 2046     		mov	r0, r4
 2691 011a FFF7FEFF 		bl	I2C_WaitOnSTOPFlagUntilTimeout
 2692 011e 30B1     		cbz	r0, .L348
 2693 0120 2268     		ldr	r2, [r4]
 2694 0122 1368     		ldr	r3, [r2]
 2695 0124 23F48063 		bic	r3, r3, #1024
 2696 0128 1360     		str	r3, [r2]
 2697 012a 0120     		movs	r0, #1
 2698 012c 17E0     		b	.L342
 2699              	.L348:
 2700 012e 0023     		movs	r3, #0
 2701 0130 0393     		str	r3, [sp, #12]
 2702 0132 2268     		ldr	r2, [r4]
 2703 0134 5169     		ldr	r1, [r2, #20]
 2704 0136 0391     		str	r1, [sp, #12]
 2705 0138 1168     		ldr	r1, [r2]
 2706 013a 41F00101 		orr	r1, r1, #1
 2707 013e 1160     		str	r1, [r2]
 2708 0140 039A     		ldr	r2, [sp, #12]
 2709 0142 2168     		ldr	r1, [r4]
 2710 0144 0A68     		ldr	r2, [r1]
 2711 0146 22F48062 		bic	r2, r2, #1024
 2712 014a 0A60     		str	r2, [r1]
 2713 014c 2022     		movs	r2, #32
 2714 014e 84F83D20 		strb	r2, [r4, #61]
 2715 0152 84F83E30 		strb	r3, [r4, #62]
 2716 0156 84F83C30 		strb	r3, [r4, #60]
 2717 015a 00E0     		b	.L342
 2718              	.L349:
 2719 015c 0220     		movs	r0, #2
 2720              	.L342:
 2721 015e 04B0     		add	sp, sp, #16
 2722              		@ sp needed
 2723 0160 BDE8F081 		pop	{r4, r5, r6, r7, r8, pc}
 2724              	.L350:
 2725 0164 0120     		movs	r0, #1
 2726 0166 FAE7     		b	.L342
 2727              	.L351:
 2728 0168 0120     		movs	r0, #1
 2729 016a F8E7     		b	.L342
 2730              	.L352:
 2731 016c 0220     		movs	r0, #2
 2732 016e F6E7     		b	.L342
ARM GAS  C:\Users\Rick\AppData\Local\Temp\ccGOCLVW.s 			page 48


 2733              	.L353:
 2734 0170 0120     		movs	r0, #1
 2735 0172 F4E7     		b	.L342
 2736              	.L358:
 2737              		.align	2
 2738              	.L357:
 2739 0174 0000FFFF 		.word	-65536
 2740 0178 02000100 		.word	65538
 2742              		.section	.text.HAL_I2C_Master_Transmit_IT,"ax",%progbits
 2743              		.align	1
 2744              		.global	HAL_I2C_Master_Transmit_IT
 2745              		.syntax unified
 2746              		.thumb
 2747              		.thumb_func
 2749              	HAL_I2C_Master_Transmit_IT:
 2750              		@ args = 0, pretend = 0, frame = 8
 2751              		@ frame_needed = 0, uses_anonymous_args = 0
 2752              		@ link register save eliminated.
 2753 0000 30B4     		push	{r4, r5}
 2754 0002 82B0     		sub	sp, sp, #8
 2755 0004 0024     		movs	r4, #0
 2756 0006 0194     		str	r4, [sp, #4]
 2757 0008 90F83D40 		ldrb	r4, [r0, #61]	@ zero_extendqisi2
 2758 000c 202C     		cmp	r4, #32
 2759 000e 53D1     		bne	.L364
 2760 0010 2C4C     		ldr	r4, .L368
 2761 0012 2468     		ldr	r4, [r4]
 2762 0014 E408     		lsrs	r4, r4, #3
 2763 0016 2C4D     		ldr	r5, .L368+4
 2764 0018 A5FB0454 		umull	r5, r4, r5, r4
 2765 001c 240A     		lsrs	r4, r4, #8
 2766 001e 04EB8404 		add	r4, r4, r4, lsl #2
 2767 0022 04EB8404 		add	r4, r4, r4, lsl #2
 2768 0026 0194     		str	r4, [sp, #4]
 2769              	.L362:
 2770 0028 019C     		ldr	r4, [sp, #4]
 2771 002a 013C     		subs	r4, r4, #1
 2772 002c 0194     		str	r4, [sp, #4]
 2773 002e 019C     		ldr	r4, [sp, #4]
 2774 0030 002C     		cmp	r4, #0
 2775 0032 35D0     		beq	.L367
 2776 0034 0468     		ldr	r4, [r0]
 2777 0036 A569     		ldr	r5, [r4, #24]
 2778 0038 15F0020F 		tst	r5, #2
 2779 003c F4D1     		bne	.L362
 2780 003e 90F83C50 		ldrb	r5, [r0, #60]	@ zero_extendqisi2
 2781 0042 012D     		cmp	r5, #1
 2782 0044 3CD0     		beq	.L365
 2783 0046 0125     		movs	r5, #1
 2784 0048 80F83C50 		strb	r5, [r0, #60]
 2785 004c 2568     		ldr	r5, [r4]
 2786 004e 15F0010F 		tst	r5, #1
 2787 0052 03D1     		bne	.L363
 2788 0054 2568     		ldr	r5, [r4]
 2789 0056 45F00105 		orr	r5, r5, #1
 2790 005a 2560     		str	r5, [r4]
 2791              	.L363:
ARM GAS  C:\Users\Rick\AppData\Local\Temp\ccGOCLVW.s 			page 49


 2792 005c 0568     		ldr	r5, [r0]
 2793 005e 2C68     		ldr	r4, [r5]
 2794 0060 24F40064 		bic	r4, r4, #2048
 2795 0064 2C60     		str	r4, [r5]
 2796 0066 2124     		movs	r4, #33
 2797 0068 80F83D40 		strb	r4, [r0, #61]
 2798 006c 1024     		movs	r4, #16
 2799 006e 80F83E40 		strb	r4, [r0, #62]
 2800 0072 0024     		movs	r4, #0
 2801 0074 0464     		str	r4, [r0, #64]
 2802 0076 4262     		str	r2, [r0, #36]
 2803 0078 4385     		strh	r3, [r0, #42]	@ movhi
 2804 007a 438D     		ldrh	r3, [r0, #42]
 2805 007c 0385     		strh	r3, [r0, #40]	@ movhi
 2806 007e 134B     		ldr	r3, .L368+8
 2807 0080 C362     		str	r3, [r0, #44]
 2808 0082 4164     		str	r1, [r0, #68]
 2809 0084 80F83C40 		strb	r4, [r0, #60]
 2810 0088 0268     		ldr	r2, [r0]
 2811 008a 5368     		ldr	r3, [r2, #4]
 2812 008c 43F4E063 		orr	r3, r3, #1792
 2813 0090 5360     		str	r3, [r2, #4]
 2814 0092 0268     		ldr	r2, [r0]
 2815 0094 1368     		ldr	r3, [r2]
 2816 0096 43F48073 		orr	r3, r3, #256
 2817 009a 1360     		str	r3, [r2]
 2818 009c 2046     		mov	r0, r4
 2819 009e 0CE0     		b	.L360
 2820              	.L367:
 2821 00a0 0023     		movs	r3, #0
 2822 00a2 0363     		str	r3, [r0, #48]
 2823 00a4 2022     		movs	r2, #32
 2824 00a6 80F83D20 		strb	r2, [r0, #61]
 2825 00aa 80F83E30 		strb	r3, [r0, #62]
 2826 00ae 036C     		ldr	r3, [r0, #64]
 2827 00b0 1343     		orrs	r3, r3, r2
 2828 00b2 0364     		str	r3, [r0, #64]
 2829 00b4 0220     		movs	r0, #2
 2830 00b6 00E0     		b	.L360
 2831              	.L364:
 2832 00b8 0220     		movs	r0, #2
 2833              	.L360:
 2834 00ba 02B0     		add	sp, sp, #8
 2835              		@ sp needed
 2836 00bc 30BC     		pop	{r4, r5}
 2837 00be 7047     		bx	lr
 2838              	.L365:
 2839 00c0 0220     		movs	r0, #2
 2840 00c2 FAE7     		b	.L360
 2841              	.L369:
 2842              		.align	2
 2843              	.L368:
 2844 00c4 00000000 		.word	SystemCoreClock
 2845 00c8 89B5F814 		.word	351843721
 2846 00cc 0000FFFF 		.word	-65536
 2848              		.section	.text.HAL_I2C_Master_Receive_IT,"ax",%progbits
 2849              		.align	1
ARM GAS  C:\Users\Rick\AppData\Local\Temp\ccGOCLVW.s 			page 50


 2850              		.global	HAL_I2C_Master_Receive_IT
 2851              		.syntax unified
 2852              		.thumb
 2853              		.thumb_func
 2855              	HAL_I2C_Master_Receive_IT:
 2856              		@ args = 0, pretend = 0, frame = 8
 2857              		@ frame_needed = 0, uses_anonymous_args = 0
 2858              		@ link register save eliminated.
 2859 0000 30B4     		push	{r4, r5}
 2860 0002 82B0     		sub	sp, sp, #8
 2861 0004 0024     		movs	r4, #0
 2862 0006 0194     		str	r4, [sp, #4]
 2863 0008 90F83D40 		ldrb	r4, [r0, #61]	@ zero_extendqisi2
 2864 000c 202C     		cmp	r4, #32
 2865 000e 58D1     		bne	.L375
 2866 0010 2F4C     		ldr	r4, .L379
 2867 0012 2468     		ldr	r4, [r4]
 2868 0014 E408     		lsrs	r4, r4, #3
 2869 0016 2F4D     		ldr	r5, .L379+4
 2870 0018 A5FB0454 		umull	r5, r4, r5, r4
 2871 001c 240A     		lsrs	r4, r4, #8
 2872 001e 04EB8404 		add	r4, r4, r4, lsl #2
 2873 0022 04EB8404 		add	r4, r4, r4, lsl #2
 2874 0026 0194     		str	r4, [sp, #4]
 2875              	.L373:
 2876 0028 019C     		ldr	r4, [sp, #4]
 2877 002a 013C     		subs	r4, r4, #1
 2878 002c 0194     		str	r4, [sp, #4]
 2879 002e 019C     		ldr	r4, [sp, #4]
 2880 0030 002C     		cmp	r4, #0
 2881 0032 3AD0     		beq	.L378
 2882 0034 0468     		ldr	r4, [r0]
 2883 0036 A569     		ldr	r5, [r4, #24]
 2884 0038 15F0020F 		tst	r5, #2
 2885 003c F4D1     		bne	.L373
 2886 003e 90F83C50 		ldrb	r5, [r0, #60]	@ zero_extendqisi2
 2887 0042 012D     		cmp	r5, #1
 2888 0044 41D0     		beq	.L376
 2889 0046 0125     		movs	r5, #1
 2890 0048 80F83C50 		strb	r5, [r0, #60]
 2891 004c 2568     		ldr	r5, [r4]
 2892 004e 15F0010F 		tst	r5, #1
 2893 0052 03D1     		bne	.L374
 2894 0054 2568     		ldr	r5, [r4]
 2895 0056 45F00105 		orr	r5, r5, #1
 2896 005a 2560     		str	r5, [r4]
 2897              	.L374:
 2898 005c 0568     		ldr	r5, [r0]
 2899 005e 2C68     		ldr	r4, [r5]
 2900 0060 24F40064 		bic	r4, r4, #2048
 2901 0064 2C60     		str	r4, [r5]
 2902 0066 2224     		movs	r4, #34
 2903 0068 80F83D40 		strb	r4, [r0, #61]
 2904 006c 1024     		movs	r4, #16
 2905 006e 80F83E40 		strb	r4, [r0, #62]
 2906 0072 0024     		movs	r4, #0
 2907 0074 0464     		str	r4, [r0, #64]
ARM GAS  C:\Users\Rick\AppData\Local\Temp\ccGOCLVW.s 			page 51


 2908 0076 4262     		str	r2, [r0, #36]
 2909 0078 4385     		strh	r3, [r0, #42]	@ movhi
 2910 007a 438D     		ldrh	r3, [r0, #42]
 2911 007c 0385     		strh	r3, [r0, #40]	@ movhi
 2912 007e 164B     		ldr	r3, .L379+8
 2913 0080 C362     		str	r3, [r0, #44]
 2914 0082 4164     		str	r1, [r0, #68]
 2915 0084 80F83C40 		strb	r4, [r0, #60]
 2916 0088 0268     		ldr	r2, [r0]
 2917 008a 5368     		ldr	r3, [r2, #4]
 2918 008c 43F4E063 		orr	r3, r3, #1792
 2919 0090 5360     		str	r3, [r2, #4]
 2920 0092 0268     		ldr	r2, [r0]
 2921 0094 1368     		ldr	r3, [r2]
 2922 0096 43F48063 		orr	r3, r3, #1024
 2923 009a 1360     		str	r3, [r2]
 2924 009c 0268     		ldr	r2, [r0]
 2925 009e 1368     		ldr	r3, [r2]
 2926 00a0 43F48073 		orr	r3, r3, #256
 2927 00a4 1360     		str	r3, [r2]
 2928 00a6 2046     		mov	r0, r4
 2929 00a8 0CE0     		b	.L371
 2930              	.L378:
 2931 00aa 0023     		movs	r3, #0
 2932 00ac 0363     		str	r3, [r0, #48]
 2933 00ae 2022     		movs	r2, #32
 2934 00b0 80F83D20 		strb	r2, [r0, #61]
 2935 00b4 80F83E30 		strb	r3, [r0, #62]
 2936 00b8 036C     		ldr	r3, [r0, #64]
 2937 00ba 1343     		orrs	r3, r3, r2
 2938 00bc 0364     		str	r3, [r0, #64]
 2939 00be 0220     		movs	r0, #2
 2940 00c0 00E0     		b	.L371
 2941              	.L375:
 2942 00c2 0220     		movs	r0, #2
 2943              	.L371:
 2944 00c4 02B0     		add	sp, sp, #8
 2945              		@ sp needed
 2946 00c6 30BC     		pop	{r4, r5}
 2947 00c8 7047     		bx	lr
 2948              	.L376:
 2949 00ca 0220     		movs	r0, #2
 2950 00cc FAE7     		b	.L371
 2951              	.L380:
 2952 00ce 00BF     		.align	2
 2953              	.L379:
 2954 00d0 00000000 		.word	SystemCoreClock
 2955 00d4 89B5F814 		.word	351843721
 2956 00d8 0000FFFF 		.word	-65536
 2958              		.section	.text.HAL_I2C_Slave_Transmit_IT,"ax",%progbits
 2959              		.align	1
 2960              		.global	HAL_I2C_Slave_Transmit_IT
 2961              		.syntax unified
 2962              		.thumb
 2963              		.thumb_func
 2965              	HAL_I2C_Slave_Transmit_IT:
 2966              		@ args = 0, pretend = 0, frame = 0
ARM GAS  C:\Users\Rick\AppData\Local\Temp\ccGOCLVW.s 			page 52


 2967              		@ frame_needed = 0, uses_anonymous_args = 0
 2968              		@ link register save eliminated.
 2969 0000 90F83D30 		ldrb	r3, [r0, #61]	@ zero_extendqisi2
 2970 0004 202B     		cmp	r3, #32
 2971 0006 37D1     		bne	.L384
 2972 0008 0029     		cmp	r1, #0
 2973 000a 37D0     		beq	.L385
 2974 000c 002A     		cmp	r2, #0
 2975 000e 37D0     		beq	.L386
 2976 0010 90F83C30 		ldrb	r3, [r0, #60]	@ zero_extendqisi2
 2977 0014 012B     		cmp	r3, #1
 2978 0016 35D0     		beq	.L387
 2979 0018 10B4     		push	{r4}
 2980 001a 0123     		movs	r3, #1
 2981 001c 80F83C30 		strb	r3, [r0, #60]
 2982 0020 0368     		ldr	r3, [r0]
 2983 0022 1C68     		ldr	r4, [r3]
 2984 0024 14F0010F 		tst	r4, #1
 2985 0028 03D1     		bne	.L383
 2986 002a 1C68     		ldr	r4, [r3]
 2987 002c 44F00104 		orr	r4, r4, #1
 2988 0030 1C60     		str	r4, [r3]
 2989              	.L383:
 2990 0032 0468     		ldr	r4, [r0]
 2991 0034 2368     		ldr	r3, [r4]
 2992 0036 23F40063 		bic	r3, r3, #2048
 2993 003a 2360     		str	r3, [r4]
 2994 003c 2123     		movs	r3, #33
 2995 003e 80F83D30 		strb	r3, [r0, #61]
 2996 0042 2023     		movs	r3, #32
 2997 0044 80F83E30 		strb	r3, [r0, #62]
 2998 0048 0023     		movs	r3, #0
 2999 004a 0364     		str	r3, [r0, #64]
 3000 004c 4162     		str	r1, [r0, #36]
 3001 004e 4285     		strh	r2, [r0, #42]	@ movhi
 3002 0050 428D     		ldrh	r2, [r0, #42]
 3003 0052 0285     		strh	r2, [r0, #40]	@ movhi
 3004 0054 0C4A     		ldr	r2, .L392
 3005 0056 C262     		str	r2, [r0, #44]
 3006 0058 0168     		ldr	r1, [r0]
 3007 005a 0A68     		ldr	r2, [r1]
 3008 005c 42F48062 		orr	r2, r2, #1024
 3009 0060 0A60     		str	r2, [r1]
 3010 0062 80F83C30 		strb	r3, [r0, #60]
 3011 0066 0168     		ldr	r1, [r0]
 3012 0068 4A68     		ldr	r2, [r1, #4]
 3013 006a 42F4E062 		orr	r2, r2, #1792
 3014 006e 4A60     		str	r2, [r1, #4]
 3015 0070 1846     		mov	r0, r3
 3016 0072 5DF8044B 		ldr	r4, [sp], #4
 3017 0076 7047     		bx	lr
 3018              	.L384:
 3019 0078 0220     		movs	r0, #2
 3020 007a 7047     		bx	lr
 3021              	.L385:
 3022 007c 0120     		movs	r0, #1
 3023 007e 7047     		bx	lr
ARM GAS  C:\Users\Rick\AppData\Local\Temp\ccGOCLVW.s 			page 53


 3024              	.L386:
 3025 0080 0120     		movs	r0, #1
 3026 0082 7047     		bx	lr
 3027              	.L387:
 3028 0084 0220     		movs	r0, #2
 3029 0086 7047     		bx	lr
 3030              	.L393:
 3031              		.align	2
 3032              	.L392:
 3033 0088 0000FFFF 		.word	-65536
 3035              		.section	.text.HAL_I2C_Slave_Receive_IT,"ax",%progbits
 3036              		.align	1
 3037              		.global	HAL_I2C_Slave_Receive_IT
 3038              		.syntax unified
 3039              		.thumb
 3040              		.thumb_func
 3042              	HAL_I2C_Slave_Receive_IT:
 3043              		@ args = 0, pretend = 0, frame = 0
 3044              		@ frame_needed = 0, uses_anonymous_args = 0
 3045              		@ link register save eliminated.
 3046 0000 90F83D30 		ldrb	r3, [r0, #61]	@ zero_extendqisi2
 3047 0004 202B     		cmp	r3, #32
 3048 0006 37D1     		bne	.L397
 3049 0008 0029     		cmp	r1, #0
 3050 000a 37D0     		beq	.L398
 3051 000c 002A     		cmp	r2, #0
 3052 000e 37D0     		beq	.L399
 3053 0010 90F83C30 		ldrb	r3, [r0, #60]	@ zero_extendqisi2
 3054 0014 012B     		cmp	r3, #1
 3055 0016 35D0     		beq	.L400
 3056 0018 10B4     		push	{r4}
 3057 001a 0123     		movs	r3, #1
 3058 001c 80F83C30 		strb	r3, [r0, #60]
 3059 0020 0368     		ldr	r3, [r0]
 3060 0022 1C68     		ldr	r4, [r3]
 3061 0024 14F0010F 		tst	r4, #1
 3062 0028 03D1     		bne	.L396
 3063 002a 1C68     		ldr	r4, [r3]
 3064 002c 44F00104 		orr	r4, r4, #1
 3065 0030 1C60     		str	r4, [r3]
 3066              	.L396:
 3067 0032 0468     		ldr	r4, [r0]
 3068 0034 2368     		ldr	r3, [r4]
 3069 0036 23F40063 		bic	r3, r3, #2048
 3070 003a 2360     		str	r3, [r4]
 3071 003c 2223     		movs	r3, #34
 3072 003e 80F83D30 		strb	r3, [r0, #61]
 3073 0042 2023     		movs	r3, #32
 3074 0044 80F83E30 		strb	r3, [r0, #62]
 3075 0048 0023     		movs	r3, #0
 3076 004a 0364     		str	r3, [r0, #64]
 3077 004c 4162     		str	r1, [r0, #36]
 3078 004e 4285     		strh	r2, [r0, #42]	@ movhi
 3079 0050 428D     		ldrh	r2, [r0, #42]
 3080 0052 0285     		strh	r2, [r0, #40]	@ movhi
 3081 0054 0C4A     		ldr	r2, .L405
 3082 0056 C262     		str	r2, [r0, #44]
ARM GAS  C:\Users\Rick\AppData\Local\Temp\ccGOCLVW.s 			page 54


 3083 0058 0168     		ldr	r1, [r0]
 3084 005a 0A68     		ldr	r2, [r1]
 3085 005c 42F48062 		orr	r2, r2, #1024
 3086 0060 0A60     		str	r2, [r1]
 3087 0062 80F83C30 		strb	r3, [r0, #60]
 3088 0066 0168     		ldr	r1, [r0]
 3089 0068 4A68     		ldr	r2, [r1, #4]
 3090 006a 42F4E062 		orr	r2, r2, #1792
 3091 006e 4A60     		str	r2, [r1, #4]
 3092 0070 1846     		mov	r0, r3
 3093 0072 5DF8044B 		ldr	r4, [sp], #4
 3094 0076 7047     		bx	lr
 3095              	.L397:
 3096 0078 0220     		movs	r0, #2
 3097 007a 7047     		bx	lr
 3098              	.L398:
 3099 007c 0120     		movs	r0, #1
 3100 007e 7047     		bx	lr
 3101              	.L399:
 3102 0080 0120     		movs	r0, #1
 3103 0082 7047     		bx	lr
 3104              	.L400:
 3105 0084 0220     		movs	r0, #2
 3106 0086 7047     		bx	lr
 3107              	.L406:
 3108              		.align	2
 3109              	.L405:
 3110 0088 0000FFFF 		.word	-65536
 3112              		.section	.text.HAL_I2C_Master_Transmit_DMA,"ax",%progbits
 3113              		.align	1
 3114              		.global	HAL_I2C_Master_Transmit_DMA
 3115              		.syntax unified
 3116              		.thumb
 3117              		.thumb_func
 3119              	HAL_I2C_Master_Transmit_DMA:
 3120              		@ args = 0, pretend = 0, frame = 8
 3121              		@ frame_needed = 0, uses_anonymous_args = 0
 3122 0000 30B5     		push	{r4, r5, lr}
 3123 0002 83B0     		sub	sp, sp, #12
 3124 0004 0546     		mov	r5, r0
 3125 0006 0020     		movs	r0, #0
 3126 0008 0190     		str	r0, [sp, #4]
 3127 000a 95F83D00 		ldrb	r0, [r5, #61]	@ zero_extendqisi2
 3128 000e 2028     		cmp	r0, #32
 3129 0010 40F0AA80 		bne	.L417
 3130 0014 5748     		ldr	r0, .L422
 3131 0016 0068     		ldr	r0, [r0]
 3132 0018 C008     		lsrs	r0, r0, #3
 3133 001a 574C     		ldr	r4, .L422+4
 3134 001c A4FB0040 		umull	r4, r0, r4, r0
 3135 0020 000A     		lsrs	r0, r0, #8
 3136 0022 00EB8000 		add	r0, r0, r0, lsl #2
 3137 0026 00EB8000 		add	r0, r0, r0, lsl #2
 3138 002a 0190     		str	r0, [sp, #4]
 3139              	.L410:
 3140 002c 019C     		ldr	r4, [sp, #4]
 3141 002e 013C     		subs	r4, r4, #1
ARM GAS  C:\Users\Rick\AppData\Local\Temp\ccGOCLVW.s 			page 55


 3142 0030 0194     		str	r4, [sp, #4]
 3143 0032 0198     		ldr	r0, [sp, #4]
 3144 0034 0028     		cmp	r0, #0
 3145 0036 51D0     		beq	.L421
 3146 0038 2868     		ldr	r0, [r5]
 3147 003a 8469     		ldr	r4, [r0, #24]
 3148 003c 14F0020F 		tst	r4, #2
 3149 0040 F4D1     		bne	.L410
 3150 0042 95F83C40 		ldrb	r4, [r5, #60]	@ zero_extendqisi2
 3151 0046 012C     		cmp	r4, #1
 3152 0048 00F09180 		beq	.L418
 3153 004c 0124     		movs	r4, #1
 3154 004e 85F83C40 		strb	r4, [r5, #60]
 3155 0052 0468     		ldr	r4, [r0]
 3156 0054 14F0010F 		tst	r4, #1
 3157 0058 03D1     		bne	.L411
 3158 005a 0468     		ldr	r4, [r0]
 3159 005c 44F00104 		orr	r4, r4, #1
 3160 0060 0460     		str	r4, [r0]
 3161              	.L411:
 3162 0062 2C68     		ldr	r4, [r5]
 3163 0064 2068     		ldr	r0, [r4]
 3164 0066 20F40060 		bic	r0, r0, #2048
 3165 006a 2060     		str	r0, [r4]
 3166 006c 2120     		movs	r0, #33
 3167 006e 85F83D00 		strb	r0, [r5, #61]
 3168 0072 1020     		movs	r0, #16
 3169 0074 85F83E00 		strb	r0, [r5, #62]
 3170 0078 0020     		movs	r0, #0
 3171 007a 2864     		str	r0, [r5, #64]
 3172 007c 6A62     		str	r2, [r5, #36]
 3173 007e 6B85     		strh	r3, [r5, #42]	@ movhi
 3174 0080 6B8D     		ldrh	r3, [r5, #42]
 3175 0082 9BB2     		uxth	r3, r3
 3176 0084 2B85     		strh	r3, [r5, #40]	@ movhi
 3177 0086 3D4A     		ldr	r2, .L422+8
 3178 0088 EA62     		str	r2, [r5, #44]
 3179 008a 6964     		str	r1, [r5, #68]
 3180 008c 002B     		cmp	r3, #0
 3181 008e 57D0     		beq	.L412
 3182 0090 6B6B     		ldr	r3, [r5, #52]
 3183 0092 002B     		cmp	r3, #0
 3184 0094 2ED0     		beq	.L413
 3185 0096 3A4A     		ldr	r2, .L422+12
 3186 0098 DA63     		str	r2, [r3, #60]
 3187 009a 6B6B     		ldr	r3, [r5, #52]
 3188 009c 394A     		ldr	r2, .L422+16
 3189 009e DA64     		str	r2, [r3, #76]
 3190 00a0 6A6B     		ldr	r2, [r5, #52]
 3191 00a2 1064     		str	r0, [r2, #64]
 3192 00a4 6A6B     		ldr	r2, [r5, #52]
 3193 00a6 5064     		str	r0, [r2, #68]
 3194 00a8 6A6B     		ldr	r2, [r5, #52]
 3195 00aa 9064     		str	r0, [r2, #72]
 3196 00ac 6A6B     		ldr	r2, [r5, #52]
 3197 00ae 1065     		str	r0, [r2, #80]
 3198 00b0 2A68     		ldr	r2, [r5]
ARM GAS  C:\Users\Rick\AppData\Local\Temp\ccGOCLVW.s 			page 56


 3199 00b2 2B8D     		ldrh	r3, [r5, #40]
 3200 00b4 1032     		adds	r2, r2, #16
 3201 00b6 696A     		ldr	r1, [r5, #36]
 3202 00b8 686B     		ldr	r0, [r5, #52]
 3203 00ba FFF7FEFF 		bl	HAL_DMA_Start_IT
 3204 00be 38B3     		cbz	r0, .L414
 3205 00c0 2023     		movs	r3, #32
 3206 00c2 85F83D30 		strb	r3, [r5, #61]
 3207 00c6 0022     		movs	r2, #0
 3208 00c8 85F83E20 		strb	r2, [r5, #62]
 3209 00cc 2B6C     		ldr	r3, [r5, #64]
 3210 00ce 43F01003 		orr	r3, r3, #16
 3211 00d2 2B64     		str	r3, [r5, #64]
 3212 00d4 85F83C20 		strb	r2, [r5, #60]
 3213 00d8 0120     		movs	r0, #1
 3214 00da 46E0     		b	.L408
 3215              	.L421:
 3216 00dc 0023     		movs	r3, #0
 3217 00de 2B63     		str	r3, [r5, #48]
 3218 00e0 2022     		movs	r2, #32
 3219 00e2 85F83D20 		strb	r2, [r5, #61]
 3220 00e6 85F83E30 		strb	r3, [r5, #62]
 3221 00ea 2B6C     		ldr	r3, [r5, #64]
 3222 00ec 1343     		orrs	r3, r3, r2
 3223 00ee 2B64     		str	r3, [r5, #64]
 3224 00f0 0220     		movs	r0, #2
 3225 00f2 3AE0     		b	.L408
 3226              	.L413:
 3227 00f4 2023     		movs	r3, #32
 3228 00f6 85F83D30 		strb	r3, [r5, #61]
 3229 00fa 0022     		movs	r2, #0
 3230 00fc 85F83E20 		strb	r2, [r5, #62]
 3231 0100 2B6C     		ldr	r3, [r5, #64]
 3232 0102 43F08003 		orr	r3, r3, #128
 3233 0106 2B64     		str	r3, [r5, #64]
 3234 0108 85F83C20 		strb	r2, [r5, #60]
 3235 010c 0120     		movs	r0, #1
 3236 010e 2CE0     		b	.L408
 3237              	.L414:
 3238 0110 0023     		movs	r3, #0
 3239 0112 85F83C30 		strb	r3, [r5, #60]
 3240 0116 2A68     		ldr	r2, [r5]
 3241 0118 5368     		ldr	r3, [r2, #4]
 3242 011a 43F44073 		orr	r3, r3, #768
 3243 011e 5360     		str	r3, [r2, #4]
 3244 0120 2A68     		ldr	r2, [r5]
 3245 0122 5368     		ldr	r3, [r2, #4]
 3246 0124 43F40063 		orr	r3, r3, #2048
 3247 0128 5360     		str	r3, [r2, #4]
 3248 012a 2A68     		ldr	r2, [r5]
 3249 012c 1368     		ldr	r3, [r2]
 3250 012e 43F48063 		orr	r3, r3, #1024
 3251 0132 1360     		str	r3, [r2]
 3252 0134 2A68     		ldr	r2, [r5]
 3253 0136 1368     		ldr	r3, [r2]
 3254 0138 43F48073 		orr	r3, r3, #256
 3255 013c 1360     		str	r3, [r2]
ARM GAS  C:\Users\Rick\AppData\Local\Temp\ccGOCLVW.s 			page 57


 3256 013e 11E0     		b	.L416
 3257              	.L412:
 3258 0140 2A68     		ldr	r2, [r5]
 3259 0142 1368     		ldr	r3, [r2]
 3260 0144 43F48063 		orr	r3, r3, #1024
 3261 0148 1360     		str	r3, [r2]
 3262 014a 2A68     		ldr	r2, [r5]
 3263 014c 1368     		ldr	r3, [r2]
 3264 014e 43F48073 		orr	r3, r3, #256
 3265 0152 1360     		str	r3, [r2]
 3266 0154 0023     		movs	r3, #0
 3267 0156 85F83C30 		strb	r3, [r5, #60]
 3268 015a 2A68     		ldr	r2, [r5]
 3269 015c 5368     		ldr	r3, [r2, #4]
 3270 015e 43F4E063 		orr	r3, r3, #1792
 3271 0162 5360     		str	r3, [r2, #4]
 3272              	.L416:
 3273 0164 0020     		movs	r0, #0
 3274 0166 00E0     		b	.L408
 3275              	.L417:
 3276 0168 0220     		movs	r0, #2
 3277              	.L408:
 3278 016a 03B0     		add	sp, sp, #12
 3279              		@ sp needed
 3280 016c 30BD     		pop	{r4, r5, pc}
 3281              	.L418:
 3282 016e 0220     		movs	r0, #2
 3283 0170 FBE7     		b	.L408
 3284              	.L423:
 3285 0172 00BF     		.align	2
 3286              	.L422:
 3287 0174 00000000 		.word	SystemCoreClock
 3288 0178 89B5F814 		.word	351843721
 3289 017c 0000FFFF 		.word	-65536
 3290 0180 00000000 		.word	I2C_DMAXferCplt
 3291 0184 00000000 		.word	I2C_DMAError
 3293              		.section	.text.HAL_I2C_Master_Receive_DMA,"ax",%progbits
 3294              		.align	1
 3295              		.global	HAL_I2C_Master_Receive_DMA
 3296              		.syntax unified
 3297              		.thumb
 3298              		.thumb_func
 3300              	HAL_I2C_Master_Receive_DMA:
 3301              		@ args = 0, pretend = 0, frame = 8
 3302              		@ frame_needed = 0, uses_anonymous_args = 0
 3303 0000 30B5     		push	{r4, r5, lr}
 3304 0002 83B0     		sub	sp, sp, #12
 3305 0004 0546     		mov	r5, r0
 3306 0006 0020     		movs	r0, #0
 3307 0008 0190     		str	r0, [sp, #4]
 3308 000a 95F83D00 		ldrb	r0, [r5, #61]	@ zero_extendqisi2
 3309 000e 2028     		cmp	r0, #32
 3310 0010 40F0AA80 		bne	.L434
 3311 0014 5748     		ldr	r0, .L439
 3312 0016 0068     		ldr	r0, [r0]
 3313 0018 C008     		lsrs	r0, r0, #3
 3314 001a 574C     		ldr	r4, .L439+4
ARM GAS  C:\Users\Rick\AppData\Local\Temp\ccGOCLVW.s 			page 58


 3315 001c A4FB0040 		umull	r4, r0, r4, r0
 3316 0020 000A     		lsrs	r0, r0, #8
 3317 0022 00EB8000 		add	r0, r0, r0, lsl #2
 3318 0026 00EB8000 		add	r0, r0, r0, lsl #2
 3319 002a 0190     		str	r0, [sp, #4]
 3320              	.L427:
 3321 002c 019C     		ldr	r4, [sp, #4]
 3322 002e 013C     		subs	r4, r4, #1
 3323 0030 0194     		str	r4, [sp, #4]
 3324 0032 0198     		ldr	r0, [sp, #4]
 3325 0034 0028     		cmp	r0, #0
 3326 0036 51D0     		beq	.L438
 3327 0038 2868     		ldr	r0, [r5]
 3328 003a 8469     		ldr	r4, [r0, #24]
 3329 003c 14F0020F 		tst	r4, #2
 3330 0040 F4D1     		bne	.L427
 3331 0042 95F83C40 		ldrb	r4, [r5, #60]	@ zero_extendqisi2
 3332 0046 012C     		cmp	r4, #1
 3333 0048 00F09180 		beq	.L435
 3334 004c 0124     		movs	r4, #1
 3335 004e 85F83C40 		strb	r4, [r5, #60]
 3336 0052 0468     		ldr	r4, [r0]
 3337 0054 14F0010F 		tst	r4, #1
 3338 0058 03D1     		bne	.L428
 3339 005a 0468     		ldr	r4, [r0]
 3340 005c 44F00104 		orr	r4, r4, #1
 3341 0060 0460     		str	r4, [r0]
 3342              	.L428:
 3343 0062 2C68     		ldr	r4, [r5]
 3344 0064 2068     		ldr	r0, [r4]
 3345 0066 20F40060 		bic	r0, r0, #2048
 3346 006a 2060     		str	r0, [r4]
 3347 006c 2220     		movs	r0, #34
 3348 006e 85F83D00 		strb	r0, [r5, #61]
 3349 0072 1020     		movs	r0, #16
 3350 0074 85F83E00 		strb	r0, [r5, #62]
 3351 0078 0020     		movs	r0, #0
 3352 007a 2864     		str	r0, [r5, #64]
 3353 007c 6A62     		str	r2, [r5, #36]
 3354 007e 6B85     		strh	r3, [r5, #42]	@ movhi
 3355 0080 6B8D     		ldrh	r3, [r5, #42]
 3356 0082 9BB2     		uxth	r3, r3
 3357 0084 2B85     		strh	r3, [r5, #40]	@ movhi
 3358 0086 3D4A     		ldr	r2, .L439+8
 3359 0088 EA62     		str	r2, [r5, #44]
 3360 008a 6964     		str	r1, [r5, #68]
 3361 008c 002B     		cmp	r3, #0
 3362 008e 57D0     		beq	.L429
 3363 0090 AB6B     		ldr	r3, [r5, #56]
 3364 0092 002B     		cmp	r3, #0
 3365 0094 2ED0     		beq	.L430
 3366 0096 3A4A     		ldr	r2, .L439+12
 3367 0098 DA63     		str	r2, [r3, #60]
 3368 009a AB6B     		ldr	r3, [r5, #56]
 3369 009c 394A     		ldr	r2, .L439+16
 3370 009e DA64     		str	r2, [r3, #76]
 3371 00a0 AA6B     		ldr	r2, [r5, #56]
ARM GAS  C:\Users\Rick\AppData\Local\Temp\ccGOCLVW.s 			page 59


 3372 00a2 1064     		str	r0, [r2, #64]
 3373 00a4 AA6B     		ldr	r2, [r5, #56]
 3374 00a6 5064     		str	r0, [r2, #68]
 3375 00a8 AA6B     		ldr	r2, [r5, #56]
 3376 00aa 9064     		str	r0, [r2, #72]
 3377 00ac AA6B     		ldr	r2, [r5, #56]
 3378 00ae 1065     		str	r0, [r2, #80]
 3379 00b0 2968     		ldr	r1, [r5]
 3380 00b2 2B8D     		ldrh	r3, [r5, #40]
 3381 00b4 6A6A     		ldr	r2, [r5, #36]
 3382 00b6 1031     		adds	r1, r1, #16
 3383 00b8 A86B     		ldr	r0, [r5, #56]
 3384 00ba FFF7FEFF 		bl	HAL_DMA_Start_IT
 3385 00be 38B3     		cbz	r0, .L431
 3386 00c0 2023     		movs	r3, #32
 3387 00c2 85F83D30 		strb	r3, [r5, #61]
 3388 00c6 0022     		movs	r2, #0
 3389 00c8 85F83E20 		strb	r2, [r5, #62]
 3390 00cc 2B6C     		ldr	r3, [r5, #64]
 3391 00ce 43F01003 		orr	r3, r3, #16
 3392 00d2 2B64     		str	r3, [r5, #64]
 3393 00d4 85F83C20 		strb	r2, [r5, #60]
 3394 00d8 0120     		movs	r0, #1
 3395 00da 46E0     		b	.L425
 3396              	.L438:
 3397 00dc 0023     		movs	r3, #0
 3398 00de 2B63     		str	r3, [r5, #48]
 3399 00e0 2022     		movs	r2, #32
 3400 00e2 85F83D20 		strb	r2, [r5, #61]
 3401 00e6 85F83E30 		strb	r3, [r5, #62]
 3402 00ea 2B6C     		ldr	r3, [r5, #64]
 3403 00ec 1343     		orrs	r3, r3, r2
 3404 00ee 2B64     		str	r3, [r5, #64]
 3405 00f0 0220     		movs	r0, #2
 3406 00f2 3AE0     		b	.L425
 3407              	.L430:
 3408 00f4 2023     		movs	r3, #32
 3409 00f6 85F83D30 		strb	r3, [r5, #61]
 3410 00fa 0022     		movs	r2, #0
 3411 00fc 85F83E20 		strb	r2, [r5, #62]
 3412 0100 2B6C     		ldr	r3, [r5, #64]
 3413 0102 43F08003 		orr	r3, r3, #128
 3414 0106 2B64     		str	r3, [r5, #64]
 3415 0108 85F83C20 		strb	r2, [r5, #60]
 3416 010c 0120     		movs	r0, #1
 3417 010e 2CE0     		b	.L425
 3418              	.L431:
 3419 0110 2A68     		ldr	r2, [r5]
 3420 0112 1368     		ldr	r3, [r2]
 3421 0114 43F48063 		orr	r3, r3, #1024
 3422 0118 1360     		str	r3, [r2]
 3423 011a 2A68     		ldr	r2, [r5]
 3424 011c 1368     		ldr	r3, [r2]
 3425 011e 43F48073 		orr	r3, r3, #256
 3426 0122 1360     		str	r3, [r2]
 3427 0124 0023     		movs	r3, #0
 3428 0126 85F83C30 		strb	r3, [r5, #60]
ARM GAS  C:\Users\Rick\AppData\Local\Temp\ccGOCLVW.s 			page 60


 3429 012a 2A68     		ldr	r2, [r5]
 3430 012c 5368     		ldr	r3, [r2, #4]
 3431 012e 43F44073 		orr	r3, r3, #768
 3432 0132 5360     		str	r3, [r2, #4]
 3433 0134 2A68     		ldr	r2, [r5]
 3434 0136 5368     		ldr	r3, [r2, #4]
 3435 0138 43F40063 		orr	r3, r3, #2048
 3436 013c 5360     		str	r3, [r2, #4]
 3437 013e 11E0     		b	.L433
 3438              	.L429:
 3439 0140 0023     		movs	r3, #0
 3440 0142 85F83C30 		strb	r3, [r5, #60]
 3441 0146 2A68     		ldr	r2, [r5]
 3442 0148 5368     		ldr	r3, [r2, #4]
 3443 014a 43F4E063 		orr	r3, r3, #1792
 3444 014e 5360     		str	r3, [r2, #4]
 3445 0150 2A68     		ldr	r2, [r5]
 3446 0152 1368     		ldr	r3, [r2]
 3447 0154 43F48063 		orr	r3, r3, #1024
 3448 0158 1360     		str	r3, [r2]
 3449 015a 2A68     		ldr	r2, [r5]
 3450 015c 1368     		ldr	r3, [r2]
 3451 015e 43F48073 		orr	r3, r3, #256
 3452 0162 1360     		str	r3, [r2]
 3453              	.L433:
 3454 0164 0020     		movs	r0, #0
 3455 0166 00E0     		b	.L425
 3456              	.L434:
 3457 0168 0220     		movs	r0, #2
 3458              	.L425:
 3459 016a 03B0     		add	sp, sp, #12
 3460              		@ sp needed
 3461 016c 30BD     		pop	{r4, r5, pc}
 3462              	.L435:
 3463 016e 0220     		movs	r0, #2
 3464 0170 FBE7     		b	.L425
 3465              	.L440:
 3466 0172 00BF     		.align	2
 3467              	.L439:
 3468 0174 00000000 		.word	SystemCoreClock
 3469 0178 89B5F814 		.word	351843721
 3470 017c 0000FFFF 		.word	-65536
 3471 0180 00000000 		.word	I2C_DMAXferCplt
 3472 0184 00000000 		.word	I2C_DMAError
 3474              		.section	.text.HAL_I2C_Slave_Transmit_DMA,"ax",%progbits
 3475              		.align	1
 3476              		.global	HAL_I2C_Slave_Transmit_DMA
 3477              		.syntax unified
 3478              		.thumb
 3479              		.thumb_func
 3481              	HAL_I2C_Slave_Transmit_DMA:
 3482              		@ args = 0, pretend = 0, frame = 0
 3483              		@ frame_needed = 0, uses_anonymous_args = 0
 3484 0000 90F83D30 		ldrb	r3, [r0, #61]	@ zero_extendqisi2
 3485 0004 202B     		cmp	r3, #32
 3486 0006 6FD1     		bne	.L447
 3487 0008 10B5     		push	{r4, lr}
ARM GAS  C:\Users\Rick\AppData\Local\Temp\ccGOCLVW.s 			page 61


 3488 000a 0446     		mov	r4, r0
 3489 000c 0029     		cmp	r1, #0
 3490 000e 6DD0     		beq	.L448
 3491 0010 002A     		cmp	r2, #0
 3492 0012 6DD0     		beq	.L449
 3493 0014 90F83C30 		ldrb	r3, [r0, #60]	@ zero_extendqisi2
 3494 0018 012B     		cmp	r3, #1
 3495 001a 6BD0     		beq	.L450
 3496 001c 0123     		movs	r3, #1
 3497 001e 80F83C30 		strb	r3, [r0, #60]
 3498 0022 0368     		ldr	r3, [r0]
 3499 0024 1868     		ldr	r0, [r3]
 3500 0026 10F0010F 		tst	r0, #1
 3501 002a 03D1     		bne	.L443
 3502 002c 1868     		ldr	r0, [r3]
 3503 002e 40F00100 		orr	r0, r0, #1
 3504 0032 1860     		str	r0, [r3]
 3505              	.L443:
 3506 0034 2068     		ldr	r0, [r4]
 3507 0036 0368     		ldr	r3, [r0]
 3508 0038 23F40063 		bic	r3, r3, #2048
 3509 003c 0360     		str	r3, [r0]
 3510 003e 2123     		movs	r3, #33
 3511 0040 84F83D30 		strb	r3, [r4, #61]
 3512 0044 2023     		movs	r3, #32
 3513 0046 84F83E30 		strb	r3, [r4, #62]
 3514 004a 0023     		movs	r3, #0
 3515 004c 2364     		str	r3, [r4, #64]
 3516 004e 6162     		str	r1, [r4, #36]
 3517 0050 6285     		strh	r2, [r4, #42]	@ movhi
 3518 0052 638D     		ldrh	r3, [r4, #42]
 3519 0054 2385     		strh	r3, [r4, #40]	@ movhi
 3520 0056 284B     		ldr	r3, .L456
 3521 0058 E362     		str	r3, [r4, #44]
 3522 005a 636B     		ldr	r3, [r4, #52]
 3523 005c 1BB3     		cbz	r3, .L444
 3524 005e 274A     		ldr	r2, .L456+4
 3525 0060 DA63     		str	r2, [r3, #60]
 3526 0062 636B     		ldr	r3, [r4, #52]
 3527 0064 264A     		ldr	r2, .L456+8
 3528 0066 DA64     		str	r2, [r3, #76]
 3529 0068 626B     		ldr	r2, [r4, #52]
 3530 006a 0023     		movs	r3, #0
 3531 006c 1364     		str	r3, [r2, #64]
 3532 006e 626B     		ldr	r2, [r4, #52]
 3533 0070 5364     		str	r3, [r2, #68]
 3534 0072 626B     		ldr	r2, [r4, #52]
 3535 0074 9364     		str	r3, [r2, #72]
 3536 0076 626B     		ldr	r2, [r4, #52]
 3537 0078 1365     		str	r3, [r2, #80]
 3538 007a 2268     		ldr	r2, [r4]
 3539 007c 238D     		ldrh	r3, [r4, #40]
 3540 007e 1032     		adds	r2, r2, #16
 3541 0080 616A     		ldr	r1, [r4, #36]
 3542 0082 606B     		ldr	r0, [r4, #52]
 3543 0084 FFF7FEFF 		bl	HAL_DMA_Start_IT
 3544 0088 D8B1     		cbz	r0, .L445
ARM GAS  C:\Users\Rick\AppData\Local\Temp\ccGOCLVW.s 			page 62


 3545 008a 2023     		movs	r3, #32
 3546 008c 84F83D30 		strb	r3, [r4, #61]
 3547 0090 0022     		movs	r2, #0
 3548 0092 84F83E20 		strb	r2, [r4, #62]
 3549 0096 236C     		ldr	r3, [r4, #64]
 3550 0098 43F01003 		orr	r3, r3, #16
 3551 009c 2364     		str	r3, [r4, #64]
 3552 009e 84F83C20 		strb	r2, [r4, #60]
 3553 00a2 0120     		movs	r0, #1
 3554 00a4 25E0     		b	.L442
 3555              	.L444:
 3556 00a6 2823     		movs	r3, #40
 3557 00a8 84F83D30 		strb	r3, [r4, #61]
 3558 00ac 0022     		movs	r2, #0
 3559 00ae 84F83E20 		strb	r2, [r4, #62]
 3560 00b2 236C     		ldr	r3, [r4, #64]
 3561 00b4 43F08003 		orr	r3, r3, #128
 3562 00b8 2364     		str	r3, [r4, #64]
 3563 00ba 84F83C20 		strb	r2, [r4, #60]
 3564 00be 0120     		movs	r0, #1
 3565 00c0 17E0     		b	.L442
 3566              	.L445:
 3567 00c2 2268     		ldr	r2, [r4]
 3568 00c4 1368     		ldr	r3, [r2]
 3569 00c6 43F48063 		orr	r3, r3, #1024
 3570 00ca 1360     		str	r3, [r2]
 3571 00cc 0023     		movs	r3, #0
 3572 00ce 84F83C30 		strb	r3, [r4, #60]
 3573 00d2 2268     		ldr	r2, [r4]
 3574 00d4 5368     		ldr	r3, [r2, #4]
 3575 00d6 43F44073 		orr	r3, r3, #768
 3576 00da 5360     		str	r3, [r2, #4]
 3577 00dc 2268     		ldr	r2, [r4]
 3578 00de 5368     		ldr	r3, [r2, #4]
 3579 00e0 43F40063 		orr	r3, r3, #2048
 3580 00e4 5360     		str	r3, [r2, #4]
 3581 00e6 04E0     		b	.L442
 3582              	.L447:
 3583 00e8 0220     		movs	r0, #2
 3584 00ea 7047     		bx	lr
 3585              	.L448:
 3586 00ec 0120     		movs	r0, #1
 3587 00ee 00E0     		b	.L442
 3588              	.L449:
 3589 00f0 0120     		movs	r0, #1
 3590              	.L442:
 3591 00f2 10BD     		pop	{r4, pc}
 3592              	.L450:
 3593 00f4 0220     		movs	r0, #2
 3594 00f6 FCE7     		b	.L442
 3595              	.L457:
 3596              		.align	2
 3597              	.L456:
 3598 00f8 0000FFFF 		.word	-65536
 3599 00fc 00000000 		.word	I2C_DMAXferCplt
 3600 0100 00000000 		.word	I2C_DMAError
 3602              		.section	.text.HAL_I2C_Slave_Receive_DMA,"ax",%progbits
ARM GAS  C:\Users\Rick\AppData\Local\Temp\ccGOCLVW.s 			page 63


 3603              		.align	1
 3604              		.global	HAL_I2C_Slave_Receive_DMA
 3605              		.syntax unified
 3606              		.thumb
 3607              		.thumb_func
 3609              	HAL_I2C_Slave_Receive_DMA:
 3610              		@ args = 0, pretend = 0, frame = 0
 3611              		@ frame_needed = 0, uses_anonymous_args = 0
 3612 0000 90F83D30 		ldrb	r3, [r0, #61]	@ zero_extendqisi2
 3613 0004 202B     		cmp	r3, #32
 3614 0006 6FD1     		bne	.L464
 3615 0008 10B5     		push	{r4, lr}
 3616 000a 0446     		mov	r4, r0
 3617 000c 0029     		cmp	r1, #0
 3618 000e 6DD0     		beq	.L465
 3619 0010 002A     		cmp	r2, #0
 3620 0012 6DD0     		beq	.L466
 3621 0014 90F83C30 		ldrb	r3, [r0, #60]	@ zero_extendqisi2
 3622 0018 012B     		cmp	r3, #1
 3623 001a 6BD0     		beq	.L467
 3624 001c 0123     		movs	r3, #1
 3625 001e 80F83C30 		strb	r3, [r0, #60]
 3626 0022 0368     		ldr	r3, [r0]
 3627 0024 1868     		ldr	r0, [r3]
 3628 0026 10F0010F 		tst	r0, #1
 3629 002a 03D1     		bne	.L460
 3630 002c 1868     		ldr	r0, [r3]
 3631 002e 40F00100 		orr	r0, r0, #1
 3632 0032 1860     		str	r0, [r3]
 3633              	.L460:
 3634 0034 2068     		ldr	r0, [r4]
 3635 0036 0368     		ldr	r3, [r0]
 3636 0038 23F40063 		bic	r3, r3, #2048
 3637 003c 0360     		str	r3, [r0]
 3638 003e 2223     		movs	r3, #34
 3639 0040 84F83D30 		strb	r3, [r4, #61]
 3640 0044 2023     		movs	r3, #32
 3641 0046 84F83E30 		strb	r3, [r4, #62]
 3642 004a 0023     		movs	r3, #0
 3643 004c 2364     		str	r3, [r4, #64]
 3644 004e 6162     		str	r1, [r4, #36]
 3645 0050 6285     		strh	r2, [r4, #42]	@ movhi
 3646 0052 638D     		ldrh	r3, [r4, #42]
 3647 0054 2385     		strh	r3, [r4, #40]	@ movhi
 3648 0056 284B     		ldr	r3, .L473
 3649 0058 E362     		str	r3, [r4, #44]
 3650 005a A36B     		ldr	r3, [r4, #56]
 3651 005c 1BB3     		cbz	r3, .L461
 3652 005e 274A     		ldr	r2, .L473+4
 3653 0060 DA63     		str	r2, [r3, #60]
 3654 0062 A36B     		ldr	r3, [r4, #56]
 3655 0064 264A     		ldr	r2, .L473+8
 3656 0066 DA64     		str	r2, [r3, #76]
 3657 0068 A26B     		ldr	r2, [r4, #56]
 3658 006a 0023     		movs	r3, #0
 3659 006c 1364     		str	r3, [r2, #64]
 3660 006e A26B     		ldr	r2, [r4, #56]
ARM GAS  C:\Users\Rick\AppData\Local\Temp\ccGOCLVW.s 			page 64


 3661 0070 5364     		str	r3, [r2, #68]
 3662 0072 A26B     		ldr	r2, [r4, #56]
 3663 0074 9364     		str	r3, [r2, #72]
 3664 0076 A26B     		ldr	r2, [r4, #56]
 3665 0078 1365     		str	r3, [r2, #80]
 3666 007a 2168     		ldr	r1, [r4]
 3667 007c 238D     		ldrh	r3, [r4, #40]
 3668 007e 626A     		ldr	r2, [r4, #36]
 3669 0080 1031     		adds	r1, r1, #16
 3670 0082 A06B     		ldr	r0, [r4, #56]
 3671 0084 FFF7FEFF 		bl	HAL_DMA_Start_IT
 3672 0088 D8B1     		cbz	r0, .L462
 3673 008a 2023     		movs	r3, #32
 3674 008c 84F83D30 		strb	r3, [r4, #61]
 3675 0090 0022     		movs	r2, #0
 3676 0092 84F83E20 		strb	r2, [r4, #62]
 3677 0096 236C     		ldr	r3, [r4, #64]
 3678 0098 43F01003 		orr	r3, r3, #16
 3679 009c 2364     		str	r3, [r4, #64]
 3680 009e 84F83C20 		strb	r2, [r4, #60]
 3681 00a2 0120     		movs	r0, #1
 3682 00a4 25E0     		b	.L459
 3683              	.L461:
 3684 00a6 2823     		movs	r3, #40
 3685 00a8 84F83D30 		strb	r3, [r4, #61]
 3686 00ac 0022     		movs	r2, #0
 3687 00ae 84F83E20 		strb	r2, [r4, #62]
 3688 00b2 236C     		ldr	r3, [r4, #64]
 3689 00b4 43F08003 		orr	r3, r3, #128
 3690 00b8 2364     		str	r3, [r4, #64]
 3691 00ba 84F83C20 		strb	r2, [r4, #60]
 3692 00be 0120     		movs	r0, #1
 3693 00c0 17E0     		b	.L459
 3694              	.L462:
 3695 00c2 2268     		ldr	r2, [r4]
 3696 00c4 1368     		ldr	r3, [r2]
 3697 00c6 43F48063 		orr	r3, r3, #1024
 3698 00ca 1360     		str	r3, [r2]
 3699 00cc 0023     		movs	r3, #0
 3700 00ce 84F83C30 		strb	r3, [r4, #60]
 3701 00d2 2268     		ldr	r2, [r4]
 3702 00d4 5368     		ldr	r3, [r2, #4]
 3703 00d6 43F44073 		orr	r3, r3, #768
 3704 00da 5360     		str	r3, [r2, #4]
 3705 00dc 2268     		ldr	r2, [r4]
 3706 00de 5368     		ldr	r3, [r2, #4]
 3707 00e0 43F40063 		orr	r3, r3, #2048
 3708 00e4 5360     		str	r3, [r2, #4]
 3709 00e6 04E0     		b	.L459
 3710              	.L464:
 3711 00e8 0220     		movs	r0, #2
 3712 00ea 7047     		bx	lr
 3713              	.L465:
 3714 00ec 0120     		movs	r0, #1
 3715 00ee 00E0     		b	.L459
 3716              	.L466:
 3717 00f0 0120     		movs	r0, #1
ARM GAS  C:\Users\Rick\AppData\Local\Temp\ccGOCLVW.s 			page 65


 3718              	.L459:
 3719 00f2 10BD     		pop	{r4, pc}
 3720              	.L467:
 3721 00f4 0220     		movs	r0, #2
 3722 00f6 FCE7     		b	.L459
 3723              	.L474:
 3724              		.align	2
 3725              	.L473:
 3726 00f8 0000FFFF 		.word	-65536
 3727 00fc 00000000 		.word	I2C_DMAXferCplt
 3728 0100 00000000 		.word	I2C_DMAError
 3730              		.section	.text.HAL_I2C_Mem_Write,"ax",%progbits
 3731              		.align	1
 3732              		.global	HAL_I2C_Mem_Write
 3733              		.syntax unified
 3734              		.thumb
 3735              		.thumb_func
 3737              	HAL_I2C_Mem_Write:
 3738              		@ args = 12, pretend = 0, frame = 0
 3739              		@ frame_needed = 0, uses_anonymous_args = 0
 3740 0000 2DE9F043 		push	{r4, r5, r6, r7, r8, r9, lr}
 3741 0004 83B0     		sub	sp, sp, #12
 3742 0006 0446     		mov	r4, r0
 3743 0008 0F46     		mov	r7, r1
 3744 000a 9046     		mov	r8, r2
 3745 000c 9946     		mov	r9, r3
 3746 000e 0C9E     		ldr	r6, [sp, #48]
 3747 0010 FFF7FEFF 		bl	HAL_GetTick
 3748 0014 94F83D20 		ldrb	r2, [r4, #61]	@ zero_extendqisi2
 3749 0018 202A     		cmp	r2, #32
 3750 001a 03D0     		beq	.L490
 3751 001c 0220     		movs	r0, #2
 3752              	.L476:
 3753 001e 03B0     		add	sp, sp, #12
 3754              		@ sp needed
 3755 0020 BDE8F083 		pop	{r4, r5, r6, r7, r8, r9, pc}
 3756              	.L490:
 3757 0024 0546     		mov	r5, r0
 3758 0026 0090     		str	r0, [sp]
 3759 0028 1923     		movs	r3, #25
 3760 002a 0122     		movs	r2, #1
 3761 002c 4A49     		ldr	r1, .L496
 3762 002e 2046     		mov	r0, r4
 3763 0030 FFF7FEFF 		bl	I2C_WaitOnFlagUntilTimeout
 3764 0034 0028     		cmp	r0, #0
 3765 0036 40F08980 		bne	.L486
 3766 003a 94F83C30 		ldrb	r3, [r4, #60]	@ zero_extendqisi2
 3767 003e 012B     		cmp	r3, #1
 3768 0040 00F08680 		beq	.L487
 3769 0044 0123     		movs	r3, #1
 3770 0046 84F83C30 		strb	r3, [r4, #60]
 3771 004a 2368     		ldr	r3, [r4]
 3772 004c 1A68     		ldr	r2, [r3]
 3773 004e 12F0010F 		tst	r2, #1
 3774 0052 03D1     		bne	.L477
 3775 0054 1A68     		ldr	r2, [r3]
 3776 0056 42F00102 		orr	r2, r2, #1
ARM GAS  C:\Users\Rick\AppData\Local\Temp\ccGOCLVW.s 			page 66


 3777 005a 1A60     		str	r2, [r3]
 3778              	.L477:
 3779 005c 2268     		ldr	r2, [r4]
 3780 005e 1368     		ldr	r3, [r2]
 3781 0060 23F40063 		bic	r3, r3, #2048
 3782 0064 1360     		str	r3, [r2]
 3783 0066 2123     		movs	r3, #33
 3784 0068 84F83D30 		strb	r3, [r4, #61]
 3785 006c 4023     		movs	r3, #64
 3786 006e 84F83E30 		strb	r3, [r4, #62]
 3787 0072 0023     		movs	r3, #0
 3788 0074 2364     		str	r3, [r4, #64]
 3789 0076 0A9B     		ldr	r3, [sp, #40]
 3790 0078 6362     		str	r3, [r4, #36]
 3791 007a BDF82C30 		ldrh	r3, [sp, #44]
 3792 007e 6385     		strh	r3, [r4, #42]	@ movhi
 3793 0080 638D     		ldrh	r3, [r4, #42]
 3794 0082 2385     		strh	r3, [r4, #40]	@ movhi
 3795 0084 354B     		ldr	r3, .L496+4
 3796 0086 E362     		str	r3, [r4, #44]
 3797 0088 0195     		str	r5, [sp, #4]
 3798 008a 0096     		str	r6, [sp]
 3799 008c 4B46     		mov	r3, r9
 3800 008e 4246     		mov	r2, r8
 3801 0090 3946     		mov	r1, r7
 3802 0092 2046     		mov	r0, r4
 3803 0094 FFF7FEFF 		bl	I2C_RequestMemoryWrite
 3804 0098 0028     		cmp	r0, #0
 3805 009a 5BD1     		bne	.L491
 3806              	.L478:
 3807 009c 238D     		ldrh	r3, [r4, #40]
 3808 009e 002B     		cmp	r3, #0
 3809 00a0 35D0     		beq	.L492
 3810 00a2 2A46     		mov	r2, r5
 3811 00a4 3146     		mov	r1, r6
 3812 00a6 2046     		mov	r0, r4
 3813 00a8 FFF7FEFF 		bl	I2C_WaitOnTXEFlagUntilTimeout
 3814 00ac 20BB     		cbnz	r0, .L493
 3815 00ae 626A     		ldr	r2, [r4, #36]
 3816 00b0 2368     		ldr	r3, [r4]
 3817 00b2 1278     		ldrb	r2, [r2]	@ zero_extendqisi2
 3818 00b4 1A61     		str	r2, [r3, #16]
 3819 00b6 626A     		ldr	r2, [r4, #36]
 3820 00b8 531C     		adds	r3, r2, #1
 3821 00ba 6362     		str	r3, [r4, #36]
 3822 00bc 218D     		ldrh	r1, [r4, #40]
 3823 00be 0139     		subs	r1, r1, #1
 3824 00c0 89B2     		uxth	r1, r1
 3825 00c2 2185     		strh	r1, [r4, #40]	@ movhi
 3826 00c4 638D     		ldrh	r3, [r4, #42]
 3827 00c6 9BB2     		uxth	r3, r3
 3828 00c8 013B     		subs	r3, r3, #1
 3829 00ca 9BB2     		uxth	r3, r3
 3830 00cc 6385     		strh	r3, [r4, #42]	@ movhi
 3831 00ce 2368     		ldr	r3, [r4]
 3832 00d0 5869     		ldr	r0, [r3, #20]
 3833 00d2 10F0040F 		tst	r0, #4
ARM GAS  C:\Users\Rick\AppData\Local\Temp\ccGOCLVW.s 			page 67


 3834 00d6 E1D0     		beq	.L478
 3835 00d8 0029     		cmp	r1, #0
 3836 00da DFD0     		beq	.L478
 3837 00dc 5278     		ldrb	r2, [r2, #1]	@ zero_extendqisi2
 3838 00de 1A61     		str	r2, [r3, #16]
 3839 00e0 636A     		ldr	r3, [r4, #36]
 3840 00e2 0133     		adds	r3, r3, #1
 3841 00e4 6362     		str	r3, [r4, #36]
 3842 00e6 238D     		ldrh	r3, [r4, #40]
 3843 00e8 013B     		subs	r3, r3, #1
 3844 00ea 2385     		strh	r3, [r4, #40]	@ movhi
 3845 00ec 638D     		ldrh	r3, [r4, #42]
 3846 00ee 9BB2     		uxth	r3, r3
 3847 00f0 013B     		subs	r3, r3, #1
 3848 00f2 9BB2     		uxth	r3, r3
 3849 00f4 6385     		strh	r3, [r4, #42]	@ movhi
 3850 00f6 D1E7     		b	.L478
 3851              	.L493:
 3852 00f8 236C     		ldr	r3, [r4, #64]
 3853 00fa 042B     		cmp	r3, #4
 3854 00fc 01D0     		beq	.L494
 3855              	.L480:
 3856 00fe 0120     		movs	r0, #1
 3857 0100 8DE7     		b	.L476
 3858              	.L494:
 3859 0102 2268     		ldr	r2, [r4]
 3860 0104 1368     		ldr	r3, [r2]
 3861 0106 43F40073 		orr	r3, r3, #512
 3862 010a 1360     		str	r3, [r2]
 3863 010c F7E7     		b	.L480
 3864              	.L492:
 3865 010e 2A46     		mov	r2, r5
 3866 0110 3146     		mov	r1, r6
 3867 0112 2046     		mov	r0, r4
 3868 0114 FFF7FEFF 		bl	I2C_WaitOnBTFFlagUntilTimeout
 3869 0118 50B1     		cbz	r0, .L483
 3870 011a 236C     		ldr	r3, [r4, #64]
 3871 011c 042B     		cmp	r3, #4
 3872 011e 01D0     		beq	.L495
 3873              	.L484:
 3874 0120 0120     		movs	r0, #1
 3875 0122 7CE7     		b	.L476
 3876              	.L495:
 3877 0124 2268     		ldr	r2, [r4]
 3878 0126 1368     		ldr	r3, [r2]
 3879 0128 43F40073 		orr	r3, r3, #512
 3880 012c 1360     		str	r3, [r2]
 3881 012e F7E7     		b	.L484
 3882              	.L483:
 3883 0130 2268     		ldr	r2, [r4]
 3884 0132 1368     		ldr	r3, [r2]
 3885 0134 43F40073 		orr	r3, r3, #512
 3886 0138 1360     		str	r3, [r2]
 3887 013a 2023     		movs	r3, #32
 3888 013c 84F83D30 		strb	r3, [r4, #61]
 3889 0140 0023     		movs	r3, #0
 3890 0142 84F83E30 		strb	r3, [r4, #62]
ARM GAS  C:\Users\Rick\AppData\Local\Temp\ccGOCLVW.s 			page 68


 3891 0146 84F83C30 		strb	r3, [r4, #60]
 3892 014a 68E7     		b	.L476
 3893              	.L486:
 3894 014c 0220     		movs	r0, #2
 3895 014e 66E7     		b	.L476
 3896              	.L487:
 3897 0150 0220     		movs	r0, #2
 3898 0152 64E7     		b	.L476
 3899              	.L491:
 3900 0154 0120     		movs	r0, #1
 3901 0156 62E7     		b	.L476
 3902              	.L497:
 3903              		.align	2
 3904              	.L496:
 3905 0158 02001000 		.word	1048578
 3906 015c 0000FFFF 		.word	-65536
 3908              		.section	.text.HAL_I2C_Mem_Read,"ax",%progbits
 3909              		.align	1
 3910              		.global	HAL_I2C_Mem_Read
 3911              		.syntax unified
 3912              		.thumb
 3913              		.thumb_func
 3915              	HAL_I2C_Mem_Read:
 3916              		@ args = 12, pretend = 0, frame = 16
 3917              		@ frame_needed = 0, uses_anonymous_args = 0
 3918 0000 2DE9F043 		push	{r4, r5, r6, r7, r8, r9, lr}
 3919 0004 87B0     		sub	sp, sp, #28
 3920 0006 0446     		mov	r4, r0
 3921 0008 0F46     		mov	r7, r1
 3922 000a 9046     		mov	r8, r2
 3923 000c 9946     		mov	r9, r3
 3924 000e 109E     		ldr	r6, [sp, #64]
 3925 0010 FFF7FEFF 		bl	HAL_GetTick
 3926 0014 94F83D20 		ldrb	r2, [r4, #61]	@ zero_extendqisi2
 3927 0018 202A     		cmp	r2, #32
 3928 001a 04D0     		beq	.L522
 3929 001c 0227     		movs	r7, #2
 3930              	.L499:
 3931 001e 3846     		mov	r0, r7
 3932 0020 07B0     		add	sp, sp, #28
 3933              		@ sp needed
 3934 0022 BDE8F083 		pop	{r4, r5, r6, r7, r8, r9, pc}
 3935              	.L522:
 3936 0026 0546     		mov	r5, r0
 3937 0028 0090     		str	r0, [sp]
 3938 002a 1923     		movs	r3, #25
 3939 002c 0122     		movs	r2, #1
 3940 002e 8949     		ldr	r1, .L529
 3941 0030 2046     		mov	r0, r4
 3942 0032 FFF7FEFF 		bl	I2C_WaitOnFlagUntilTimeout
 3943 0036 0028     		cmp	r0, #0
 3944 0038 40F04E81 		bne	.L513
 3945 003c 94F83C30 		ldrb	r3, [r4, #60]	@ zero_extendqisi2
 3946 0040 012B     		cmp	r3, #1
 3947 0042 00F04B81 		beq	.L514
 3948 0046 0123     		movs	r3, #1
 3949 0048 84F83C30 		strb	r3, [r4, #60]
ARM GAS  C:\Users\Rick\AppData\Local\Temp\ccGOCLVW.s 			page 69


 3950 004c 2368     		ldr	r3, [r4]
 3951 004e 1A68     		ldr	r2, [r3]
 3952 0050 12F0010F 		tst	r2, #1
 3953 0054 03D1     		bne	.L500
 3954 0056 1A68     		ldr	r2, [r3]
 3955 0058 42F00102 		orr	r2, r2, #1
 3956 005c 1A60     		str	r2, [r3]
 3957              	.L500:
 3958 005e 2268     		ldr	r2, [r4]
 3959 0060 1368     		ldr	r3, [r2]
 3960 0062 23F40063 		bic	r3, r3, #2048
 3961 0066 1360     		str	r3, [r2]
 3962 0068 2223     		movs	r3, #34
 3963 006a 84F83D30 		strb	r3, [r4, #61]
 3964 006e 4023     		movs	r3, #64
 3965 0070 84F83E30 		strb	r3, [r4, #62]
 3966 0074 0023     		movs	r3, #0
 3967 0076 2364     		str	r3, [r4, #64]
 3968 0078 0E9B     		ldr	r3, [sp, #56]
 3969 007a 6362     		str	r3, [r4, #36]
 3970 007c BDF83C30 		ldrh	r3, [sp, #60]
 3971 0080 6385     		strh	r3, [r4, #42]	@ movhi
 3972 0082 638D     		ldrh	r3, [r4, #42]
 3973 0084 2385     		strh	r3, [r4, #40]	@ movhi
 3974 0086 744B     		ldr	r3, .L529+4
 3975 0088 E362     		str	r3, [r4, #44]
 3976 008a 0195     		str	r5, [sp, #4]
 3977 008c 0096     		str	r6, [sp]
 3978 008e 4B46     		mov	r3, r9
 3979 0090 4246     		mov	r2, r8
 3980 0092 3946     		mov	r1, r7
 3981 0094 2046     		mov	r0, r4
 3982 0096 FFF7FEFF 		bl	I2C_RequestMemoryRead
 3983 009a 0746     		mov	r7, r0
 3984 009c 0028     		cmp	r0, #0
 3985 009e 40F01F81 		bne	.L515
 3986 00a2 238D     		ldrh	r3, [r4, #40]
 3987 00a4 5BB9     		cbnz	r3, .L501
 3988 00a6 0293     		str	r3, [sp, #8]
 3989 00a8 2368     		ldr	r3, [r4]
 3990 00aa 5A69     		ldr	r2, [r3, #20]
 3991 00ac 0292     		str	r2, [sp, #8]
 3992 00ae 9A69     		ldr	r2, [r3, #24]
 3993 00b0 0292     		str	r2, [sp, #8]
 3994 00b2 029A     		ldr	r2, [sp, #8]
 3995 00b4 1A68     		ldr	r2, [r3]
 3996 00b6 42F40072 		orr	r2, r2, #512
 3997 00ba 1A60     		str	r2, [r3]
 3998 00bc 75E0     		b	.L510
 3999              	.L501:
 4000 00be 012B     		cmp	r3, #1
 4001 00c0 0AD0     		beq	.L523
 4002 00c2 022B     		cmp	r3, #2
 4003 00c4 1AD0     		beq	.L524
 4004 00c6 0023     		movs	r3, #0
 4005 00c8 0593     		str	r3, [sp, #20]
 4006 00ca 2368     		ldr	r3, [r4]
ARM GAS  C:\Users\Rick\AppData\Local\Temp\ccGOCLVW.s 			page 70


 4007 00cc 5A69     		ldr	r2, [r3, #20]
 4008 00ce 0592     		str	r2, [sp, #20]
 4009 00d0 9B69     		ldr	r3, [r3, #24]
 4010 00d2 0593     		str	r3, [sp, #20]
 4011 00d4 059B     		ldr	r3, [sp, #20]
 4012 00d6 68E0     		b	.L510
 4013              	.L523:
 4014 00d8 2268     		ldr	r2, [r4]
 4015 00da 1368     		ldr	r3, [r2]
 4016 00dc 23F48063 		bic	r3, r3, #1024
 4017 00e0 1360     		str	r3, [r2]
 4018 00e2 0023     		movs	r3, #0
 4019 00e4 0393     		str	r3, [sp, #12]
 4020 00e6 2368     		ldr	r3, [r4]
 4021 00e8 5A69     		ldr	r2, [r3, #20]
 4022 00ea 0392     		str	r2, [sp, #12]
 4023 00ec 9A69     		ldr	r2, [r3, #24]
 4024 00ee 0392     		str	r2, [sp, #12]
 4025 00f0 039A     		ldr	r2, [sp, #12]
 4026 00f2 1A68     		ldr	r2, [r3]
 4027 00f4 42F40072 		orr	r2, r2, #512
 4028 00f8 1A60     		str	r2, [r3]
 4029 00fa 56E0     		b	.L510
 4030              	.L524:
 4031 00fc 2268     		ldr	r2, [r4]
 4032 00fe 1368     		ldr	r3, [r2]
 4033 0100 23F48063 		bic	r3, r3, #1024
 4034 0104 1360     		str	r3, [r2]
 4035 0106 2268     		ldr	r2, [r4]
 4036 0108 1368     		ldr	r3, [r2]
 4037 010a 43F40063 		orr	r3, r3, #2048
 4038 010e 1360     		str	r3, [r2]
 4039 0110 0023     		movs	r3, #0
 4040 0112 0493     		str	r3, [sp, #16]
 4041 0114 2368     		ldr	r3, [r4]
 4042 0116 5A69     		ldr	r2, [r3, #20]
 4043 0118 0492     		str	r2, [sp, #16]
 4044 011a 9B69     		ldr	r3, [r3, #24]
 4045 011c 0493     		str	r3, [sp, #16]
 4046 011e 049B     		ldr	r3, [sp, #16]
 4047 0120 43E0     		b	.L510
 4048              	.L526:
 4049 0122 2A46     		mov	r2, r5
 4050 0124 3146     		mov	r1, r6
 4051 0126 2046     		mov	r0, r4
 4052 0128 FFF7FEFF 		bl	I2C_WaitOnRXNEFlagUntilTimeout
 4053 012c 0028     		cmp	r0, #0
 4054 012e 40F0D980 		bne	.L516
 4055 0132 2368     		ldr	r3, [r4]
 4056 0134 1A69     		ldr	r2, [r3, #16]
 4057 0136 636A     		ldr	r3, [r4, #36]
 4058 0138 1A70     		strb	r2, [r3]
 4059 013a 636A     		ldr	r3, [r4, #36]
 4060 013c 0133     		adds	r3, r3, #1
 4061 013e 6362     		str	r3, [r4, #36]
 4062 0140 238D     		ldrh	r3, [r4, #40]
 4063 0142 013B     		subs	r3, r3, #1
ARM GAS  C:\Users\Rick\AppData\Local\Temp\ccGOCLVW.s 			page 71


 4064 0144 2385     		strh	r3, [r4, #40]	@ movhi
 4065 0146 638D     		ldrh	r3, [r4, #42]
 4066 0148 9BB2     		uxth	r3, r3
 4067 014a 013B     		subs	r3, r3, #1
 4068 014c 9BB2     		uxth	r3, r3
 4069 014e 6385     		strh	r3, [r4, #42]	@ movhi
 4070 0150 2BE0     		b	.L510
 4071              	.L527:
 4072 0152 0095     		str	r5, [sp]
 4073 0154 3346     		mov	r3, r6
 4074 0156 0022     		movs	r2, #0
 4075 0158 4049     		ldr	r1, .L529+8
 4076 015a 2046     		mov	r0, r4
 4077 015c FFF7FEFF 		bl	I2C_WaitOnFlagUntilTimeout
 4078 0160 0028     		cmp	r0, #0
 4079 0162 40F0C180 		bne	.L517
 4080 0166 2268     		ldr	r2, [r4]
 4081 0168 1368     		ldr	r3, [r2]
 4082 016a 43F40073 		orr	r3, r3, #512
 4083 016e 1360     		str	r3, [r2]
 4084 0170 2368     		ldr	r3, [r4]
 4085 0172 1A69     		ldr	r2, [r3, #16]
 4086 0174 636A     		ldr	r3, [r4, #36]
 4087 0176 1A70     		strb	r2, [r3]
 4088 0178 626A     		ldr	r2, [r4, #36]
 4089 017a 531C     		adds	r3, r2, #1
 4090 017c 6362     		str	r3, [r4, #36]
 4091 017e 238D     		ldrh	r3, [r4, #40]
 4092 0180 013B     		subs	r3, r3, #1
 4093 0182 2385     		strh	r3, [r4, #40]	@ movhi
 4094 0184 638D     		ldrh	r3, [r4, #42]
 4095 0186 9BB2     		uxth	r3, r3
 4096 0188 013B     		subs	r3, r3, #1
 4097 018a 9BB2     		uxth	r3, r3
 4098 018c 6385     		strh	r3, [r4, #42]	@ movhi
 4099 018e 2368     		ldr	r3, [r4]
 4100 0190 1B69     		ldr	r3, [r3, #16]
 4101 0192 5370     		strb	r3, [r2, #1]
 4102 0194 636A     		ldr	r3, [r4, #36]
 4103 0196 0133     		adds	r3, r3, #1
 4104 0198 6362     		str	r3, [r4, #36]
 4105 019a 238D     		ldrh	r3, [r4, #40]
 4106 019c 013B     		subs	r3, r3, #1
 4107 019e 2385     		strh	r3, [r4, #40]	@ movhi
 4108 01a0 638D     		ldrh	r3, [r4, #42]
 4109 01a2 9BB2     		uxth	r3, r3
 4110 01a4 013B     		subs	r3, r3, #1
 4111 01a6 9BB2     		uxth	r3, r3
 4112 01a8 6385     		strh	r3, [r4, #42]	@ movhi
 4113              	.L510:
 4114 01aa 238D     		ldrh	r3, [r4, #40]
 4115 01ac 002B     		cmp	r3, #0
 4116 01ae 00F08A80 		beq	.L525
 4117 01b2 032B     		cmp	r3, #3
 4118 01b4 54D8     		bhi	.L505
 4119 01b6 012B     		cmp	r3, #1
 4120 01b8 B3D0     		beq	.L526
ARM GAS  C:\Users\Rick\AppData\Local\Temp\ccGOCLVW.s 			page 72


 4121 01ba 022B     		cmp	r3, #2
 4122 01bc C9D0     		beq	.L527
 4123 01be 0095     		str	r5, [sp]
 4124 01c0 3346     		mov	r3, r6
 4125 01c2 0022     		movs	r2, #0
 4126 01c4 2549     		ldr	r1, .L529+8
 4127 01c6 2046     		mov	r0, r4
 4128 01c8 FFF7FEFF 		bl	I2C_WaitOnFlagUntilTimeout
 4129 01cc 0028     		cmp	r0, #0
 4130 01ce 40F08D80 		bne	.L518
 4131 01d2 2268     		ldr	r2, [r4]
 4132 01d4 1368     		ldr	r3, [r2]
 4133 01d6 23F48063 		bic	r3, r3, #1024
 4134 01da 1360     		str	r3, [r2]
 4135 01dc 2368     		ldr	r3, [r4]
 4136 01de 1A69     		ldr	r2, [r3, #16]
 4137 01e0 636A     		ldr	r3, [r4, #36]
 4138 01e2 1A70     		strb	r2, [r3]
 4139 01e4 636A     		ldr	r3, [r4, #36]
 4140 01e6 0133     		adds	r3, r3, #1
 4141 01e8 6362     		str	r3, [r4, #36]
 4142 01ea 238D     		ldrh	r3, [r4, #40]
 4143 01ec 013B     		subs	r3, r3, #1
 4144 01ee 2385     		strh	r3, [r4, #40]	@ movhi
 4145 01f0 638D     		ldrh	r3, [r4, #42]
 4146 01f2 9BB2     		uxth	r3, r3
 4147 01f4 013B     		subs	r3, r3, #1
 4148 01f6 9BB2     		uxth	r3, r3
 4149 01f8 6385     		strh	r3, [r4, #42]	@ movhi
 4150 01fa 0095     		str	r5, [sp]
 4151 01fc 3346     		mov	r3, r6
 4152 01fe 0022     		movs	r2, #0
 4153 0200 1649     		ldr	r1, .L529+8
 4154 0202 2046     		mov	r0, r4
 4155 0204 FFF7FEFF 		bl	I2C_WaitOnFlagUntilTimeout
 4156 0208 0028     		cmp	r0, #0
 4157 020a 71D1     		bne	.L519
 4158 020c 2268     		ldr	r2, [r4]
 4159 020e 1368     		ldr	r3, [r2]
 4160 0210 43F40073 		orr	r3, r3, #512
 4161 0214 1360     		str	r3, [r2]
 4162 0216 2368     		ldr	r3, [r4]
 4163 0218 1A69     		ldr	r2, [r3, #16]
 4164 021a 636A     		ldr	r3, [r4, #36]
 4165 021c 1A70     		strb	r2, [r3]
 4166 021e 626A     		ldr	r2, [r4, #36]
 4167 0220 531C     		adds	r3, r2, #1
 4168 0222 6362     		str	r3, [r4, #36]
 4169 0224 238D     		ldrh	r3, [r4, #40]
 4170 0226 013B     		subs	r3, r3, #1
 4171 0228 2385     		strh	r3, [r4, #40]	@ movhi
 4172 022a 638D     		ldrh	r3, [r4, #42]
 4173 022c 9BB2     		uxth	r3, r3
 4174 022e 013B     		subs	r3, r3, #1
 4175 0230 9BB2     		uxth	r3, r3
 4176 0232 6385     		strh	r3, [r4, #42]	@ movhi
 4177 0234 2368     		ldr	r3, [r4]
ARM GAS  C:\Users\Rick\AppData\Local\Temp\ccGOCLVW.s 			page 73


 4178 0236 1B69     		ldr	r3, [r3, #16]
 4179 0238 5370     		strb	r3, [r2, #1]
 4180 023a 636A     		ldr	r3, [r4, #36]
 4181 023c 0133     		adds	r3, r3, #1
 4182 023e 6362     		str	r3, [r4, #36]
 4183 0240 238D     		ldrh	r3, [r4, #40]
 4184 0242 013B     		subs	r3, r3, #1
 4185 0244 2385     		strh	r3, [r4, #40]	@ movhi
 4186 0246 638D     		ldrh	r3, [r4, #42]
 4187 0248 9BB2     		uxth	r3, r3
 4188 024a 013B     		subs	r3, r3, #1
 4189 024c 9BB2     		uxth	r3, r3
 4190 024e 6385     		strh	r3, [r4, #42]	@ movhi
 4191 0250 ABE7     		b	.L510
 4192              	.L530:
 4193 0252 00BF     		.align	2
 4194              	.L529:
 4195 0254 02001000 		.word	1048578
 4196 0258 0000FFFF 		.word	-65536
 4197 025c 04000100 		.word	65540
 4198              	.L505:
 4199 0260 2A46     		mov	r2, r5
 4200 0262 3146     		mov	r1, r6
 4201 0264 2046     		mov	r0, r4
 4202 0266 FFF7FEFF 		bl	I2C_WaitOnRXNEFlagUntilTimeout
 4203 026a 0028     		cmp	r0, #0
 4204 026c 42D1     		bne	.L520
 4205 026e 2368     		ldr	r3, [r4]
 4206 0270 1A69     		ldr	r2, [r3, #16]
 4207 0272 636A     		ldr	r3, [r4, #36]
 4208 0274 1A70     		strb	r2, [r3]
 4209 0276 636A     		ldr	r3, [r4, #36]
 4210 0278 0133     		adds	r3, r3, #1
 4211 027a 6362     		str	r3, [r4, #36]
 4212 027c 228D     		ldrh	r2, [r4, #40]
 4213 027e 013A     		subs	r2, r2, #1
 4214 0280 92B2     		uxth	r2, r2
 4215 0282 2285     		strh	r2, [r4, #40]	@ movhi
 4216 0284 638D     		ldrh	r3, [r4, #42]
 4217 0286 9BB2     		uxth	r3, r3
 4218 0288 013B     		subs	r3, r3, #1
 4219 028a 9BB2     		uxth	r3, r3
 4220 028c 6385     		strh	r3, [r4, #42]	@ movhi
 4221 028e 2368     		ldr	r3, [r4]
 4222 0290 5969     		ldr	r1, [r3, #20]
 4223 0292 11F0040F 		tst	r1, #4
 4224 0296 88D0     		beq	.L510
 4225 0298 032A     		cmp	r2, #3
 4226 029a 0FD0     		beq	.L528
 4227              	.L509:
 4228 029c 2368     		ldr	r3, [r4]
 4229 029e 1A69     		ldr	r2, [r3, #16]
 4230 02a0 636A     		ldr	r3, [r4, #36]
 4231 02a2 1A70     		strb	r2, [r3]
 4232 02a4 636A     		ldr	r3, [r4, #36]
 4233 02a6 0133     		adds	r3, r3, #1
 4234 02a8 6362     		str	r3, [r4, #36]
ARM GAS  C:\Users\Rick\AppData\Local\Temp\ccGOCLVW.s 			page 74


 4235 02aa 238D     		ldrh	r3, [r4, #40]
 4236 02ac 013B     		subs	r3, r3, #1
 4237 02ae 2385     		strh	r3, [r4, #40]	@ movhi
 4238 02b0 638D     		ldrh	r3, [r4, #42]
 4239 02b2 9BB2     		uxth	r3, r3
 4240 02b4 013B     		subs	r3, r3, #1
 4241 02b6 9BB2     		uxth	r3, r3
 4242 02b8 6385     		strh	r3, [r4, #42]	@ movhi
 4243 02ba 76E7     		b	.L510
 4244              	.L528:
 4245 02bc 1A68     		ldr	r2, [r3]
 4246 02be 22F48062 		bic	r2, r2, #1024
 4247 02c2 1A60     		str	r2, [r3]
 4248 02c4 EAE7     		b	.L509
 4249              	.L525:
 4250 02c6 2023     		movs	r3, #32
 4251 02c8 84F83D30 		strb	r3, [r4, #61]
 4252 02cc 0023     		movs	r3, #0
 4253 02ce 84F83E30 		strb	r3, [r4, #62]
 4254 02d2 84F83C30 		strb	r3, [r4, #60]
 4255 02d6 A2E6     		b	.L499
 4256              	.L513:
 4257 02d8 0227     		movs	r7, #2
 4258 02da A0E6     		b	.L499
 4259              	.L514:
 4260 02dc 0227     		movs	r7, #2
 4261 02de 9EE6     		b	.L499
 4262              	.L515:
 4263 02e0 0127     		movs	r7, #1
 4264 02e2 9CE6     		b	.L499
 4265              	.L516:
 4266 02e4 0127     		movs	r7, #1
 4267 02e6 9AE6     		b	.L499
 4268              	.L517:
 4269 02e8 0127     		movs	r7, #1
 4270 02ea 98E6     		b	.L499
 4271              	.L518:
 4272 02ec 0127     		movs	r7, #1
 4273 02ee 96E6     		b	.L499
 4274              	.L519:
 4275 02f0 0127     		movs	r7, #1
 4276 02f2 94E6     		b	.L499
 4277              	.L520:
 4278 02f4 0127     		movs	r7, #1
 4279 02f6 92E6     		b	.L499
 4281              		.section	.text.HAL_I2C_Mem_Write_IT,"ax",%progbits
 4282              		.align	1
 4283              		.global	HAL_I2C_Mem_Write_IT
 4284              		.syntax unified
 4285              		.thumb
 4286              		.thumb_func
 4288              	HAL_I2C_Mem_Write_IT:
 4289              		@ args = 8, pretend = 0, frame = 8
 4290              		@ frame_needed = 0, uses_anonymous_args = 0
 4291              		@ link register save eliminated.
 4292 0000 30B4     		push	{r4, r5}
 4293 0002 82B0     		sub	sp, sp, #8
ARM GAS  C:\Users\Rick\AppData\Local\Temp\ccGOCLVW.s 			page 75


 4294 0004 0024     		movs	r4, #0
 4295 0006 0194     		str	r4, [sp, #4]
 4296 0008 90F83D40 		ldrb	r4, [r0, #61]	@ zero_extendqisi2
 4297 000c 202C     		cmp	r4, #32
 4298 000e 59D1     		bne	.L536
 4299 0010 2F4C     		ldr	r4, .L540
 4300 0012 2468     		ldr	r4, [r4]
 4301 0014 E408     		lsrs	r4, r4, #3
 4302 0016 2F4D     		ldr	r5, .L540+4
 4303 0018 A5FB0454 		umull	r5, r4, r5, r4
 4304 001c 240A     		lsrs	r4, r4, #8
 4305 001e 04EB8404 		add	r4, r4, r4, lsl #2
 4306 0022 04EB8404 		add	r4, r4, r4, lsl #2
 4307 0026 0194     		str	r4, [sp, #4]
 4308              	.L534:
 4309 0028 019C     		ldr	r4, [sp, #4]
 4310 002a 013C     		subs	r4, r4, #1
 4311 002c 0194     		str	r4, [sp, #4]
 4312 002e 019C     		ldr	r4, [sp, #4]
 4313 0030 002C     		cmp	r4, #0
 4314 0032 3BD0     		beq	.L539
 4315 0034 0468     		ldr	r4, [r0]
 4316 0036 A569     		ldr	r5, [r4, #24]
 4317 0038 15F0020F 		tst	r5, #2
 4318 003c F4D1     		bne	.L534
 4319 003e 90F83C50 		ldrb	r5, [r0, #60]	@ zero_extendqisi2
 4320 0042 012D     		cmp	r5, #1
 4321 0044 42D0     		beq	.L537
 4322 0046 0125     		movs	r5, #1
 4323 0048 80F83C50 		strb	r5, [r0, #60]
 4324 004c 2568     		ldr	r5, [r4]
 4325 004e 15F0010F 		tst	r5, #1
 4326 0052 03D1     		bne	.L535
 4327 0054 2568     		ldr	r5, [r4]
 4328 0056 45F00105 		orr	r5, r5, #1
 4329 005a 2560     		str	r5, [r4]
 4330              	.L535:
 4331 005c 0568     		ldr	r5, [r0]
 4332 005e 2C68     		ldr	r4, [r5]
 4333 0060 24F40064 		bic	r4, r4, #2048
 4334 0064 2C60     		str	r4, [r5]
 4335 0066 2124     		movs	r4, #33
 4336 0068 80F83D40 		strb	r4, [r0, #61]
 4337 006c 4024     		movs	r4, #64
 4338 006e 80F83E40 		strb	r4, [r0, #62]
 4339 0072 0024     		movs	r4, #0
 4340 0074 0464     		str	r4, [r0, #64]
 4341 0076 049D     		ldr	r5, [sp, #16]
 4342 0078 4562     		str	r5, [r0, #36]
 4343 007a BDF81450 		ldrh	r5, [sp, #20]
 4344 007e 4585     		strh	r5, [r0, #42]	@ movhi
 4345 0080 458D     		ldrh	r5, [r0, #42]
 4346 0082 0585     		strh	r5, [r0, #40]	@ movhi
 4347 0084 144D     		ldr	r5, .L540+8
 4348 0086 C562     		str	r5, [r0, #44]
 4349 0088 4164     		str	r1, [r0, #68]
 4350 008a 8264     		str	r2, [r0, #72]
ARM GAS  C:\Users\Rick\AppData\Local\Temp\ccGOCLVW.s 			page 76


 4351 008c C364     		str	r3, [r0, #76]
 4352 008e 0465     		str	r4, [r0, #80]
 4353 0090 0268     		ldr	r2, [r0]
 4354 0092 1368     		ldr	r3, [r2]
 4355 0094 43F48073 		orr	r3, r3, #256
 4356 0098 1360     		str	r3, [r2]
 4357 009a 80F83C40 		strb	r4, [r0, #60]
 4358 009e 0268     		ldr	r2, [r0]
 4359 00a0 5368     		ldr	r3, [r2, #4]
 4360 00a2 43F4E063 		orr	r3, r3, #1792
 4361 00a6 5360     		str	r3, [r2, #4]
 4362 00a8 2046     		mov	r0, r4
 4363 00aa 0CE0     		b	.L532
 4364              	.L539:
 4365 00ac 0023     		movs	r3, #0
 4366 00ae 0363     		str	r3, [r0, #48]
 4367 00b0 2022     		movs	r2, #32
 4368 00b2 80F83D20 		strb	r2, [r0, #61]
 4369 00b6 80F83E30 		strb	r3, [r0, #62]
 4370 00ba 036C     		ldr	r3, [r0, #64]
 4371 00bc 1343     		orrs	r3, r3, r2
 4372 00be 0364     		str	r3, [r0, #64]
 4373 00c0 0220     		movs	r0, #2
 4374 00c2 00E0     		b	.L532
 4375              	.L536:
 4376 00c4 0220     		movs	r0, #2
 4377              	.L532:
 4378 00c6 02B0     		add	sp, sp, #8
 4379              		@ sp needed
 4380 00c8 30BC     		pop	{r4, r5}
 4381 00ca 7047     		bx	lr
 4382              	.L537:
 4383 00cc 0220     		movs	r0, #2
 4384 00ce FAE7     		b	.L532
 4385              	.L541:
 4386              		.align	2
 4387              	.L540:
 4388 00d0 00000000 		.word	SystemCoreClock
 4389 00d4 89B5F814 		.word	351843721
 4390 00d8 0000FFFF 		.word	-65536
 4392              		.section	.text.HAL_I2C_Mem_Read_IT,"ax",%progbits
 4393              		.align	1
 4394              		.global	HAL_I2C_Mem_Read_IT
 4395              		.syntax unified
 4396              		.thumb
 4397              		.thumb_func
 4399              	HAL_I2C_Mem_Read_IT:
 4400              		@ args = 8, pretend = 0, frame = 8
 4401              		@ frame_needed = 0, uses_anonymous_args = 0
 4402              		@ link register save eliminated.
 4403 0000 30B4     		push	{r4, r5}
 4404 0002 82B0     		sub	sp, sp, #8
 4405 0004 0024     		movs	r4, #0
 4406 0006 0194     		str	r4, [sp, #4]
 4407 0008 90F83D40 		ldrb	r4, [r0, #61]	@ zero_extendqisi2
 4408 000c 202C     		cmp	r4, #32
 4409 000e 60D1     		bne	.L548
ARM GAS  C:\Users\Rick\AppData\Local\Temp\ccGOCLVW.s 			page 77


 4410 0010 334C     		ldr	r4, .L552
 4411 0012 2468     		ldr	r4, [r4]
 4412 0014 E408     		lsrs	r4, r4, #3
 4413 0016 334D     		ldr	r5, .L552+4
 4414 0018 A5FB0454 		umull	r5, r4, r5, r4
 4415 001c 240A     		lsrs	r4, r4, #8
 4416 001e 04EB8404 		add	r4, r4, r4, lsl #2
 4417 0022 04EB8404 		add	r4, r4, r4, lsl #2
 4418 0026 0194     		str	r4, [sp, #4]
 4419              	.L545:
 4420 0028 019C     		ldr	r4, [sp, #4]
 4421 002a 013C     		subs	r4, r4, #1
 4422 002c 0194     		str	r4, [sp, #4]
 4423 002e 019C     		ldr	r4, [sp, #4]
 4424 0030 002C     		cmp	r4, #0
 4425 0032 42D0     		beq	.L551
 4426 0034 0468     		ldr	r4, [r0]
 4427 0036 A569     		ldr	r5, [r4, #24]
 4428 0038 15F0020F 		tst	r5, #2
 4429 003c F4D1     		bne	.L545
 4430 003e 90F83C50 		ldrb	r5, [r0, #60]	@ zero_extendqisi2
 4431 0042 012D     		cmp	r5, #1
 4432 0044 49D0     		beq	.L549
 4433 0046 0125     		movs	r5, #1
 4434 0048 80F83C50 		strb	r5, [r0, #60]
 4435 004c 2568     		ldr	r5, [r4]
 4436 004e 15F0010F 		tst	r5, #1
 4437 0052 03D1     		bne	.L546
 4438 0054 2568     		ldr	r5, [r4]
 4439 0056 45F00105 		orr	r5, r5, #1
 4440 005a 2560     		str	r5, [r4]
 4441              	.L546:
 4442 005c 0568     		ldr	r5, [r0]
 4443 005e 2C68     		ldr	r4, [r5]
 4444 0060 24F40064 		bic	r4, r4, #2048
 4445 0064 2C60     		str	r4, [r5]
 4446 0066 2224     		movs	r4, #34
 4447 0068 80F83D40 		strb	r4, [r0, #61]
 4448 006c 4024     		movs	r4, #64
 4449 006e 80F83E40 		strb	r4, [r0, #62]
 4450 0072 0024     		movs	r4, #0
 4451 0074 0464     		str	r4, [r0, #64]
 4452 0076 049D     		ldr	r5, [sp, #16]
 4453 0078 4562     		str	r5, [r0, #36]
 4454 007a BDF81450 		ldrh	r5, [sp, #20]
 4455 007e 4585     		strh	r5, [r0, #42]	@ movhi
 4456 0080 458D     		ldrh	r5, [r0, #42]
 4457 0082 0585     		strh	r5, [r0, #40]	@ movhi
 4458 0084 184D     		ldr	r5, .L552+8
 4459 0086 C562     		str	r5, [r0, #44]
 4460 0088 4164     		str	r1, [r0, #68]
 4461 008a 8264     		str	r2, [r0, #72]
 4462 008c C364     		str	r3, [r0, #76]
 4463 008e 0465     		str	r4, [r0, #80]
 4464 0090 0268     		ldr	r2, [r0]
 4465 0092 1368     		ldr	r3, [r2]
 4466 0094 43F48063 		orr	r3, r3, #1024
ARM GAS  C:\Users\Rick\AppData\Local\Temp\ccGOCLVW.s 			page 78


 4467 0098 1360     		str	r3, [r2]
 4468 009a 0268     		ldr	r2, [r0]
 4469 009c 1368     		ldr	r3, [r2]
 4470 009e 43F48073 		orr	r3, r3, #256
 4471 00a2 1360     		str	r3, [r2]
 4472 00a4 80F83C40 		strb	r4, [r0, #60]
 4473 00a8 038D     		ldrh	r3, [r0, #40]
 4474 00aa 23B1     		cbz	r3, .L547
 4475 00ac 0268     		ldr	r2, [r0]
 4476 00ae 5368     		ldr	r3, [r2, #4]
 4477 00b0 43F4E063 		orr	r3, r3, #1792
 4478 00b4 5360     		str	r3, [r2, #4]
 4479              	.L547:
 4480 00b6 0020     		movs	r0, #0
 4481 00b8 0CE0     		b	.L543
 4482              	.L551:
 4483 00ba 0023     		movs	r3, #0
 4484 00bc 0363     		str	r3, [r0, #48]
 4485 00be 2022     		movs	r2, #32
 4486 00c0 80F83D20 		strb	r2, [r0, #61]
 4487 00c4 80F83E30 		strb	r3, [r0, #62]
 4488 00c8 036C     		ldr	r3, [r0, #64]
 4489 00ca 1343     		orrs	r3, r3, r2
 4490 00cc 0364     		str	r3, [r0, #64]
 4491 00ce 0220     		movs	r0, #2
 4492 00d0 00E0     		b	.L543
 4493              	.L548:
 4494 00d2 0220     		movs	r0, #2
 4495              	.L543:
 4496 00d4 02B0     		add	sp, sp, #8
 4497              		@ sp needed
 4498 00d6 30BC     		pop	{r4, r5}
 4499 00d8 7047     		bx	lr
 4500              	.L549:
 4501 00da 0220     		movs	r0, #2
 4502 00dc FAE7     		b	.L543
 4503              	.L553:
 4504 00de 00BF     		.align	2
 4505              	.L552:
 4506 00e0 00000000 		.word	SystemCoreClock
 4507 00e4 89B5F814 		.word	351843721
 4508 00e8 0000FFFF 		.word	-65536
 4510              		.section	.text.HAL_I2C_Mem_Write_DMA,"ax",%progbits
 4511              		.align	1
 4512              		.global	HAL_I2C_Mem_Write_DMA
 4513              		.syntax unified
 4514              		.thumb
 4515              		.thumb_func
 4517              	HAL_I2C_Mem_Write_DMA:
 4518              		@ args = 8, pretend = 0, frame = 8
 4519              		@ frame_needed = 0, uses_anonymous_args = 0
 4520 0000 2DE9F043 		push	{r4, r5, r6, r7, r8, r9, lr}
 4521 0004 85B0     		sub	sp, sp, #20
 4522 0006 0546     		mov	r5, r0
 4523 0008 0E46     		mov	r6, r1
 4524 000a 1746     		mov	r7, r2
 4525 000c 9846     		mov	r8, r3
ARM GAS  C:\Users\Rick\AppData\Local\Temp\ccGOCLVW.s 			page 79


 4526 000e 0023     		movs	r3, #0
 4527 0010 0393     		str	r3, [sp, #12]
 4528 0012 FFF7FEFF 		bl	HAL_GetTick
 4529 0016 95F83D30 		ldrb	r3, [r5, #61]	@ zero_extendqisi2
 4530 001a 202B     		cmp	r3, #32
 4531 001c 40F0C880 		bne	.L564
 4532 0020 8146     		mov	r9, r0
 4533 0022 664B     		ldr	r3, .L571
 4534 0024 1B68     		ldr	r3, [r3]
 4535 0026 DB08     		lsrs	r3, r3, #3
 4536 0028 654A     		ldr	r2, .L571+4
 4537 002a A2FB0323 		umull	r2, r3, r2, r3
 4538 002e 1B0A     		lsrs	r3, r3, #8
 4539 0030 03EB8303 		add	r3, r3, r3, lsl #2
 4540 0034 03EB8303 		add	r3, r3, r3, lsl #2
 4541 0038 0393     		str	r3, [sp, #12]
 4542              	.L557:
 4543 003a 039C     		ldr	r4, [sp, #12]
 4544 003c 013C     		subs	r4, r4, #1
 4545 003e 0394     		str	r4, [sp, #12]
 4546 0040 039C     		ldr	r4, [sp, #12]
 4547 0042 002C     		cmp	r4, #0
 4548 0044 59D0     		beq	.L568
 4549 0046 2B68     		ldr	r3, [r5]
 4550 0048 9A69     		ldr	r2, [r3, #24]
 4551 004a 12F0020F 		tst	r2, #2
 4552 004e F4D1     		bne	.L557
 4553 0050 95F83C20 		ldrb	r2, [r5, #60]	@ zero_extendqisi2
 4554 0054 012A     		cmp	r2, #1
 4555 0056 00F0AF80 		beq	.L565
 4556 005a 0122     		movs	r2, #1
 4557 005c 85F83C20 		strb	r2, [r5, #60]
 4558 0060 1A68     		ldr	r2, [r3]
 4559 0062 12F0010F 		tst	r2, #1
 4560 0066 03D1     		bne	.L558
 4561 0068 1A68     		ldr	r2, [r3]
 4562 006a 42F00102 		orr	r2, r2, #1
 4563 006e 1A60     		str	r2, [r3]
 4564              	.L558:
 4565 0070 2A68     		ldr	r2, [r5]
 4566 0072 1368     		ldr	r3, [r2]
 4567 0074 23F40063 		bic	r3, r3, #2048
 4568 0078 1360     		str	r3, [r2]
 4569 007a 2123     		movs	r3, #33
 4570 007c 85F83D30 		strb	r3, [r5, #61]
 4571 0080 4023     		movs	r3, #64
 4572 0082 85F83E30 		strb	r3, [r5, #62]
 4573 0086 0022     		movs	r2, #0
 4574 0088 2A64     		str	r2, [r5, #64]
 4575 008a 0C9B     		ldr	r3, [sp, #48]
 4576 008c 6B62     		str	r3, [r5, #36]
 4577 008e BDF83430 		ldrh	r3, [sp, #52]
 4578 0092 6B85     		strh	r3, [r5, #42]	@ movhi
 4579 0094 6B8D     		ldrh	r3, [r5, #42]
 4580 0096 9BB2     		uxth	r3, r3
 4581 0098 2B85     		strh	r3, [r5, #40]	@ movhi
 4582 009a 4A49     		ldr	r1, .L571+8
ARM GAS  C:\Users\Rick\AppData\Local\Temp\ccGOCLVW.s 			page 80


 4583 009c E962     		str	r1, [r5, #44]
 4584 009e 6E64     		str	r6, [r5, #68]
 4585 00a0 AF64     		str	r7, [r5, #72]
 4586 00a2 C5F84C80 		str	r8, [r5, #76]
 4587 00a6 2A65     		str	r2, [r5, #80]
 4588 00a8 002B     		cmp	r3, #0
 4589 00aa 73D0     		beq	.L559
 4590 00ac 6B6B     		ldr	r3, [r5, #52]
 4591 00ae 002B     		cmp	r3, #0
 4592 00b0 2FD0     		beq	.L560
 4593 00b2 454A     		ldr	r2, .L571+12
 4594 00b4 DA63     		str	r2, [r3, #60]
 4595 00b6 6B6B     		ldr	r3, [r5, #52]
 4596 00b8 444A     		ldr	r2, .L571+16
 4597 00ba DA64     		str	r2, [r3, #76]
 4598 00bc 6A6B     		ldr	r2, [r5, #52]
 4599 00be 0023     		movs	r3, #0
 4600 00c0 1364     		str	r3, [r2, #64]
 4601 00c2 6A6B     		ldr	r2, [r5, #52]
 4602 00c4 5364     		str	r3, [r2, #68]
 4603 00c6 6A6B     		ldr	r2, [r5, #52]
 4604 00c8 9364     		str	r3, [r2, #72]
 4605 00ca 6A6B     		ldr	r2, [r5, #52]
 4606 00cc 1365     		str	r3, [r2, #80]
 4607 00ce 2A68     		ldr	r2, [r5]
 4608 00d0 2B8D     		ldrh	r3, [r5, #40]
 4609 00d2 1032     		adds	r2, r2, #16
 4610 00d4 696A     		ldr	r1, [r5, #36]
 4611 00d6 686B     		ldr	r0, [r5, #52]
 4612 00d8 FFF7FEFF 		bl	HAL_DMA_Start_IT
 4613 00dc 38B3     		cbz	r0, .L569
 4614 00de 2023     		movs	r3, #32
 4615 00e0 85F83D30 		strb	r3, [r5, #61]
 4616 00e4 0022     		movs	r2, #0
 4617 00e6 85F83E20 		strb	r2, [r5, #62]
 4618 00ea 2B6C     		ldr	r3, [r5, #64]
 4619 00ec 43F01003 		orr	r3, r3, #16
 4620 00f0 2B64     		str	r3, [r5, #64]
 4621 00f2 85F83C20 		strb	r2, [r5, #60]
 4622 00f6 0120     		movs	r0, #1
 4623 00f8 5BE0     		b	.L555
 4624              	.L568:
 4625 00fa 0023     		movs	r3, #0
 4626 00fc 2B63     		str	r3, [r5, #48]
 4627 00fe 2022     		movs	r2, #32
 4628 0100 85F83D20 		strb	r2, [r5, #61]
 4629 0104 85F83E30 		strb	r3, [r5, #62]
 4630 0108 2B6C     		ldr	r3, [r5, #64]
 4631 010a 1343     		orrs	r3, r3, r2
 4632 010c 2B64     		str	r3, [r5, #64]
 4633 010e 0220     		movs	r0, #2
 4634 0110 4FE0     		b	.L555
 4635              	.L560:
 4636 0112 2023     		movs	r3, #32
 4637 0114 85F83D30 		strb	r3, [r5, #61]
 4638 0118 0022     		movs	r2, #0
 4639 011a 85F83E20 		strb	r2, [r5, #62]
ARM GAS  C:\Users\Rick\AppData\Local\Temp\ccGOCLVW.s 			page 81


 4640 011e 2B6C     		ldr	r3, [r5, #64]
 4641 0120 43F08003 		orr	r3, r3, #128
 4642 0124 2B64     		str	r3, [r5, #64]
 4643 0126 85F83C20 		strb	r2, [r5, #60]
 4644 012a 0120     		movs	r0, #1
 4645 012c 41E0     		b	.L555
 4646              	.L569:
 4647 012e CDF80490 		str	r9, [sp, #4]
 4648 0132 2323     		movs	r3, #35
 4649 0134 0093     		str	r3, [sp]
 4650 0136 4346     		mov	r3, r8
 4651 0138 3A46     		mov	r2, r7
 4652 013a 3146     		mov	r1, r6
 4653 013c 2846     		mov	r0, r5
 4654 013e FFF7FEFF 		bl	I2C_RequestMemoryWrite
 4655 0142 98B9     		cbnz	r0, .L570
 4656 0144 0022     		movs	r2, #0
 4657 0146 0292     		str	r2, [sp, #8]
 4658 0148 2B68     		ldr	r3, [r5]
 4659 014a 5969     		ldr	r1, [r3, #20]
 4660 014c 0291     		str	r1, [sp, #8]
 4661 014e 9969     		ldr	r1, [r3, #24]
 4662 0150 0291     		str	r1, [sp, #8]
 4663 0152 0299     		ldr	r1, [sp, #8]
 4664 0154 85F83C20 		strb	r2, [r5, #60]
 4665 0158 5A68     		ldr	r2, [r3, #4]
 4666 015a 42F48072 		orr	r2, r2, #256
 4667 015e 5A60     		str	r2, [r3, #4]
 4668 0160 2A68     		ldr	r2, [r5]
 4669 0162 5368     		ldr	r3, [r2, #4]
 4670 0164 43F40063 		orr	r3, r3, #2048
 4671 0168 5360     		str	r3, [r2, #4]
 4672 016a 22E0     		b	.L555
 4673              	.L570:
 4674 016c 686B     		ldr	r0, [r5, #52]
 4675 016e FFF7FEFF 		bl	HAL_DMA_Abort_IT
 4676 0172 6A6B     		ldr	r2, [r5, #52]
 4677 0174 0023     		movs	r3, #0
 4678 0176 D363     		str	r3, [r2, #60]
 4679 0178 2968     		ldr	r1, [r5]
 4680 017a 0A68     		ldr	r2, [r1]
 4681 017c 22F48062 		bic	r2, r2, #1024
 4682 0180 0A60     		str	r2, [r1]
 4683 0182 2B85     		strh	r3, [r5, #40]	@ movhi
 4684 0184 6B85     		strh	r3, [r5, #42]	@ movhi
 4685 0186 2A68     		ldr	r2, [r5]
 4686 0188 1368     		ldr	r3, [r2]
 4687 018a 23F00103 		bic	r3, r3, #1
 4688 018e 1360     		str	r3, [r2]
 4689 0190 0120     		movs	r0, #1
 4690 0192 0EE0     		b	.L555
 4691              	.L559:
 4692 0194 2023     		movs	r3, #32
 4693 0196 85F83D30 		strb	r3, [r5, #61]
 4694 019a 0022     		movs	r2, #0
 4695 019c 85F83E20 		strb	r2, [r5, #62]
 4696 01a0 2B6C     		ldr	r3, [r5, #64]
ARM GAS  C:\Users\Rick\AppData\Local\Temp\ccGOCLVW.s 			page 82


 4697 01a2 43F04003 		orr	r3, r3, #64
 4698 01a6 2B64     		str	r3, [r5, #64]
 4699 01a8 85F83C20 		strb	r2, [r5, #60]
 4700 01ac 0120     		movs	r0, #1
 4701 01ae 00E0     		b	.L555
 4702              	.L564:
 4703 01b0 0220     		movs	r0, #2
 4704              	.L555:
 4705 01b2 05B0     		add	sp, sp, #20
 4706              		@ sp needed
 4707 01b4 BDE8F083 		pop	{r4, r5, r6, r7, r8, r9, pc}
 4708              	.L565:
 4709 01b8 0220     		movs	r0, #2
 4710 01ba FAE7     		b	.L555
 4711              	.L572:
 4712              		.align	2
 4713              	.L571:
 4714 01bc 00000000 		.word	SystemCoreClock
 4715 01c0 89B5F814 		.word	351843721
 4716 01c4 0000FFFF 		.word	-65536
 4717 01c8 00000000 		.word	I2C_DMAXferCplt
 4718 01cc 00000000 		.word	I2C_DMAError
 4720              		.section	.text.HAL_I2C_Mem_Read_DMA,"ax",%progbits
 4721              		.align	1
 4722              		.global	HAL_I2C_Mem_Read_DMA
 4723              		.syntax unified
 4724              		.thumb
 4725              		.thumb_func
 4727              	HAL_I2C_Mem_Read_DMA:
 4728              		@ args = 8, pretend = 0, frame = 16
 4729              		@ frame_needed = 0, uses_anonymous_args = 0
 4730 0000 2DE9F043 		push	{r4, r5, r6, r7, r8, r9, lr}
 4731 0004 87B0     		sub	sp, sp, #28
 4732 0006 0546     		mov	r5, r0
 4733 0008 0E46     		mov	r6, r1
 4734 000a 1746     		mov	r7, r2
 4735 000c 9846     		mov	r8, r3
 4736 000e FFF7FEFF 		bl	HAL_GetTick
 4737 0012 0023     		movs	r3, #0
 4738 0014 0593     		str	r3, [sp, #20]
 4739 0016 95F83D30 		ldrb	r3, [r5, #61]	@ zero_extendqisi2
 4740 001a 202B     		cmp	r3, #32
 4741 001c 40F0E780 		bne	.L586
 4742 0020 8146     		mov	r9, r0
 4743 0022 774B     		ldr	r3, .L595
 4744 0024 1B68     		ldr	r3, [r3]
 4745 0026 DB08     		lsrs	r3, r3, #3
 4746 0028 764A     		ldr	r2, .L595+4
 4747 002a A2FB0323 		umull	r2, r3, r2, r3
 4748 002e 1B0A     		lsrs	r3, r3, #8
 4749 0030 03EB8303 		add	r3, r3, r3, lsl #2
 4750 0034 03EB8303 		add	r3, r3, r3, lsl #2
 4751 0038 0593     		str	r3, [sp, #20]
 4752              	.L576:
 4753 003a 059C     		ldr	r4, [sp, #20]
 4754 003c 013C     		subs	r4, r4, #1
 4755 003e 0594     		str	r4, [sp, #20]
ARM GAS  C:\Users\Rick\AppData\Local\Temp\ccGOCLVW.s 			page 83


 4756 0040 059C     		ldr	r4, [sp, #20]
 4757 0042 002C     		cmp	r4, #0
 4758 0044 5AD0     		beq	.L591
 4759 0046 2B68     		ldr	r3, [r5]
 4760 0048 9A69     		ldr	r2, [r3, #24]
 4761 004a 12F0020F 		tst	r2, #2
 4762 004e F4D1     		bne	.L576
 4763 0050 95F83C20 		ldrb	r2, [r5, #60]	@ zero_extendqisi2
 4764 0054 012A     		cmp	r2, #1
 4765 0056 00F0CE80 		beq	.L587
 4766 005a 0122     		movs	r2, #1
 4767 005c 85F83C20 		strb	r2, [r5, #60]
 4768 0060 1A68     		ldr	r2, [r3]
 4769 0062 12F0010F 		tst	r2, #1
 4770 0066 03D1     		bne	.L577
 4771 0068 1A68     		ldr	r2, [r3]
 4772 006a 42F00102 		orr	r2, r2, #1
 4773 006e 1A60     		str	r2, [r3]
 4774              	.L577:
 4775 0070 2A68     		ldr	r2, [r5]
 4776 0072 1368     		ldr	r3, [r2]
 4777 0074 23F40063 		bic	r3, r3, #2048
 4778 0078 1360     		str	r3, [r2]
 4779 007a 2223     		movs	r3, #34
 4780 007c 85F83D30 		strb	r3, [r5, #61]
 4781 0080 4023     		movs	r3, #64
 4782 0082 85F83E30 		strb	r3, [r5, #62]
 4783 0086 0022     		movs	r2, #0
 4784 0088 2A64     		str	r2, [r5, #64]
 4785 008a 0E9B     		ldr	r3, [sp, #56]
 4786 008c 6B62     		str	r3, [r5, #36]
 4787 008e BDF83C30 		ldrh	r3, [sp, #60]
 4788 0092 6B85     		strh	r3, [r5, #42]	@ movhi
 4789 0094 6B8D     		ldrh	r3, [r5, #42]
 4790 0096 9BB2     		uxth	r3, r3
 4791 0098 2B85     		strh	r3, [r5, #40]	@ movhi
 4792 009a 5B49     		ldr	r1, .L595+8
 4793 009c E962     		str	r1, [r5, #44]
 4794 009e 6E64     		str	r6, [r5, #68]
 4795 00a0 AF64     		str	r7, [r5, #72]
 4796 00a2 C5F84C80 		str	r8, [r5, #76]
 4797 00a6 2A65     		str	r2, [r5, #80]
 4798 00a8 002B     		cmp	r3, #0
 4799 00aa 00F08280 		beq	.L578
 4800 00ae AB6B     		ldr	r3, [r5, #56]
 4801 00b0 002B     		cmp	r3, #0
 4802 00b2 2FD0     		beq	.L579
 4803 00b4 554A     		ldr	r2, .L595+12
 4804 00b6 DA63     		str	r2, [r3, #60]
 4805 00b8 AB6B     		ldr	r3, [r5, #56]
 4806 00ba 554A     		ldr	r2, .L595+16
 4807 00bc DA64     		str	r2, [r3, #76]
 4808 00be AA6B     		ldr	r2, [r5, #56]
 4809 00c0 0023     		movs	r3, #0
 4810 00c2 1364     		str	r3, [r2, #64]
 4811 00c4 AA6B     		ldr	r2, [r5, #56]
 4812 00c6 5364     		str	r3, [r2, #68]
ARM GAS  C:\Users\Rick\AppData\Local\Temp\ccGOCLVW.s 			page 84


 4813 00c8 AA6B     		ldr	r2, [r5, #56]
 4814 00ca 9364     		str	r3, [r2, #72]
 4815 00cc AA6B     		ldr	r2, [r5, #56]
 4816 00ce 1365     		str	r3, [r2, #80]
 4817 00d0 2968     		ldr	r1, [r5]
 4818 00d2 2B8D     		ldrh	r3, [r5, #40]
 4819 00d4 6A6A     		ldr	r2, [r5, #36]
 4820 00d6 1031     		adds	r1, r1, #16
 4821 00d8 A86B     		ldr	r0, [r5, #56]
 4822 00da FFF7FEFF 		bl	HAL_DMA_Start_IT
 4823 00de 38B3     		cbz	r0, .L592
 4824 00e0 2023     		movs	r3, #32
 4825 00e2 85F83D30 		strb	r3, [r5, #61]
 4826 00e6 0022     		movs	r2, #0
 4827 00e8 85F83E20 		strb	r2, [r5, #62]
 4828 00ec 2B6C     		ldr	r3, [r5, #64]
 4829 00ee 43F01003 		orr	r3, r3, #16
 4830 00f2 2B64     		str	r3, [r5, #64]
 4831 00f4 85F83C20 		strb	r2, [r5, #60]
 4832 00f8 0120     		movs	r0, #1
 4833 00fa 79E0     		b	.L574
 4834              	.L591:
 4835 00fc 0023     		movs	r3, #0
 4836 00fe 2B63     		str	r3, [r5, #48]
 4837 0100 2022     		movs	r2, #32
 4838 0102 85F83D20 		strb	r2, [r5, #61]
 4839 0106 85F83E30 		strb	r3, [r5, #62]
 4840 010a 2B6C     		ldr	r3, [r5, #64]
 4841 010c 1343     		orrs	r3, r3, r2
 4842 010e 2B64     		str	r3, [r5, #64]
 4843 0110 0220     		movs	r0, #2
 4844 0112 6DE0     		b	.L574
 4845              	.L579:
 4846 0114 2023     		movs	r3, #32
 4847 0116 85F83D30 		strb	r3, [r5, #61]
 4848 011a 0022     		movs	r2, #0
 4849 011c 85F83E20 		strb	r2, [r5, #62]
 4850 0120 2B6C     		ldr	r3, [r5, #64]
 4851 0122 43F08003 		orr	r3, r3, #128
 4852 0126 2B64     		str	r3, [r5, #64]
 4853 0128 85F83C20 		strb	r2, [r5, #60]
 4854 012c 0120     		movs	r0, #1
 4855 012e 5FE0     		b	.L574
 4856              	.L592:
 4857 0130 CDF80490 		str	r9, [sp, #4]
 4858 0134 2323     		movs	r3, #35
 4859 0136 0093     		str	r3, [sp]
 4860 0138 4346     		mov	r3, r8
 4861 013a 3A46     		mov	r2, r7
 4862 013c 3146     		mov	r1, r6
 4863 013e 2846     		mov	r0, r5
 4864 0140 FFF7FEFF 		bl	I2C_RequestMemoryRead
 4865 0144 D8B9     		cbnz	r0, .L593
 4866 0146 2B8D     		ldrh	r3, [r5, #40]
 4867 0148 012B     		cmp	r3, #1
 4868 014a 2CD0     		beq	.L594
 4869 014c 2A68     		ldr	r2, [r5]
ARM GAS  C:\Users\Rick\AppData\Local\Temp\ccGOCLVW.s 			page 85


 4870 014e 5368     		ldr	r3, [r2, #4]
 4871 0150 43F48053 		orr	r3, r3, #4096
 4872 0154 5360     		str	r3, [r2, #4]
 4873              	.L584:
 4874 0156 0022     		movs	r2, #0
 4875 0158 0392     		str	r2, [sp, #12]
 4876 015a 2B68     		ldr	r3, [r5]
 4877 015c 5969     		ldr	r1, [r3, #20]
 4878 015e 0391     		str	r1, [sp, #12]
 4879 0160 9969     		ldr	r1, [r3, #24]
 4880 0162 0391     		str	r1, [sp, #12]
 4881 0164 0399     		ldr	r1, [sp, #12]
 4882 0166 85F83C20 		strb	r2, [r5, #60]
 4883 016a 5A68     		ldr	r2, [r3, #4]
 4884 016c 42F48072 		orr	r2, r2, #256
 4885 0170 5A60     		str	r2, [r3, #4]
 4886 0172 2A68     		ldr	r2, [r5]
 4887 0174 5368     		ldr	r3, [r2, #4]
 4888 0176 43F40063 		orr	r3, r3, #2048
 4889 017a 5360     		str	r3, [r2, #4]
 4890 017c 35E0     		b	.L585
 4891              	.L593:
 4892 017e A86B     		ldr	r0, [r5, #56]
 4893 0180 FFF7FEFF 		bl	HAL_DMA_Abort_IT
 4894 0184 AA6B     		ldr	r2, [r5, #56]
 4895 0186 0023     		movs	r3, #0
 4896 0188 D363     		str	r3, [r2, #60]
 4897 018a 2968     		ldr	r1, [r5]
 4898 018c 0A68     		ldr	r2, [r1]
 4899 018e 22F48062 		bic	r2, r2, #1024
 4900 0192 0A60     		str	r2, [r1]
 4901 0194 2B85     		strh	r3, [r5, #40]	@ movhi
 4902 0196 6B85     		strh	r3, [r5, #42]	@ movhi
 4903 0198 2A68     		ldr	r2, [r5]
 4904 019a 1368     		ldr	r3, [r2]
 4905 019c 23F00103 		bic	r3, r3, #1
 4906 01a0 1360     		str	r3, [r2]
 4907 01a2 0120     		movs	r0, #1
 4908 01a4 24E0     		b	.L574
 4909              	.L594:
 4910 01a6 2A68     		ldr	r2, [r5]
 4911 01a8 1368     		ldr	r3, [r2]
 4912 01aa 23F48063 		bic	r3, r3, #1024
 4913 01ae 1360     		str	r3, [r2]
 4914 01b0 D1E7     		b	.L584
 4915              	.L578:
 4916 01b2 CDF80490 		str	r9, [sp, #4]
 4917 01b6 2323     		movs	r3, #35
 4918 01b8 0093     		str	r3, [sp]
 4919 01ba 4346     		mov	r3, r8
 4920 01bc 3A46     		mov	r2, r7
 4921 01be 3146     		mov	r1, r6
 4922 01c0 2846     		mov	r0, r5
 4923 01c2 FFF7FEFF 		bl	I2C_RequestMemoryRead
 4924 01c6 C0B9     		cbnz	r0, .L588
 4925 01c8 0021     		movs	r1, #0
 4926 01ca 0491     		str	r1, [sp, #16]
ARM GAS  C:\Users\Rick\AppData\Local\Temp\ccGOCLVW.s 			page 86


 4927 01cc 2B68     		ldr	r3, [r5]
 4928 01ce 5A69     		ldr	r2, [r3, #20]
 4929 01d0 0492     		str	r2, [sp, #16]
 4930 01d2 9A69     		ldr	r2, [r3, #24]
 4931 01d4 0492     		str	r2, [sp, #16]
 4932 01d6 049A     		ldr	r2, [sp, #16]
 4933 01d8 1A68     		ldr	r2, [r3]
 4934 01da 42F40072 		orr	r2, r2, #512
 4935 01de 1A60     		str	r2, [r3]
 4936 01e0 2023     		movs	r3, #32
 4937 01e2 85F83D30 		strb	r3, [r5, #61]
 4938 01e6 85F83C10 		strb	r1, [r5, #60]
 4939              	.L585:
 4940 01ea 0020     		movs	r0, #0
 4941 01ec 00E0     		b	.L574
 4942              	.L586:
 4943 01ee 0220     		movs	r0, #2
 4944              	.L574:
 4945 01f0 07B0     		add	sp, sp, #28
 4946              		@ sp needed
 4947 01f2 BDE8F083 		pop	{r4, r5, r6, r7, r8, r9, pc}
 4948              	.L587:
 4949 01f6 0220     		movs	r0, #2
 4950 01f8 FAE7     		b	.L574
 4951              	.L588:
 4952 01fa 0120     		movs	r0, #1
 4953 01fc F8E7     		b	.L574
 4954              	.L596:
 4955 01fe 00BF     		.align	2
 4956              	.L595:
 4957 0200 00000000 		.word	SystemCoreClock
 4958 0204 89B5F814 		.word	351843721
 4959 0208 0000FFFF 		.word	-65536
 4960 020c 00000000 		.word	I2C_DMAXferCplt
 4961 0210 00000000 		.word	I2C_DMAError
 4963              		.section	.text.HAL_I2C_IsDeviceReady,"ax",%progbits
 4964              		.align	1
 4965              		.global	HAL_I2C_IsDeviceReady
 4966              		.syntax unified
 4967              		.thumb
 4968              		.thumb_func
 4970              	HAL_I2C_IsDeviceReady:
 4971              		@ args = 0, pretend = 0, frame = 8
 4972              		@ frame_needed = 0, uses_anonymous_args = 0
 4973 0000 2DE9F043 		push	{r4, r5, r6, r7, r8, r9, lr}
 4974 0004 85B0     		sub	sp, sp, #20
 4975 0006 0446     		mov	r4, r0
 4976 0008 8846     		mov	r8, r1
 4977 000a 9146     		mov	r9, r2
 4978 000c 1D46     		mov	r5, r3
 4979 000e FFF7FEFF 		bl	HAL_GetTick
 4980 0012 94F83D30 		ldrb	r3, [r4, #61]	@ zero_extendqisi2
 4981 0016 202B     		cmp	r3, #32
 4982 0018 03D0     		beq	.L615
 4983 001a 0220     		movs	r0, #2
 4984              	.L598:
 4985 001c 05B0     		add	sp, sp, #20
ARM GAS  C:\Users\Rick\AppData\Local\Temp\ccGOCLVW.s 			page 87


 4986              		@ sp needed
 4987 001e BDE8F083 		pop	{r4, r5, r6, r7, r8, r9, pc}
 4988              	.L615:
 4989 0022 0646     		mov	r6, r0
 4990 0024 0090     		str	r0, [sp]
 4991 0026 1923     		movs	r3, #25
 4992 0028 0122     		movs	r2, #1
 4993 002a 5649     		ldr	r1, .L619
 4994 002c 2046     		mov	r0, r4
 4995 002e FFF7FEFF 		bl	I2C_WaitOnFlagUntilTimeout
 4996 0032 0028     		cmp	r0, #0
 4997 0034 40F09D80 		bne	.L610
 4998 0038 94F83C30 		ldrb	r3, [r4, #60]	@ zero_extendqisi2
 4999 003c 012B     		cmp	r3, #1
 5000 003e 00F09A80 		beq	.L611
 5001 0042 0123     		movs	r3, #1
 5002 0044 84F83C30 		strb	r3, [r4, #60]
 5003 0048 2368     		ldr	r3, [r4]
 5004 004a 1A68     		ldr	r2, [r3]
 5005 004c 12F0010F 		tst	r2, #1
 5006 0050 03D1     		bne	.L599
 5007 0052 1A68     		ldr	r2, [r3]
 5008 0054 42F00102 		orr	r2, r2, #1
 5009 0058 1A60     		str	r2, [r3]
 5010              	.L599:
 5011 005a 2268     		ldr	r2, [r4]
 5012 005c 1368     		ldr	r3, [r2]
 5013 005e 23F40063 		bic	r3, r3, #2048
 5014 0062 1360     		str	r3, [r2]
 5015 0064 2423     		movs	r3, #36
 5016 0066 84F83D30 		strb	r3, [r4, #61]
 5017 006a 0027     		movs	r7, #0
 5018 006c 2764     		str	r7, [r4, #64]
 5019 006e 464B     		ldr	r3, .L619+4
 5020 0070 E362     		str	r3, [r4, #44]
 5021 0072 3DE0     		b	.L608
 5022              	.L618:
 5023 0074 2368     		ldr	r3, [r4]
 5024 0076 1B68     		ldr	r3, [r3]
 5025 0078 13F4807F 		tst	r3, #256
 5026 007c 02D0     		beq	.L601
 5027 007e 4FF40073 		mov	r3, #512
 5028 0082 2364     		str	r3, [r4, #64]
 5029              	.L601:
 5030 0084 0320     		movs	r0, #3
 5031 0086 C9E7     		b	.L598
 5032              	.L603:
 5033 0088 A023     		movs	r3, #160
 5034 008a 84F83D30 		strb	r3, [r4, #61]
 5035              	.L604:
 5036 008e 2268     		ldr	r2, [r4]
 5037 0090 5369     		ldr	r3, [r2, #20]
 5038 0092 C3F34003 		ubfx	r3, r3, #1, #1
 5039 0096 5269     		ldr	r2, [r2, #20]
 5040 0098 C2F38022 		ubfx	r2, r2, #10, #1
 5041              	.L602:
 5042 009c 94F83D10 		ldrb	r1, [r4, #61]	@ zero_extendqisi2
ARM GAS  C:\Users\Rick\AppData\Local\Temp\ccGOCLVW.s 			page 88


 5043 00a0 A029     		cmp	r1, #160
 5044 00a2 09D0     		beq	.L605
 5045 00a4 43B9     		cbnz	r3, .L605
 5046 00a6 3AB9     		cbnz	r2, .L605
 5047 00a8 FFF7FEFF 		bl	HAL_GetTick
 5048 00ac 801B     		subs	r0, r0, r6
 5049 00ae A842     		cmp	r0, r5
 5050 00b0 EAD8     		bhi	.L603
 5051 00b2 002D     		cmp	r5, #0
 5052 00b4 EBD1     		bne	.L604
 5053 00b6 E7E7     		b	.L603
 5054              	.L605:
 5055 00b8 2023     		movs	r3, #32
 5056 00ba 84F83D30 		strb	r3, [r4, #61]
 5057 00be 2368     		ldr	r3, [r4]
 5058 00c0 5A69     		ldr	r2, [r3, #20]
 5059 00c2 12F0020F 		tst	r2, #2
 5060 00c6 31D1     		bne	.L616
 5061 00c8 1A68     		ldr	r2, [r3]
 5062 00ca 42F40072 		orr	r2, r2, #512
 5063 00ce 1A60     		str	r2, [r3]
 5064 00d0 2368     		ldr	r3, [r4]
 5065 00d2 6FF48062 		mvn	r2, #1024
 5066 00d6 5A61     		str	r2, [r3, #20]
 5067 00d8 0096     		str	r6, [sp]
 5068 00da 1923     		movs	r3, #25
 5069 00dc 0122     		movs	r2, #1
 5070 00de 2949     		ldr	r1, .L619
 5071 00e0 2046     		mov	r0, r4
 5072 00e2 FFF7FEFF 		bl	I2C_WaitOnFlagUntilTimeout
 5073 00e6 0028     		cmp	r0, #0
 5074 00e8 49D1     		bne	.L613
 5075 00ea 0137     		adds	r7, r7, #1
 5076 00ec 4F45     		cmp	r7, r9
 5077 00ee 38D2     		bcs	.L617
 5078              	.L608:
 5079 00f0 2268     		ldr	r2, [r4]
 5080 00f2 1368     		ldr	r3, [r2]
 5081 00f4 43F48073 		orr	r3, r3, #256
 5082 00f8 1360     		str	r3, [r2]
 5083 00fa 0096     		str	r6, [sp]
 5084 00fc 2B46     		mov	r3, r5
 5085 00fe 0022     		movs	r2, #0
 5086 0100 4FF00111 		mov	r1, #65537
 5087 0104 2046     		mov	r0, r4
 5088 0106 FFF7FEFF 		bl	I2C_WaitOnFlagUntilTimeout
 5089 010a 0028     		cmp	r0, #0
 5090 010c B2D1     		bne	.L618
 5091 010e 2368     		ldr	r3, [r4]
 5092 0110 08F0FE02 		and	r2, r8, #254
 5093 0114 1A61     		str	r2, [r3, #16]
 5094 0116 FFF7FEFF 		bl	HAL_GetTick
 5095 011a 0646     		mov	r6, r0
 5096 011c 2268     		ldr	r2, [r4]
 5097 011e 5369     		ldr	r3, [r2, #20]
 5098 0120 C3F34003 		ubfx	r3, r3, #1, #1
 5099 0124 5269     		ldr	r2, [r2, #20]
ARM GAS  C:\Users\Rick\AppData\Local\Temp\ccGOCLVW.s 			page 89


 5100 0126 C2F38022 		ubfx	r2, r2, #10, #1
 5101 012a B7E7     		b	.L602
 5102              	.L616:
 5103 012c 1A68     		ldr	r2, [r3]
 5104 012e 42F40072 		orr	r2, r2, #512
 5105 0132 1A60     		str	r2, [r3]
 5106 0134 0023     		movs	r3, #0
 5107 0136 0393     		str	r3, [sp, #12]
 5108 0138 2368     		ldr	r3, [r4]
 5109 013a 5A69     		ldr	r2, [r3, #20]
 5110 013c 0392     		str	r2, [sp, #12]
 5111 013e 9B69     		ldr	r3, [r3, #24]
 5112 0140 0393     		str	r3, [sp, #12]
 5113 0142 039B     		ldr	r3, [sp, #12]
 5114 0144 0096     		str	r6, [sp]
 5115 0146 1923     		movs	r3, #25
 5116 0148 0122     		movs	r2, #1
 5117 014a 0E49     		ldr	r1, .L619
 5118 014c 2046     		mov	r0, r4
 5119 014e FFF7FEFF 		bl	I2C_WaitOnFlagUntilTimeout
 5120 0152 90B9     		cbnz	r0, .L612
 5121 0154 2023     		movs	r3, #32
 5122 0156 84F83D30 		strb	r3, [r4, #61]
 5123 015a 0023     		movs	r3, #0
 5124 015c 84F83C30 		strb	r3, [r4, #60]
 5125 0160 5CE7     		b	.L598
 5126              	.L617:
 5127 0162 2023     		movs	r3, #32
 5128 0164 84F83D30 		strb	r3, [r4, #61]
 5129 0168 0023     		movs	r3, #0
 5130 016a 84F83C30 		strb	r3, [r4, #60]
 5131 016e 0120     		movs	r0, #1
 5132 0170 54E7     		b	.L598
 5133              	.L610:
 5134 0172 0220     		movs	r0, #2
 5135 0174 52E7     		b	.L598
 5136              	.L611:
 5137 0176 0220     		movs	r0, #2
 5138 0178 50E7     		b	.L598
 5139              	.L612:
 5140 017a 0120     		movs	r0, #1
 5141 017c 4EE7     		b	.L598
 5142              	.L613:
 5143 017e 0120     		movs	r0, #1
 5144 0180 4CE7     		b	.L598
 5145              	.L620:
 5146 0182 00BF     		.align	2
 5147              	.L619:
 5148 0184 02001000 		.word	1048578
 5149 0188 0000FFFF 		.word	-65536
 5151              		.section	.text.HAL_I2C_Master_Seq_Transmit_IT,"ax",%progbits
 5152              		.align	1
 5153              		.global	HAL_I2C_Master_Seq_Transmit_IT
 5154              		.syntax unified
 5155              		.thumb
 5156              		.thumb_func
 5158              	HAL_I2C_Master_Seq_Transmit_IT:
ARM GAS  C:\Users\Rick\AppData\Local\Temp\ccGOCLVW.s 			page 90


 5159              		@ args = 4, pretend = 0, frame = 8
 5160              		@ frame_needed = 0, uses_anonymous_args = 0
 5161              		@ link register save eliminated.
 5162 0000 F0B4     		push	{r4, r5, r6, r7}
 5163 0002 82B0     		sub	sp, sp, #8
 5164 0004 069D     		ldr	r5, [sp, #24]
 5165 0006 0024     		movs	r4, #0
 5166 0008 0194     		str	r4, [sp, #4]
 5167 000a 0094     		str	r4, [sp]
 5168 000c 90F83D40 		ldrb	r4, [r0, #61]	@ zero_extendqisi2
 5169 0010 202C     		cmp	r4, #32
 5170 0012 67D1     		bne	.L630
 5171 0014 0668     		ldr	r6, [r0]
 5172 0016 3468     		ldr	r4, [r6]
 5173 0018 14F4007F 		tst	r4, #512
 5174 001c 03D1     		bne	.L623
 5175 001e 082D     		cmp	r5, #8
 5176 0020 01D0     		beq	.L623
 5177 0022 012D     		cmp	r5, #1
 5178 0024 15D1     		bne	.L624
 5179              	.L623:
 5180 0026 324C     		ldr	r4, .L635
 5181 0028 2468     		ldr	r4, [r4]
 5182 002a E408     		lsrs	r4, r4, #3
 5183 002c 314F     		ldr	r7, .L635+4
 5184 002e A7FB0474 		umull	r7, r4, r7, r4
 5185 0032 240A     		lsrs	r4, r4, #8
 5186 0034 04EB8404 		add	r4, r4, r4, lsl #2
 5187 0038 04EB8404 		add	r4, r4, r4, lsl #2
 5188 003c 0094     		str	r4, [sp]
 5189              	.L626:
 5190 003e 009C     		ldr	r4, [sp]
 5191 0040 013C     		subs	r4, r4, #1
 5192 0042 0094     		str	r4, [sp]
 5193 0044 009C     		ldr	r4, [sp]
 5194 0046 002C     		cmp	r4, #0
 5195 0048 39D0     		beq	.L633
 5196 004a B469     		ldr	r4, [r6, #24]
 5197 004c 14F0020F 		tst	r4, #2
 5198 0050 F5D1     		bne	.L626
 5199              	.L624:
 5200 0052 90F83C40 		ldrb	r4, [r0, #60]	@ zero_extendqisi2
 5201 0056 012C     		cmp	r4, #1
 5202 0058 48D0     		beq	.L631
 5203 005a 0124     		movs	r4, #1
 5204 005c 80F83C40 		strb	r4, [r0, #60]
 5205 0060 3468     		ldr	r4, [r6]
 5206 0062 14F0010F 		tst	r4, #1
 5207 0066 03D1     		bne	.L627
 5208 0068 3468     		ldr	r4, [r6]
 5209 006a 44F00104 		orr	r4, r4, #1
 5210 006e 3460     		str	r4, [r6]
 5211              	.L627:
 5212 0070 0668     		ldr	r6, [r0]
 5213 0072 3468     		ldr	r4, [r6]
 5214 0074 24F40064 		bic	r4, r4, #2048
 5215 0078 3460     		str	r4, [r6]
ARM GAS  C:\Users\Rick\AppData\Local\Temp\ccGOCLVW.s 			page 91


 5216 007a 2124     		movs	r4, #33
 5217 007c 80F83D40 		strb	r4, [r0, #61]
 5218 0080 1024     		movs	r4, #16
 5219 0082 80F83E40 		strb	r4, [r0, #62]
 5220 0086 0024     		movs	r4, #0
 5221 0088 0464     		str	r4, [r0, #64]
 5222 008a 4262     		str	r2, [r0, #36]
 5223 008c 4385     		strh	r3, [r0, #42]	@ movhi
 5224 008e 438D     		ldrh	r3, [r0, #42]
 5225 0090 0385     		strh	r3, [r0, #40]	@ movhi
 5226 0092 C562     		str	r5, [r0, #44]
 5227 0094 4164     		str	r1, [r0, #68]
 5228 0096 036B     		ldr	r3, [r0, #48]
 5229 0098 0193     		str	r3, [sp, #4]
 5230 009a 019B     		ldr	r3, [sp, #4]
 5231 009c 112B     		cmp	r3, #17
 5232 009e 1AD0     		beq	.L634
 5233              	.L628:
 5234 00a0 0268     		ldr	r2, [r0]
 5235 00a2 1368     		ldr	r3, [r2]
 5236 00a4 43F48073 		orr	r3, r3, #256
 5237 00a8 1360     		str	r3, [r2]
 5238              	.L629:
 5239 00aa 0023     		movs	r3, #0
 5240 00ac 80F83C30 		strb	r3, [r0, #60]
 5241 00b0 0168     		ldr	r1, [r0]
 5242 00b2 4A68     		ldr	r2, [r1, #4]
 5243 00b4 42F4E062 		orr	r2, r2, #1792
 5244 00b8 4A60     		str	r2, [r1, #4]
 5245 00ba 1846     		mov	r0, r3
 5246 00bc 13E0     		b	.L622
 5247              	.L633:
 5248 00be 0023     		movs	r3, #0
 5249 00c0 0363     		str	r3, [r0, #48]
 5250 00c2 2022     		movs	r2, #32
 5251 00c4 80F83D20 		strb	r2, [r0, #61]
 5252 00c8 80F83E30 		strb	r3, [r0, #62]
 5253 00cc 036C     		ldr	r3, [r0, #64]
 5254 00ce 1343     		orrs	r3, r3, r2
 5255 00d0 0364     		str	r3, [r0, #64]
 5256 00d2 0220     		movs	r0, #2
 5257 00d4 07E0     		b	.L622
 5258              	.L634:
 5259 00d6 B5F52A0F 		cmp	r5, #11141120
 5260 00da E1D0     		beq	.L628
 5261 00dc B5F12A4F 		cmp	r5, #-1442840576
 5262 00e0 E3D1     		bne	.L629
 5263 00e2 DDE7     		b	.L628
 5264              	.L630:
 5265 00e4 0220     		movs	r0, #2
 5266              	.L622:
 5267 00e6 02B0     		add	sp, sp, #8
 5268              		@ sp needed
 5269 00e8 F0BC     		pop	{r4, r5, r6, r7}
 5270 00ea 7047     		bx	lr
 5271              	.L631:
 5272 00ec 0220     		movs	r0, #2
ARM GAS  C:\Users\Rick\AppData\Local\Temp\ccGOCLVW.s 			page 92


 5273 00ee FAE7     		b	.L622
 5274              	.L636:
 5275              		.align	2
 5276              	.L635:
 5277 00f0 00000000 		.word	SystemCoreClock
 5278 00f4 89B5F814 		.word	351843721
 5280              		.section	.text.HAL_I2C_Master_Seq_Transmit_DMA,"ax",%progbits
 5281              		.align	1
 5282              		.global	HAL_I2C_Master_Seq_Transmit_DMA
 5283              		.syntax unified
 5284              		.thumb
 5285              		.thumb_func
 5287              	HAL_I2C_Master_Seq_Transmit_DMA:
 5288              		@ args = 4, pretend = 0, frame = 8
 5289              		@ frame_needed = 0, uses_anonymous_args = 0
 5290 0000 F0B5     		push	{r4, r5, r6, r7, lr}
 5291 0002 83B0     		sub	sp, sp, #12
 5292 0004 0546     		mov	r5, r0
 5293 0006 089E     		ldr	r6, [sp, #32]
 5294 0008 0020     		movs	r0, #0
 5295 000a 0190     		str	r0, [sp, #4]
 5296 000c 0090     		str	r0, [sp]
 5297 000e 95F83D00 		ldrb	r0, [r5, #61]	@ zero_extendqisi2
 5298 0012 2028     		cmp	r0, #32
 5299 0014 40F0CA80 		bne	.L654
 5300 0018 2F68     		ldr	r7, [r5]
 5301 001a 3868     		ldr	r0, [r7]
 5302 001c 10F4007F 		tst	r0, #512
 5303 0020 03D1     		bne	.L639
 5304 0022 082E     		cmp	r6, #8
 5305 0024 01D0     		beq	.L639
 5306 0026 012E     		cmp	r6, #1
 5307 0028 15D1     		bne	.L640
 5308              	.L639:
 5309 002a 6348     		ldr	r0, .L661
 5310 002c 0068     		ldr	r0, [r0]
 5311 002e C008     		lsrs	r0, r0, #3
 5312 0030 624C     		ldr	r4, .L661+4
 5313 0032 A4FB0040 		umull	r4, r0, r4, r0
 5314 0036 000A     		lsrs	r0, r0, #8
 5315 0038 00EB8000 		add	r0, r0, r0, lsl #2
 5316 003c 00EB8000 		add	r0, r0, r0, lsl #2
 5317 0040 0090     		str	r0, [sp]
 5318              	.L642:
 5319 0042 009C     		ldr	r4, [sp]
 5320 0044 013C     		subs	r4, r4, #1
 5321 0046 0094     		str	r4, [sp]
 5322 0048 0098     		ldr	r0, [sp]
 5323 004a 0028     		cmp	r0, #0
 5324 004c 4CD0     		beq	.L658
 5325 004e B869     		ldr	r0, [r7, #24]
 5326 0050 10F0020F 		tst	r0, #2
 5327 0054 F5D1     		bne	.L642
 5328              	.L640:
 5329 0056 95F83C00 		ldrb	r0, [r5, #60]	@ zero_extendqisi2
 5330 005a 0128     		cmp	r0, #1
 5331 005c 00F0A980 		beq	.L655
ARM GAS  C:\Users\Rick\AppData\Local\Temp\ccGOCLVW.s 			page 93


 5332 0060 0120     		movs	r0, #1
 5333 0062 85F83C00 		strb	r0, [r5, #60]
 5334 0066 3868     		ldr	r0, [r7]
 5335 0068 10F0010F 		tst	r0, #1
 5336 006c 03D1     		bne	.L643
 5337 006e 3868     		ldr	r0, [r7]
 5338 0070 40F00100 		orr	r0, r0, #1
 5339 0074 3860     		str	r0, [r7]
 5340              	.L643:
 5341 0076 2C68     		ldr	r4, [r5]
 5342 0078 2068     		ldr	r0, [r4]
 5343 007a 20F40060 		bic	r0, r0, #2048
 5344 007e 2060     		str	r0, [r4]
 5345 0080 2120     		movs	r0, #33
 5346 0082 85F83D00 		strb	r0, [r5, #61]
 5347 0086 1020     		movs	r0, #16
 5348 0088 85F83E00 		strb	r0, [r5, #62]
 5349 008c 0020     		movs	r0, #0
 5350 008e 2864     		str	r0, [r5, #64]
 5351 0090 6A62     		str	r2, [r5, #36]
 5352 0092 6B85     		strh	r3, [r5, #42]	@ movhi
 5353 0094 6B8D     		ldrh	r3, [r5, #42]
 5354 0096 9BB2     		uxth	r3, r3
 5355 0098 2B85     		strh	r3, [r5, #40]	@ movhi
 5356 009a EE62     		str	r6, [r5, #44]
 5357 009c 6964     		str	r1, [r5, #68]
 5358 009e 2A6B     		ldr	r2, [r5, #48]
 5359 00a0 0192     		str	r2, [sp, #4]
 5360 00a2 002B     		cmp	r3, #0
 5361 00a4 64D0     		beq	.L644
 5362 00a6 6B6B     		ldr	r3, [r5, #52]
 5363 00a8 53B3     		cbz	r3, .L645
 5364 00aa 454A     		ldr	r2, .L661+8
 5365 00ac DA63     		str	r2, [r3, #60]
 5366 00ae 6B6B     		ldr	r3, [r5, #52]
 5367 00b0 444A     		ldr	r2, .L661+12
 5368 00b2 DA64     		str	r2, [r3, #76]
 5369 00b4 6A6B     		ldr	r2, [r5, #52]
 5370 00b6 1064     		str	r0, [r2, #64]
 5371 00b8 6A6B     		ldr	r2, [r5, #52]
 5372 00ba 1065     		str	r0, [r2, #80]
 5373 00bc 2A68     		ldr	r2, [r5]
 5374 00be 2B8D     		ldrh	r3, [r5, #40]
 5375 00c0 1032     		adds	r2, r2, #16
 5376 00c2 696A     		ldr	r1, [r5, #36]
 5377 00c4 686B     		ldr	r0, [r5, #52]
 5378 00c6 FFF7FEFF 		bl	HAL_DMA_Start_IT
 5379 00ca 38B3     		cbz	r0, .L646
 5380 00cc 2023     		movs	r3, #32
 5381 00ce 85F83D30 		strb	r3, [r5, #61]
 5382 00d2 0022     		movs	r2, #0
 5383 00d4 85F83E20 		strb	r2, [r5, #62]
 5384 00d8 2B6C     		ldr	r3, [r5, #64]
 5385 00da 43F01003 		orr	r3, r3, #16
 5386 00de 2B64     		str	r3, [r5, #64]
 5387 00e0 85F83C20 		strb	r2, [r5, #60]
 5388 00e4 0120     		movs	r0, #1
ARM GAS  C:\Users\Rick\AppData\Local\Temp\ccGOCLVW.s 			page 94


 5389 00e6 62E0     		b	.L638
 5390              	.L658:
 5391 00e8 0023     		movs	r3, #0
 5392 00ea 2B63     		str	r3, [r5, #48]
 5393 00ec 2022     		movs	r2, #32
 5394 00ee 85F83D20 		strb	r2, [r5, #61]
 5395 00f2 85F83E30 		strb	r3, [r5, #62]
 5396 00f6 2B6C     		ldr	r3, [r5, #64]
 5397 00f8 1343     		orrs	r3, r3, r2
 5398 00fa 2B64     		str	r3, [r5, #64]
 5399 00fc 0220     		movs	r0, #2
 5400 00fe 56E0     		b	.L638
 5401              	.L645:
 5402 0100 2023     		movs	r3, #32
 5403 0102 85F83D30 		strb	r3, [r5, #61]
 5404 0106 0022     		movs	r2, #0
 5405 0108 85F83E20 		strb	r2, [r5, #62]
 5406 010c 2B6C     		ldr	r3, [r5, #64]
 5407 010e 43F08003 		orr	r3, r3, #128
 5408 0112 2B64     		str	r3, [r5, #64]
 5409 0114 85F83C20 		strb	r2, [r5, #60]
 5410 0118 0120     		movs	r0, #1
 5411 011a 48E0     		b	.L638
 5412              	.L646:
 5413 011c 2A68     		ldr	r2, [r5]
 5414 011e 1368     		ldr	r3, [r2]
 5415 0120 43F48063 		orr	r3, r3, #1024
 5416 0124 1360     		str	r3, [r2]
 5417 0126 019B     		ldr	r3, [sp, #4]
 5418 0128 112B     		cmp	r3, #17
 5419 012a 1AD0     		beq	.L659
 5420              	.L648:
 5421 012c 2A68     		ldr	r2, [r5]
 5422 012e 1368     		ldr	r3, [r2]
 5423 0130 43F48073 		orr	r3, r3, #256
 5424 0134 1360     		str	r3, [r2]
 5425              	.L649:
 5426 0136 0023     		movs	r3, #0
 5427 0138 85F83C30 		strb	r3, [r5, #60]
 5428 013c 043E     		subs	r6, r6, #4
 5429 013e 1C2E     		cmp	r6, #28
 5430 0140 09D8     		bhi	.L650
 5431 0142 214B     		ldr	r3, .L661+16
 5432 0144 F340     		lsrs	r3, r3, r6
 5433 0146 13F0010F 		tst	r3, #1
 5434 014a 04D0     		beq	.L650
 5435 014c 2A68     		ldr	r2, [r5]
 5436 014e 5368     		ldr	r3, [r2, #4]
 5437 0150 43F40063 		orr	r3, r3, #2048
 5438 0154 5360     		str	r3, [r2, #4]
 5439              	.L650:
 5440 0156 2A68     		ldr	r2, [r5]
 5441 0158 5368     		ldr	r3, [r2, #4]
 5442 015a 43F44073 		orr	r3, r3, #768
 5443 015e 5360     		str	r3, [r2, #4]
 5444 0160 1BE0     		b	.L651
 5445              	.L659:
ARM GAS  C:\Users\Rick\AppData\Local\Temp\ccGOCLVW.s 			page 95


 5446 0162 B6F52A0F 		cmp	r6, #11141120
 5447 0166 E1D0     		beq	.L648
 5448 0168 B6F12A4F 		cmp	r6, #-1442840576
 5449 016c E3D1     		bne	.L649
 5450 016e DDE7     		b	.L648
 5451              	.L644:
 5452 0170 2A68     		ldr	r2, [r5]
 5453 0172 1368     		ldr	r3, [r2]
 5454 0174 43F48063 		orr	r3, r3, #1024
 5455 0178 1360     		str	r3, [r2]
 5456 017a 019B     		ldr	r3, [sp, #4]
 5457 017c 112B     		cmp	r3, #17
 5458 017e 0ED0     		beq	.L660
 5459              	.L652:
 5460 0180 2A68     		ldr	r2, [r5]
 5461 0182 1368     		ldr	r3, [r2]
 5462 0184 43F48073 		orr	r3, r3, #256
 5463 0188 1360     		str	r3, [r2]
 5464              	.L653:
 5465 018a 0023     		movs	r3, #0
 5466 018c 85F83C30 		strb	r3, [r5, #60]
 5467 0190 2A68     		ldr	r2, [r5]
 5468 0192 5368     		ldr	r3, [r2, #4]
 5469 0194 43F4E063 		orr	r3, r3, #1792
 5470 0198 5360     		str	r3, [r2, #4]
 5471              	.L651:
 5472 019a 0020     		movs	r0, #0
 5473 019c 07E0     		b	.L638
 5474              	.L660:
 5475 019e B6F52A0F 		cmp	r6, #11141120
 5476 01a2 EDD0     		beq	.L652
 5477 01a4 B6F12A4F 		cmp	r6, #-1442840576
 5478 01a8 EFD1     		bne	.L653
 5479 01aa E9E7     		b	.L652
 5480              	.L654:
 5481 01ac 0220     		movs	r0, #2
 5482              	.L638:
 5483 01ae 03B0     		add	sp, sp, #12
 5484              		@ sp needed
 5485 01b0 F0BD     		pop	{r4, r5, r6, r7, pc}
 5486              	.L655:
 5487 01b2 0220     		movs	r0, #2
 5488 01b4 FBE7     		b	.L638
 5489              	.L662:
 5490 01b6 00BF     		.align	2
 5491              	.L661:
 5492 01b8 00000000 		.word	SystemCoreClock
 5493 01bc 89B5F814 		.word	351843721
 5494 01c0 00000000 		.word	I2C_DMAXferCplt
 5495 01c4 00000000 		.word	I2C_DMAError
 5496 01c8 01100010 		.word	268439553
 5498              		.section	.text.HAL_I2C_Master_Seq_Receive_IT,"ax",%progbits
 5499              		.align	1
 5500              		.global	HAL_I2C_Master_Seq_Receive_IT
 5501              		.syntax unified
 5502              		.thumb
 5503              		.thumb_func
ARM GAS  C:\Users\Rick\AppData\Local\Temp\ccGOCLVW.s 			page 96


 5505              	HAL_I2C_Master_Seq_Receive_IT:
 5506              		@ args = 4, pretend = 0, frame = 8
 5507              		@ frame_needed = 0, uses_anonymous_args = 0
 5508              		@ link register save eliminated.
 5509 0000 F0B4     		push	{r4, r5, r6, r7}
 5510 0002 82B0     		sub	sp, sp, #8
 5511 0004 069D     		ldr	r5, [sp, #24]
 5512 0006 0024     		movs	r4, #0
 5513 0008 0194     		str	r4, [sp, #4]
 5514 000a 0094     		str	r4, [sp]
 5515 000c 90F83D40 		ldrb	r4, [r0, #61]	@ zero_extendqisi2
 5516 0010 202C     		cmp	r4, #32
 5517 0012 40F08E80 		bne	.L676
 5518 0016 0668     		ldr	r6, [r0]
 5519 0018 3468     		ldr	r4, [r6]
 5520 001a 14F4007F 		tst	r4, #512
 5521 001e 03D1     		bne	.L665
 5522 0020 082D     		cmp	r5, #8
 5523 0022 01D0     		beq	.L665
 5524 0024 012D     		cmp	r5, #1
 5525 0026 15D1     		bne	.L666
 5526              	.L665:
 5527 0028 454C     		ldr	r4, .L683
 5528 002a 2468     		ldr	r4, [r4]
 5529 002c E408     		lsrs	r4, r4, #3
 5530 002e 454F     		ldr	r7, .L683+4
 5531 0030 A7FB0474 		umull	r7, r4, r7, r4
 5532 0034 240A     		lsrs	r4, r4, #8
 5533 0036 04EB8404 		add	r4, r4, r4, lsl #2
 5534 003a 04EB8404 		add	r4, r4, r4, lsl #2
 5535 003e 0094     		str	r4, [sp]
 5536              	.L668:
 5537 0040 009C     		ldr	r4, [sp]
 5538 0042 013C     		subs	r4, r4, #1
 5539 0044 0094     		str	r4, [sp]
 5540 0046 009C     		ldr	r4, [sp]
 5541 0048 002C     		cmp	r4, #0
 5542 004a 43D0     		beq	.L679
 5543 004c B469     		ldr	r4, [r6, #24]
 5544 004e 14F0020F 		tst	r4, #2
 5545 0052 F5D1     		bne	.L668
 5546              	.L666:
 5547 0054 90F83C40 		ldrb	r4, [r0, #60]	@ zero_extendqisi2
 5548 0058 012C     		cmp	r4, #1
 5549 005a 6ED0     		beq	.L677
 5550 005c 0124     		movs	r4, #1
 5551 005e 80F83C40 		strb	r4, [r0, #60]
 5552 0062 3468     		ldr	r4, [r6]
 5553 0064 14F0010F 		tst	r4, #1
 5554 0068 03D1     		bne	.L669
 5555 006a 3468     		ldr	r4, [r6]
 5556 006c 44F00104 		orr	r4, r4, #1
 5557 0070 3460     		str	r4, [r6]
 5558              	.L669:
 5559 0072 0668     		ldr	r6, [r0]
 5560 0074 3468     		ldr	r4, [r6]
 5561 0076 24F40064 		bic	r4, r4, #2048
ARM GAS  C:\Users\Rick\AppData\Local\Temp\ccGOCLVW.s 			page 97


 5562 007a 3460     		str	r4, [r6]
 5563 007c 2224     		movs	r4, #34
 5564 007e 80F83D40 		strb	r4, [r0, #61]
 5565 0082 1024     		movs	r4, #16
 5566 0084 80F83E40 		strb	r4, [r0, #62]
 5567 0088 0024     		movs	r4, #0
 5568 008a 0464     		str	r4, [r0, #64]
 5569 008c 4262     		str	r2, [r0, #36]
 5570 008e 4385     		strh	r3, [r0, #42]	@ movhi
 5571 0090 438D     		ldrh	r3, [r0, #42]
 5572 0092 0385     		strh	r3, [r0, #40]	@ movhi
 5573 0094 C562     		str	r5, [r0, #44]
 5574 0096 4164     		str	r1, [r0, #68]
 5575 0098 036B     		ldr	r3, [r0, #48]
 5576 009a 0193     		str	r3, [sp, #4]
 5577 009c 438D     		ldrh	r3, [r0, #42]
 5578 009e 9BB2     		uxth	r3, r3
 5579 00a0 022B     		cmp	r3, #2
 5580 00a2 23D0     		beq	.L680
 5581              	.L670:
 5582 00a4 0268     		ldr	r2, [r0]
 5583 00a6 1368     		ldr	r3, [r2]
 5584 00a8 43F48063 		orr	r3, r3, #1024
 5585 00ac 1360     		str	r3, [r2]
 5586 00ae 4FF4E064 		mov	r4, #1792
 5587              	.L673:
 5588 00b2 019B     		ldr	r3, [sp, #4]
 5589 00b4 122B     		cmp	r3, #18
 5590 00b6 35D0     		beq	.L681
 5591              	.L674:
 5592 00b8 0268     		ldr	r2, [r0]
 5593 00ba 1368     		ldr	r3, [r2]
 5594 00bc 43F48073 		orr	r3, r3, #256
 5595 00c0 1360     		str	r3, [r2]
 5596              	.L675:
 5597 00c2 0023     		movs	r3, #0
 5598 00c4 80F83C30 		strb	r3, [r0, #60]
 5599 00c8 0168     		ldr	r1, [r0]
 5600 00ca 4A68     		ldr	r2, [r1, #4]
 5601 00cc 2243     		orrs	r2, r2, r4
 5602 00ce 4A60     		str	r2, [r1, #4]
 5603 00d0 1846     		mov	r0, r3
 5604 00d2 2FE0     		b	.L664
 5605              	.L679:
 5606 00d4 0023     		movs	r3, #0
 5607 00d6 0363     		str	r3, [r0, #48]
 5608 00d8 2022     		movs	r2, #32
 5609 00da 80F83D20 		strb	r2, [r0, #61]
 5610 00de 80F83E30 		strb	r3, [r0, #62]
 5611 00e2 036C     		ldr	r3, [r0, #64]
 5612 00e4 1343     		orrs	r3, r3, r2
 5613 00e6 0364     		str	r3, [r0, #64]
 5614 00e8 0220     		movs	r0, #2
 5615 00ea 23E0     		b	.L664
 5616              	.L680:
 5617 00ec 202D     		cmp	r5, #32
 5618 00ee 01D0     		beq	.L671
ARM GAS  C:\Users\Rick\AppData\Local\Temp\ccGOCLVW.s 			page 98


 5619 00f0 102D     		cmp	r5, #16
 5620 00f2 D7D1     		bne	.L670
 5621              	.L671:
 5622 00f4 019B     		ldr	r3, [sp, #4]
 5623 00f6 122B     		cmp	r3, #18
 5624 00f8 07D0     		beq	.L682
 5625 00fa 0268     		ldr	r2, [r0]
 5626 00fc 1368     		ldr	r3, [r2]
 5627 00fe 43F48063 		orr	r3, r3, #1024
 5628 0102 1360     		str	r3, [r2]
 5629 0104 4FF4E064 		mov	r4, #1792
 5630 0108 D3E7     		b	.L673
 5631              	.L682:
 5632 010a 0268     		ldr	r2, [r0]
 5633 010c 1368     		ldr	r3, [r2]
 5634 010e 23F48063 		bic	r3, r3, #1024
 5635 0112 1360     		str	r3, [r2]
 5636 0114 0268     		ldr	r2, [r0]
 5637 0116 1368     		ldr	r3, [r2]
 5638 0118 43F40063 		orr	r3, r3, #2048
 5639 011c 1360     		str	r3, [r2]
 5640 011e 4FF44074 		mov	r4, #768
 5641 0122 C6E7     		b	.L673
 5642              	.L681:
 5643 0124 B5F52A0F 		cmp	r5, #11141120
 5644 0128 C6D0     		beq	.L674
 5645 012a B5F12A4F 		cmp	r5, #-1442840576
 5646 012e C8D1     		bne	.L675
 5647 0130 C2E7     		b	.L674
 5648              	.L676:
 5649 0132 0220     		movs	r0, #2
 5650              	.L664:
 5651 0134 02B0     		add	sp, sp, #8
 5652              		@ sp needed
 5653 0136 F0BC     		pop	{r4, r5, r6, r7}
 5654 0138 7047     		bx	lr
 5655              	.L677:
 5656 013a 0220     		movs	r0, #2
 5657 013c FAE7     		b	.L664
 5658              	.L684:
 5659 013e 00BF     		.align	2
 5660              	.L683:
 5661 0140 00000000 		.word	SystemCoreClock
 5662 0144 89B5F814 		.word	351843721
 5664              		.section	.text.HAL_I2C_Master_Seq_Receive_DMA,"ax",%progbits
 5665              		.align	1
 5666              		.global	HAL_I2C_Master_Seq_Receive_DMA
 5667              		.syntax unified
 5668              		.thumb
 5669              		.thumb_func
 5671              	HAL_I2C_Master_Seq_Receive_DMA:
 5672              		@ args = 4, pretend = 0, frame = 8
 5673              		@ frame_needed = 0, uses_anonymous_args = 0
 5674 0000 F0B5     		push	{r4, r5, r6, r7, lr}
 5675 0002 83B0     		sub	sp, sp, #12
 5676 0004 0546     		mov	r5, r0
 5677 0006 089E     		ldr	r6, [sp, #32]
ARM GAS  C:\Users\Rick\AppData\Local\Temp\ccGOCLVW.s 			page 99


 5678 0008 0020     		movs	r0, #0
 5679 000a 0190     		str	r0, [sp, #4]
 5680 000c 0090     		str	r0, [sp]
 5681 000e 95F83D00 		ldrb	r0, [r5, #61]	@ zero_extendqisi2
 5682 0012 2028     		cmp	r0, #32
 5683 0014 40F00381 		bne	.L707
 5684 0018 2F68     		ldr	r7, [r5]
 5685 001a 3868     		ldr	r0, [r7]
 5686 001c 10F4007F 		tst	r0, #512
 5687 0020 03D1     		bne	.L687
 5688 0022 082E     		cmp	r6, #8
 5689 0024 01D0     		beq	.L687
 5690 0026 012E     		cmp	r6, #1
 5691 0028 15D1     		bne	.L688
 5692              	.L687:
 5693 002a 7F48     		ldr	r0, .L717
 5694 002c 0068     		ldr	r0, [r0]
 5695 002e C008     		lsrs	r0, r0, #3
 5696 0030 7E4C     		ldr	r4, .L717+4
 5697 0032 A4FB0040 		umull	r4, r0, r4, r0
 5698 0036 000A     		lsrs	r0, r0, #8
 5699 0038 00EB8000 		add	r0, r0, r0, lsl #2
 5700 003c 00EB8000 		add	r0, r0, r0, lsl #2
 5701 0040 0090     		str	r0, [sp]
 5702              	.L690:
 5703 0042 009C     		ldr	r4, [sp]
 5704 0044 013C     		subs	r4, r4, #1
 5705 0046 0094     		str	r4, [sp]
 5706 0048 0098     		ldr	r0, [sp]
 5707 004a 0028     		cmp	r0, #0
 5708 004c 6AD0     		beq	.L712
 5709 004e B869     		ldr	r0, [r7, #24]
 5710 0050 10F0020F 		tst	r0, #2
 5711 0054 F5D1     		bne	.L690
 5712              	.L688:
 5713 0056 95F83C00 		ldrb	r0, [r5, #60]	@ zero_extendqisi2
 5714 005a 0128     		cmp	r0, #1
 5715 005c 00F0E280 		beq	.L708
 5716 0060 0120     		movs	r0, #1
 5717 0062 85F83C00 		strb	r0, [r5, #60]
 5718 0066 3868     		ldr	r0, [r7]
 5719 0068 10F0010F 		tst	r0, #1
 5720 006c 03D1     		bne	.L691
 5721 006e 3868     		ldr	r0, [r7]
 5722 0070 40F00100 		orr	r0, r0, #1
 5723 0074 3860     		str	r0, [r7]
 5724              	.L691:
 5725 0076 2C68     		ldr	r4, [r5]
 5726 0078 2068     		ldr	r0, [r4]
 5727 007a 20F40060 		bic	r0, r0, #2048
 5728 007e 2060     		str	r0, [r4]
 5729 0080 2C68     		ldr	r4, [r5]
 5730 0082 6068     		ldr	r0, [r4, #4]
 5731 0084 20F48050 		bic	r0, r0, #4096
 5732 0088 6060     		str	r0, [r4, #4]
 5733 008a 2220     		movs	r0, #34
 5734 008c 85F83D00 		strb	r0, [r5, #61]
ARM GAS  C:\Users\Rick\AppData\Local\Temp\ccGOCLVW.s 			page 100


 5735 0090 1020     		movs	r0, #16
 5736 0092 85F83E00 		strb	r0, [r5, #62]
 5737 0096 0020     		movs	r0, #0
 5738 0098 2864     		str	r0, [r5, #64]
 5739 009a 6A62     		str	r2, [r5, #36]
 5740 009c 6B85     		strh	r3, [r5, #42]	@ movhi
 5741 009e 6B8D     		ldrh	r3, [r5, #42]
 5742 00a0 9BB2     		uxth	r3, r3
 5743 00a2 2B85     		strh	r3, [r5, #40]	@ movhi
 5744 00a4 EE62     		str	r6, [r5, #44]
 5745 00a6 6964     		str	r1, [r5, #68]
 5746 00a8 2A6B     		ldr	r2, [r5, #48]
 5747 00aa 0192     		str	r2, [sp, #4]
 5748 00ac 002B     		cmp	r3, #0
 5749 00ae 00F09880 		beq	.L692
 5750 00b2 6B8D     		ldrh	r3, [r5, #42]
 5751 00b4 9BB2     		uxth	r3, r3
 5752 00b6 022B     		cmp	r3, #2
 5753 00b8 40D0     		beq	.L713
 5754              	.L693:
 5755 00ba 2A68     		ldr	r2, [r5]
 5756 00bc 1368     		ldr	r3, [r2]
 5757 00be 43F48063 		orr	r3, r3, #1024
 5758 00c2 1360     		str	r3, [r2]
 5759 00c4 202E     		cmp	r6, #32
 5760 00c6 04D0     		beq	.L697
 5761 00c8 B6F12A4F 		cmp	r6, #-1442840576
 5762 00cc 01D0     		beq	.L697
 5763 00ce 102E     		cmp	r6, #16
 5764 00d0 04D1     		bne	.L696
 5765              	.L697:
 5766 00d2 2A68     		ldr	r2, [r5]
 5767 00d4 5368     		ldr	r3, [r2, #4]
 5768 00d6 43F48053 		orr	r3, r3, #4096
 5769 00da 5360     		str	r3, [r2, #4]
 5770              	.L696:
 5771 00dc AB6B     		ldr	r3, [r5, #56]
 5772 00de 002B     		cmp	r3, #0
 5773 00e0 49D0     		beq	.L698
 5774 00e2 534A     		ldr	r2, .L717+8
 5775 00e4 DA63     		str	r2, [r3, #60]
 5776 00e6 AB6B     		ldr	r3, [r5, #56]
 5777 00e8 524A     		ldr	r2, .L717+12
 5778 00ea DA64     		str	r2, [r3, #76]
 5779 00ec AA6B     		ldr	r2, [r5, #56]
 5780 00ee 0023     		movs	r3, #0
 5781 00f0 1364     		str	r3, [r2, #64]
 5782 00f2 AA6B     		ldr	r2, [r5, #56]
 5783 00f4 1365     		str	r3, [r2, #80]
 5784 00f6 2968     		ldr	r1, [r5]
 5785 00f8 2B8D     		ldrh	r3, [r5, #40]
 5786 00fa 6A6A     		ldr	r2, [r5, #36]
 5787 00fc 1031     		adds	r1, r1, #16
 5788 00fe A86B     		ldr	r0, [r5, #56]
 5789 0100 FFF7FEFF 		bl	HAL_DMA_Start_IT
 5790 0104 0028     		cmp	r0, #0
 5791 0106 44D0     		beq	.L699
ARM GAS  C:\Users\Rick\AppData\Local\Temp\ccGOCLVW.s 			page 101


 5792 0108 2023     		movs	r3, #32
 5793 010a 85F83D30 		strb	r3, [r5, #61]
 5794 010e 0022     		movs	r2, #0
 5795 0110 85F83E20 		strb	r2, [r5, #62]
 5796 0114 2B6C     		ldr	r3, [r5, #64]
 5797 0116 43F01003 		orr	r3, r3, #16
 5798 011a 2B64     		str	r3, [r5, #64]
 5799 011c 85F83C20 		strb	r2, [r5, #60]
 5800 0120 0120     		movs	r0, #1
 5801 0122 7DE0     		b	.L686
 5802              	.L712:
 5803 0124 0023     		movs	r3, #0
 5804 0126 2B63     		str	r3, [r5, #48]
 5805 0128 2022     		movs	r2, #32
 5806 012a 85F83D20 		strb	r2, [r5, #61]
 5807 012e 85F83E30 		strb	r3, [r5, #62]
 5808 0132 2B6C     		ldr	r3, [r5, #64]
 5809 0134 1343     		orrs	r3, r3, r2
 5810 0136 2B64     		str	r3, [r5, #64]
 5811 0138 0220     		movs	r0, #2
 5812 013a 71E0     		b	.L686
 5813              	.L713:
 5814 013c 202E     		cmp	r6, #32
 5815 013e 01D0     		beq	.L694
 5816 0140 102E     		cmp	r6, #16
 5817 0142 BAD1     		bne	.L693
 5818              	.L694:
 5819 0144 019B     		ldr	r3, [sp, #4]
 5820 0146 122B     		cmp	r3, #18
 5821 0148 05D0     		beq	.L714
 5822 014a 2A68     		ldr	r2, [r5]
 5823 014c 1368     		ldr	r3, [r2]
 5824 014e 43F48063 		orr	r3, r3, #1024
 5825 0152 1360     		str	r3, [r2]
 5826 0154 C2E7     		b	.L696
 5827              	.L714:
 5828 0156 2A68     		ldr	r2, [r5]
 5829 0158 1368     		ldr	r3, [r2]
 5830 015a 23F48063 		bic	r3, r3, #1024
 5831 015e 1360     		str	r3, [r2]
 5832 0160 2A68     		ldr	r2, [r5]
 5833 0162 1368     		ldr	r3, [r2]
 5834 0164 43F40063 		orr	r3, r3, #2048
 5835 0168 1360     		str	r3, [r2]
 5836 016a 2A68     		ldr	r2, [r5]
 5837 016c 5368     		ldr	r3, [r2, #4]
 5838 016e 43F48053 		orr	r3, r3, #4096
 5839 0172 5360     		str	r3, [r2, #4]
 5840 0174 B2E7     		b	.L696
 5841              	.L698:
 5842 0176 2023     		movs	r3, #32
 5843 0178 85F83D30 		strb	r3, [r5, #61]
 5844 017c 0022     		movs	r2, #0
 5845 017e 85F83E20 		strb	r2, [r5, #62]
 5846 0182 2B6C     		ldr	r3, [r5, #64]
 5847 0184 43F08003 		orr	r3, r3, #128
 5848 0188 2B64     		str	r3, [r5, #64]
ARM GAS  C:\Users\Rick\AppData\Local\Temp\ccGOCLVW.s 			page 102


 5849 018a 85F83C20 		strb	r2, [r5, #60]
 5850 018e 0120     		movs	r0, #1
 5851 0190 46E0     		b	.L686
 5852              	.L699:
 5853 0192 019B     		ldr	r3, [sp, #4]
 5854 0194 122B     		cmp	r3, #18
 5855 0196 1BD0     		beq	.L715
 5856              	.L701:
 5857 0198 2A68     		ldr	r2, [r5]
 5858 019a 1368     		ldr	r3, [r2]
 5859 019c 43F48073 		orr	r3, r3, #256
 5860 01a0 1360     		str	r3, [r2]
 5861 01a2 4FF44071 		mov	r1, #768
 5862              	.L702:
 5863 01a6 0023     		movs	r3, #0
 5864 01a8 85F83C30 		strb	r3, [r5, #60]
 5865 01ac 043E     		subs	r6, r6, #4
 5866 01ae 1C2E     		cmp	r6, #28
 5867 01b0 09D8     		bhi	.L703
 5868 01b2 214B     		ldr	r3, .L717+16
 5869 01b4 F340     		lsrs	r3, r3, r6
 5870 01b6 13F0010F 		tst	r3, #1
 5871 01ba 04D0     		beq	.L703
 5872 01bc 2A68     		ldr	r2, [r5]
 5873 01be 5368     		ldr	r3, [r2, #4]
 5874 01c0 43F40063 		orr	r3, r3, #2048
 5875 01c4 5360     		str	r3, [r2, #4]
 5876              	.L703:
 5877 01c6 2A68     		ldr	r2, [r5]
 5878 01c8 5368     		ldr	r3, [r2, #4]
 5879 01ca 0B43     		orrs	r3, r3, r1
 5880 01cc 5360     		str	r3, [r2, #4]
 5881 01ce 1DE0     		b	.L704
 5882              	.L715:
 5883 01d0 B6F52A0F 		cmp	r6, #11141120
 5884 01d4 E0D0     		beq	.L701
 5885 01d6 B6F12A4F 		cmp	r6, #-1442840576
 5886 01da DDD0     		beq	.L701
 5887 01dc 4FF48071 		mov	r1, #256
 5888 01e0 E1E7     		b	.L702
 5889              	.L692:
 5890 01e2 2A68     		ldr	r2, [r5]
 5891 01e4 1368     		ldr	r3, [r2]
 5892 01e6 43F48063 		orr	r3, r3, #1024
 5893 01ea 1360     		str	r3, [r2]
 5894 01ec 019B     		ldr	r3, [sp, #4]
 5895 01ee 122B     		cmp	r3, #18
 5896 01f0 0ED0     		beq	.L716
 5897              	.L705:
 5898 01f2 2A68     		ldr	r2, [r5]
 5899 01f4 1368     		ldr	r3, [r2]
 5900 01f6 43F48073 		orr	r3, r3, #256
 5901 01fa 1360     		str	r3, [r2]
 5902              	.L706:
 5903 01fc 0023     		movs	r3, #0
 5904 01fe 85F83C30 		strb	r3, [r5, #60]
 5905 0202 2A68     		ldr	r2, [r5]
ARM GAS  C:\Users\Rick\AppData\Local\Temp\ccGOCLVW.s 			page 103


 5906 0204 5368     		ldr	r3, [r2, #4]
 5907 0206 43F4E063 		orr	r3, r3, #1792
 5908 020a 5360     		str	r3, [r2, #4]
 5909              	.L704:
 5910 020c 0020     		movs	r0, #0
 5911 020e 07E0     		b	.L686
 5912              	.L716:
 5913 0210 B6F52A0F 		cmp	r6, #11141120
 5914 0214 EDD0     		beq	.L705
 5915 0216 B6F12A4F 		cmp	r6, #-1442840576
 5916 021a EFD1     		bne	.L706
 5917 021c E9E7     		b	.L705
 5918              	.L707:
 5919 021e 0220     		movs	r0, #2
 5920              	.L686:
 5921 0220 03B0     		add	sp, sp, #12
 5922              		@ sp needed
 5923 0222 F0BD     		pop	{r4, r5, r6, r7, pc}
 5924              	.L708:
 5925 0224 0220     		movs	r0, #2
 5926 0226 FBE7     		b	.L686
 5927              	.L718:
 5928              		.align	2
 5929              	.L717:
 5930 0228 00000000 		.word	SystemCoreClock
 5931 022c 89B5F814 		.word	351843721
 5932 0230 00000000 		.word	I2C_DMAXferCplt
 5933 0234 00000000 		.word	I2C_DMAError
 5934 0238 01100010 		.word	268439553
 5936              		.section	.text.HAL_I2C_Slave_Seq_Transmit_IT,"ax",%progbits
 5937              		.align	1
 5938              		.global	HAL_I2C_Slave_Seq_Transmit_IT
 5939              		.syntax unified
 5940              		.thumb
 5941              		.thumb_func
 5943              	HAL_I2C_Slave_Seq_Transmit_IT:
 5944              		@ args = 0, pretend = 0, frame = 8
 5945              		@ frame_needed = 0, uses_anonymous_args = 0
 5946              		@ link register save eliminated.
 5947 0000 90F83DC0 		ldrb	ip, [r0, #61]	@ zero_extendqisi2
 5948 0004 0CF0280C 		and	ip, ip, #40
 5949 0008 BCF1280F 		cmp	ip, #40
 5950 000c 38D1     		bne	.L722
 5951 000e 0029     		cmp	r1, #0
 5952 0010 38D0     		beq	.L723
 5953 0012 002A     		cmp	r2, #0
 5954 0014 38D0     		beq	.L724
 5955 0016 30B4     		push	{r4, r5}
 5956 0018 82B0     		sub	sp, sp, #8
 5957 001a 90F83C40 		ldrb	r4, [r0, #60]	@ zero_extendqisi2
 5958 001e 012C     		cmp	r4, #1
 5959 0020 34D0     		beq	.L725
 5960 0022 0124     		movs	r4, #1
 5961 0024 80F83C40 		strb	r4, [r0, #60]
 5962 0028 0468     		ldr	r4, [r0]
 5963 002a 2568     		ldr	r5, [r4]
 5964 002c 15F0010F 		tst	r5, #1
ARM GAS  C:\Users\Rick\AppData\Local\Temp\ccGOCLVW.s 			page 104


 5965 0030 03D1     		bne	.L721
 5966 0032 2568     		ldr	r5, [r4]
 5967 0034 45F00105 		orr	r5, r5, #1
 5968 0038 2560     		str	r5, [r4]
 5969              	.L721:
 5970 003a 0568     		ldr	r5, [r0]
 5971 003c 2C68     		ldr	r4, [r5]
 5972 003e 24F40064 		bic	r4, r4, #2048
 5973 0042 2C60     		str	r4, [r5]
 5974 0044 2924     		movs	r4, #41
 5975 0046 80F83D40 		strb	r4, [r0, #61]
 5976 004a 2024     		movs	r4, #32
 5977 004c 80F83E40 		strb	r4, [r0, #62]
 5978 0050 0024     		movs	r4, #0
 5979 0052 0464     		str	r4, [r0, #64]
 5980 0054 4162     		str	r1, [r0, #36]
 5981 0056 4285     		strh	r2, [r0, #42]	@ movhi
 5982 0058 428D     		ldrh	r2, [r0, #42]
 5983 005a 0285     		strh	r2, [r0, #40]	@ movhi
 5984 005c C362     		str	r3, [r0, #44]
 5985 005e 0194     		str	r4, [sp, #4]
 5986 0060 0368     		ldr	r3, [r0]
 5987 0062 5A69     		ldr	r2, [r3, #20]
 5988 0064 0192     		str	r2, [sp, #4]
 5989 0066 9A69     		ldr	r2, [r3, #24]
 5990 0068 0192     		str	r2, [sp, #4]
 5991 006a 019A     		ldr	r2, [sp, #4]
 5992 006c 80F83C40 		strb	r4, [r0, #60]
 5993 0070 5A68     		ldr	r2, [r3, #4]
 5994 0072 42F4E062 		orr	r2, r2, #1792
 5995 0076 5A60     		str	r2, [r3, #4]
 5996 0078 2046     		mov	r0, r4
 5997              	.L720:
 5998 007a 02B0     		add	sp, sp, #8
 5999              		@ sp needed
 6000 007c 30BC     		pop	{r4, r5}
 6001 007e 7047     		bx	lr
 6002              	.L722:
 6003 0080 0220     		movs	r0, #2
 6004 0082 7047     		bx	lr
 6005              	.L723:
 6006 0084 0120     		movs	r0, #1
 6007 0086 7047     		bx	lr
 6008              	.L724:
 6009 0088 0120     		movs	r0, #1
 6010 008a 7047     		bx	lr
 6011              	.L725:
 6012 008c 0220     		movs	r0, #2
 6013 008e F4E7     		b	.L720
 6015              		.section	.text.HAL_I2C_Slave_Seq_Transmit_DMA,"ax",%progbits
 6016              		.align	1
 6017              		.global	HAL_I2C_Slave_Seq_Transmit_DMA
 6018              		.syntax unified
 6019              		.thumb
 6020              		.thumb_func
 6022              	HAL_I2C_Slave_Seq_Transmit_DMA:
 6023              		@ args = 0, pretend = 0, frame = 8
ARM GAS  C:\Users\Rick\AppData\Local\Temp\ccGOCLVW.s 			page 105


 6024              		@ frame_needed = 0, uses_anonymous_args = 0
 6025 0000 F0B5     		push	{r4, r5, r6, r7, lr}
 6026 0002 83B0     		sub	sp, sp, #12
 6027 0004 0446     		mov	r4, r0
 6028 0006 90F83D00 		ldrb	r0, [r0, #61]	@ zero_extendqisi2
 6029 000a 00F02800 		and	r0, r0, #40
 6030 000e 2828     		cmp	r0, #40
 6031 0010 40F0B380 		bne	.L738
 6032 0014 0F46     		mov	r7, r1
 6033 0016 1646     		mov	r6, r2
 6034 0018 1D46     		mov	r5, r3
 6035 001a 0029     		cmp	r1, #0
 6036 001c 00F0B080 		beq	.L739
 6037 0020 002A     		cmp	r2, #0
 6038 0022 00F0AF80 		beq	.L740
 6039 0026 94F83C30 		ldrb	r3, [r4, #60]	@ zero_extendqisi2
 6040 002a 012B     		cmp	r3, #1
 6041 002c 00F0AC80 		beq	.L741
 6042 0030 0123     		movs	r3, #1
 6043 0032 84F83C30 		strb	r3, [r4, #60]
 6044 0036 2268     		ldr	r2, [r4]
 6045 0038 5368     		ldr	r3, [r2, #4]
 6046 003a 23F44073 		bic	r3, r3, #768
 6047 003e 5360     		str	r3, [r2, #4]
 6048 0040 94F83D30 		ldrb	r3, [r4, #61]	@ zero_extendqisi2
 6049 0044 2A2B     		cmp	r3, #42
 6050 0046 42D0     		beq	.L744
 6051 0048 94F83D30 		ldrb	r3, [r4, #61]	@ zero_extendqisi2
 6052 004c 292B     		cmp	r3, #41
 6053 004e 56D0     		beq	.L745
 6054              	.L733:
 6055 0050 2368     		ldr	r3, [r4]
 6056 0052 1A68     		ldr	r2, [r3]
 6057 0054 12F0010F 		tst	r2, #1
 6058 0058 03D1     		bne	.L734
 6059 005a 1A68     		ldr	r2, [r3]
 6060 005c 42F00102 		orr	r2, r2, #1
 6061 0060 1A60     		str	r2, [r3]
 6062              	.L734:
 6063 0062 2268     		ldr	r2, [r4]
 6064 0064 1368     		ldr	r3, [r2]
 6065 0066 23F40063 		bic	r3, r3, #2048
 6066 006a 1360     		str	r3, [r2]
 6067 006c 2923     		movs	r3, #41
 6068 006e 84F83D30 		strb	r3, [r4, #61]
 6069 0072 2023     		movs	r3, #32
 6070 0074 84F83E30 		strb	r3, [r4, #62]
 6071 0078 0023     		movs	r3, #0
 6072 007a 2364     		str	r3, [r4, #64]
 6073 007c 6762     		str	r7, [r4, #36]
 6074 007e 6685     		strh	r6, [r4, #42]	@ movhi
 6075 0080 638D     		ldrh	r3, [r4, #42]
 6076 0082 2385     		strh	r3, [r4, #40]	@ movhi
 6077 0084 E562     		str	r5, [r4, #44]
 6078 0086 636B     		ldr	r3, [r4, #52]
 6079 0088 002B     		cmp	r3, #0
 6080 008a 4FD0     		beq	.L735
ARM GAS  C:\Users\Rick\AppData\Local\Temp\ccGOCLVW.s 			page 106


 6081 008c 3F4A     		ldr	r2, .L746
 6082 008e DA63     		str	r2, [r3, #60]
 6083 0090 636B     		ldr	r3, [r4, #52]
 6084 0092 3F4A     		ldr	r2, .L746+4
 6085 0094 DA64     		str	r2, [r3, #76]
 6086 0096 626B     		ldr	r2, [r4, #52]
 6087 0098 0023     		movs	r3, #0
 6088 009a 1364     		str	r3, [r2, #64]
 6089 009c 626B     		ldr	r2, [r4, #52]
 6090 009e 1365     		str	r3, [r2, #80]
 6091 00a0 2268     		ldr	r2, [r4]
 6092 00a2 238D     		ldrh	r3, [r4, #40]
 6093 00a4 1032     		adds	r2, r2, #16
 6094 00a6 616A     		ldr	r1, [r4, #36]
 6095 00a8 606B     		ldr	r0, [r4, #52]
 6096 00aa FFF7FEFF 		bl	HAL_DMA_Start_IT
 6097 00ae 0028     		cmp	r0, #0
 6098 00b0 4AD0     		beq	.L736
 6099 00b2 2023     		movs	r3, #32
 6100 00b4 84F83D30 		strb	r3, [r4, #61]
 6101 00b8 0022     		movs	r2, #0
 6102 00ba 84F83E20 		strb	r2, [r4, #62]
 6103 00be 236C     		ldr	r3, [r4, #64]
 6104 00c0 43F01003 		orr	r3, r3, #16
 6105 00c4 2364     		str	r3, [r4, #64]
 6106 00c6 84F83C20 		strb	r2, [r4, #60]
 6107 00ca 0120     		movs	r0, #1
 6108 00cc 56E0     		b	.L731
 6109              	.L744:
 6110 00ce 2368     		ldr	r3, [r4]
 6111 00d0 5A68     		ldr	r2, [r3, #4]
 6112 00d2 12F4006F 		tst	r2, #2048
 6113 00d6 BBD0     		beq	.L733
 6114 00d8 A26B     		ldr	r2, [r4, #56]
 6115 00da 002A     		cmp	r2, #0
 6116 00dc B8D0     		beq	.L733
 6117 00de 5A68     		ldr	r2, [r3, #4]
 6118 00e0 22F40062 		bic	r2, r2, #2048
 6119 00e4 5A60     		str	r2, [r3, #4]
 6120 00e6 A36B     		ldr	r3, [r4, #56]
 6121 00e8 2A4A     		ldr	r2, .L746+8
 6122 00ea 1A65     		str	r2, [r3, #80]
 6123 00ec A06B     		ldr	r0, [r4, #56]
 6124 00ee FFF7FEFF 		bl	HAL_DMA_Abort_IT
 6125 00f2 0028     		cmp	r0, #0
 6126 00f4 ACD0     		beq	.L733
 6127 00f6 A06B     		ldr	r0, [r4, #56]
 6128 00f8 036D     		ldr	r3, [r0, #80]
 6129 00fa 9847     		blx	r3
 6130 00fc A8E7     		b	.L733
 6131              	.L745:
 6132 00fe 2368     		ldr	r3, [r4]
 6133 0100 5A68     		ldr	r2, [r3, #4]
 6134 0102 12F4006F 		tst	r2, #2048
 6135 0106 A3D0     		beq	.L733
 6136 0108 5A68     		ldr	r2, [r3, #4]
 6137 010a 22F40062 		bic	r2, r2, #2048
ARM GAS  C:\Users\Rick\AppData\Local\Temp\ccGOCLVW.s 			page 107


 6138 010e 5A60     		str	r2, [r3, #4]
 6139 0110 636B     		ldr	r3, [r4, #52]
 6140 0112 002B     		cmp	r3, #0
 6141 0114 9CD0     		beq	.L733
 6142 0116 1F4A     		ldr	r2, .L746+8
 6143 0118 1A65     		str	r2, [r3, #80]
 6144 011a 606B     		ldr	r0, [r4, #52]
 6145 011c FFF7FEFF 		bl	HAL_DMA_Abort_IT
 6146 0120 0028     		cmp	r0, #0
 6147 0122 95D0     		beq	.L733
 6148 0124 606B     		ldr	r0, [r4, #52]
 6149 0126 036D     		ldr	r3, [r0, #80]
 6150 0128 9847     		blx	r3
 6151 012a 91E7     		b	.L733
 6152              	.L735:
 6153 012c 2823     		movs	r3, #40
 6154 012e 84F83D30 		strb	r3, [r4, #61]
 6155 0132 0022     		movs	r2, #0
 6156 0134 84F83E20 		strb	r2, [r4, #62]
 6157 0138 236C     		ldr	r3, [r4, #64]
 6158 013a 43F08003 		orr	r3, r3, #128
 6159 013e 2364     		str	r3, [r4, #64]
 6160 0140 84F83C20 		strb	r2, [r4, #60]
 6161 0144 0120     		movs	r0, #1
 6162 0146 19E0     		b	.L731
 6163              	.L736:
 6164 0148 2268     		ldr	r2, [r4]
 6165 014a 1368     		ldr	r3, [r2]
 6166 014c 43F48063 		orr	r3, r3, #1024
 6167 0150 1360     		str	r3, [r2]
 6168 0152 0022     		movs	r2, #0
 6169 0154 0192     		str	r2, [sp, #4]
 6170 0156 2368     		ldr	r3, [r4]
 6171 0158 5969     		ldr	r1, [r3, #20]
 6172 015a 0191     		str	r1, [sp, #4]
 6173 015c 9969     		ldr	r1, [r3, #24]
 6174 015e 0191     		str	r1, [sp, #4]
 6175 0160 0199     		ldr	r1, [sp, #4]
 6176 0162 84F83C20 		strb	r2, [r4, #60]
 6177 0166 5A68     		ldr	r2, [r3, #4]
 6178 0168 42F44072 		orr	r2, r2, #768
 6179 016c 5A60     		str	r2, [r3, #4]
 6180 016e 2268     		ldr	r2, [r4]
 6181 0170 5368     		ldr	r3, [r2, #4]
 6182 0172 43F40063 		orr	r3, r3, #2048
 6183 0176 5360     		str	r3, [r2, #4]
 6184 0178 00E0     		b	.L731
 6185              	.L738:
 6186 017a 0220     		movs	r0, #2
 6187              	.L731:
 6188 017c 03B0     		add	sp, sp, #12
 6189              		@ sp needed
 6190 017e F0BD     		pop	{r4, r5, r6, r7, pc}
 6191              	.L739:
 6192 0180 0120     		movs	r0, #1
 6193 0182 FBE7     		b	.L731
 6194              	.L740:
ARM GAS  C:\Users\Rick\AppData\Local\Temp\ccGOCLVW.s 			page 108


 6195 0184 0120     		movs	r0, #1
 6196 0186 F9E7     		b	.L731
 6197              	.L741:
 6198 0188 0220     		movs	r0, #2
 6199 018a F7E7     		b	.L731
 6200              	.L747:
 6201              		.align	2
 6202              	.L746:
 6203 018c 00000000 		.word	I2C_DMAXferCplt
 6204 0190 00000000 		.word	I2C_DMAError
 6205 0194 00000000 		.word	I2C_DMAAbort
 6207              		.section	.text.HAL_I2C_Slave_Seq_Receive_IT,"ax",%progbits
 6208              		.align	1
 6209              		.global	HAL_I2C_Slave_Seq_Receive_IT
 6210              		.syntax unified
 6211              		.thumb
 6212              		.thumb_func
 6214              	HAL_I2C_Slave_Seq_Receive_IT:
 6215              		@ args = 0, pretend = 0, frame = 8
 6216              		@ frame_needed = 0, uses_anonymous_args = 0
 6217              		@ link register save eliminated.
 6218 0000 90F83DC0 		ldrb	ip, [r0, #61]	@ zero_extendqisi2
 6219 0004 0CF0280C 		and	ip, ip, #40
 6220 0008 BCF1280F 		cmp	ip, #40
 6221 000c 38D1     		bne	.L751
 6222 000e 0029     		cmp	r1, #0
 6223 0010 38D0     		beq	.L752
 6224 0012 002A     		cmp	r2, #0
 6225 0014 38D0     		beq	.L753
 6226 0016 30B4     		push	{r4, r5}
 6227 0018 82B0     		sub	sp, sp, #8
 6228 001a 90F83C40 		ldrb	r4, [r0, #60]	@ zero_extendqisi2
 6229 001e 012C     		cmp	r4, #1
 6230 0020 34D0     		beq	.L754
 6231 0022 0124     		movs	r4, #1
 6232 0024 80F83C40 		strb	r4, [r0, #60]
 6233 0028 0468     		ldr	r4, [r0]
 6234 002a 2568     		ldr	r5, [r4]
 6235 002c 15F0010F 		tst	r5, #1
 6236 0030 03D1     		bne	.L750
 6237 0032 2568     		ldr	r5, [r4]
 6238 0034 45F00105 		orr	r5, r5, #1
 6239 0038 2560     		str	r5, [r4]
 6240              	.L750:
 6241 003a 0568     		ldr	r5, [r0]
 6242 003c 2C68     		ldr	r4, [r5]
 6243 003e 24F40064 		bic	r4, r4, #2048
 6244 0042 2C60     		str	r4, [r5]
 6245 0044 2A24     		movs	r4, #42
 6246 0046 80F83D40 		strb	r4, [r0, #61]
 6247 004a 2024     		movs	r4, #32
 6248 004c 80F83E40 		strb	r4, [r0, #62]
 6249 0050 0024     		movs	r4, #0
 6250 0052 0464     		str	r4, [r0, #64]
 6251 0054 4162     		str	r1, [r0, #36]
 6252 0056 4285     		strh	r2, [r0, #42]	@ movhi
 6253 0058 428D     		ldrh	r2, [r0, #42]
ARM GAS  C:\Users\Rick\AppData\Local\Temp\ccGOCLVW.s 			page 109


 6254 005a 0285     		strh	r2, [r0, #40]	@ movhi
 6255 005c C362     		str	r3, [r0, #44]
 6256 005e 0194     		str	r4, [sp, #4]
 6257 0060 0368     		ldr	r3, [r0]
 6258 0062 5A69     		ldr	r2, [r3, #20]
 6259 0064 0192     		str	r2, [sp, #4]
 6260 0066 9A69     		ldr	r2, [r3, #24]
 6261 0068 0192     		str	r2, [sp, #4]
 6262 006a 019A     		ldr	r2, [sp, #4]
 6263 006c 80F83C40 		strb	r4, [r0, #60]
 6264 0070 5A68     		ldr	r2, [r3, #4]
 6265 0072 42F4E062 		orr	r2, r2, #1792
 6266 0076 5A60     		str	r2, [r3, #4]
 6267 0078 2046     		mov	r0, r4
 6268              	.L749:
 6269 007a 02B0     		add	sp, sp, #8
 6270              		@ sp needed
 6271 007c 30BC     		pop	{r4, r5}
 6272 007e 7047     		bx	lr
 6273              	.L751:
 6274 0080 0220     		movs	r0, #2
 6275 0082 7047     		bx	lr
 6276              	.L752:
 6277 0084 0120     		movs	r0, #1
 6278 0086 7047     		bx	lr
 6279              	.L753:
 6280 0088 0120     		movs	r0, #1
 6281 008a 7047     		bx	lr
 6282              	.L754:
 6283 008c 0220     		movs	r0, #2
 6284 008e F4E7     		b	.L749
 6286              		.section	.text.HAL_I2C_Slave_Seq_Receive_DMA,"ax",%progbits
 6287              		.align	1
 6288              		.global	HAL_I2C_Slave_Seq_Receive_DMA
 6289              		.syntax unified
 6290              		.thumb
 6291              		.thumb_func
 6293              	HAL_I2C_Slave_Seq_Receive_DMA:
 6294              		@ args = 0, pretend = 0, frame = 8
 6295              		@ frame_needed = 0, uses_anonymous_args = 0
 6296 0000 F0B5     		push	{r4, r5, r6, r7, lr}
 6297 0002 83B0     		sub	sp, sp, #12
 6298 0004 0446     		mov	r4, r0
 6299 0006 90F83D00 		ldrb	r0, [r0, #61]	@ zero_extendqisi2
 6300 000a 00F02800 		and	r0, r0, #40
 6301 000e 2828     		cmp	r0, #40
 6302 0010 40F0B380 		bne	.L767
 6303 0014 0F46     		mov	r7, r1
 6304 0016 1646     		mov	r6, r2
 6305 0018 1D46     		mov	r5, r3
 6306 001a 0029     		cmp	r1, #0
 6307 001c 00F0B080 		beq	.L768
 6308 0020 002A     		cmp	r2, #0
 6309 0022 00F0AF80 		beq	.L769
 6310 0026 94F83C30 		ldrb	r3, [r4, #60]	@ zero_extendqisi2
 6311 002a 012B     		cmp	r3, #1
 6312 002c 00F0AC80 		beq	.L770
ARM GAS  C:\Users\Rick\AppData\Local\Temp\ccGOCLVW.s 			page 110


 6313 0030 0123     		movs	r3, #1
 6314 0032 84F83C30 		strb	r3, [r4, #60]
 6315 0036 2268     		ldr	r2, [r4]
 6316 0038 5368     		ldr	r3, [r2, #4]
 6317 003a 23F44073 		bic	r3, r3, #768
 6318 003e 5360     		str	r3, [r2, #4]
 6319 0040 94F83D30 		ldrb	r3, [r4, #61]	@ zero_extendqisi2
 6320 0044 2A2B     		cmp	r3, #42
 6321 0046 42D0     		beq	.L773
 6322 0048 94F83D30 		ldrb	r3, [r4, #61]	@ zero_extendqisi2
 6323 004c 292B     		cmp	r3, #41
 6324 004e 56D0     		beq	.L774
 6325              	.L762:
 6326 0050 2368     		ldr	r3, [r4]
 6327 0052 1A68     		ldr	r2, [r3]
 6328 0054 12F0010F 		tst	r2, #1
 6329 0058 03D1     		bne	.L763
 6330 005a 1A68     		ldr	r2, [r3]
 6331 005c 42F00102 		orr	r2, r2, #1
 6332 0060 1A60     		str	r2, [r3]
 6333              	.L763:
 6334 0062 2268     		ldr	r2, [r4]
 6335 0064 1368     		ldr	r3, [r2]
 6336 0066 23F40063 		bic	r3, r3, #2048
 6337 006a 1360     		str	r3, [r2]
 6338 006c 2A23     		movs	r3, #42
 6339 006e 84F83D30 		strb	r3, [r4, #61]
 6340 0072 2023     		movs	r3, #32
 6341 0074 84F83E30 		strb	r3, [r4, #62]
 6342 0078 0023     		movs	r3, #0
 6343 007a 2364     		str	r3, [r4, #64]
 6344 007c 6762     		str	r7, [r4, #36]
 6345 007e 6685     		strh	r6, [r4, #42]	@ movhi
 6346 0080 638D     		ldrh	r3, [r4, #42]
 6347 0082 2385     		strh	r3, [r4, #40]	@ movhi
 6348 0084 E562     		str	r5, [r4, #44]
 6349 0086 A36B     		ldr	r3, [r4, #56]
 6350 0088 002B     		cmp	r3, #0
 6351 008a 4FD0     		beq	.L764
 6352 008c 3F4A     		ldr	r2, .L775
 6353 008e DA63     		str	r2, [r3, #60]
 6354 0090 A36B     		ldr	r3, [r4, #56]
 6355 0092 3F4A     		ldr	r2, .L775+4
 6356 0094 DA64     		str	r2, [r3, #76]
 6357 0096 A26B     		ldr	r2, [r4, #56]
 6358 0098 0023     		movs	r3, #0
 6359 009a 1364     		str	r3, [r2, #64]
 6360 009c A26B     		ldr	r2, [r4, #56]
 6361 009e 1365     		str	r3, [r2, #80]
 6362 00a0 2168     		ldr	r1, [r4]
 6363 00a2 238D     		ldrh	r3, [r4, #40]
 6364 00a4 626A     		ldr	r2, [r4, #36]
 6365 00a6 1031     		adds	r1, r1, #16
 6366 00a8 A06B     		ldr	r0, [r4, #56]
 6367 00aa FFF7FEFF 		bl	HAL_DMA_Start_IT
 6368 00ae 0028     		cmp	r0, #0
 6369 00b0 4AD0     		beq	.L765
ARM GAS  C:\Users\Rick\AppData\Local\Temp\ccGOCLVW.s 			page 111


 6370 00b2 2023     		movs	r3, #32
 6371 00b4 84F83D30 		strb	r3, [r4, #61]
 6372 00b8 0022     		movs	r2, #0
 6373 00ba 84F83E20 		strb	r2, [r4, #62]
 6374 00be 236C     		ldr	r3, [r4, #64]
 6375 00c0 43F01003 		orr	r3, r3, #16
 6376 00c4 2364     		str	r3, [r4, #64]
 6377 00c6 84F83C20 		strb	r2, [r4, #60]
 6378 00ca 0120     		movs	r0, #1
 6379 00cc 56E0     		b	.L760
 6380              	.L773:
 6381 00ce 2368     		ldr	r3, [r4]
 6382 00d0 5A68     		ldr	r2, [r3, #4]
 6383 00d2 12F4006F 		tst	r2, #2048
 6384 00d6 BBD0     		beq	.L762
 6385 00d8 A26B     		ldr	r2, [r4, #56]
 6386 00da 002A     		cmp	r2, #0
 6387 00dc B8D0     		beq	.L762
 6388 00de 5A68     		ldr	r2, [r3, #4]
 6389 00e0 22F40062 		bic	r2, r2, #2048
 6390 00e4 5A60     		str	r2, [r3, #4]
 6391 00e6 A36B     		ldr	r3, [r4, #56]
 6392 00e8 2A4A     		ldr	r2, .L775+8
 6393 00ea 1A65     		str	r2, [r3, #80]
 6394 00ec A06B     		ldr	r0, [r4, #56]
 6395 00ee FFF7FEFF 		bl	HAL_DMA_Abort_IT
 6396 00f2 0028     		cmp	r0, #0
 6397 00f4 ACD0     		beq	.L762
 6398 00f6 A06B     		ldr	r0, [r4, #56]
 6399 00f8 036D     		ldr	r3, [r0, #80]
 6400 00fa 9847     		blx	r3
 6401 00fc A8E7     		b	.L762
 6402              	.L774:
 6403 00fe 2368     		ldr	r3, [r4]
 6404 0100 5A68     		ldr	r2, [r3, #4]
 6405 0102 12F4006F 		tst	r2, #2048
 6406 0106 A3D0     		beq	.L762
 6407 0108 5A68     		ldr	r2, [r3, #4]
 6408 010a 22F40062 		bic	r2, r2, #2048
 6409 010e 5A60     		str	r2, [r3, #4]
 6410 0110 636B     		ldr	r3, [r4, #52]
 6411 0112 002B     		cmp	r3, #0
 6412 0114 9CD0     		beq	.L762
 6413 0116 1F4A     		ldr	r2, .L775+8
 6414 0118 1A65     		str	r2, [r3, #80]
 6415 011a 606B     		ldr	r0, [r4, #52]
 6416 011c FFF7FEFF 		bl	HAL_DMA_Abort_IT
 6417 0120 0028     		cmp	r0, #0
 6418 0122 95D0     		beq	.L762
 6419 0124 606B     		ldr	r0, [r4, #52]
 6420 0126 036D     		ldr	r3, [r0, #80]
 6421 0128 9847     		blx	r3
 6422 012a 91E7     		b	.L762
 6423              	.L764:
 6424 012c 2823     		movs	r3, #40
 6425 012e 84F83D30 		strb	r3, [r4, #61]
 6426 0132 0022     		movs	r2, #0
ARM GAS  C:\Users\Rick\AppData\Local\Temp\ccGOCLVW.s 			page 112


 6427 0134 84F83E20 		strb	r2, [r4, #62]
 6428 0138 236C     		ldr	r3, [r4, #64]
 6429 013a 43F08003 		orr	r3, r3, #128
 6430 013e 2364     		str	r3, [r4, #64]
 6431 0140 84F83C20 		strb	r2, [r4, #60]
 6432 0144 0120     		movs	r0, #1
 6433 0146 19E0     		b	.L760
 6434              	.L765:
 6435 0148 2268     		ldr	r2, [r4]
 6436 014a 1368     		ldr	r3, [r2]
 6437 014c 43F48063 		orr	r3, r3, #1024
 6438 0150 1360     		str	r3, [r2]
 6439 0152 0022     		movs	r2, #0
 6440 0154 0192     		str	r2, [sp, #4]
 6441 0156 2368     		ldr	r3, [r4]
 6442 0158 5969     		ldr	r1, [r3, #20]
 6443 015a 0191     		str	r1, [sp, #4]
 6444 015c 9969     		ldr	r1, [r3, #24]
 6445 015e 0191     		str	r1, [sp, #4]
 6446 0160 0199     		ldr	r1, [sp, #4]
 6447 0162 84F83C20 		strb	r2, [r4, #60]
 6448 0166 5A68     		ldr	r2, [r3, #4]
 6449 0168 42F40062 		orr	r2, r2, #2048
 6450 016c 5A60     		str	r2, [r3, #4]
 6451 016e 2268     		ldr	r2, [r4]
 6452 0170 5368     		ldr	r3, [r2, #4]
 6453 0172 43F44073 		orr	r3, r3, #768
 6454 0176 5360     		str	r3, [r2, #4]
 6455 0178 00E0     		b	.L760
 6456              	.L767:
 6457 017a 0220     		movs	r0, #2
 6458              	.L760:
 6459 017c 03B0     		add	sp, sp, #12
 6460              		@ sp needed
 6461 017e F0BD     		pop	{r4, r5, r6, r7, pc}
 6462              	.L768:
 6463 0180 0120     		movs	r0, #1
 6464 0182 FBE7     		b	.L760
 6465              	.L769:
 6466 0184 0120     		movs	r0, #1
 6467 0186 F9E7     		b	.L760
 6468              	.L770:
 6469 0188 0220     		movs	r0, #2
 6470 018a F7E7     		b	.L760
 6471              	.L776:
 6472              		.align	2
 6473              	.L775:
 6474 018c 00000000 		.word	I2C_DMAXferCplt
 6475 0190 00000000 		.word	I2C_DMAError
 6476 0194 00000000 		.word	I2C_DMAAbort
 6478              		.section	.text.HAL_I2C_EnableListen_IT,"ax",%progbits
 6479              		.align	1
 6480              		.global	HAL_I2C_EnableListen_IT
 6481              		.syntax unified
 6482              		.thumb
 6483              		.thumb_func
 6485              	HAL_I2C_EnableListen_IT:
ARM GAS  C:\Users\Rick\AppData\Local\Temp\ccGOCLVW.s 			page 113


 6486              		@ args = 0, pretend = 0, frame = 0
 6487              		@ frame_needed = 0, uses_anonymous_args = 0
 6488              		@ link register save eliminated.
 6489 0000 90F83D30 		ldrb	r3, [r0, #61]	@ zero_extendqisi2
 6490 0004 202B     		cmp	r3, #32
 6491 0006 01D0     		beq	.L781
 6492 0008 0220     		movs	r0, #2
 6493 000a 7047     		bx	lr
 6494              	.L781:
 6495 000c 2823     		movs	r3, #40
 6496 000e 80F83D30 		strb	r3, [r0, #61]
 6497 0012 0368     		ldr	r3, [r0]
 6498 0014 1A68     		ldr	r2, [r3]
 6499 0016 12F0010F 		tst	r2, #1
 6500 001a 03D1     		bne	.L779
 6501 001c 1A68     		ldr	r2, [r3]
 6502 001e 42F00102 		orr	r2, r2, #1
 6503 0022 1A60     		str	r2, [r3]
 6504              	.L779:
 6505 0024 0268     		ldr	r2, [r0]
 6506 0026 1368     		ldr	r3, [r2]
 6507 0028 43F48063 		orr	r3, r3, #1024
 6508 002c 1360     		str	r3, [r2]
 6509 002e 0268     		ldr	r2, [r0]
 6510 0030 5368     		ldr	r3, [r2, #4]
 6511 0032 43F44073 		orr	r3, r3, #768
 6512 0036 5360     		str	r3, [r2, #4]
 6513 0038 0020     		movs	r0, #0
 6514 003a 7047     		bx	lr
 6516              		.section	.text.HAL_I2C_DisableListen_IT,"ax",%progbits
 6517              		.align	1
 6518              		.global	HAL_I2C_DisableListen_IT
 6519              		.syntax unified
 6520              		.thumb
 6521              		.thumb_func
 6523              	HAL_I2C_DisableListen_IT:
 6524              		@ args = 0, pretend = 0, frame = 0
 6525              		@ frame_needed = 0, uses_anonymous_args = 0
 6526              		@ link register save eliminated.
 6527 0000 90F83D30 		ldrb	r3, [r0, #61]	@ zero_extendqisi2
 6528 0004 282B     		cmp	r3, #40
 6529 0006 01D0     		beq	.L785
 6530 0008 0220     		movs	r0, #2
 6531 000a 7047     		bx	lr
 6532              	.L785:
 6533 000c 90F83D20 		ldrb	r2, [r0, #61]	@ zero_extendqisi2
 6534 0010 90F83E30 		ldrb	r3, [r0, #62]	@ zero_extendqisi2
 6535 0014 02F00302 		and	r2, r2, #3
 6536 0018 1343     		orrs	r3, r3, r2
 6537 001a 0363     		str	r3, [r0, #48]
 6538 001c 2023     		movs	r3, #32
 6539 001e 80F83D30 		strb	r3, [r0, #61]
 6540 0022 0023     		movs	r3, #0
 6541 0024 80F83E30 		strb	r3, [r0, #62]
 6542 0028 0168     		ldr	r1, [r0]
 6543 002a 0A68     		ldr	r2, [r1]
 6544 002c 22F48062 		bic	r2, r2, #1024
ARM GAS  C:\Users\Rick\AppData\Local\Temp\ccGOCLVW.s 			page 114


 6545 0030 0A60     		str	r2, [r1]
 6546 0032 0168     		ldr	r1, [r0]
 6547 0034 4A68     		ldr	r2, [r1, #4]
 6548 0036 22F44072 		bic	r2, r2, #768
 6549 003a 4A60     		str	r2, [r1, #4]
 6550 003c 1846     		mov	r0, r3
 6551 003e 7047     		bx	lr
 6553              		.section	.text.HAL_I2C_MasterTxCpltCallback,"ax",%progbits
 6554              		.align	1
 6555              		.weak	HAL_I2C_MasterTxCpltCallback
 6556              		.syntax unified
 6557              		.thumb
 6558              		.thumb_func
 6560              	HAL_I2C_MasterTxCpltCallback:
 6561              		@ args = 0, pretend = 0, frame = 0
 6562              		@ frame_needed = 0, uses_anonymous_args = 0
 6563              		@ link register save eliminated.
 6564 0000 7047     		bx	lr
 6566              		.section	.text.HAL_I2C_MasterRxCpltCallback,"ax",%progbits
 6567              		.align	1
 6568              		.weak	HAL_I2C_MasterRxCpltCallback
 6569              		.syntax unified
 6570              		.thumb
 6571              		.thumb_func
 6573              	HAL_I2C_MasterRxCpltCallback:
 6574              		@ args = 0, pretend = 0, frame = 0
 6575              		@ frame_needed = 0, uses_anonymous_args = 0
 6576              		@ link register save eliminated.
 6577 0000 7047     		bx	lr
 6579              		.section	.text.HAL_I2C_SlaveTxCpltCallback,"ax",%progbits
 6580              		.align	1
 6581              		.weak	HAL_I2C_SlaveTxCpltCallback
 6582              		.syntax unified
 6583              		.thumb
 6584              		.thumb_func
 6586              	HAL_I2C_SlaveTxCpltCallback:
 6587              		@ args = 0, pretend = 0, frame = 0
 6588              		@ frame_needed = 0, uses_anonymous_args = 0
 6589              		@ link register save eliminated.
 6590 0000 7047     		bx	lr
 6592              		.section	.text.I2C_SlaveTransmit_TXE,"ax",%progbits
 6593              		.align	1
 6594              		.syntax unified
 6595              		.thumb
 6596              		.thumb_func
 6598              	I2C_SlaveTransmit_TXE:
 6599              		@ args = 0, pretend = 0, frame = 0
 6600              		@ frame_needed = 0, uses_anonymous_args = 0
 6601 0000 08B5     		push	{r3, lr}
 6602 0002 90F83D30 		ldrb	r3, [r0, #61]	@ zero_extendqisi2
 6603 0006 DAB2     		uxtb	r2, r3
 6604 0008 438D     		ldrh	r3, [r0, #42]
 6605 000a 9BB2     		uxth	r3, r3
 6606 000c 83B1     		cbz	r3, .L789
 6607 000e 416A     		ldr	r1, [r0, #36]
 6608 0010 0368     		ldr	r3, [r0]
 6609 0012 0978     		ldrb	r1, [r1]	@ zero_extendqisi2
ARM GAS  C:\Users\Rick\AppData\Local\Temp\ccGOCLVW.s 			page 115


 6610 0014 1961     		str	r1, [r3, #16]
 6611 0016 436A     		ldr	r3, [r0, #36]
 6612 0018 0133     		adds	r3, r3, #1
 6613 001a 4362     		str	r3, [r0, #36]
 6614 001c 438D     		ldrh	r3, [r0, #42]
 6615 001e 9BB2     		uxth	r3, r3
 6616 0020 013B     		subs	r3, r3, #1
 6617 0022 9BB2     		uxth	r3, r3
 6618 0024 4385     		strh	r3, [r0, #42]	@ movhi
 6619 0026 438D     		ldrh	r3, [r0, #42]
 6620 0028 9BB2     		uxth	r3, r3
 6621 002a 0BB9     		cbnz	r3, .L789
 6622 002c 292A     		cmp	r2, #41
 6623 002e 00D0     		beq	.L792
 6624              	.L789:
 6625 0030 08BD     		pop	{r3, pc}
 6626              	.L792:
 6627 0032 0268     		ldr	r2, [r0]
 6628 0034 5368     		ldr	r3, [r2, #4]
 6629 0036 23F48063 		bic	r3, r3, #1024
 6630 003a 5360     		str	r3, [r2, #4]
 6631 003c 2123     		movs	r3, #33
 6632 003e 0363     		str	r3, [r0, #48]
 6633 0040 2823     		movs	r3, #40
 6634 0042 80F83D30 		strb	r3, [r0, #61]
 6635 0046 FFF7FEFF 		bl	HAL_I2C_SlaveTxCpltCallback
 6636 004a F1E7     		b	.L789
 6638              		.section	.text.HAL_I2C_SlaveRxCpltCallback,"ax",%progbits
 6639              		.align	1
 6640              		.weak	HAL_I2C_SlaveRxCpltCallback
 6641              		.syntax unified
 6642              		.thumb
 6643              		.thumb_func
 6645              	HAL_I2C_SlaveRxCpltCallback:
 6646              		@ args = 0, pretend = 0, frame = 0
 6647              		@ frame_needed = 0, uses_anonymous_args = 0
 6648              		@ link register save eliminated.
 6649 0000 7047     		bx	lr
 6651              		.section	.text.I2C_SlaveReceive_RXNE,"ax",%progbits
 6652              		.align	1
 6653              		.syntax unified
 6654              		.thumb
 6655              		.thumb_func
 6657              	I2C_SlaveReceive_RXNE:
 6658              		@ args = 0, pretend = 0, frame = 0
 6659              		@ frame_needed = 0, uses_anonymous_args = 0
 6660 0000 08B5     		push	{r3, lr}
 6661 0002 90F83D30 		ldrb	r3, [r0, #61]	@ zero_extendqisi2
 6662 0006 DAB2     		uxtb	r2, r3
 6663 0008 438D     		ldrh	r3, [r0, #42]
 6664 000a 9BB2     		uxth	r3, r3
 6665 000c 83B1     		cbz	r3, .L794
 6666 000e 0368     		ldr	r3, [r0]
 6667 0010 1969     		ldr	r1, [r3, #16]
 6668 0012 436A     		ldr	r3, [r0, #36]
 6669 0014 1970     		strb	r1, [r3]
 6670 0016 436A     		ldr	r3, [r0, #36]
ARM GAS  C:\Users\Rick\AppData\Local\Temp\ccGOCLVW.s 			page 116


 6671 0018 0133     		adds	r3, r3, #1
 6672 001a 4362     		str	r3, [r0, #36]
 6673 001c 438D     		ldrh	r3, [r0, #42]
 6674 001e 9BB2     		uxth	r3, r3
 6675 0020 013B     		subs	r3, r3, #1
 6676 0022 9BB2     		uxth	r3, r3
 6677 0024 4385     		strh	r3, [r0, #42]	@ movhi
 6678 0026 438D     		ldrh	r3, [r0, #42]
 6679 0028 9BB2     		uxth	r3, r3
 6680 002a 0BB9     		cbnz	r3, .L794
