ARM GAS  C:\Users\Rick\AppData\Local\Temp\cccDRXLh.s 			page 1


   1              		.cpu cortex-m4
   2              		.arch armv7e-m
   3              		.fpu fpv4-sp-d16
   4              		.eabi_attribute 27, 1
   5              		.eabi_attribute 28, 1
   6              		.eabi_attribute 20, 1
   7              		.eabi_attribute 21, 1
   8              		.eabi_attribute 23, 3
   9              		.eabi_attribute 24, 1
  10              		.eabi_attribute 25, 1
  11              		.eabi_attribute 26, 1
  12              		.eabi_attribute 30, 1
  13              		.eabi_attribute 34, 1
  14              		.eabi_attribute 18, 4
  15              		.file	"stm32f4xx_hal_tim.c"
  16              		.text
  17              		.section	.text.TIM_OC1_SetConfig,"ax",%progbits
  18              		.align	1
  19              		.syntax unified
  20              		.thumb
  21              		.thumb_func
  23              	TIM_OC1_SetConfig:
  24              		@ args = 0, pretend = 0, frame = 0
  25              		@ frame_needed = 0, uses_anonymous_args = 0
  26              		@ link register save eliminated.
  27 0000 30B4     		push	{r4, r5}
  28 0002 036A     		ldr	r3, [r0, #32]
  29 0004 026A     		ldr	r2, [r0, #32]
  30 0006 22F00102 		bic	r2, r2, #1
  31 000a 0262     		str	r2, [r0, #32]
  32 000c 4268     		ldr	r2, [r0, #4]
  33 000e 8469     		ldr	r4, [r0, #24]
  34 0010 24F0730C 		bic	ip, r4, #115
  35 0014 0C68     		ldr	r4, [r1]
  36 0016 44EA0C04 		orr	r4, r4, ip
  37 001a 23F0020C 		bic	ip, r3, #2
  38 001e 8B68     		ldr	r3, [r1, #8]
  39 0020 43EA0C03 		orr	r3, r3, ip
  40 0024 114D     		ldr	r5, .L7
  41 0026 A842     		cmp	r0, r5
  42 0028 03D0     		beq	.L2
  43 002a 05F58065 		add	r5, r5, #1024
  44 002e A842     		cmp	r0, r5
  45 0030 05D1     		bne	.L3
  46              	.L2:
  47 0032 23F00803 		bic	r3, r3, #8
  48 0036 CD68     		ldr	r5, [r1, #12]
  49 0038 2B43     		orrs	r3, r3, r5
  50 003a 23F00403 		bic	r3, r3, #4
  51              	.L3:
  52 003e 0B4D     		ldr	r5, .L7
  53 0040 A842     		cmp	r0, r5
  54 0042 03D0     		beq	.L4
  55 0044 05F58065 		add	r5, r5, #1024
  56 0048 A842     		cmp	r0, r5
  57 004a 07D1     		bne	.L5
  58              	.L4:
ARM GAS  C:\Users\Rick\AppData\Local\Temp\cccDRXLh.s 			page 2


  59 004c 22F44072 		bic	r2, r2, #768
  60 0050 4D69     		ldr	r5, [r1, #20]
  61 0052 45EA020C 		orr	ip, r5, r2
  62 0056 8A69     		ldr	r2, [r1, #24]
  63 0058 42EA0C02 		orr	r2, r2, ip
  64              	.L5:
  65 005c 4260     		str	r2, [r0, #4]
  66 005e 8461     		str	r4, [r0, #24]
  67 0060 4A68     		ldr	r2, [r1, #4]
  68 0062 4263     		str	r2, [r0, #52]
  69 0064 0362     		str	r3, [r0, #32]
  70 0066 30BC     		pop	{r4, r5}
  71 0068 7047     		bx	lr
  72              	.L8:
  73 006a 00BF     		.align	2
  74              	.L7:
  75 006c 00000140 		.word	1073807360
  77              		.section	.text.TIM_OC3_SetConfig,"ax",%progbits
  78              		.align	1
  79              		.syntax unified
  80              		.thumb
  81              		.thumb_func
  83              	TIM_OC3_SetConfig:
  84              		@ args = 0, pretend = 0, frame = 0
  85              		@ frame_needed = 0, uses_anonymous_args = 0
  86              		@ link register save eliminated.
  87 0000 30B4     		push	{r4, r5}
  88 0002 036A     		ldr	r3, [r0, #32]
  89 0004 026A     		ldr	r2, [r0, #32]
  90 0006 22F48072 		bic	r2, r2, #256
  91 000a 0262     		str	r2, [r0, #32]
  92 000c 4268     		ldr	r2, [r0, #4]
  93 000e C469     		ldr	r4, [r0, #28]
  94 0010 24F0730C 		bic	ip, r4, #115
  95 0014 0C68     		ldr	r4, [r1]
  96 0016 44EA0C05 		orr	r5, r4, ip
  97 001a 23F40073 		bic	r3, r3, #512
  98 001e 8C68     		ldr	r4, [r1, #8]
  99 0020 43EA0423 		orr	r3, r3, r4, lsl #8
 100 0024 114C     		ldr	r4, .L15
 101 0026 A042     		cmp	r0, r4
 102 0028 03D0     		beq	.L10
 103 002a 04F58064 		add	r4, r4, #1024
 104 002e A042     		cmp	r0, r4
 105 0030 06D1     		bne	.L11
 106              	.L10:
 107 0032 23F40063 		bic	r3, r3, #2048
 108 0036 CC68     		ldr	r4, [r1, #12]
 109 0038 43EA0423 		orr	r3, r3, r4, lsl #8
 110 003c 23F48063 		bic	r3, r3, #1024
 111              	.L11:
 112 0040 0A4C     		ldr	r4, .L15
 113 0042 A042     		cmp	r0, r4
 114 0044 03D0     		beq	.L12
 115 0046 04F58064 		add	r4, r4, #1024
 116 004a A042     		cmp	r0, r4
 117 004c 07D1     		bne	.L13
ARM GAS  C:\Users\Rick\AppData\Local\Temp\cccDRXLh.s 			page 3


 118              	.L12:
 119 004e 22F44052 		bic	r2, r2, #12288
 120 0052 4C69     		ldr	r4, [r1, #20]
 121 0054 42EA0412 		orr	r2, r2, r4, lsl #4
 122 0058 8C69     		ldr	r4, [r1, #24]
 123 005a 42EA0412 		orr	r2, r2, r4, lsl #4
 124              	.L13:
 125 005e 4260     		str	r2, [r0, #4]
 126 0060 C561     		str	r5, [r0, #28]
 127 0062 4A68     		ldr	r2, [r1, #4]
 128 0064 C263     		str	r2, [r0, #60]
 129 0066 0362     		str	r3, [r0, #32]
 130 0068 30BC     		pop	{r4, r5}
 131 006a 7047     		bx	lr
 132              	.L16:
 133              		.align	2
 134              	.L15:
 135 006c 00000140 		.word	1073807360
 137              		.section	.text.TIM_OC4_SetConfig,"ax",%progbits
 138              		.align	1
 139              		.syntax unified
 140              		.thumb
 141              		.thumb_func
 143              	TIM_OC4_SetConfig:
 144              		@ args = 0, pretend = 0, frame = 0
 145              		@ frame_needed = 0, uses_anonymous_args = 0
 146              		@ link register save eliminated.
 147 0000 30B4     		push	{r4, r5}
 148 0002 036A     		ldr	r3, [r0, #32]
 149 0004 026A     		ldr	r2, [r0, #32]
 150 0006 22F48052 		bic	r2, r2, #4096
 151 000a 0262     		str	r2, [r0, #32]
 152 000c 4468     		ldr	r4, [r0, #4]
 153 000e C269     		ldr	r2, [r0, #28]
 154 0010 22F4E642 		bic	r2, r2, #29440
 155 0014 0D68     		ldr	r5, [r1]
 156 0016 42EA0522 		orr	r2, r2, r5, lsl #8
 157 001a 23F40053 		bic	r3, r3, #8192
 158 001e 8D68     		ldr	r5, [r1, #8]
 159 0020 43EA0533 		orr	r3, r3, r5, lsl #12
 160 0024 094D     		ldr	r5, .L21
 161 0026 A842     		cmp	r0, r5
 162 0028 03D0     		beq	.L18
 163 002a 05F58065 		add	r5, r5, #1024
 164 002e A842     		cmp	r0, r5
 165 0030 04D1     		bne	.L19
 166              	.L18:
 167 0032 24F48044 		bic	r4, r4, #16384
 168 0036 4D69     		ldr	r5, [r1, #20]
 169 0038 44EA8514 		orr	r4, r4, r5, lsl #6
 170              	.L19:
 171 003c 4460     		str	r4, [r0, #4]
 172 003e C261     		str	r2, [r0, #28]
 173 0040 4A68     		ldr	r2, [r1, #4]
 174 0042 0264     		str	r2, [r0, #64]
 175 0044 0362     		str	r3, [r0, #32]
 176 0046 30BC     		pop	{r4, r5}
ARM GAS  C:\Users\Rick\AppData\Local\Temp\cccDRXLh.s 			page 4


 177 0048 7047     		bx	lr
 178              	.L22:
 179 004a 00BF     		.align	2
 180              	.L21:
 181 004c 00000140 		.word	1073807360
 183              		.section	.text.TIM_TI1_ConfigInputStage,"ax",%progbits
 184              		.align	1
 185              		.syntax unified
 186              		.thumb
 187              		.thumb_func
 189              	TIM_TI1_ConfigInputStage:
 190              		@ args = 0, pretend = 0, frame = 0
 191              		@ frame_needed = 0, uses_anonymous_args = 0
 192              		@ link register save eliminated.
 193 0000 10B4     		push	{r4}
 194 0002 036A     		ldr	r3, [r0, #32]
 195 0004 046A     		ldr	r4, [r0, #32]
 196 0006 24F00104 		bic	r4, r4, #1
 197 000a 0462     		str	r4, [r0, #32]
 198 000c 8469     		ldr	r4, [r0, #24]
 199 000e 24F0F00C 		bic	ip, r4, #240
 200 0012 4CEA0212 		orr	r2, ip, r2, lsl #4
 201 0016 23F00A03 		bic	r3, r3, #10
 202 001a 0B43     		orrs	r3, r3, r1
 203 001c 8261     		str	r2, [r0, #24]
 204 001e 0362     		str	r3, [r0, #32]
 205 0020 5DF8044B 		ldr	r4, [sp], #4
 206 0024 7047     		bx	lr
 208              		.section	.text.TIM_TI2_SetConfig,"ax",%progbits
 209              		.align	1
 210              		.syntax unified
 211              		.thumb
 212              		.thumb_func
 214              	TIM_TI2_SetConfig:
 215              		@ args = 0, pretend = 0, frame = 0
 216              		@ frame_needed = 0, uses_anonymous_args = 0
 217              		@ link register save eliminated.
 218 0000 30B4     		push	{r4, r5}
 219 0002 056A     		ldr	r5, [r0, #32]
 220 0004 046A     		ldr	r4, [r0, #32]
 221 0006 24F01004 		bic	r4, r4, #16
 222 000a 0462     		str	r4, [r0, #32]
 223 000c 8469     		ldr	r4, [r0, #24]
 224 000e 24F4407C 		bic	ip, r4, #768
 225 0012 4CEA022C 		orr	ip, ip, r2, lsl #8
 226 0016 2CF4704C 		bic	ip, ip, #61440
 227 001a 1B03     		lsls	r3, r3, #12
 228 001c 9BB2     		uxth	r3, r3
 229 001e 43EA0C03 		orr	r3, r3, ip
 230 0022 25F0A005 		bic	r5, r5, #160
 231 0026 0901     		lsls	r1, r1, #4
 232 0028 01F0A001 		and	r1, r1, #160
 233 002c 2943     		orrs	r1, r1, r5
 234 002e 8361     		str	r3, [r0, #24]
 235 0030 0162     		str	r1, [r0, #32]
 236 0032 30BC     		pop	{r4, r5}
 237 0034 7047     		bx	lr
ARM GAS  C:\Users\Rick\AppData\Local\Temp\cccDRXLh.s 			page 5


 239              		.section	.text.TIM_TI2_ConfigInputStage,"ax",%progbits
 240              		.align	1
 241              		.syntax unified
 242              		.thumb
 243              		.thumb_func
 245              	TIM_TI2_ConfigInputStage:
 246              		@ args = 0, pretend = 0, frame = 0
 247              		@ frame_needed = 0, uses_anonymous_args = 0
 248              		@ link register save eliminated.
 249 0000 10B4     		push	{r4}
 250 0002 036A     		ldr	r3, [r0, #32]
 251 0004 046A     		ldr	r4, [r0, #32]
 252 0006 24F01004 		bic	r4, r4, #16
 253 000a 0462     		str	r4, [r0, #32]
 254 000c 8469     		ldr	r4, [r0, #24]
 255 000e 24F4704C 		bic	ip, r4, #61440
 256 0012 4CEA0232 		orr	r2, ip, r2, lsl #12
 257 0016 23F0A003 		bic	r3, r3, #160
 258 001a 43EA0113 		orr	r3, r3, r1, lsl #4
 259 001e 8261     		str	r2, [r0, #24]
 260 0020 0362     		str	r3, [r0, #32]
 261 0022 5DF8044B 		ldr	r4, [sp], #4
 262 0026 7047     		bx	lr
 264              		.section	.text.TIM_TI3_SetConfig,"ax",%progbits
 265              		.align	1
 266              		.syntax unified
 267              		.thumb
 268              		.thumb_func
 270              	TIM_TI3_SetConfig:
 271              		@ args = 0, pretend = 0, frame = 0
 272              		@ frame_needed = 0, uses_anonymous_args = 0
 273              		@ link register save eliminated.
 274 0000 30B4     		push	{r4, r5}
 275 0002 056A     		ldr	r5, [r0, #32]
 276 0004 046A     		ldr	r4, [r0, #32]
 277 0006 24F48074 		bic	r4, r4, #256
 278 000a 0462     		str	r4, [r0, #32]
 279 000c C469     		ldr	r4, [r0, #28]
 280 000e 24F0030C 		bic	ip, r4, #3
 281 0012 4CEA020C 		orr	ip, ip, r2
 282 0016 2CF0F00C 		bic	ip, ip, #240
 283 001a 1B01     		lsls	r3, r3, #4
 284 001c DBB2     		uxtb	r3, r3
 285 001e 43EA0C03 		orr	r3, r3, ip
 286 0022 25F42065 		bic	r5, r5, #2560
 287 0026 0902     		lsls	r1, r1, #8
 288 0028 01F42061 		and	r1, r1, #2560
 289 002c 2943     		orrs	r1, r1, r5
 290 002e C361     		str	r3, [r0, #28]
 291 0030 0162     		str	r1, [r0, #32]
 292 0032 30BC     		pop	{r4, r5}
 293 0034 7047     		bx	lr
 295              		.section	.text.TIM_TI4_SetConfig,"ax",%progbits
 296              		.align	1
 297              		.syntax unified
 298              		.thumb
 299              		.thumb_func
ARM GAS  C:\Users\Rick\AppData\Local\Temp\cccDRXLh.s 			page 6


 301              	TIM_TI4_SetConfig:
 302              		@ args = 0, pretend = 0, frame = 0
 303              		@ frame_needed = 0, uses_anonymous_args = 0
 304              		@ link register save eliminated.
 305 0000 30B4     		push	{r4, r5}
 306 0002 056A     		ldr	r5, [r0, #32]
 307 0004 046A     		ldr	r4, [r0, #32]
 308 0006 24F48054 		bic	r4, r4, #4096
 309 000a 0462     		str	r4, [r0, #32]
 310 000c C469     		ldr	r4, [r0, #28]
 311 000e 24F4407C 		bic	ip, r4, #768
 312 0012 4CEA022C 		orr	ip, ip, r2, lsl #8
 313 0016 2CF4704C 		bic	ip, ip, #61440
 314 001a 1B03     		lsls	r3, r3, #12
 315 001c 9BB2     		uxth	r3, r3
 316 001e 43EA0C03 		orr	r3, r3, ip
 317 0022 25F42045 		bic	r5, r5, #40960
 318 0026 0903     		lsls	r1, r1, #12
 319 0028 01F42041 		and	r1, r1, #40960
 320 002c 2943     		orrs	r1, r1, r5
 321 002e C361     		str	r3, [r0, #28]
 322 0030 0162     		str	r1, [r0, #32]
 323 0032 30BC     		pop	{r4, r5}
 324 0034 7047     		bx	lr
 326              		.section	.text.TIM_ITRx_SetConfig,"ax",%progbits
 327              		.align	1
 328              		.syntax unified
 329              		.thumb
 330              		.thumb_func
 332              	TIM_ITRx_SetConfig:
 333              		@ args = 0, pretend = 0, frame = 0
 334              		@ frame_needed = 0, uses_anonymous_args = 0
 335              		@ link register save eliminated.
 336 0000 8368     		ldr	r3, [r0, #8]
 337 0002 23F07003 		bic	r3, r3, #112
 338 0006 0B43     		orrs	r3, r3, r1
 339 0008 43F00703 		orr	r3, r3, #7
 340 000c 8360     		str	r3, [r0, #8]
 341 000e 7047     		bx	lr
 343              		.section	.text.HAL_TIM_Base_MspInit,"ax",%progbits
 344              		.align	1
 345              		.weak	HAL_TIM_Base_MspInit
 346              		.syntax unified
 347              		.thumb
 348              		.thumb_func
 350              	HAL_TIM_Base_MspInit:
 351              		@ args = 0, pretend = 0, frame = 0
 352              		@ frame_needed = 0, uses_anonymous_args = 0
 353              		@ link register save eliminated.
 354 0000 7047     		bx	lr
 356              		.section	.text.HAL_TIM_Base_MspDeInit,"ax",%progbits
 357              		.align	1
 358              		.weak	HAL_TIM_Base_MspDeInit
 359              		.syntax unified
 360              		.thumb
 361              		.thumb_func
 363              	HAL_TIM_Base_MspDeInit:
ARM GAS  C:\Users\Rick\AppData\Local\Temp\cccDRXLh.s 			page 7


 364              		@ args = 0, pretend = 0, frame = 0
 365              		@ frame_needed = 0, uses_anonymous_args = 0
 366              		@ link register save eliminated.
 367 0000 7047     		bx	lr
 369              		.section	.text.HAL_TIM_Base_DeInit,"ax",%progbits
 370              		.align	1
 371              		.global	HAL_TIM_Base_DeInit
 372              		.syntax unified
 373              		.thumb
 374              		.thumb_func
 376              	HAL_TIM_Base_DeInit:
 377              		@ args = 0, pretend = 0, frame = 0
 378              		@ frame_needed = 0, uses_anonymous_args = 0
 379 0000 10B5     		push	{r4, lr}
 380 0002 0446     		mov	r4, r0
 381 0004 0223     		movs	r3, #2
 382 0006 80F83D30 		strb	r3, [r0, #61]
 383 000a 0368     		ldr	r3, [r0]
 384 000c 196A     		ldr	r1, [r3, #32]
 385 000e 41F21112 		movw	r2, #4369
 386 0012 1142     		tst	r1, r2
 387 0014 08D1     		bne	.L37
 388 0016 196A     		ldr	r1, [r3, #32]
 389 0018 40F24442 		movw	r2, #1092
 390 001c 1142     		tst	r1, r2
 391 001e 03D1     		bne	.L37
 392 0020 1A68     		ldr	r2, [r3]
 393 0022 22F00102 		bic	r2, r2, #1
 394 0026 1A60     		str	r2, [r3]
 395              	.L37:
 396 0028 2046     		mov	r0, r4
 397 002a FFF7FEFF 		bl	HAL_TIM_Base_MspDeInit
 398 002e 0020     		movs	r0, #0
 399 0030 84F84600 		strb	r0, [r4, #70]
 400 0034 84F83E00 		strb	r0, [r4, #62]
 401 0038 84F83F00 		strb	r0, [r4, #63]
 402 003c 84F84000 		strb	r0, [r4, #64]
 403 0040 84F84100 		strb	r0, [r4, #65]
 404 0044 84F84200 		strb	r0, [r4, #66]
 405 0048 84F84300 		strb	r0, [r4, #67]
 406 004c 84F84400 		strb	r0, [r4, #68]
 407 0050 84F84500 		strb	r0, [r4, #69]
 408 0054 84F83D00 		strb	r0, [r4, #61]
 409 0058 84F83C00 		strb	r0, [r4, #60]
 410 005c 10BD     		pop	{r4, pc}
 412              		.section	.text.HAL_TIM_Base_Start,"ax",%progbits
 413              		.align	1
 414              		.global	HAL_TIM_Base_Start
 415              		.syntax unified
 416              		.thumb
 417              		.thumb_func
 419              	HAL_TIM_Base_Start:
 420              		@ args = 0, pretend = 0, frame = 0
 421              		@ frame_needed = 0, uses_anonymous_args = 0
 422              		@ link register save eliminated.
 423 0000 90F83D30 		ldrb	r3, [r0, #61]	@ zero_extendqisi2
 424 0004 012B     		cmp	r3, #1
ARM GAS  C:\Users\Rick\AppData\Local\Temp\cccDRXLh.s 			page 8


 425 0006 32D1     		bne	.L43
 426 0008 0223     		movs	r3, #2
 427 000a 80F83D30 		strb	r3, [r0, #61]
 428 000e 0368     		ldr	r3, [r0]
 429 0010 194A     		ldr	r2, .L45
 430 0012 9342     		cmp	r3, r2
 431 0014 20D0     		beq	.L41
 432 0016 B3F1804F 		cmp	r3, #1073741824
 433 001a 1DD0     		beq	.L41
 434 001c A2F57C42 		sub	r2, r2, #64512
 435 0020 9342     		cmp	r3, r2
 436 0022 19D0     		beq	.L41
 437 0024 02F58062 		add	r2, r2, #1024
 438 0028 9342     		cmp	r3, r2
 439 002a 15D0     		beq	.L41
 440 002c 02F58062 		add	r2, r2, #1024
 441 0030 9342     		cmp	r3, r2
 442 0032 11D0     		beq	.L41
 443 0034 02F57842 		add	r2, r2, #63488
 444 0038 9342     		cmp	r3, r2
 445 003a 0DD0     		beq	.L41
 446 003c 02F57052 		add	r2, r2, #15360
 447 0040 9342     		cmp	r3, r2
 448 0042 09D0     		beq	.L41
 449 0044 A2F59432 		sub	r2, r2, #75776
 450 0048 9342     		cmp	r3, r2
 451 004a 05D0     		beq	.L41
 452 004c 1A68     		ldr	r2, [r3]
 453 004e 42F00102 		orr	r2, r2, #1
 454 0052 1A60     		str	r2, [r3]
 455 0054 0020     		movs	r0, #0
 456 0056 7047     		bx	lr
 457              	.L41:
 458 0058 9A68     		ldr	r2, [r3, #8]
 459 005a 02F00702 		and	r2, r2, #7
 460 005e 062A     		cmp	r2, #6
 461 0060 07D0     		beq	.L44
 462 0062 1A68     		ldr	r2, [r3]
 463 0064 42F00102 		orr	r2, r2, #1
 464 0068 1A60     		str	r2, [r3]
 465 006a 0020     		movs	r0, #0
 466 006c 7047     		bx	lr
 467              	.L43:
 468 006e 0120     		movs	r0, #1
 469 0070 7047     		bx	lr
 470              	.L44:
 471 0072 0020     		movs	r0, #0
 472 0074 7047     		bx	lr
 473              	.L46:
 474 0076 00BF     		.align	2
 475              	.L45:
 476 0078 00000140 		.word	1073807360
 478              		.section	.text.HAL_TIM_Base_Stop,"ax",%progbits
 479              		.align	1
 480              		.global	HAL_TIM_Base_Stop
 481              		.syntax unified
 482              		.thumb
ARM GAS  C:\Users\Rick\AppData\Local\Temp\cccDRXLh.s 			page 9


 483              		.thumb_func
 485              	HAL_TIM_Base_Stop:
 486              		@ args = 0, pretend = 0, frame = 0
 487              		@ frame_needed = 0, uses_anonymous_args = 0
 488              		@ link register save eliminated.
 489 0000 0368     		ldr	r3, [r0]
 490 0002 196A     		ldr	r1, [r3, #32]
 491 0004 41F21112 		movw	r2, #4369
 492 0008 1142     		tst	r1, r2
 493 000a 08D1     		bne	.L48
 494 000c 196A     		ldr	r1, [r3, #32]
 495 000e 40F24442 		movw	r2, #1092
 496 0012 1142     		tst	r1, r2
 497 0014 03D1     		bne	.L48
 498 0016 1A68     		ldr	r2, [r3]
 499 0018 22F00102 		bic	r2, r2, #1
 500 001c 1A60     		str	r2, [r3]
 501              	.L48:
 502 001e 0123     		movs	r3, #1
 503 0020 80F83D30 		strb	r3, [r0, #61]
 504 0024 0020     		movs	r0, #0
 505 0026 7047     		bx	lr
 507              		.section	.text.HAL_TIM_Base_Start_IT,"ax",%progbits
 508              		.align	1
 509              		.global	HAL_TIM_Base_Start_IT
 510              		.syntax unified
 511              		.thumb
 512              		.thumb_func
 514              	HAL_TIM_Base_Start_IT:
 515              		@ args = 0, pretend = 0, frame = 0
 516              		@ frame_needed = 0, uses_anonymous_args = 0
 517              		@ link register save eliminated.
 518 0000 90F83D30 		ldrb	r3, [r0, #61]	@ zero_extendqisi2
 519 0004 012B     		cmp	r3, #1
 520 0006 37D1     		bne	.L53
 521 0008 0223     		movs	r3, #2
 522 000a 80F83D30 		strb	r3, [r0, #61]
 523 000e 0268     		ldr	r2, [r0]
 524 0010 D368     		ldr	r3, [r2, #12]
 525 0012 43F00103 		orr	r3, r3, #1
 526 0016 D360     		str	r3, [r2, #12]
 527 0018 0368     		ldr	r3, [r0]
 528 001a 194A     		ldr	r2, .L55
 529 001c 9342     		cmp	r3, r2
 530 001e 20D0     		beq	.L51
 531 0020 B3F1804F 		cmp	r3, #1073741824
 532 0024 1DD0     		beq	.L51
 533 0026 A2F57C42 		sub	r2, r2, #64512
 534 002a 9342     		cmp	r3, r2
 535 002c 19D0     		beq	.L51
 536 002e 02F58062 		add	r2, r2, #1024
 537 0032 9342     		cmp	r3, r2
 538 0034 15D0     		beq	.L51
 539 0036 02F58062 		add	r2, r2, #1024
 540 003a 9342     		cmp	r3, r2
 541 003c 11D0     		beq	.L51
 542 003e 02F57842 		add	r2, r2, #63488
ARM GAS  C:\Users\Rick\AppData\Local\Temp\cccDRXLh.s 			page 10


 543 0042 9342     		cmp	r3, r2
 544 0044 0DD0     		beq	.L51
 545 0046 02F57052 		add	r2, r2, #15360
 546 004a 9342     		cmp	r3, r2
 547 004c 09D0     		beq	.L51
 548 004e A2F59432 		sub	r2, r2, #75776
 549 0052 9342     		cmp	r3, r2
 550 0054 05D0     		beq	.L51
 551 0056 1A68     		ldr	r2, [r3]
 552 0058 42F00102 		orr	r2, r2, #1
 553 005c 1A60     		str	r2, [r3]
 554 005e 0020     		movs	r0, #0
 555 0060 7047     		bx	lr
 556              	.L51:
 557 0062 9A68     		ldr	r2, [r3, #8]
 558 0064 02F00702 		and	r2, r2, #7
 559 0068 062A     		cmp	r2, #6
 560 006a 07D0     		beq	.L54
 561 006c 1A68     		ldr	r2, [r3]
 562 006e 42F00102 		orr	r2, r2, #1
 563 0072 1A60     		str	r2, [r3]
 564 0074 0020     		movs	r0, #0
 565 0076 7047     		bx	lr
 566              	.L53:
 567 0078 0120     		movs	r0, #1
 568 007a 7047     		bx	lr
 569              	.L54:
 570 007c 0020     		movs	r0, #0
 571 007e 7047     		bx	lr
 572              	.L56:
 573              		.align	2
 574              	.L55:
 575 0080 00000140 		.word	1073807360
 577              		.section	.text.HAL_TIM_Base_Stop_IT,"ax",%progbits
 578              		.align	1
 579              		.global	HAL_TIM_Base_Stop_IT
 580              		.syntax unified
 581              		.thumb
 582              		.thumb_func
 584              	HAL_TIM_Base_Stop_IT:
 585              		@ args = 0, pretend = 0, frame = 0
 586              		@ frame_needed = 0, uses_anonymous_args = 0
 587              		@ link register save eliminated.
 588 0000 0268     		ldr	r2, [r0]
 589 0002 D368     		ldr	r3, [r2, #12]
 590 0004 23F00103 		bic	r3, r3, #1
 591 0008 D360     		str	r3, [r2, #12]
 592 000a 0368     		ldr	r3, [r0]
 593 000c 196A     		ldr	r1, [r3, #32]
 594 000e 41F21112 		movw	r2, #4369
 595 0012 1142     		tst	r1, r2
 596 0014 08D1     		bne	.L58
 597 0016 196A     		ldr	r1, [r3, #32]
 598 0018 40F24442 		movw	r2, #1092
 599 001c 1142     		tst	r1, r2
 600 001e 03D1     		bne	.L58
 601 0020 1A68     		ldr	r2, [r3]
ARM GAS  C:\Users\Rick\AppData\Local\Temp\cccDRXLh.s 			page 11


 602 0022 22F00102 		bic	r2, r2, #1
 603 0026 1A60     		str	r2, [r3]
 604              	.L58:
 605 0028 0123     		movs	r3, #1
 606 002a 80F83D30 		strb	r3, [r0, #61]
 607 002e 0020     		movs	r0, #0
 608 0030 7047     		bx	lr
 610              		.section	.text.HAL_TIM_Base_Start_DMA,"ax",%progbits
 611              		.align	1
 612              		.global	HAL_TIM_Base_Start_DMA
 613              		.syntax unified
 614              		.thumb
 615              		.thumb_func
 617              	HAL_TIM_Base_Start_DMA:
 618              		@ args = 0, pretend = 0, frame = 0
 619              		@ frame_needed = 0, uses_anonymous_args = 0
 620 0000 38B5     		push	{r3, r4, r5, lr}
 621 0002 90F83D30 		ldrb	r3, [r0, #61]	@ zero_extendqisi2
 622 0006 DDB2     		uxtb	r5, r3
 623 0008 022B     		cmp	r3, #2
 624 000a 54D0     		beq	.L60
 625 000c 0446     		mov	r4, r0
 626 000e 90F83D30 		ldrb	r3, [r0, #61]	@ zero_extendqisi2
 627 0012 DDB2     		uxtb	r5, r3
 628 0014 012B     		cmp	r3, #1
 629 0016 4DD1     		bne	.L63
 630 0018 0029     		cmp	r1, #0
 631 001a 4CD0     		beq	.L60
 632 001c 002A     		cmp	r2, #0
 633 001e 4AD0     		beq	.L60
 634 0020 0223     		movs	r3, #2
 635 0022 80F83D30 		strb	r3, [r0, #61]
 636 0026 036A     		ldr	r3, [r0, #32]
 637 0028 2548     		ldr	r0, .L66
 638 002a D863     		str	r0, [r3, #60]
 639 002c 236A     		ldr	r3, [r4, #32]
 640 002e 2548     		ldr	r0, .L66+4
 641 0030 1864     		str	r0, [r3, #64]
 642 0032 236A     		ldr	r3, [r4, #32]
 643 0034 2448     		ldr	r0, .L66+8
 644 0036 D864     		str	r0, [r3, #76]
 645 0038 2068     		ldr	r0, [r4]
 646 003a 1346     		mov	r3, r2
 647 003c 00F12C02 		add	r2, r0, #44
 648 0040 206A     		ldr	r0, [r4, #32]
 649 0042 FFF7FEFF 		bl	HAL_DMA_Start_IT
 650 0046 0146     		mov	r1, r0
 651 0048 A8BB     		cbnz	r0, .L60
 652 004a 2268     		ldr	r2, [r4]
 653 004c D368     		ldr	r3, [r2, #12]
 654 004e 43F48073 		orr	r3, r3, #256
 655 0052 D360     		str	r3, [r2, #12]
 656 0054 2368     		ldr	r3, [r4]
 657 0056 1D4A     		ldr	r2, .L66+12
 658 0058 9342     		cmp	r3, r2
 659 005a 20D0     		beq	.L61
 660 005c B3F1804F 		cmp	r3, #1073741824
ARM GAS  C:\Users\Rick\AppData\Local\Temp\cccDRXLh.s 			page 12


 661 0060 1DD0     		beq	.L61
 662 0062 A2F57C42 		sub	r2, r2, #64512
 663 0066 9342     		cmp	r3, r2
 664 0068 19D0     		beq	.L61
 665 006a 02F58062 		add	r2, r2, #1024
 666 006e 9342     		cmp	r3, r2
 667 0070 15D0     		beq	.L61
 668 0072 02F58062 		add	r2, r2, #1024
 669 0076 9342     		cmp	r3, r2
 670 0078 11D0     		beq	.L61
 671 007a 02F57842 		add	r2, r2, #63488
 672 007e 9342     		cmp	r3, r2
 673 0080 0DD0     		beq	.L61
 674 0082 02F57052 		add	r2, r2, #15360
 675 0086 9342     		cmp	r3, r2
 676 0088 09D0     		beq	.L61
 677 008a A2F59432 		sub	r2, r2, #75776
 678 008e 9342     		cmp	r3, r2
 679 0090 05D0     		beq	.L61
 680 0092 1A68     		ldr	r2, [r3]
 681 0094 42F00102 		orr	r2, r2, #1
 682 0098 1A60     		str	r2, [r3]
 683 009a 0546     		mov	r5, r0
 684 009c 0BE0     		b	.L60
 685              	.L61:
 686 009e 9A68     		ldr	r2, [r3, #8]
 687 00a0 02F00702 		and	r2, r2, #7
 688 00a4 062A     		cmp	r2, #6
 689 00a6 08D0     		beq	.L64
 690 00a8 1A68     		ldr	r2, [r3]
 691 00aa 42F00102 		orr	r2, r2, #1
 692 00ae 1A60     		str	r2, [r3]
 693 00b0 0D46     		mov	r5, r1
 694 00b2 00E0     		b	.L60
 695              	.L63:
 696 00b4 0125     		movs	r5, #1
 697              	.L60:
 698 00b6 2846     		mov	r0, r5
 699 00b8 38BD     		pop	{r3, r4, r5, pc}
 700              	.L64:
 701 00ba 0D46     		mov	r5, r1
 702 00bc FBE7     		b	.L60
 703              	.L67:
 704 00be 00BF     		.align	2
 705              	.L66:
 706 00c0 00000000 		.word	TIM_DMAPeriodElapsedCplt
 707 00c4 00000000 		.word	TIM_DMAPeriodElapsedHalfCplt
 708 00c8 00000000 		.word	TIM_DMAError
 709 00cc 00000140 		.word	1073807360
 711              		.section	.text.HAL_TIM_Base_Stop_DMA,"ax",%progbits
 712              		.align	1
 713              		.global	HAL_TIM_Base_Stop_DMA
 714              		.syntax unified
 715              		.thumb
 716              		.thumb_func
 718              	HAL_TIM_Base_Stop_DMA:
 719              		@ args = 0, pretend = 0, frame = 0
ARM GAS  C:\Users\Rick\AppData\Local\Temp\cccDRXLh.s 			page 13


 720              		@ frame_needed = 0, uses_anonymous_args = 0
 721 0000 10B5     		push	{r4, lr}
 722 0002 0446     		mov	r4, r0
 723 0004 0268     		ldr	r2, [r0]
 724 0006 D368     		ldr	r3, [r2, #12]
 725 0008 23F48073 		bic	r3, r3, #256
 726 000c D360     		str	r3, [r2, #12]
 727 000e 006A     		ldr	r0, [r0, #32]
 728 0010 FFF7FEFF 		bl	HAL_DMA_Abort_IT
 729 0014 2368     		ldr	r3, [r4]
 730 0016 196A     		ldr	r1, [r3, #32]
 731 0018 41F21112 		movw	r2, #4369
 732 001c 1142     		tst	r1, r2
 733 001e 08D1     		bne	.L69
 734 0020 196A     		ldr	r1, [r3, #32]
 735 0022 40F24442 		movw	r2, #1092
 736 0026 1142     		tst	r1, r2
 737 0028 03D1     		bne	.L69
 738 002a 1A68     		ldr	r2, [r3]
 739 002c 22F00102 		bic	r2, r2, #1
 740 0030 1A60     		str	r2, [r3]
 741              	.L69:
 742 0032 0123     		movs	r3, #1
 743 0034 84F83D30 		strb	r3, [r4, #61]
 744 0038 0020     		movs	r0, #0
 745 003a 10BD     		pop	{r4, pc}
 747              		.section	.text.HAL_TIM_OC_MspInit,"ax",%progbits
 748              		.align	1
 749              		.weak	HAL_TIM_OC_MspInit
 750              		.syntax unified
 751              		.thumb
 752              		.thumb_func
 754              	HAL_TIM_OC_MspInit:
 755              		@ args = 0, pretend = 0, frame = 0
 756              		@ frame_needed = 0, uses_anonymous_args = 0
 757              		@ link register save eliminated.
 758 0000 7047     		bx	lr
 760              		.section	.text.HAL_TIM_OC_MspDeInit,"ax",%progbits
 761              		.align	1
 762              		.weak	HAL_TIM_OC_MspDeInit
 763              		.syntax unified
 764              		.thumb
 765              		.thumb_func
 767              	HAL_TIM_OC_MspDeInit:
 768              		@ args = 0, pretend = 0, frame = 0
 769              		@ frame_needed = 0, uses_anonymous_args = 0
 770              		@ link register save eliminated.
 771 0000 7047     		bx	lr
 773              		.section	.text.HAL_TIM_OC_DeInit,"ax",%progbits
 774              		.align	1
 775              		.global	HAL_TIM_OC_DeInit
 776              		.syntax unified
 777              		.thumb
 778              		.thumb_func
 780              	HAL_TIM_OC_DeInit:
 781              		@ args = 0, pretend = 0, frame = 0
 782              		@ frame_needed = 0, uses_anonymous_args = 0
ARM GAS  C:\Users\Rick\AppData\Local\Temp\cccDRXLh.s 			page 14


 783 0000 10B5     		push	{r4, lr}
 784 0002 0446     		mov	r4, r0
 785 0004 0223     		movs	r3, #2
 786 0006 80F83D30 		strb	r3, [r0, #61]
 787 000a 0368     		ldr	r3, [r0]
 788 000c 196A     		ldr	r1, [r3, #32]
 789 000e 41F21112 		movw	r2, #4369
 790 0012 1142     		tst	r1, r2
 791 0014 08D1     		bne	.L74
 792 0016 196A     		ldr	r1, [r3, #32]
 793 0018 40F24442 		movw	r2, #1092
 794 001c 1142     		tst	r1, r2
 795 001e 03D1     		bne	.L74
 796 0020 1A68     		ldr	r2, [r3]
 797 0022 22F00102 		bic	r2, r2, #1
 798 0026 1A60     		str	r2, [r3]
 799              	.L74:
 800 0028 2046     		mov	r0, r4
 801 002a FFF7FEFF 		bl	HAL_TIM_OC_MspDeInit
 802 002e 0020     		movs	r0, #0
 803 0030 84F84600 		strb	r0, [r4, #70]
 804 0034 84F83E00 		strb	r0, [r4, #62]
 805 0038 84F83F00 		strb	r0, [r4, #63]
 806 003c 84F84000 		strb	r0, [r4, #64]
 807 0040 84F84100 		strb	r0, [r4, #65]
 808 0044 84F84200 		strb	r0, [r4, #66]
 809 0048 84F84300 		strb	r0, [r4, #67]
 810 004c 84F84400 		strb	r0, [r4, #68]
 811 0050 84F84500 		strb	r0, [r4, #69]
 812 0054 84F83D00 		strb	r0, [r4, #61]
 813 0058 84F83C00 		strb	r0, [r4, #60]
 814 005c 10BD     		pop	{r4, pc}
 816              		.section	.text.HAL_TIM_PWM_MspInit,"ax",%progbits
 817              		.align	1
 818              		.weak	HAL_TIM_PWM_MspInit
 819              		.syntax unified
 820              		.thumb
 821              		.thumb_func
 823              	HAL_TIM_PWM_MspInit:
 824              		@ args = 0, pretend = 0, frame = 0
 825              		@ frame_needed = 0, uses_anonymous_args = 0
 826              		@ link register save eliminated.
 827 0000 7047     		bx	lr
 829              		.section	.text.HAL_TIM_PWM_MspDeInit,"ax",%progbits
 830              		.align	1
 831              		.weak	HAL_TIM_PWM_MspDeInit
 832              		.syntax unified
 833              		.thumb
 834              		.thumb_func
 836              	HAL_TIM_PWM_MspDeInit:
 837              		@ args = 0, pretend = 0, frame = 0
 838              		@ frame_needed = 0, uses_anonymous_args = 0
 839              		@ link register save eliminated.
 840 0000 7047     		bx	lr
 842              		.section	.text.HAL_TIM_PWM_DeInit,"ax",%progbits
 843              		.align	1
 844              		.global	HAL_TIM_PWM_DeInit
ARM GAS  C:\Users\Rick\AppData\Local\Temp\cccDRXLh.s 			page 15


 845              		.syntax unified
 846              		.thumb
 847              		.thumb_func
 849              	HAL_TIM_PWM_DeInit:
 850              		@ args = 0, pretend = 0, frame = 0
 851              		@ frame_needed = 0, uses_anonymous_args = 0
 852 0000 10B5     		push	{r4, lr}
 853 0002 0446     		mov	r4, r0
 854 0004 0223     		movs	r3, #2
 855 0006 80F83D30 		strb	r3, [r0, #61]
 856 000a 0368     		ldr	r3, [r0]
 857 000c 196A     		ldr	r1, [r3, #32]
 858 000e 41F21112 		movw	r2, #4369
 859 0012 1142     		tst	r1, r2
 860 0014 08D1     		bne	.L79
 861 0016 196A     		ldr	r1, [r3, #32]
 862 0018 40F24442 		movw	r2, #1092
 863 001c 1142     		tst	r1, r2
 864 001e 03D1     		bne	.L79
 865 0020 1A68     		ldr	r2, [r3]
 866 0022 22F00102 		bic	r2, r2, #1
 867 0026 1A60     		str	r2, [r3]
 868              	.L79:
 869 0028 2046     		mov	r0, r4
 870 002a FFF7FEFF 		bl	HAL_TIM_PWM_MspDeInit
 871 002e 0020     		movs	r0, #0
 872 0030 84F84600 		strb	r0, [r4, #70]
 873 0034 84F83E00 		strb	r0, [r4, #62]
 874 0038 84F83F00 		strb	r0, [r4, #63]
 875 003c 84F84000 		strb	r0, [r4, #64]
 876 0040 84F84100 		strb	r0, [r4, #65]
 877 0044 84F84200 		strb	r0, [r4, #66]
 878 0048 84F84300 		strb	r0, [r4, #67]
 879 004c 84F84400 		strb	r0, [r4, #68]
 880 0050 84F84500 		strb	r0, [r4, #69]
 881 0054 84F83D00 		strb	r0, [r4, #61]
 882 0058 84F83C00 		strb	r0, [r4, #60]
 883 005c 10BD     		pop	{r4, pc}
 885              		.section	.text.HAL_TIM_IC_MspInit,"ax",%progbits
 886              		.align	1
 887              		.weak	HAL_TIM_IC_MspInit
 888              		.syntax unified
 889              		.thumb
 890              		.thumb_func
 892              	HAL_TIM_IC_MspInit:
 893              		@ args = 0, pretend = 0, frame = 0
 894              		@ frame_needed = 0, uses_anonymous_args = 0
 895              		@ link register save eliminated.
 896 0000 7047     		bx	lr
 898              		.section	.text.HAL_TIM_IC_MspDeInit,"ax",%progbits
 899              		.align	1
 900              		.weak	HAL_TIM_IC_MspDeInit
 901              		.syntax unified
 902              		.thumb
 903              		.thumb_func
 905              	HAL_TIM_IC_MspDeInit:
 906              		@ args = 0, pretend = 0, frame = 0
ARM GAS  C:\Users\Rick\AppData\Local\Temp\cccDRXLh.s 			page 16


 907              		@ frame_needed = 0, uses_anonymous_args = 0
 908              		@ link register save eliminated.
 909 0000 7047     		bx	lr
 911              		.section	.text.HAL_TIM_IC_DeInit,"ax",%progbits
 912              		.align	1
 913              		.global	HAL_TIM_IC_DeInit
 914              		.syntax unified
 915              		.thumb
 916              		.thumb_func
 918              	HAL_TIM_IC_DeInit:
 919              		@ args = 0, pretend = 0, frame = 0
 920              		@ frame_needed = 0, uses_anonymous_args = 0
 921 0000 10B5     		push	{r4, lr}
 922 0002 0446     		mov	r4, r0
 923 0004 0223     		movs	r3, #2
 924 0006 80F83D30 		strb	r3, [r0, #61]
 925 000a 0368     		ldr	r3, [r0]
 926 000c 196A     		ldr	r1, [r3, #32]
 927 000e 41F21112 		movw	r2, #4369
 928 0012 1142     		tst	r1, r2
 929 0014 08D1     		bne	.L84
 930 0016 196A     		ldr	r1, [r3, #32]
 931 0018 40F24442 		movw	r2, #1092
 932 001c 1142     		tst	r1, r2
 933 001e 03D1     		bne	.L84
 934 0020 1A68     		ldr	r2, [r3]
 935 0022 22F00102 		bic	r2, r2, #1
 936 0026 1A60     		str	r2, [r3]
 937              	.L84:
 938 0028 2046     		mov	r0, r4
 939 002a FFF7FEFF 		bl	HAL_TIM_IC_MspDeInit
 940 002e 0020     		movs	r0, #0
 941 0030 84F84600 		strb	r0, [r4, #70]
 942 0034 84F83E00 		strb	r0, [r4, #62]
 943 0038 84F83F00 		strb	r0, [r4, #63]
 944 003c 84F84000 		strb	r0, [r4, #64]
 945 0040 84F84100 		strb	r0, [r4, #65]
 946 0044 84F84200 		strb	r0, [r4, #66]
 947 0048 84F84300 		strb	r0, [r4, #67]
 948 004c 84F84400 		strb	r0, [r4, #68]
 949 0050 84F84500 		strb	r0, [r4, #69]
 950 0054 84F83D00 		strb	r0, [r4, #61]
 951 0058 84F83C00 		strb	r0, [r4, #60]
 952 005c 10BD     		pop	{r4, pc}
 954              		.section	.text.HAL_TIM_OnePulse_MspInit,"ax",%progbits
 955              		.align	1
 956              		.weak	HAL_TIM_OnePulse_MspInit
 957              		.syntax unified
 958              		.thumb
 959              		.thumb_func
 961              	HAL_TIM_OnePulse_MspInit:
 962              		@ args = 0, pretend = 0, frame = 0
 963              		@ frame_needed = 0, uses_anonymous_args = 0
 964              		@ link register save eliminated.
 965 0000 7047     		bx	lr
 967              		.section	.text.HAL_TIM_OnePulse_MspDeInit,"ax",%progbits
 968              		.align	1
ARM GAS  C:\Users\Rick\AppData\Local\Temp\cccDRXLh.s 			page 17


 969              		.weak	HAL_TIM_OnePulse_MspDeInit
 970              		.syntax unified
 971              		.thumb
 972              		.thumb_func
 974              	HAL_TIM_OnePulse_MspDeInit:
 975              		@ args = 0, pretend = 0, frame = 0
 976              		@ frame_needed = 0, uses_anonymous_args = 0
 977              		@ link register save eliminated.
 978 0000 7047     		bx	lr
 980              		.section	.text.HAL_TIM_OnePulse_DeInit,"ax",%progbits
 981              		.align	1
 982              		.global	HAL_TIM_OnePulse_DeInit
 983              		.syntax unified
 984              		.thumb
 985              		.thumb_func
 987              	HAL_TIM_OnePulse_DeInit:
 988              		@ args = 0, pretend = 0, frame = 0
 989              		@ frame_needed = 0, uses_anonymous_args = 0
 990 0000 10B5     		push	{r4, lr}
 991 0002 0446     		mov	r4, r0
 992 0004 0223     		movs	r3, #2
 993 0006 80F83D30 		strb	r3, [r0, #61]
 994 000a 0368     		ldr	r3, [r0]
 995 000c 196A     		ldr	r1, [r3, #32]
 996 000e 41F21112 		movw	r2, #4369
 997 0012 1142     		tst	r1, r2
 998 0014 08D1     		bne	.L89
 999 0016 196A     		ldr	r1, [r3, #32]
 1000 0018 40F24442 		movw	r2, #1092
 1001 001c 1142     		tst	r1, r2
 1002 001e 03D1     		bne	.L89
 1003 0020 1A68     		ldr	r2, [r3]
 1004 0022 22F00102 		bic	r2, r2, #1
 1005 0026 1A60     		str	r2, [r3]
 1006              	.L89:
 1007 0028 2046     		mov	r0, r4
 1008 002a FFF7FEFF 		bl	HAL_TIM_OnePulse_MspDeInit
 1009 002e 0020     		movs	r0, #0
 1010 0030 84F84600 		strb	r0, [r4, #70]
 1011 0034 84F83E00 		strb	r0, [r4, #62]
 1012 0038 84F83F00 		strb	r0, [r4, #63]
 1013 003c 84F84200 		strb	r0, [r4, #66]
 1014 0040 84F84300 		strb	r0, [r4, #67]
 1015 0044 84F83D00 		strb	r0, [r4, #61]
 1016 0048 84F83C00 		strb	r0, [r4, #60]
 1017 004c 10BD     		pop	{r4, pc}
 1019              		.section	.text.HAL_TIM_Encoder_MspInit,"ax",%progbits
 1020              		.align	1
 1021              		.weak	HAL_TIM_Encoder_MspInit
 1022              		.syntax unified
 1023              		.thumb
 1024              		.thumb_func
 1026              	HAL_TIM_Encoder_MspInit:
 1027              		@ args = 0, pretend = 0, frame = 0
 1028              		@ frame_needed = 0, uses_anonymous_args = 0
 1029              		@ link register save eliminated.
 1030 0000 7047     		bx	lr
ARM GAS  C:\Users\Rick\AppData\Local\Temp\cccDRXLh.s 			page 18


 1032              		.section	.text.HAL_TIM_Encoder_MspDeInit,"ax",%progbits
 1033              		.align	1
 1034              		.weak	HAL_TIM_Encoder_MspDeInit
 1035              		.syntax unified
 1036              		.thumb
 1037              		.thumb_func
 1039              	HAL_TIM_Encoder_MspDeInit:
 1040              		@ args = 0, pretend = 0, frame = 0
 1041              		@ frame_needed = 0, uses_anonymous_args = 0
 1042              		@ link register save eliminated.
 1043 0000 7047     		bx	lr
 1045              		.section	.text.HAL_TIM_Encoder_DeInit,"ax",%progbits
 1046              		.align	1
 1047              		.global	HAL_TIM_Encoder_DeInit
 1048              		.syntax unified
 1049              		.thumb
 1050              		.thumb_func
 1052              	HAL_TIM_Encoder_DeInit:
 1053              		@ args = 0, pretend = 0, frame = 0
 1054              		@ frame_needed = 0, uses_anonymous_args = 0
 1055 0000 10B5     		push	{r4, lr}
 1056 0002 0446     		mov	r4, r0
 1057 0004 0223     		movs	r3, #2
 1058 0006 80F83D30 		strb	r3, [r0, #61]
 1059 000a 0368     		ldr	r3, [r0]
 1060 000c 196A     		ldr	r1, [r3, #32]
 1061 000e 41F21112 		movw	r2, #4369
 1062 0012 1142     		tst	r1, r2
 1063 0014 08D1     		bne	.L94
 1064 0016 196A     		ldr	r1, [r3, #32]
 1065 0018 40F24442 		movw	r2, #1092
 1066 001c 1142     		tst	r1, r2
 1067 001e 03D1     		bne	.L94
 1068 0020 1A68     		ldr	r2, [r3]
 1069 0022 22F00102 		bic	r2, r2, #1
 1070 0026 1A60     		str	r2, [r3]
 1071              	.L94:
 1072 0028 2046     		mov	r0, r4
 1073 002a FFF7FEFF 		bl	HAL_TIM_Encoder_MspDeInit
 1074 002e 0020     		movs	r0, #0
 1075 0030 84F84600 		strb	r0, [r4, #70]
 1076 0034 84F83E00 		strb	r0, [r4, #62]
 1077 0038 84F83F00 		strb	r0, [r4, #63]
 1078 003c 84F84200 		strb	r0, [r4, #66]
 1079 0040 84F84300 		strb	r0, [r4, #67]
 1080 0044 84F83D00 		strb	r0, [r4, #61]
 1081 0048 84F83C00 		strb	r0, [r4, #60]
 1082 004c 10BD     		pop	{r4, pc}
 1084              		.section	.text.HAL_TIM_DMABurst_MultiWriteStart,"ax",%progbits
 1085              		.align	1
 1086              		.global	HAL_TIM_DMABurst_MultiWriteStart
 1087              		.syntax unified
 1088              		.thumb
 1089              		.thumb_func
 1091              	HAL_TIM_DMABurst_MultiWriteStart:
 1092              		@ args = 8, pretend = 0, frame = 0
 1093              		@ frame_needed = 0, uses_anonymous_args = 0
ARM GAS  C:\Users\Rick\AppData\Local\Temp\cccDRXLh.s 			page 19


 1094 0000 70B5     		push	{r4, r5, r6, lr}
 1095 0002 0446     		mov	r4, r0
 1096 0004 0E46     		mov	r6, r1
 1097 0006 1946     		mov	r1, r3
 1098 0008 90F84630 		ldrb	r3, [r0, #70]	@ zero_extendqisi2
 1099 000c D8B2     		uxtb	r0, r3
 1100 000e 022B     		cmp	r3, #2
 1101 0010 2DD0     		beq	.L97
 1102 0012 1546     		mov	r5, r2
 1103 0014 94F84630 		ldrb	r3, [r4, #70]	@ zero_extendqisi2
 1104 0018 D8B2     		uxtb	r0, r3
 1105 001a 012B     		cmp	r3, #1
 1106 001c 28D0     		beq	.L117
 1107              	.L98:
 1108 001e B5F5006F 		cmp	r5, #2048
 1109 0022 74D0     		beq	.L100
 1110 0024 2FD8     		bhi	.L101
 1111 0026 B5F5007F 		cmp	r5, #512
 1112 002a 4AD0     		beq	.L102
 1113 002c B5F5806F 		cmp	r5, #1024
 1114 0030 5AD0     		beq	.L103
 1115 0032 B5F5807F 		cmp	r5, #256
 1116 0036 24D1     		bne	.L118
 1117 0038 236A     		ldr	r3, [r4, #32]
 1118 003a 534A     		ldr	r2, .L122
 1119 003c DA63     		str	r2, [r3, #60]
 1120 003e 236A     		ldr	r3, [r4, #32]
 1121 0040 524A     		ldr	r2, .L122+4
 1122 0042 1A64     		str	r2, [r3, #64]
 1123 0044 236A     		ldr	r3, [r4, #32]
 1124 0046 524A     		ldr	r2, .L122+8
 1125 0048 DA64     		str	r2, [r3, #76]
 1126 004a 2268     		ldr	r2, [r4]
 1127 004c 059B     		ldr	r3, [sp, #20]
 1128 004e 4C32     		adds	r2, r2, #76
 1129 0050 206A     		ldr	r0, [r4, #32]
 1130 0052 FFF7FEFF 		bl	HAL_DMA_Start_IT
 1131 0056 0028     		cmp	r0, #0
 1132 0058 40F09380 		bne	.L119
 1133              	.L108:
 1134 005c 2368     		ldr	r3, [r4]
 1135 005e 049A     		ldr	r2, [sp, #16]
 1136 0060 1643     		orrs	r6, r6, r2
 1137 0062 9E64     		str	r6, [r3, #72]
 1138 0064 2268     		ldr	r2, [r4]
 1139 0066 D368     		ldr	r3, [r2, #12]
 1140 0068 2B43     		orrs	r3, r3, r5
 1141 006a D360     		str	r3, [r2, #12]
 1142 006c 0020     		movs	r0, #0
 1143              	.L97:
 1144 006e 70BD     		pop	{r4, r5, r6, pc}
 1145              	.L117:
 1146 0070 19B1     		cbz	r1, .L120
 1147              	.L99:
 1148 0072 0223     		movs	r3, #2
 1149 0074 84F84630 		strb	r3, [r4, #70]
 1150 0078 D1E7     		b	.L98
ARM GAS  C:\Users\Rick\AppData\Local\Temp\cccDRXLh.s 			page 20


 1151              	.L120:
 1152 007a 049B     		ldr	r3, [sp, #16]
 1153 007c 002B     		cmp	r3, #0
 1154 007e F8D0     		beq	.L99
 1155 0080 F5E7     		b	.L97
 1156              	.L118:
 1157 0082 0120     		movs	r0, #1
 1158 0084 F3E7     		b	.L97
 1159              	.L101:
 1160 0086 B5F5005F 		cmp	r5, #8192
 1161 008a 53D0     		beq	.L105
 1162 008c B5F5804F 		cmp	r5, #16384
 1163 0090 63D0     		beq	.L106
 1164 0092 B5F5805F 		cmp	r5, #4096
 1165 0096 12D1     		bne	.L121
 1166 0098 236B     		ldr	r3, [r4, #48]
 1167 009a 3E4A     		ldr	r2, .L122+12
 1168 009c DA63     		str	r2, [r3, #60]
 1169 009e 236B     		ldr	r3, [r4, #48]
 1170 00a0 3D4A     		ldr	r2, .L122+16
 1171 00a2 1A64     		str	r2, [r3, #64]
 1172 00a4 236B     		ldr	r3, [r4, #48]
 1173 00a6 3A4A     		ldr	r2, .L122+8
 1174 00a8 DA64     		str	r2, [r3, #76]
 1175 00aa 2268     		ldr	r2, [r4]
 1176 00ac 059B     		ldr	r3, [sp, #20]
 1177 00ae 4C32     		adds	r2, r2, #76
 1178 00b0 206B     		ldr	r0, [r4, #48]
 1179 00b2 FFF7FEFF 		bl	HAL_DMA_Start_IT
 1180 00b6 0028     		cmp	r0, #0
 1181 00b8 D0D0     		beq	.L108
 1182 00ba 0120     		movs	r0, #1
 1183 00bc D7E7     		b	.L97
 1184              	.L121:
 1185 00be 0120     		movs	r0, #1
 1186 00c0 D5E7     		b	.L97
 1187              	.L102:
 1188 00c2 636A     		ldr	r3, [r4, #36]
 1189 00c4 334A     		ldr	r2, .L122+12
 1190 00c6 DA63     		str	r2, [r3, #60]
 1191 00c8 636A     		ldr	r3, [r4, #36]
 1192 00ca 334A     		ldr	r2, .L122+16
 1193 00cc 1A64     		str	r2, [r3, #64]
 1194 00ce 636A     		ldr	r3, [r4, #36]
 1195 00d0 2F4A     		ldr	r2, .L122+8
 1196 00d2 DA64     		str	r2, [r3, #76]
 1197 00d4 2268     		ldr	r2, [r4]
 1198 00d6 059B     		ldr	r3, [sp, #20]
 1199 00d8 4C32     		adds	r2, r2, #76
 1200 00da 606A     		ldr	r0, [r4, #36]
 1201 00dc FFF7FEFF 		bl	HAL_DMA_Start_IT
 1202 00e0 0028     		cmp	r0, #0
 1203 00e2 BBD0     		beq	.L108
 1204 00e4 0120     		movs	r0, #1
 1205 00e6 C2E7     		b	.L97
 1206              	.L103:
 1207 00e8 A36A     		ldr	r3, [r4, #40]
ARM GAS  C:\Users\Rick\AppData\Local\Temp\cccDRXLh.s 			page 21


 1208 00ea 2A4A     		ldr	r2, .L122+12
 1209 00ec DA63     		str	r2, [r3, #60]
 1210 00ee A36A     		ldr	r3, [r4, #40]
 1211 00f0 294A     		ldr	r2, .L122+16
 1212 00f2 1A64     		str	r2, [r3, #64]
 1213 00f4 A36A     		ldr	r3, [r4, #40]
 1214 00f6 264A     		ldr	r2, .L122+8
 1215 00f8 DA64     		str	r2, [r3, #76]
 1216 00fa 2268     		ldr	r2, [r4]
 1217 00fc 059B     		ldr	r3, [sp, #20]
 1218 00fe 4C32     		adds	r2, r2, #76
 1219 0100 A06A     		ldr	r0, [r4, #40]
 1220 0102 FFF7FEFF 		bl	HAL_DMA_Start_IT
 1221 0106 0028     		cmp	r0, #0
 1222 0108 A8D0     		beq	.L108
 1223 010a 0120     		movs	r0, #1
 1224 010c AFE7     		b	.L97
 1225              	.L100:
 1226 010e E36A     		ldr	r3, [r4, #44]
 1227 0110 204A     		ldr	r2, .L122+12
 1228 0112 DA63     		str	r2, [r3, #60]
 1229 0114 E36A     		ldr	r3, [r4, #44]
 1230 0116 204A     		ldr	r2, .L122+16
 1231 0118 1A64     		str	r2, [r3, #64]
 1232 011a E36A     		ldr	r3, [r4, #44]
 1233 011c 1C4A     		ldr	r2, .L122+8
 1234 011e DA64     		str	r2, [r3, #76]
 1235 0120 2268     		ldr	r2, [r4]
 1236 0122 059B     		ldr	r3, [sp, #20]
 1237 0124 4C32     		adds	r2, r2, #76
 1238 0126 E06A     		ldr	r0, [r4, #44]
 1239 0128 FFF7FEFF 		bl	HAL_DMA_Start_IT
 1240 012c 0028     		cmp	r0, #0
 1241 012e 95D0     		beq	.L108
 1242 0130 0120     		movs	r0, #1
 1243 0132 9CE7     		b	.L97
 1244              	.L105:
 1245 0134 636B     		ldr	r3, [r4, #52]
 1246 0136 194A     		ldr	r2, .L122+20
 1247 0138 DA63     		str	r2, [r3, #60]
 1248 013a 636B     		ldr	r3, [r4, #52]
 1249 013c 184A     		ldr	r2, .L122+24
 1250 013e 1A64     		str	r2, [r3, #64]
 1251 0140 636B     		ldr	r3, [r4, #52]
 1252 0142 134A     		ldr	r2, .L122+8
 1253 0144 DA64     		str	r2, [r3, #76]
 1254 0146 2268     		ldr	r2, [r4]
 1255 0148 059B     		ldr	r3, [sp, #20]
 1256 014a 4C32     		adds	r2, r2, #76
 1257 014c 606B     		ldr	r0, [r4, #52]
 1258 014e FFF7FEFF 		bl	HAL_DMA_Start_IT
 1259 0152 0028     		cmp	r0, #0
 1260 0154 82D0     		beq	.L108
 1261 0156 0120     		movs	r0, #1
 1262 0158 89E7     		b	.L97
 1263              	.L106:
 1264 015a A36B     		ldr	r3, [r4, #56]
ARM GAS  C:\Users\Rick\AppData\Local\Temp\cccDRXLh.s 			page 22


 1265 015c 114A     		ldr	r2, .L122+28
 1266 015e DA63     		str	r2, [r3, #60]
 1267 0160 A36B     		ldr	r3, [r4, #56]
 1268 0162 114A     		ldr	r2, .L122+32
 1269 0164 1A64     		str	r2, [r3, #64]
 1270 0166 A36B     		ldr	r3, [r4, #56]
 1271 0168 094A     		ldr	r2, .L122+8
 1272 016a DA64     		str	r2, [r3, #76]
 1273 016c 2268     		ldr	r2, [r4]
 1274 016e 059B     		ldr	r3, [sp, #20]
 1275 0170 4C32     		adds	r2, r2, #76
 1276 0172 A06B     		ldr	r0, [r4, #56]
 1277 0174 FFF7FEFF 		bl	HAL_DMA_Start_IT
 1278 0178 0028     		cmp	r0, #0
 1279 017a 3FF46FAF 		beq	.L108
 1280 017e 0120     		movs	r0, #1
 1281 0180 75E7     		b	.L97
 1282              	.L119:
 1283 0182 0120     		movs	r0, #1
 1284 0184 73E7     		b	.L97
 1285              	.L123:
 1286 0186 00BF     		.align	2
 1287              	.L122:
 1288 0188 00000000 		.word	TIM_DMAPeriodElapsedCplt
 1289 018c 00000000 		.word	TIM_DMAPeriodElapsedHalfCplt
 1290 0190 00000000 		.word	TIM_DMAError
 1291 0194 00000000 		.word	TIM_DMADelayPulseCplt
 1292 0198 00000000 		.word	TIM_DMADelayPulseHalfCplt
 1293 019c 00000000 		.word	TIMEx_DMACommutationCplt
 1294 01a0 00000000 		.word	TIMEx_DMACommutationHalfCplt
 1295 01a4 00000000 		.word	TIM_DMATriggerCplt
 1296 01a8 00000000 		.word	TIM_DMATriggerHalfCplt
 1298              		.section	.text.HAL_TIM_DMABurst_WriteStart,"ax",%progbits
 1299              		.align	1
 1300              		.global	HAL_TIM_DMABurst_WriteStart
 1301              		.syntax unified
 1302              		.thumb
 1303              		.thumb_func
 1305              	HAL_TIM_DMABurst_WriteStart:
 1306              		@ args = 4, pretend = 0, frame = 0
 1307              		@ frame_needed = 0, uses_anonymous_args = 0
 1308 0000 30B5     		push	{r4, r5, lr}
 1309 0002 83B0     		sub	sp, sp, #12
 1310 0004 069D     		ldr	r5, [sp, #24]
 1311 0006 2C0A     		lsrs	r4, r5, #8
 1312 0008 0134     		adds	r4, r4, #1
 1313 000a 0194     		str	r4, [sp, #4]
 1314 000c 0095     		str	r5, [sp]
 1315 000e FFF7FEFF 		bl	HAL_TIM_DMABurst_MultiWriteStart
 1316 0012 03B0     		add	sp, sp, #12
 1317              		@ sp needed
 1318 0014 30BD     		pop	{r4, r5, pc}
 1320              		.section	.text.HAL_TIM_DMABurst_WriteStop,"ax",%progbits
 1321              		.align	1
 1322              		.global	HAL_TIM_DMABurst_WriteStop
 1323              		.syntax unified
 1324              		.thumb
ARM GAS  C:\Users\Rick\AppData\Local\Temp\cccDRXLh.s 			page 23


 1325              		.thumb_func
 1327              	HAL_TIM_DMABurst_WriteStop:
 1328              		@ args = 0, pretend = 0, frame = 0
 1329              		@ frame_needed = 0, uses_anonymous_args = 0
 1330 0000 38B5     		push	{r3, r4, r5, lr}
 1331 0002 0546     		mov	r5, r0
 1332 0004 0C46     		mov	r4, r1
 1333 0006 B1F5006F 		cmp	r1, #2048
 1334 000a 2FD0     		beq	.L127
 1335 000c 17D8     		bhi	.L128
 1336 000e B1F5007F 		cmp	r1, #512
 1337 0012 23D0     		beq	.L129
 1338 0014 B1F5806F 		cmp	r1, #1024
 1339 0018 24D0     		beq	.L130
 1340 001a B1F5807F 		cmp	r1, #256
 1341 001e 0CD1     		bne	.L138
 1342 0020 006A     		ldr	r0, [r0, #32]
 1343 0022 FFF7FEFF 		bl	HAL_DMA_Abort_IT
 1344              	.L136:
 1345 0026 2A68     		ldr	r2, [r5]
 1346 0028 D368     		ldr	r3, [r2, #12]
 1347 002a 23EA0403 		bic	r3, r3, r4
 1348 002e D360     		str	r3, [r2, #12]
 1349 0030 0123     		movs	r3, #1
 1350 0032 85F84630 		strb	r3, [r5, #70]
 1351 0036 0020     		movs	r0, #0
 1352              	.L132:
 1353 0038 38BD     		pop	{r3, r4, r5, pc}
 1354              	.L138:
 1355 003a 0120     		movs	r0, #1
 1356 003c FCE7     		b	.L132
 1357              	.L128:
 1358 003e B1F5005F 		cmp	r1, #8192
 1359 0042 17D0     		beq	.L133
 1360 0044 B1F5804F 		cmp	r1, #16384
 1361 0048 18D0     		beq	.L134
 1362 004a B1F5805F 		cmp	r1, #4096
 1363 004e 03D1     		bne	.L139
 1364 0050 006B     		ldr	r0, [r0, #48]
 1365 0052 FFF7FEFF 		bl	HAL_DMA_Abort_IT
 1366 0056 E6E7     		b	.L136
 1367              	.L139:
 1368 0058 0120     		movs	r0, #1
 1369 005a EDE7     		b	.L132
 1370              	.L129:
 1371 005c 406A     		ldr	r0, [r0, #36]
 1372 005e FFF7FEFF 		bl	HAL_DMA_Abort_IT
 1373 0062 E0E7     		b	.L136
 1374              	.L130:
 1375 0064 806A     		ldr	r0, [r0, #40]
 1376 0066 FFF7FEFF 		bl	HAL_DMA_Abort_IT
 1377 006a DCE7     		b	.L136
 1378              	.L127:
 1379 006c C06A     		ldr	r0, [r0, #44]
 1380 006e FFF7FEFF 		bl	HAL_DMA_Abort_IT
 1381 0072 D8E7     		b	.L136
 1382              	.L133:
ARM GAS  C:\Users\Rick\AppData\Local\Temp\cccDRXLh.s 			page 24


 1383 0074 406B     		ldr	r0, [r0, #52]
 1384 0076 FFF7FEFF 		bl	HAL_DMA_Abort_IT
 1385 007a D4E7     		b	.L136
 1386              	.L134:
 1387 007c 806B     		ldr	r0, [r0, #56]
 1388 007e FFF7FEFF 		bl	HAL_DMA_Abort_IT
 1389 0082 D0E7     		b	.L136
 1391              		.section	.text.HAL_TIM_DMABurst_MultiReadStart,"ax",%progbits
 1392              		.align	1
 1393              		.global	HAL_TIM_DMABurst_MultiReadStart
 1394              		.syntax unified
 1395              		.thumb
 1396              		.thumb_func
 1398              	HAL_TIM_DMABurst_MultiReadStart:
 1399              		@ args = 8, pretend = 0, frame = 0
 1400              		@ frame_needed = 0, uses_anonymous_args = 0
 1401 0000 70B5     		push	{r4, r5, r6, lr}
 1402 0002 0446     		mov	r4, r0
 1403 0004 1546     		mov	r5, r2
 1404 0006 1A46     		mov	r2, r3
 1405 0008 90F84630 		ldrb	r3, [r0, #70]	@ zero_extendqisi2
 1406 000c D8B2     		uxtb	r0, r3
 1407 000e 022B     		cmp	r3, #2
 1408 0010 2DD0     		beq	.L141
 1409 0012 0E46     		mov	r6, r1
 1410 0014 94F84630 		ldrb	r3, [r4, #70]	@ zero_extendqisi2
 1411 0018 D8B2     		uxtb	r0, r3
 1412 001a 012B     		cmp	r3, #1
 1413 001c 28D0     		beq	.L161
 1414              	.L142:
 1415 001e B5F5006F 		cmp	r5, #2048
 1416 0022 74D0     		beq	.L144
 1417 0024 2FD8     		bhi	.L145
 1418 0026 B5F5007F 		cmp	r5, #512
 1419 002a 4AD0     		beq	.L146
 1420 002c B5F5806F 		cmp	r5, #1024
 1421 0030 5AD0     		beq	.L147
 1422 0032 B5F5807F 		cmp	r5, #256
 1423 0036 24D1     		bne	.L162
 1424 0038 236A     		ldr	r3, [r4, #32]
 1425 003a 5349     		ldr	r1, .L166
 1426 003c D963     		str	r1, [r3, #60]
 1427 003e 236A     		ldr	r3, [r4, #32]
 1428 0040 5249     		ldr	r1, .L166+4
 1429 0042 1964     		str	r1, [r3, #64]
 1430 0044 236A     		ldr	r3, [r4, #32]
 1431 0046 5249     		ldr	r1, .L166+8
 1432 0048 D964     		str	r1, [r3, #76]
 1433 004a 2168     		ldr	r1, [r4]
 1434 004c 059B     		ldr	r3, [sp, #20]
 1435 004e 4C31     		adds	r1, r1, #76
 1436 0050 206A     		ldr	r0, [r4, #32]
 1437 0052 FFF7FEFF 		bl	HAL_DMA_Start_IT
 1438 0056 0028     		cmp	r0, #0
 1439 0058 40F09380 		bne	.L163
 1440              	.L152:
 1441 005c 2368     		ldr	r3, [r4]
ARM GAS  C:\Users\Rick\AppData\Local\Temp\cccDRXLh.s 			page 25


 1442 005e 049A     		ldr	r2, [sp, #16]
 1443 0060 1643     		orrs	r6, r6, r2
 1444 0062 9E64     		str	r6, [r3, #72]
 1445 0064 2268     		ldr	r2, [r4]
 1446 0066 D368     		ldr	r3, [r2, #12]
 1447 0068 2B43     		orrs	r3, r3, r5
 1448 006a D360     		str	r3, [r2, #12]
 1449 006c 0020     		movs	r0, #0
 1450              	.L141:
 1451 006e 70BD     		pop	{r4, r5, r6, pc}
 1452              	.L161:
 1453 0070 1AB1     		cbz	r2, .L164
 1454              	.L143:
 1455 0072 0223     		movs	r3, #2
 1456 0074 84F84630 		strb	r3, [r4, #70]
 1457 0078 D1E7     		b	.L142
 1458              	.L164:
 1459 007a 049B     		ldr	r3, [sp, #16]
 1460 007c 002B     		cmp	r3, #0
 1461 007e F8D0     		beq	.L143
 1462 0080 F5E7     		b	.L141
 1463              	.L162:
 1464 0082 0120     		movs	r0, #1
 1465 0084 F3E7     		b	.L141
 1466              	.L145:
 1467 0086 B5F5005F 		cmp	r5, #8192
 1468 008a 53D0     		beq	.L149
 1469 008c B5F5804F 		cmp	r5, #16384
 1470 0090 63D0     		beq	.L150
 1471 0092 B5F5805F 		cmp	r5, #4096
 1472 0096 12D1     		bne	.L165
 1473 0098 236B     		ldr	r3, [r4, #48]
 1474 009a 3E49     		ldr	r1, .L166+12
 1475 009c D963     		str	r1, [r3, #60]
 1476 009e 236B     		ldr	r3, [r4, #48]
 1477 00a0 3D49     		ldr	r1, .L166+16
 1478 00a2 1964     		str	r1, [r3, #64]
 1479 00a4 236B     		ldr	r3, [r4, #48]
 1480 00a6 3A49     		ldr	r1, .L166+8
 1481 00a8 D964     		str	r1, [r3, #76]
 1482 00aa 2168     		ldr	r1, [r4]
 1483 00ac 059B     		ldr	r3, [sp, #20]
 1484 00ae 4C31     		adds	r1, r1, #76
 1485 00b0 206B     		ldr	r0, [r4, #48]
 1486 00b2 FFF7FEFF 		bl	HAL_DMA_Start_IT
 1487 00b6 0028     		cmp	r0, #0
 1488 00b8 D0D0     		beq	.L152
 1489 00ba 0120     		movs	r0, #1
 1490 00bc D7E7     		b	.L141
 1491              	.L165:
 1492 00be 0120     		movs	r0, #1
 1493 00c0 D5E7     		b	.L141
 1494              	.L146:
 1495 00c2 636A     		ldr	r3, [r4, #36]
 1496 00c4 3349     		ldr	r1, .L166+12
 1497 00c6 D963     		str	r1, [r3, #60]
 1498 00c8 636A     		ldr	r3, [r4, #36]
ARM GAS  C:\Users\Rick\AppData\Local\Temp\cccDRXLh.s 			page 26


 1499 00ca 3349     		ldr	r1, .L166+16
 1500 00cc 1964     		str	r1, [r3, #64]
 1501 00ce 636A     		ldr	r3, [r4, #36]
 1502 00d0 2F49     		ldr	r1, .L166+8
 1503 00d2 D964     		str	r1, [r3, #76]
 1504 00d4 2168     		ldr	r1, [r4]
 1505 00d6 059B     		ldr	r3, [sp, #20]
 1506 00d8 4C31     		adds	r1, r1, #76
 1507 00da 606A     		ldr	r0, [r4, #36]
 1508 00dc FFF7FEFF 		bl	HAL_DMA_Start_IT
 1509 00e0 0028     		cmp	r0, #0
 1510 00e2 BBD0     		beq	.L152
 1511 00e4 0120     		movs	r0, #1
 1512 00e6 C2E7     		b	.L141
 1513              	.L147:
 1514 00e8 A36A     		ldr	r3, [r4, #40]
 1515 00ea 2A49     		ldr	r1, .L166+12
 1516 00ec D963     		str	r1, [r3, #60]
 1517 00ee A36A     		ldr	r3, [r4, #40]
 1518 00f0 2949     		ldr	r1, .L166+16
 1519 00f2 1964     		str	r1, [r3, #64]
 1520 00f4 A36A     		ldr	r3, [r4, #40]
 1521 00f6 2649     		ldr	r1, .L166+8
 1522 00f8 D964     		str	r1, [r3, #76]
 1523 00fa 2168     		ldr	r1, [r4]
 1524 00fc 059B     		ldr	r3, [sp, #20]
 1525 00fe 4C31     		adds	r1, r1, #76
 1526 0100 A06A     		ldr	r0, [r4, #40]
 1527 0102 FFF7FEFF 		bl	HAL_DMA_Start_IT
 1528 0106 0028     		cmp	r0, #0
 1529 0108 A8D0     		beq	.L152
 1530 010a 0120     		movs	r0, #1
 1531 010c AFE7     		b	.L141
 1532              	.L144:
 1533 010e E36A     		ldr	r3, [r4, #44]
 1534 0110 2049     		ldr	r1, .L166+12
 1535 0112 D963     		str	r1, [r3, #60]
 1536 0114 E36A     		ldr	r3, [r4, #44]
 1537 0116 2049     		ldr	r1, .L166+16
 1538 0118 1964     		str	r1, [r3, #64]
 1539 011a E36A     		ldr	r3, [r4, #44]
 1540 011c 1C49     		ldr	r1, .L166+8
 1541 011e D964     		str	r1, [r3, #76]
 1542 0120 2168     		ldr	r1, [r4]
 1543 0122 059B     		ldr	r3, [sp, #20]
 1544 0124 4C31     		adds	r1, r1, #76
 1545 0126 E06A     		ldr	r0, [r4, #44]
 1546 0128 FFF7FEFF 		bl	HAL_DMA_Start_IT
 1547 012c 0028     		cmp	r0, #0
 1548 012e 95D0     		beq	.L152
 1549 0130 0120     		movs	r0, #1
 1550 0132 9CE7     		b	.L141
 1551              	.L149:
 1552 0134 636B     		ldr	r3, [r4, #52]
 1553 0136 1949     		ldr	r1, .L166+20
 1554 0138 D963     		str	r1, [r3, #60]
 1555 013a 636B     		ldr	r3, [r4, #52]
ARM GAS  C:\Users\Rick\AppData\Local\Temp\cccDRXLh.s 			page 27


 1556 013c 1849     		ldr	r1, .L166+24
 1557 013e 1964     		str	r1, [r3, #64]
 1558 0140 636B     		ldr	r3, [r4, #52]
 1559 0142 1349     		ldr	r1, .L166+8
 1560 0144 D964     		str	r1, [r3, #76]
 1561 0146 2168     		ldr	r1, [r4]
 1562 0148 059B     		ldr	r3, [sp, #20]
 1563 014a 4C31     		adds	r1, r1, #76
 1564 014c 606B     		ldr	r0, [r4, #52]
 1565 014e FFF7FEFF 		bl	HAL_DMA_Start_IT
 1566 0152 0028     		cmp	r0, #0
 1567 0154 82D0     		beq	.L152
 1568 0156 0120     		movs	r0, #1
 1569 0158 89E7     		b	.L141
 1570              	.L150:
 1571 015a A36B     		ldr	r3, [r4, #56]
 1572 015c 1149     		ldr	r1, .L166+28
 1573 015e D963     		str	r1, [r3, #60]
 1574 0160 A36B     		ldr	r3, [r4, #56]
 1575 0162 1149     		ldr	r1, .L166+32
 1576 0164 1964     		str	r1, [r3, #64]
 1577 0166 A36B     		ldr	r3, [r4, #56]
 1578 0168 0949     		ldr	r1, .L166+8
 1579 016a D964     		str	r1, [r3, #76]
 1580 016c 2168     		ldr	r1, [r4]
 1581 016e 059B     		ldr	r3, [sp, #20]
 1582 0170 4C31     		adds	r1, r1, #76
 1583 0172 A06B     		ldr	r0, [r4, #56]
 1584 0174 FFF7FEFF 		bl	HAL_DMA_Start_IT
 1585 0178 0028     		cmp	r0, #0
 1586 017a 3FF46FAF 		beq	.L152
 1587 017e 0120     		movs	r0, #1
 1588 0180 75E7     		b	.L141
 1589              	.L163:
 1590 0182 0120     		movs	r0, #1
 1591 0184 73E7     		b	.L141
 1592              	.L167:
 1593 0186 00BF     		.align	2
 1594              	.L166:
 1595 0188 00000000 		.word	TIM_DMAPeriodElapsedCplt
 1596 018c 00000000 		.word	TIM_DMAPeriodElapsedHalfCplt
 1597 0190 00000000 		.word	TIM_DMAError
 1598 0194 00000000 		.word	TIM_DMACaptureCplt
 1599 0198 00000000 		.word	TIM_DMACaptureHalfCplt
 1600 019c 00000000 		.word	TIMEx_DMACommutationCplt
 1601 01a0 00000000 		.word	TIMEx_DMACommutationHalfCplt
 1602 01a4 00000000 		.word	TIM_DMATriggerCplt
 1603 01a8 00000000 		.word	TIM_DMATriggerHalfCplt
 1605              		.section	.text.HAL_TIM_DMABurst_ReadStart,"ax",%progbits
 1606              		.align	1
 1607              		.global	HAL_TIM_DMABurst_ReadStart
 1608              		.syntax unified
 1609              		.thumb
 1610              		.thumb_func
 1612              	HAL_TIM_DMABurst_ReadStart:
 1613              		@ args = 4, pretend = 0, frame = 0
 1614              		@ frame_needed = 0, uses_anonymous_args = 0
ARM GAS  C:\Users\Rick\AppData\Local\Temp\cccDRXLh.s 			page 28


 1615 0000 30B5     		push	{r4, r5, lr}
 1616 0002 83B0     		sub	sp, sp, #12
 1617 0004 069D     		ldr	r5, [sp, #24]
 1618 0006 2C0A     		lsrs	r4, r5, #8
 1619 0008 0134     		adds	r4, r4, #1
 1620 000a 0194     		str	r4, [sp, #4]
 1621 000c 0095     		str	r5, [sp]
 1622 000e FFF7FEFF 		bl	HAL_TIM_DMABurst_MultiReadStart
 1623 0012 03B0     		add	sp, sp, #12
 1624              		@ sp needed
 1625 0014 30BD     		pop	{r4, r5, pc}
 1627              		.section	.text.HAL_TIM_DMABurst_ReadStop,"ax",%progbits
 1628              		.align	1
 1629              		.global	HAL_TIM_DMABurst_ReadStop
 1630              		.syntax unified
 1631              		.thumb
 1632              		.thumb_func
 1634              	HAL_TIM_DMABurst_ReadStop:
 1635              		@ args = 0, pretend = 0, frame = 0
 1636              		@ frame_needed = 0, uses_anonymous_args = 0
 1637 0000 38B5     		push	{r3, r4, r5, lr}
 1638 0002 0546     		mov	r5, r0
 1639 0004 0C46     		mov	r4, r1
 1640 0006 B1F5006F 		cmp	r1, #2048
 1641 000a 2FD0     		beq	.L171
 1642 000c 17D8     		bhi	.L172
 1643 000e B1F5007F 		cmp	r1, #512
 1644 0012 23D0     		beq	.L173
 1645 0014 B1F5806F 		cmp	r1, #1024
 1646 0018 24D0     		beq	.L174
 1647 001a B1F5807F 		cmp	r1, #256
 1648 001e 0CD1     		bne	.L182
 1649 0020 006A     		ldr	r0, [r0, #32]
 1650 0022 FFF7FEFF 		bl	HAL_DMA_Abort_IT
 1651              	.L180:
 1652 0026 2A68     		ldr	r2, [r5]
 1653 0028 D368     		ldr	r3, [r2, #12]
 1654 002a 23EA0403 		bic	r3, r3, r4
 1655 002e D360     		str	r3, [r2, #12]
 1656 0030 0123     		movs	r3, #1
 1657 0032 85F84630 		strb	r3, [r5, #70]
 1658 0036 0020     		movs	r0, #0
 1659              	.L176:
 1660 0038 38BD     		pop	{r3, r4, r5, pc}
 1661              	.L182:
 1662 003a 0120     		movs	r0, #1
 1663 003c FCE7     		b	.L176
 1664              	.L172:
 1665 003e B1F5005F 		cmp	r1, #8192
 1666 0042 17D0     		beq	.L177
 1667 0044 B1F5804F 		cmp	r1, #16384
 1668 0048 18D0     		beq	.L178
 1669 004a B1F5805F 		cmp	r1, #4096
 1670 004e 03D1     		bne	.L183
 1671 0050 006B     		ldr	r0, [r0, #48]
 1672 0052 FFF7FEFF 		bl	HAL_DMA_Abort_IT
 1673 0056 E6E7     		b	.L180
ARM GAS  C:\Users\Rick\AppData\Local\Temp\cccDRXLh.s 			page 29


 1674              	.L183:
 1675 0058 0120     		movs	r0, #1
 1676 005a EDE7     		b	.L176
 1677              	.L173:
 1678 005c 406A     		ldr	r0, [r0, #36]
 1679 005e FFF7FEFF 		bl	HAL_DMA_Abort_IT
 1680 0062 E0E7     		b	.L180
 1681              	.L174:
 1682 0064 806A     		ldr	r0, [r0, #40]
 1683 0066 FFF7FEFF 		bl	HAL_DMA_Abort_IT
 1684 006a DCE7     		b	.L180
 1685              	.L171:
 1686 006c C06A     		ldr	r0, [r0, #44]
 1687 006e FFF7FEFF 		bl	HAL_DMA_Abort_IT
 1688 0072 D8E7     		b	.L180
 1689              	.L177:
 1690 0074 406B     		ldr	r0, [r0, #52]
 1691 0076 FFF7FEFF 		bl	HAL_DMA_Abort_IT
 1692 007a D4E7     		b	.L180
 1693              	.L178:
 1694 007c 806B     		ldr	r0, [r0, #56]
 1695 007e FFF7FEFF 		bl	HAL_DMA_Abort_IT
 1696 0082 D0E7     		b	.L180
 1698              		.section	.text.HAL_TIM_GenerateEvent,"ax",%progbits
 1699              		.align	1
 1700              		.global	HAL_TIM_GenerateEvent
 1701              		.syntax unified
 1702              		.thumb
 1703              		.thumb_func
 1705              	HAL_TIM_GenerateEvent:
 1706              		@ args = 0, pretend = 0, frame = 0
 1707              		@ frame_needed = 0, uses_anonymous_args = 0
 1708              		@ link register save eliminated.
 1709 0000 90F83C30 		ldrb	r3, [r0, #60]	@ zero_extendqisi2
 1710 0004 012B     		cmp	r3, #1
 1711 0006 0ED0     		beq	.L186
 1712 0008 0123     		movs	r3, #1
 1713 000a 80F83C30 		strb	r3, [r0, #60]
 1714 000e 0222     		movs	r2, #2
 1715 0010 80F83D20 		strb	r2, [r0, #61]
 1716 0014 0268     		ldr	r2, [r0]
 1717 0016 5161     		str	r1, [r2, #20]
 1718 0018 80F83D30 		strb	r3, [r0, #61]
 1719 001c 0023     		movs	r3, #0
 1720 001e 80F83C30 		strb	r3, [r0, #60]
 1721 0022 1846     		mov	r0, r3
 1722 0024 7047     		bx	lr
 1723              	.L186:
 1724 0026 0220     		movs	r0, #2
 1725 0028 7047     		bx	lr
 1727              		.section	.text.HAL_TIM_ConfigTI1Input,"ax",%progbits
 1728              		.align	1
 1729              		.global	HAL_TIM_ConfigTI1Input
 1730              		.syntax unified
 1731              		.thumb
 1732              		.thumb_func
 1734              	HAL_TIM_ConfigTI1Input:
ARM GAS  C:\Users\Rick\AppData\Local\Temp\cccDRXLh.s 			page 30


 1735              		@ args = 0, pretend = 0, frame = 0
 1736              		@ frame_needed = 0, uses_anonymous_args = 0
 1737              		@ link register save eliminated.
 1738 0000 0268     		ldr	r2, [r0]
 1739 0002 5368     		ldr	r3, [r2, #4]
 1740 0004 23F08003 		bic	r3, r3, #128
 1741 0008 0B43     		orrs	r3, r3, r1
 1742 000a 5360     		str	r3, [r2, #4]
 1743 000c 0020     		movs	r0, #0
 1744 000e 7047     		bx	lr
 1746              		.section	.text.HAL_TIM_ReadCapturedValue,"ax",%progbits
 1747              		.align	1
 1748              		.global	HAL_TIM_ReadCapturedValue
 1749              		.syntax unified
 1750              		.thumb
 1751              		.thumb_func
 1753              	HAL_TIM_ReadCapturedValue:
 1754              		@ args = 0, pretend = 0, frame = 0
 1755              		@ frame_needed = 0, uses_anonymous_args = 0
 1756              		@ link register save eliminated.
 1757 0000 0C29     		cmp	r1, #12
 1758 0002 14D8     		bhi	.L195
 1759 0004 DFE801F0 		tbb	[pc, r1]
 1760              	.L191:
 1761 0008 07       		.byte	(.L194-.L191)/2
 1762 0009 13       		.byte	(.L195-.L191)/2
 1763 000a 13       		.byte	(.L195-.L191)/2
 1764 000b 13       		.byte	(.L195-.L191)/2
 1765 000c 0A       		.byte	(.L193-.L191)/2
 1766 000d 13       		.byte	(.L195-.L191)/2
 1767 000e 13       		.byte	(.L195-.L191)/2
 1768 000f 13       		.byte	(.L195-.L191)/2
 1769 0010 0D       		.byte	(.L192-.L191)/2
 1770 0011 13       		.byte	(.L195-.L191)/2
 1771 0012 13       		.byte	(.L195-.L191)/2
 1772 0013 13       		.byte	(.L195-.L191)/2
 1773 0014 10       		.byte	(.L190-.L191)/2
 1774 0015 00       		.p2align 1
 1775              	.L194:
 1776 0016 0368     		ldr	r3, [r0]
 1777 0018 586B     		ldr	r0, [r3, #52]
 1778 001a 7047     		bx	lr
 1779              	.L193:
 1780 001c 0368     		ldr	r3, [r0]
 1781 001e 986B     		ldr	r0, [r3, #56]
 1782 0020 7047     		bx	lr
 1783              	.L192:
 1784 0022 0368     		ldr	r3, [r0]
 1785 0024 D86B     		ldr	r0, [r3, #60]
 1786 0026 7047     		bx	lr
 1787              	.L190:
 1788 0028 0368     		ldr	r3, [r0]
 1789 002a 186C     		ldr	r0, [r3, #64]
 1790 002c 7047     		bx	lr
 1791              	.L195:
 1792 002e 0020     		movs	r0, #0
 1793 0030 7047     		bx	lr
ARM GAS  C:\Users\Rick\AppData\Local\Temp\cccDRXLh.s 			page 31


 1795              		.section	.text.HAL_TIM_PeriodElapsedCallback,"ax",%progbits
 1796              		.align	1
 1797              		.weak	HAL_TIM_PeriodElapsedCallback
 1798              		.syntax unified
 1799              		.thumb
 1800              		.thumb_func
 1802              	HAL_TIM_PeriodElapsedCallback:
 1803              		@ args = 0, pretend = 0, frame = 0
 1804              		@ frame_needed = 0, uses_anonymous_args = 0
 1805              		@ link register save eliminated.
 1806 0000 7047     		bx	lr
 1808              		.section	.text.TIM_DMAPeriodElapsedCplt,"ax",%progbits
 1809              		.align	1
 1810              		.syntax unified
 1811              		.thumb
 1812              		.thumb_func
 1814              	TIM_DMAPeriodElapsedCplt:
 1815              		@ args = 0, pretend = 0, frame = 0
 1816              		@ frame_needed = 0, uses_anonymous_args = 0
 1817 0000 08B5     		push	{r3, lr}
 1818 0002 806B     		ldr	r0, [r0, #56]
 1819 0004 036A     		ldr	r3, [r0, #32]
 1820 0006 DB69     		ldr	r3, [r3, #28]
 1821 0008 13B9     		cbnz	r3, .L198
 1822 000a 0123     		movs	r3, #1
 1823 000c 80F83D30 		strb	r3, [r0, #61]
 1824              	.L198:
 1825 0010 FFF7FEFF 		bl	HAL_TIM_PeriodElapsedCallback
 1826 0014 08BD     		pop	{r3, pc}
 1828              		.section	.text.HAL_TIM_PeriodElapsedHalfCpltCallback,"ax",%progbits
 1829              		.align	1
 1830              		.weak	HAL_TIM_PeriodElapsedHalfCpltCallback
 1831              		.syntax unified
 1832              		.thumb
 1833              		.thumb_func
 1835              	HAL_TIM_PeriodElapsedHalfCpltCallback:
 1836              		@ args = 0, pretend = 0, frame = 0
 1837              		@ frame_needed = 0, uses_anonymous_args = 0
 1838              		@ link register save eliminated.
 1839 0000 7047     		bx	lr
 1841              		.section	.text.TIM_DMAPeriodElapsedHalfCplt,"ax",%progbits
 1842              		.align	1
 1843              		.syntax unified
 1844              		.thumb
 1845              		.thumb_func
 1847              	TIM_DMAPeriodElapsedHalfCplt:
 1848              		@ args = 0, pretend = 0, frame = 0
 1849              		@ frame_needed = 0, uses_anonymous_args = 0
 1850 0000 08B5     		push	{r3, lr}
 1851 0002 806B     		ldr	r0, [r0, #56]
 1852 0004 FFF7FEFF 		bl	HAL_TIM_PeriodElapsedHalfCpltCallback
 1853 0008 08BD     		pop	{r3, pc}
 1855              		.section	.text.HAL_TIM_OC_DelayElapsedCallback,"ax",%progbits
 1856              		.align	1
 1857              		.weak	HAL_TIM_OC_DelayElapsedCallback
 1858              		.syntax unified
 1859              		.thumb
ARM GAS  C:\Users\Rick\AppData\Local\Temp\cccDRXLh.s 			page 32


 1860              		.thumb_func
 1862              	HAL_TIM_OC_DelayElapsedCallback:
 1863              		@ args = 0, pretend = 0, frame = 0
 1864              		@ frame_needed = 0, uses_anonymous_args = 0
 1865              		@ link register save eliminated.
 1866 0000 7047     		bx	lr
 1868              		.section	.text.HAL_TIM_IC_CaptureCallback,"ax",%progbits
 1869              		.align	1
 1870              		.weak	HAL_TIM_IC_CaptureCallback
 1871              		.syntax unified
 1872              		.thumb
 1873              		.thumb_func
 1875              	HAL_TIM_IC_CaptureCallback:
 1876              		@ args = 0, pretend = 0, frame = 0
 1877              		@ frame_needed = 0, uses_anonymous_args = 0
 1878              		@ link register save eliminated.
 1879 0000 7047     		bx	lr
 1881              		.section	.text.TIM_DMACaptureCplt,"ax",%progbits
 1882              		.align	1
 1883              		.global	TIM_DMACaptureCplt
 1884              		.syntax unified
 1885              		.thumb
 1886              		.thumb_func
 1888              	TIM_DMACaptureCplt:
 1889              		@ args = 0, pretend = 0, frame = 0
 1890              		@ frame_needed = 0, uses_anonymous_args = 0
 1891 0000 10B5     		push	{r4, lr}
 1892 0002 846B     		ldr	r4, [r0, #56]
 1893 0004 636A     		ldr	r3, [r4, #36]
 1894 0006 8342     		cmp	r3, r0
 1895 0008 0ED0     		beq	.L211
 1896 000a A36A     		ldr	r3, [r4, #40]
 1897 000c 8342     		cmp	r3, r0
 1898 000e 16D0     		beq	.L212
 1899 0010 E36A     		ldr	r3, [r4, #44]
 1900 0012 8342     		cmp	r3, r0
 1901 0014 1ED0     		beq	.L213
 1902 0016 236B     		ldr	r3, [r4, #48]
 1903 0018 8342     		cmp	r3, r0
 1904 001a 26D0     		beq	.L214
 1905              	.L207:
 1906 001c 2046     		mov	r0, r4
 1907 001e FFF7FEFF 		bl	HAL_TIM_IC_CaptureCallback
 1908 0022 0023     		movs	r3, #0
 1909 0024 2377     		strb	r3, [r4, #28]
 1910 0026 10BD     		pop	{r4, pc}
 1911              	.L211:
 1912 0028 0123     		movs	r3, #1
 1913 002a 2377     		strb	r3, [r4, #28]
 1914 002c C369     		ldr	r3, [r0, #28]
 1915 002e 002B     		cmp	r3, #0
 1916 0030 F4D1     		bne	.L207
 1917 0032 0123     		movs	r3, #1
 1918 0034 84F83E30 		strb	r3, [r4, #62]
 1919 0038 84F84230 		strb	r3, [r4, #66]
 1920 003c EEE7     		b	.L207
 1921              	.L212:
ARM GAS  C:\Users\Rick\AppData\Local\Temp\cccDRXLh.s 			page 33


 1922 003e 0223     		movs	r3, #2
 1923 0040 2377     		strb	r3, [r4, #28]
 1924 0042 C369     		ldr	r3, [r0, #28]
 1925 0044 002B     		cmp	r3, #0
 1926 0046 E9D1     		bne	.L207
 1927 0048 0123     		movs	r3, #1
 1928 004a 84F83F30 		strb	r3, [r4, #63]
 1929 004e 84F84330 		strb	r3, [r4, #67]
 1930 0052 E3E7     		b	.L207
 1931              	.L213:
 1932 0054 0423     		movs	r3, #4
 1933 0056 2377     		strb	r3, [r4, #28]
 1934 0058 C369     		ldr	r3, [r0, #28]
 1935 005a 002B     		cmp	r3, #0
 1936 005c DED1     		bne	.L207
 1937 005e 0123     		movs	r3, #1
 1938 0060 84F84030 		strb	r3, [r4, #64]
 1939 0064 84F84430 		strb	r3, [r4, #68]
 1940 0068 D8E7     		b	.L207
 1941              	.L214:
 1942 006a 0823     		movs	r3, #8
 1943 006c 2377     		strb	r3, [r4, #28]
 1944 006e C369     		ldr	r3, [r0, #28]
 1945 0070 002B     		cmp	r3, #0
 1946 0072 D3D1     		bne	.L207
 1947 0074 0123     		movs	r3, #1
 1948 0076 84F84130 		strb	r3, [r4, #65]
 1949 007a 84F84530 		strb	r3, [r4, #69]
 1950 007e CDE7     		b	.L207
 1952              		.section	.text.HAL_TIM_IC_CaptureHalfCpltCallback,"ax",%progbits
 1953              		.align	1
 1954              		.weak	HAL_TIM_IC_CaptureHalfCpltCallback
 1955              		.syntax unified
 1956              		.thumb
 1957              		.thumb_func
 1959              	HAL_TIM_IC_CaptureHalfCpltCallback:
 1960              		@ args = 0, pretend = 0, frame = 0
 1961              		@ frame_needed = 0, uses_anonymous_args = 0
 1962              		@ link register save eliminated.
 1963 0000 7047     		bx	lr
 1965              		.section	.text.TIM_DMACaptureHalfCplt,"ax",%progbits
 1966              		.align	1
 1967              		.global	TIM_DMACaptureHalfCplt
 1968              		.syntax unified
 1969              		.thumb
 1970              		.thumb_func
 1972              	TIM_DMACaptureHalfCplt:
 1973              		@ args = 0, pretend = 0, frame = 0
 1974              		@ frame_needed = 0, uses_anonymous_args = 0
 1975 0000 10B5     		push	{r4, lr}
 1976 0002 846B     		ldr	r4, [r0, #56]
 1977 0004 636A     		ldr	r3, [r4, #36]
 1978 0006 8342     		cmp	r3, r0
 1979 0008 0BD0     		beq	.L222
 1980 000a A36A     		ldr	r3, [r4, #40]
 1981 000c 8342     		cmp	r3, r0
 1982 000e 10D0     		beq	.L223
ARM GAS  C:\Users\Rick\AppData\Local\Temp\cccDRXLh.s 			page 34


 1983 0010 E36A     		ldr	r3, [r4, #44]
 1984 0012 8342     		cmp	r3, r0
 1985 0014 10D0     		beq	.L224
 1986 0016 236B     		ldr	r3, [r4, #48]
 1987 0018 8342     		cmp	r3, r0
 1988 001a 04D1     		bne	.L218
 1989 001c 0823     		movs	r3, #8
 1990 001e 2377     		strb	r3, [r4, #28]
 1991 0020 01E0     		b	.L218
 1992              	.L222:
 1993 0022 0123     		movs	r3, #1
 1994 0024 2377     		strb	r3, [r4, #28]
 1995              	.L218:
 1996 0026 2046     		mov	r0, r4
 1997 0028 FFF7FEFF 		bl	HAL_TIM_IC_CaptureHalfCpltCallback
 1998 002c 0023     		movs	r3, #0
 1999 002e 2377     		strb	r3, [r4, #28]
 2000 0030 10BD     		pop	{r4, pc}
 2001              	.L223:
 2002 0032 0223     		movs	r3, #2
 2003 0034 2377     		strb	r3, [r4, #28]
 2004 0036 F6E7     		b	.L218
 2005              	.L224:
 2006 0038 0423     		movs	r3, #4
 2007 003a 2377     		strb	r3, [r4, #28]
 2008 003c F3E7     		b	.L218
 2010              		.section	.text.HAL_TIM_PWM_PulseFinishedCallback,"ax",%progbits
 2011              		.align	1
 2012              		.weak	HAL_TIM_PWM_PulseFinishedCallback
 2013              		.syntax unified
 2014              		.thumb
 2015              		.thumb_func
 2017              	HAL_TIM_PWM_PulseFinishedCallback:
 2018              		@ args = 0, pretend = 0, frame = 0
 2019              		@ frame_needed = 0, uses_anonymous_args = 0
 2020              		@ link register save eliminated.
 2021 0000 7047     		bx	lr
 2023              		.section	.text.TIM_DMADelayPulseCplt,"ax",%progbits
 2024              		.align	1
 2025              		.syntax unified
 2026              		.thumb
 2027              		.thumb_func
 2029              	TIM_DMADelayPulseCplt:
 2030              		@ args = 0, pretend = 0, frame = 0
 2031              		@ frame_needed = 0, uses_anonymous_args = 0
 2032 0000 10B5     		push	{r4, lr}
 2033 0002 846B     		ldr	r4, [r0, #56]
 2034 0004 636A     		ldr	r3, [r4, #36]
 2035 0006 8342     		cmp	r3, r0
 2036 0008 0ED0     		beq	.L232
 2037 000a A36A     		ldr	r3, [r4, #40]
 2038 000c 8342     		cmp	r3, r0
 2039 000e 14D0     		beq	.L233
 2040 0010 E36A     		ldr	r3, [r4, #44]
 2041 0012 8342     		cmp	r3, r0
 2042 0014 1AD0     		beq	.L234
 2043 0016 236B     		ldr	r3, [r4, #48]
ARM GAS  C:\Users\Rick\AppData\Local\Temp\cccDRXLh.s 			page 35


 2044 0018 8342     		cmp	r3, r0
 2045 001a 20D0     		beq	.L235
 2046              	.L228:
 2047 001c 2046     		mov	r0, r4
 2048 001e FFF7FEFF 		bl	HAL_TIM_PWM_PulseFinishedCallback
 2049 0022 0023     		movs	r3, #0
 2050 0024 2377     		strb	r3, [r4, #28]
 2051 0026 10BD     		pop	{r4, pc}
 2052              	.L232:
 2053 0028 0123     		movs	r3, #1
 2054 002a 2377     		strb	r3, [r4, #28]
 2055 002c C369     		ldr	r3, [r0, #28]
 2056 002e 002B     		cmp	r3, #0
 2057 0030 F4D1     		bne	.L228
 2058 0032 0123     		movs	r3, #1
 2059 0034 84F83E30 		strb	r3, [r4, #62]
 2060 0038 F0E7     		b	.L228
 2061              	.L233:
 2062 003a 0223     		movs	r3, #2
 2063 003c 2377     		strb	r3, [r4, #28]
 2064 003e C369     		ldr	r3, [r0, #28]
 2065 0040 002B     		cmp	r3, #0
 2066 0042 EBD1     		bne	.L228
 2067 0044 0123     		movs	r3, #1
 2068 0046 84F83F30 		strb	r3, [r4, #63]
 2069 004a E7E7     		b	.L228
 2070              	.L234:
 2071 004c 0423     		movs	r3, #4
 2072 004e 2377     		strb	r3, [r4, #28]
 2073 0050 C369     		ldr	r3, [r0, #28]
 2074 0052 002B     		cmp	r3, #0
 2075 0054 E2D1     		bne	.L228
 2076 0056 0123     		movs	r3, #1
 2077 0058 84F84030 		strb	r3, [r4, #64]
 2078 005c DEE7     		b	.L228
 2079              	.L235:
 2080 005e 0823     		movs	r3, #8
 2081 0060 2377     		strb	r3, [r4, #28]
 2082 0062 C369     		ldr	r3, [r0, #28]
 2083 0064 002B     		cmp	r3, #0
 2084 0066 D9D1     		bne	.L228
 2085 0068 0123     		movs	r3, #1
 2086 006a 84F84130 		strb	r3, [r4, #65]
 2087 006e D5E7     		b	.L228
 2089              		.section	.text.HAL_TIM_PWM_PulseFinishedHalfCpltCallback,"ax",%progbits
 2090              		.align	1
 2091              		.weak	HAL_TIM_PWM_PulseFinishedHalfCpltCallback
 2092              		.syntax unified
 2093              		.thumb
 2094              		.thumb_func
 2096              	HAL_TIM_PWM_PulseFinishedHalfCpltCallback:
 2097              		@ args = 0, pretend = 0, frame = 0
 2098              		@ frame_needed = 0, uses_anonymous_args = 0
 2099              		@ link register save eliminated.
 2100 0000 7047     		bx	lr
 2102              		.section	.text.TIM_DMADelayPulseHalfCplt,"ax",%progbits
 2103              		.align	1
ARM GAS  C:\Users\Rick\AppData\Local\Temp\cccDRXLh.s 			page 36


 2104              		.global	TIM_DMADelayPulseHalfCplt
 2105              		.syntax unified
 2106              		.thumb
 2107              		.thumb_func
 2109              	TIM_DMADelayPulseHalfCplt:
 2110              		@ args = 0, pretend = 0, frame = 0
 2111              		@ frame_needed = 0, uses_anonymous_args = 0
 2112 0000 10B5     		push	{r4, lr}
 2113 0002 846B     		ldr	r4, [r0, #56]
 2114 0004 636A     		ldr	r3, [r4, #36]
 2115 0006 8342     		cmp	r3, r0
 2116 0008 0BD0     		beq	.L243
 2117 000a A36A     		ldr	r3, [r4, #40]
 2118 000c 8342     		cmp	r3, r0
 2119 000e 10D0     		beq	.L244
 2120 0010 E36A     		ldr	r3, [r4, #44]
 2121 0012 8342     		cmp	r3, r0
 2122 0014 10D0     		beq	.L245
 2123 0016 236B     		ldr	r3, [r4, #48]
 2124 0018 8342     		cmp	r3, r0
 2125 001a 04D1     		bne	.L239
 2126 001c 0823     		movs	r3, #8
 2127 001e 2377     		strb	r3, [r4, #28]
 2128 0020 01E0     		b	.L239
 2129              	.L243:
 2130 0022 0123     		movs	r3, #1
 2131 0024 2377     		strb	r3, [r4, #28]
 2132              	.L239:
 2133 0026 2046     		mov	r0, r4
 2134 0028 FFF7FEFF 		bl	HAL_TIM_PWM_PulseFinishedHalfCpltCallback
 2135 002c 0023     		movs	r3, #0
 2136 002e 2377     		strb	r3, [r4, #28]
 2137 0030 10BD     		pop	{r4, pc}
 2138              	.L244:
 2139 0032 0223     		movs	r3, #2
 2140 0034 2377     		strb	r3, [r4, #28]
 2141 0036 F6E7     		b	.L239
 2142              	.L245:
 2143 0038 0423     		movs	r3, #4
 2144 003a 2377     		strb	r3, [r4, #28]
 2145 003c F3E7     		b	.L239
 2147              		.section	.text.HAL_TIM_TriggerCallback,"ax",%progbits
 2148              		.align	1
 2149              		.weak	HAL_TIM_TriggerCallback
 2150              		.syntax unified
 2151              		.thumb
 2152              		.thumb_func
 2154              	HAL_TIM_TriggerCallback:
 2155              		@ args = 0, pretend = 0, frame = 0
 2156              		@ frame_needed = 0, uses_anonymous_args = 0
 2157              		@ link register save eliminated.
 2158 0000 7047     		bx	lr
 2160              		.section	.text.HAL_TIM_IRQHandler,"ax",%progbits
 2161              		.align	1
 2162              		.global	HAL_TIM_IRQHandler
 2163              		.syntax unified
 2164              		.thumb
ARM GAS  C:\Users\Rick\AppData\Local\Temp\cccDRXLh.s 			page 37


 2165              		.thumb_func
 2167              	HAL_TIM_IRQHandler:
 2168              		@ args = 0, pretend = 0, frame = 0
 2169              		@ frame_needed = 0, uses_anonymous_args = 0
 2170 0000 70B5     		push	{r4, r5, r6, lr}
 2171 0002 0446     		mov	r4, r0
 2172 0004 0368     		ldr	r3, [r0]
 2173 0006 DE68     		ldr	r6, [r3, #12]
 2174 0008 1D69     		ldr	r5, [r3, #16]
 2175 000a 15F0020F 		tst	r5, #2
 2176 000e 10D0     		beq	.L248
 2177 0010 16F0020F 		tst	r6, #2
 2178 0014 0DD0     		beq	.L248
 2179 0016 6FF00202 		mvn	r2, #2
 2180 001a 1A61     		str	r2, [r3, #16]
 2181 001c 0123     		movs	r3, #1
 2182 001e 0377     		strb	r3, [r0, #28]
 2183 0020 0368     		ldr	r3, [r0]
 2184 0022 9B69     		ldr	r3, [r3, #24]
 2185 0024 13F0030F 		tst	r3, #3
 2186 0028 5ED0     		beq	.L249
 2187 002a FFF7FEFF 		bl	HAL_TIM_IC_CaptureCallback
 2188              	.L250:
 2189 002e 0023     		movs	r3, #0
 2190 0030 2377     		strb	r3, [r4, #28]
 2191              	.L248:
 2192 0032 15F0040F 		tst	r5, #4
 2193 0036 12D0     		beq	.L251
 2194 0038 16F0040F 		tst	r6, #4
 2195 003c 0FD0     		beq	.L251
 2196 003e 2368     		ldr	r3, [r4]
 2197 0040 6FF00402 		mvn	r2, #4
 2198 0044 1A61     		str	r2, [r3, #16]
 2199 0046 0223     		movs	r3, #2
 2200 0048 2377     		strb	r3, [r4, #28]
 2201 004a 2368     		ldr	r3, [r4]
 2202 004c 9B69     		ldr	r3, [r3, #24]
 2203 004e 13F4407F 		tst	r3, #768
 2204 0052 4FD0     		beq	.L252
 2205 0054 2046     		mov	r0, r4
 2206 0056 FFF7FEFF 		bl	HAL_TIM_IC_CaptureCallback
 2207              	.L253:
 2208 005a 0023     		movs	r3, #0
 2209 005c 2377     		strb	r3, [r4, #28]
 2210              	.L251:
 2211 005e 15F0080F 		tst	r5, #8
 2212 0062 12D0     		beq	.L254
 2213 0064 16F0080F 		tst	r6, #8
 2214 0068 0FD0     		beq	.L254
 2215 006a 2368     		ldr	r3, [r4]
 2216 006c 6FF00802 		mvn	r2, #8
 2217 0070 1A61     		str	r2, [r3, #16]
 2218 0072 0423     		movs	r3, #4
 2219 0074 2377     		strb	r3, [r4, #28]
 2220 0076 2368     		ldr	r3, [r4]
 2221 0078 DB69     		ldr	r3, [r3, #28]
 2222 007a 13F0030F 		tst	r3, #3
ARM GAS  C:\Users\Rick\AppData\Local\Temp\cccDRXLh.s 			page 38


 2223 007e 40D0     		beq	.L255
 2224 0080 2046     		mov	r0, r4
 2225 0082 FFF7FEFF 		bl	HAL_TIM_IC_CaptureCallback
 2226              	.L256:
 2227 0086 0023     		movs	r3, #0
 2228 0088 2377     		strb	r3, [r4, #28]
 2229              	.L254:
 2230 008a 15F0100F 		tst	r5, #16
 2231 008e 12D0     		beq	.L257
 2232 0090 16F0100F 		tst	r6, #16
 2233 0094 0FD0     		beq	.L257
 2234 0096 2368     		ldr	r3, [r4]
 2235 0098 6FF01002 		mvn	r2, #16
 2236 009c 1A61     		str	r2, [r3, #16]
 2237 009e 0823     		movs	r3, #8
 2238 00a0 2377     		strb	r3, [r4, #28]
 2239 00a2 2368     		ldr	r3, [r4]
 2240 00a4 DB69     		ldr	r3, [r3, #28]
 2241 00a6 13F4407F 		tst	r3, #768
 2242 00aa 31D0     		beq	.L258
 2243 00ac 2046     		mov	r0, r4
 2244 00ae FFF7FEFF 		bl	HAL_TIM_IC_CaptureCallback
 2245              	.L259:
 2246 00b2 0023     		movs	r3, #0
 2247 00b4 2377     		strb	r3, [r4, #28]
 2248              	.L257:
 2249 00b6 15F0010F 		tst	r5, #1
 2250 00ba 02D0     		beq	.L260
 2251 00bc 16F0010F 		tst	r6, #1
 2252 00c0 2DD1     		bne	.L265
 2253              	.L260:
 2254 00c2 15F0800F 		tst	r5, #128
 2255 00c6 02D0     		beq	.L261
 2256 00c8 16F0800F 		tst	r6, #128
 2257 00cc 2FD1     		bne	.L266
 2258              	.L261:
 2259 00ce 15F0400F 		tst	r5, #64
 2260 00d2 02D0     		beq	.L262
 2261 00d4 16F0400F 		tst	r6, #64
 2262 00d8 31D1     		bne	.L267
 2263              	.L262:
 2264 00da 15F0200F 		tst	r5, #32
 2265 00de 02D0     		beq	.L247
 2266 00e0 16F0200F 		tst	r6, #32
 2267 00e4 33D1     		bne	.L268
 2268              	.L247:
 2269 00e6 70BD     		pop	{r4, r5, r6, pc}
 2270              	.L249:
 2271 00e8 FFF7FEFF 		bl	HAL_TIM_OC_DelayElapsedCallback
 2272 00ec 2046     		mov	r0, r4
 2273 00ee FFF7FEFF 		bl	HAL_TIM_PWM_PulseFinishedCallback
 2274 00f2 9CE7     		b	.L250
 2275              	.L252:
 2276 00f4 2046     		mov	r0, r4
 2277 00f6 FFF7FEFF 		bl	HAL_TIM_OC_DelayElapsedCallback
 2278 00fa 2046     		mov	r0, r4
 2279 00fc FFF7FEFF 		bl	HAL_TIM_PWM_PulseFinishedCallback
ARM GAS  C:\Users\Rick\AppData\Local\Temp\cccDRXLh.s 			page 39


 2280 0100 ABE7     		b	.L253
 2281              	.L255:
 2282 0102 2046     		mov	r0, r4
 2283 0104 FFF7FEFF 		bl	HAL_TIM_OC_DelayElapsedCallback
 2284 0108 2046     		mov	r0, r4
 2285 010a FFF7FEFF 		bl	HAL_TIM_PWM_PulseFinishedCallback
 2286 010e BAE7     		b	.L256
 2287              	.L258:
 2288 0110 2046     		mov	r0, r4
 2289 0112 FFF7FEFF 		bl	HAL_TIM_OC_DelayElapsedCallback
 2290 0116 2046     		mov	r0, r4
 2291 0118 FFF7FEFF 		bl	HAL_TIM_PWM_PulseFinishedCallback
 2292 011c C9E7     		b	.L259
 2293              	.L265:
 2294 011e 2368     		ldr	r3, [r4]
 2295 0120 6FF00102 		mvn	r2, #1
 2296 0124 1A61     		str	r2, [r3, #16]
 2297 0126 2046     		mov	r0, r4
 2298 0128 FFF7FEFF 		bl	HAL_TIM_PeriodElapsedCallback
 2299 012c C9E7     		b	.L260
 2300              	.L266:
 2301 012e 2368     		ldr	r3, [r4]
 2302 0130 6FF08002 		mvn	r2, #128
 2303 0134 1A61     		str	r2, [r3, #16]
 2304 0136 2046     		mov	r0, r4
 2305 0138 FFF7FEFF 		bl	HAL_TIMEx_BreakCallback
 2306 013c C7E7     		b	.L261
 2307              	.L267:
 2308 013e 2368     		ldr	r3, [r4]
 2309 0140 6FF04002 		mvn	r2, #64
 2310 0144 1A61     		str	r2, [r3, #16]
 2311 0146 2046     		mov	r0, r4
 2312 0148 FFF7FEFF 		bl	HAL_TIM_TriggerCallback
 2313 014c C5E7     		b	.L262
 2314              	.L268:
 2315 014e 2368     		ldr	r3, [r4]
 2316 0150 6FF02002 		mvn	r2, #32
 2317 0154 1A61     		str	r2, [r3, #16]
 2318 0156 2046     		mov	r0, r4
 2319 0158 FFF7FEFF 		bl	HAL_TIMEx_CommutCallback
 2320 015c C3E7     		b	.L247
 2322              		.section	.text.TIM_DMATriggerCplt,"ax",%progbits
 2323              		.align	1
 2324              		.syntax unified
 2325              		.thumb
 2326              		.thumb_func
 2328              	TIM_DMATriggerCplt:
 2329              		@ args = 0, pretend = 0, frame = 0
 2330              		@ frame_needed = 0, uses_anonymous_args = 0
 2331 0000 08B5     		push	{r3, lr}
 2332 0002 806B     		ldr	r0, [r0, #56]
 2333 0004 836B     		ldr	r3, [r0, #56]
 2334 0006 DB69     		ldr	r3, [r3, #28]
 2335 0008 13B9     		cbnz	r3, .L270
 2336 000a 0123     		movs	r3, #1
 2337 000c 80F83D30 		strb	r3, [r0, #61]
 2338              	.L270:
ARM GAS  C:\Users\Rick\AppData\Local\Temp\cccDRXLh.s 			page 40


 2339 0010 FFF7FEFF 		bl	HAL_TIM_TriggerCallback
 2340 0014 08BD     		pop	{r3, pc}
 2342              		.section	.text.HAL_TIM_TriggerHalfCpltCallback,"ax",%progbits
 2343              		.align	1
 2344              		.weak	HAL_TIM_TriggerHalfCpltCallback
 2345              		.syntax unified
 2346              		.thumb
 2347              		.thumb_func
 2349              	HAL_TIM_TriggerHalfCpltCallback:
 2350              		@ args = 0, pretend = 0, frame = 0
 2351              		@ frame_needed = 0, uses_anonymous_args = 0
 2352              		@ link register save eliminated.
 2353 0000 7047     		bx	lr
 2355              		.section	.text.TIM_DMATriggerHalfCplt,"ax",%progbits
 2356              		.align	1
 2357              		.syntax unified
 2358              		.thumb
 2359              		.thumb_func
 2361              	TIM_DMATriggerHalfCplt:
 2362              		@ args = 0, pretend = 0, frame = 0
 2363              		@ frame_needed = 0, uses_anonymous_args = 0
 2364 0000 08B5     		push	{r3, lr}
 2365 0002 806B     		ldr	r0, [r0, #56]
 2366 0004 FFF7FEFF 		bl	HAL_TIM_TriggerHalfCpltCallback
 2367 0008 08BD     		pop	{r3, pc}
 2369              		.section	.text.HAL_TIM_ErrorCallback,"ax",%progbits
 2370              		.align	1
 2371              		.weak	HAL_TIM_ErrorCallback
 2372              		.syntax unified
 2373              		.thumb
 2374              		.thumb_func
 2376              	HAL_TIM_ErrorCallback:
 2377              		@ args = 0, pretend = 0, frame = 0
 2378              		@ frame_needed = 0, uses_anonymous_args = 0
 2379              		@ link register save eliminated.
 2380 0000 7047     		bx	lr
 2382              		.section	.text.TIM_DMAError,"ax",%progbits
 2383              		.align	1
 2384              		.global	TIM_DMAError
 2385              		.syntax unified
 2386              		.thumb
 2387              		.thumb_func
 2389              	TIM_DMAError:
 2390              		@ args = 0, pretend = 0, frame = 0
 2391              		@ frame_needed = 0, uses_anonymous_args = 0
 2392 0000 10B5     		push	{r4, lr}
 2393 0002 846B     		ldr	r4, [r0, #56]
 2394 0004 636A     		ldr	r3, [r4, #36]
 2395 0006 8342     		cmp	r3, r0
 2396 0008 0CD0     		beq	.L283
 2397 000a A36A     		ldr	r3, [r4, #40]
 2398 000c 8342     		cmp	r3, r0
 2399 000e 13D0     		beq	.L284
 2400 0010 E36A     		ldr	r3, [r4, #44]
 2401 0012 8342     		cmp	r3, r0
 2402 0014 16D0     		beq	.L285
 2403 0016 236B     		ldr	r3, [r4, #48]
ARM GAS  C:\Users\Rick\AppData\Local\Temp\cccDRXLh.s 			page 41


 2404 0018 8342     		cmp	r3, r0
 2405 001a 19D0     		beq	.L286
 2406 001c 0123     		movs	r3, #1
 2407 001e 84F83D30 		strb	r3, [r4, #61]
 2408 0022 03E0     		b	.L278
 2409              	.L283:
 2410 0024 0123     		movs	r3, #1
 2411 0026 2377     		strb	r3, [r4, #28]
 2412 0028 84F83E30 		strb	r3, [r4, #62]
 2413              	.L278:
 2414 002c 2046     		mov	r0, r4
 2415 002e FFF7FEFF 		bl	HAL_TIM_ErrorCallback
 2416 0032 0023     		movs	r3, #0
 2417 0034 2377     		strb	r3, [r4, #28]
 2418 0036 10BD     		pop	{r4, pc}
 2419              	.L284:
 2420 0038 0223     		movs	r3, #2
 2421 003a 2377     		strb	r3, [r4, #28]
 2422 003c 0123     		movs	r3, #1
 2423 003e 84F83F30 		strb	r3, [r4, #63]
 2424 0042 F3E7     		b	.L278
 2425              	.L285:
 2426 0044 0423     		movs	r3, #4
 2427 0046 2377     		strb	r3, [r4, #28]
 2428 0048 0123     		movs	r3, #1
 2429 004a 84F84030 		strb	r3, [r4, #64]
 2430 004e EDE7     		b	.L278
 2431              	.L286:
 2432 0050 0823     		movs	r3, #8
 2433 0052 2377     		strb	r3, [r4, #28]
 2434 0054 0123     		movs	r3, #1
 2435 0056 84F84130 		strb	r3, [r4, #65]
 2436 005a E7E7     		b	.L278
 2438              		.section	.text.HAL_TIM_Base_GetState,"ax",%progbits
 2439              		.align	1
 2440              		.global	HAL_TIM_Base_GetState
 2441              		.syntax unified
 2442              		.thumb
 2443              		.thumb_func
 2445              	HAL_TIM_Base_GetState:
 2446              		@ args = 0, pretend = 0, frame = 0
 2447              		@ frame_needed = 0, uses_anonymous_args = 0
 2448              		@ link register save eliminated.
 2449 0000 90F83D00 		ldrb	r0, [r0, #61]	@ zero_extendqisi2
 2450 0004 7047     		bx	lr
 2452              		.section	.text.HAL_TIM_OC_GetState,"ax",%progbits
 2453              		.align	1
 2454              		.global	HAL_TIM_OC_GetState
 2455              		.syntax unified
 2456              		.thumb
 2457              		.thumb_func
 2459              	HAL_TIM_OC_GetState:
 2460              		@ args = 0, pretend = 0, frame = 0
 2461              		@ frame_needed = 0, uses_anonymous_args = 0
 2462              		@ link register save eliminated.
 2463 0000 90F83D00 		ldrb	r0, [r0, #61]	@ zero_extendqisi2
 2464 0004 7047     		bx	lr
ARM GAS  C:\Users\Rick\AppData\Local\Temp\cccDRXLh.s 			page 42


 2466              		.section	.text.HAL_TIM_PWM_GetState,"ax",%progbits
 2467              		.align	1
 2468              		.global	HAL_TIM_PWM_GetState
 2469              		.syntax unified
 2470              		.thumb
 2471              		.thumb_func
 2473              	HAL_TIM_PWM_GetState:
 2474              		@ args = 0, pretend = 0, frame = 0
 2475              		@ frame_needed = 0, uses_anonymous_args = 0
 2476              		@ link register save eliminated.
 2477 0000 90F83D00 		ldrb	r0, [r0, #61]	@ zero_extendqisi2
 2478 0004 7047     		bx	lr
 2480              		.section	.text.HAL_TIM_IC_GetState,"ax",%progbits
 2481              		.align	1
 2482              		.global	HAL_TIM_IC_GetState
 2483              		.syntax unified
 2484              		.thumb
 2485              		.thumb_func
 2487              	HAL_TIM_IC_GetState:
 2488              		@ args = 0, pretend = 0, frame = 0
 2489              		@ frame_needed = 0, uses_anonymous_args = 0
 2490              		@ link register save eliminated.
 2491 0000 90F83D00 		ldrb	r0, [r0, #61]	@ zero_extendqisi2
 2492 0004 7047     		bx	lr
 2494              		.section	.text.HAL_TIM_OnePulse_GetState,"ax",%progbits
 2495              		.align	1
 2496              		.global	HAL_TIM_OnePulse_GetState
 2497              		.syntax unified
 2498              		.thumb
 2499              		.thumb_func
 2501              	HAL_TIM_OnePulse_GetState:
 2502              		@ args = 0, pretend = 0, frame = 0
 2503              		@ frame_needed = 0, uses_anonymous_args = 0
 2504              		@ link register save eliminated.
 2505 0000 90F83D00 		ldrb	r0, [r0, #61]	@ zero_extendqisi2
 2506 0004 7047     		bx	lr
 2508              		.section	.text.HAL_TIM_Encoder_GetState,"ax",%progbits
 2509              		.align	1
 2510              		.global	HAL_TIM_Encoder_GetState
 2511              		.syntax unified
 2512              		.thumb
 2513              		.thumb_func
 2515              	HAL_TIM_Encoder_GetState:
 2516              		@ args = 0, pretend = 0, frame = 0
 2517              		@ frame_needed = 0, uses_anonymous_args = 0
 2518              		@ link register save eliminated.
 2519 0000 90F83D00 		ldrb	r0, [r0, #61]	@ zero_extendqisi2
 2520 0004 7047     		bx	lr
 2522              		.section	.text.HAL_TIM_GetActiveChannel,"ax",%progbits
 2523              		.align	1
 2524              		.global	HAL_TIM_GetActiveChannel
 2525              		.syntax unified
 2526              		.thumb
 2527              		.thumb_func
 2529              	HAL_TIM_GetActiveChannel:
 2530              		@ args = 0, pretend = 0, frame = 0
 2531              		@ frame_needed = 0, uses_anonymous_args = 0
ARM GAS  C:\Users\Rick\AppData\Local\Temp\cccDRXLh.s 			page 43


 2532              		@ link register save eliminated.
 2533 0000 007F     		ldrb	r0, [r0, #28]	@ zero_extendqisi2
 2534 0002 7047     		bx	lr
 2536              		.section	.text.HAL_TIM_GetChannelState,"ax",%progbits
 2537              		.align	1
 2538              		.global	HAL_TIM_GetChannelState
 2539              		.syntax unified
 2540              		.thumb
 2541              		.thumb_func
 2543              	HAL_TIM_GetChannelState:
 2544              		@ args = 0, pretend = 0, frame = 0
 2545              		@ frame_needed = 0, uses_anonymous_args = 0
 2546              		@ link register save eliminated.
 2547 0000 19B9     		cbnz	r1, .L295
 2548 0002 90F83E00 		ldrb	r0, [r0, #62]	@ zero_extendqisi2
 2549 0006 C0B2     		uxtb	r0, r0
 2550 0008 7047     		bx	lr
 2551              	.L295:
 2552 000a 0429     		cmp	r1, #4
 2553 000c 05D0     		beq	.L299
 2554 000e 0829     		cmp	r1, #8
 2555 0010 07D0     		beq	.L300
 2556 0012 90F84100 		ldrb	r0, [r0, #65]	@ zero_extendqisi2
 2557 0016 C0B2     		uxtb	r0, r0
 2558 0018 7047     		bx	lr
 2559              	.L299:
 2560 001a 90F83F00 		ldrb	r0, [r0, #63]	@ zero_extendqisi2
 2561 001e C0B2     		uxtb	r0, r0
 2562 0020 7047     		bx	lr
 2563              	.L300:
 2564 0022 90F84000 		ldrb	r0, [r0, #64]	@ zero_extendqisi2
 2565 0026 C0B2     		uxtb	r0, r0
 2566 0028 7047     		bx	lr
 2568              		.section	.text.HAL_TIM_DMABurstState,"ax",%progbits
 2569              		.align	1
 2570              		.global	HAL_TIM_DMABurstState
 2571              		.syntax unified
 2572              		.thumb
 2573              		.thumb_func
 2575              	HAL_TIM_DMABurstState:
 2576              		@ args = 0, pretend = 0, frame = 0
 2577              		@ frame_needed = 0, uses_anonymous_args = 0
 2578              		@ link register save eliminated.
 2579 0000 90F84600 		ldrb	r0, [r0, #70]	@ zero_extendqisi2
 2580 0004 7047     		bx	lr
 2582              		.section	.text.TIM_Base_SetConfig,"ax",%progbits
 2583              		.align	1
 2584              		.global	TIM_Base_SetConfig
 2585              		.syntax unified
 2586              		.thumb
 2587              		.thumb_func
 2589              	TIM_Base_SetConfig:
 2590              		@ args = 0, pretend = 0, frame = 0
 2591              		@ frame_needed = 0, uses_anonymous_args = 0
 2592              		@ link register save eliminated.
 2593 0000 0368     		ldr	r3, [r0]
 2594 0002 344A     		ldr	r2, .L310
ARM GAS  C:\Users\Rick\AppData\Local\Temp\cccDRXLh.s 			page 44


 2595 0004 9042     		cmp	r0, r2
 2596 0006 12D0     		beq	.L303
 2597 0008 B0F1804F 		cmp	r0, #1073741824
 2598 000c 0FD0     		beq	.L303
 2599 000e A2F57C42 		sub	r2, r2, #64512
 2600 0012 9042     		cmp	r0, r2
 2601 0014 0BD0     		beq	.L303
 2602 0016 02F58062 		add	r2, r2, #1024
 2603 001a 9042     		cmp	r0, r2
 2604 001c 07D0     		beq	.L303
 2605 001e 02F58062 		add	r2, r2, #1024
 2606 0022 9042     		cmp	r0, r2
 2607 0024 03D0     		beq	.L303
 2608 0026 02F57842 		add	r2, r2, #63488
 2609 002a 9042     		cmp	r0, r2
 2610 002c 03D1     		bne	.L304
 2611              	.L303:
 2612 002e 23F07003 		bic	r3, r3, #112
 2613 0032 4A68     		ldr	r2, [r1, #4]
 2614 0034 1343     		orrs	r3, r3, r2
 2615              	.L304:
 2616 0036 274A     		ldr	r2, .L310
 2617 0038 9042     		cmp	r0, r2
 2618 003a 2AD0     		beq	.L305
 2619 003c B0F1804F 		cmp	r0, #1073741824
 2620 0040 27D0     		beq	.L305
 2621 0042 A2F57C42 		sub	r2, r2, #64512
 2622 0046 9042     		cmp	r0, r2
 2623 0048 23D0     		beq	.L305
 2624 004a 02F58062 		add	r2, r2, #1024
 2625 004e 9042     		cmp	r0, r2
 2626 0050 1FD0     		beq	.L305
 2627 0052 02F58062 		add	r2, r2, #1024
 2628 0056 9042     		cmp	r0, r2
 2629 0058 1BD0     		beq	.L305
 2630 005a 02F57842 		add	r2, r2, #63488
 2631 005e 9042     		cmp	r0, r2
 2632 0060 17D0     		beq	.L305
 2633 0062 02F57052 		add	r2, r2, #15360
 2634 0066 9042     		cmp	r0, r2
 2635 0068 13D0     		beq	.L305
 2636 006a 02F58062 		add	r2, r2, #1024
 2637 006e 9042     		cmp	r0, r2
 2638 0070 0FD0     		beq	.L305
 2639 0072 02F58062 		add	r2, r2, #1024
 2640 0076 9042     		cmp	r0, r2
 2641 0078 0BD0     		beq	.L305
 2642 007a A2F59832 		sub	r2, r2, #77824
 2643 007e 9042     		cmp	r0, r2
 2644 0080 07D0     		beq	.L305
 2645 0082 02F58062 		add	r2, r2, #1024
 2646 0086 9042     		cmp	r0, r2
 2647 0088 03D0     		beq	.L305
 2648 008a 02F58062 		add	r2, r2, #1024
 2649 008e 9042     		cmp	r0, r2
 2650 0090 03D1     		bne	.L306
 2651              	.L305:
ARM GAS  C:\Users\Rick\AppData\Local\Temp\cccDRXLh.s 			page 45


 2652 0092 23F44073 		bic	r3, r3, #768
 2653 0096 CA68     		ldr	r2, [r1, #12]
 2654 0098 1343     		orrs	r3, r3, r2
 2655              	.L306:
 2656 009a 23F08003 		bic	r3, r3, #128
 2657 009e 4A69     		ldr	r2, [r1, #20]
 2658 00a0 1343     		orrs	r3, r3, r2
 2659 00a2 0360     		str	r3, [r0]
 2660 00a4 8B68     		ldr	r3, [r1, #8]
 2661 00a6 C362     		str	r3, [r0, #44]
 2662 00a8 0B68     		ldr	r3, [r1]
 2663 00aa 8362     		str	r3, [r0, #40]
 2664 00ac 094B     		ldr	r3, .L310
 2665 00ae 9842     		cmp	r0, r3
 2666 00b0 03D0     		beq	.L307
 2667 00b2 03F58063 		add	r3, r3, #1024
 2668 00b6 9842     		cmp	r0, r3
 2669 00b8 01D1     		bne	.L308
 2670              	.L307:
 2671 00ba 0B69     		ldr	r3, [r1, #16]
 2672 00bc 0363     		str	r3, [r0, #48]
 2673              	.L308:
 2674 00be 0123     		movs	r3, #1
 2675 00c0 4361     		str	r3, [r0, #20]
 2676 00c2 0369     		ldr	r3, [r0, #16]
 2677 00c4 13F0010F 		tst	r3, #1
 2678 00c8 03D0     		beq	.L302
 2679 00ca 0369     		ldr	r3, [r0, #16]
 2680 00cc 23F00103 		bic	r3, r3, #1
 2681 00d0 0361     		str	r3, [r0, #16]
 2682              	.L302:
 2683 00d2 7047     		bx	lr
 2684              	.L311:
 2685              		.align	2
 2686              	.L310:
 2687 00d4 00000140 		.word	1073807360
 2689              		.section	.text.HAL_TIM_Base_Init,"ax",%progbits
 2690              		.align	1
 2691              		.global	HAL_TIM_Base_Init
 2692              		.syntax unified
 2693              		.thumb
 2694              		.thumb_func
 2696              	HAL_TIM_Base_Init:
 2697              		@ args = 0, pretend = 0, frame = 0
 2698              		@ frame_needed = 0, uses_anonymous_args = 0
 2699 0000 40B3     		cbz	r0, .L315
 2700 0002 10B5     		push	{r4, lr}
 2701 0004 0446     		mov	r4, r0
 2702 0006 90F83D30 		ldrb	r3, [r0, #61]	@ zero_extendqisi2
 2703 000a F3B1     		cbz	r3, .L320
 2704              	.L314:
 2705 000c 0223     		movs	r3, #2
 2706 000e 84F83D30 		strb	r3, [r4, #61]
 2707 0012 2146     		mov	r1, r4
 2708 0014 51F8040B 		ldr	r0, [r1], #4
 2709 0018 FFF7FEFF 		bl	TIM_Base_SetConfig
 2710 001c 0123     		movs	r3, #1
ARM GAS  C:\Users\Rick\AppData\Local\Temp\cccDRXLh.s 			page 46


 2711 001e 84F84630 		strb	r3, [r4, #70]
 2712 0022 84F83E30 		strb	r3, [r4, #62]
 2713 0026 84F83F30 		strb	r3, [r4, #63]
 2714 002a 84F84030 		strb	r3, [r4, #64]
 2715 002e 84F84130 		strb	r3, [r4, #65]
 2716 0032 84F84230 		strb	r3, [r4, #66]
 2717 0036 84F84330 		strb	r3, [r4, #67]
 2718 003a 84F84430 		strb	r3, [r4, #68]
 2719 003e 84F84530 		strb	r3, [r4, #69]
 2720 0042 84F83D30 		strb	r3, [r4, #61]
 2721 0046 0020     		movs	r0, #0
 2722 0048 10BD     		pop	{r4, pc}
 2723              	.L320:
 2724 004a 80F83C30 		strb	r3, [r0, #60]
 2725 004e FFF7FEFF 		bl	HAL_TIM_Base_MspInit
 2726 0052 DBE7     		b	.L314
 2727              	.L315:
 2728 0054 0120     		movs	r0, #1
 2729 0056 7047     		bx	lr
 2731              		.section	.text.HAL_TIM_OC_Init,"ax",%progbits
 2732              		.align	1
 2733              		.global	HAL_TIM_OC_Init
 2734              		.syntax unified
 2735              		.thumb
 2736              		.thumb_func
 2738              	HAL_TIM_OC_Init:
 2739              		@ args = 0, pretend = 0, frame = 0
 2740              		@ frame_needed = 0, uses_anonymous_args = 0
 2741 0000 40B3     		cbz	r0, .L324
 2742 0002 10B5     		push	{r4, lr}
 2743 0004 0446     		mov	r4, r0
 2744 0006 90F83D30 		ldrb	r3, [r0, #61]	@ zero_extendqisi2
 2745 000a F3B1     		cbz	r3, .L329
 2746              	.L323:
 2747 000c 0223     		movs	r3, #2
 2748 000e 84F83D30 		strb	r3, [r4, #61]
 2749 0012 2146     		mov	r1, r4
 2750 0014 51F8040B 		ldr	r0, [r1], #4
 2751 0018 FFF7FEFF 		bl	TIM_Base_SetConfig
 2752 001c 0123     		movs	r3, #1
 2753 001e 84F84630 		strb	r3, [r4, #70]
 2754 0022 84F83E30 		strb	r3, [r4, #62]
 2755 0026 84F83F30 		strb	r3, [r4, #63]
 2756 002a 84F84030 		strb	r3, [r4, #64]
 2757 002e 84F84130 		strb	r3, [r4, #65]
 2758 0032 84F84230 		strb	r3, [r4, #66]
 2759 0036 84F84330 		strb	r3, [r4, #67]
 2760 003a 84F84430 		strb	r3, [r4, #68]
 2761 003e 84F84530 		strb	r3, [r4, #69]
 2762 0042 84F83D30 		strb	r3, [r4, #61]
 2763 0046 0020     		movs	r0, #0
 2764 0048 10BD     		pop	{r4, pc}
 2765              	.L329:
 2766 004a 80F83C30 		strb	r3, [r0, #60]
 2767 004e FFF7FEFF 		bl	HAL_TIM_OC_MspInit
 2768 0052 DBE7     		b	.L323
 2769              	.L324:
ARM GAS  C:\Users\Rick\AppData\Local\Temp\cccDRXLh.s 			page 47


 2770 0054 0120     		movs	r0, #1
 2771 0056 7047     		bx	lr
 2773              		.section	.text.HAL_TIM_PWM_Init,"ax",%progbits
 2774              		.align	1
 2775              		.global	HAL_TIM_PWM_Init
 2776              		.syntax unified
 2777              		.thumb
 2778              		.thumb_func
 2780              	HAL_TIM_PWM_Init:
 2781              		@ args = 0, pretend = 0, frame = 0
 2782              		@ frame_needed = 0, uses_anonymous_args = 0
 2783 0000 40B3     		cbz	r0, .L333
 2784 0002 10B5     		push	{r4, lr}
 2785 0004 0446     		mov	r4, r0
 2786 0006 90F83D30 		ldrb	r3, [r0, #61]	@ zero_extendqisi2
 2787 000a F3B1     		cbz	r3, .L338
 2788              	.L332:
 2789 000c 0223     		movs	r3, #2
 2790 000e 84F83D30 		strb	r3, [r4, #61]
 2791 0012 2146     		mov	r1, r4
 2792 0014 51F8040B 		ldr	r0, [r1], #4
 2793 0018 FFF7FEFF 		bl	TIM_Base_SetConfig
 2794 001c 0123     		movs	r3, #1
 2795 001e 84F84630 		strb	r3, [r4, #70]
 2796 0022 84F83E30 		strb	r3, [r4, #62]
 2797 0026 84F83F30 		strb	r3, [r4, #63]
 2798 002a 84F84030 		strb	r3, [r4, #64]
 2799 002e 84F84130 		strb	r3, [r4, #65]
 2800 0032 84F84230 		strb	r3, [r4, #66]
 2801 0036 84F84330 		strb	r3, [r4, #67]
 2802 003a 84F84430 		strb	r3, [r4, #68]
 2803 003e 84F84530 		strb	r3, [r4, #69]
 2804 0042 84F83D30 		strb	r3, [r4, #61]
 2805 0046 0020     		movs	r0, #0
 2806 0048 10BD     		pop	{r4, pc}
 2807              	.L338:
 2808 004a 80F83C30 		strb	r3, [r0, #60]
 2809 004e FFF7FEFF 		bl	HAL_TIM_PWM_MspInit
 2810 0052 DBE7     		b	.L332
 2811              	.L333:
 2812 0054 0120     		movs	r0, #1
 2813 0056 7047     		bx	lr
 2815              		.section	.text.HAL_TIM_IC_Init,"ax",%progbits
 2816              		.align	1
 2817              		.global	HAL_TIM_IC_Init
 2818              		.syntax unified
 2819              		.thumb
 2820              		.thumb_func
 2822              	HAL_TIM_IC_Init:
 2823              		@ args = 0, pretend = 0, frame = 0
 2824              		@ frame_needed = 0, uses_anonymous_args = 0
 2825 0000 40B3     		cbz	r0, .L342
 2826 0002 10B5     		push	{r4, lr}
 2827 0004 0446     		mov	r4, r0
 2828 0006 90F83D30 		ldrb	r3, [r0, #61]	@ zero_extendqisi2
 2829 000a F3B1     		cbz	r3, .L347
 2830              	.L341:
ARM GAS  C:\Users\Rick\AppData\Local\Temp\cccDRXLh.s 			page 48


 2831 000c 0223     		movs	r3, #2
 2832 000e 84F83D30 		strb	r3, [r4, #61]
 2833 0012 2146     		mov	r1, r4
 2834 0014 51F8040B 		ldr	r0, [r1], #4
 2835 0018 FFF7FEFF 		bl	TIM_Base_SetConfig
 2836 001c 0123     		movs	r3, #1
 2837 001e 84F84630 		strb	r3, [r4, #70]
 2838 0022 84F83E30 		strb	r3, [r4, #62]
 2839 0026 84F83F30 		strb	r3, [r4, #63]
 2840 002a 84F84030 		strb	r3, [r4, #64]
 2841 002e 84F84130 		strb	r3, [r4, #65]
 2842 0032 84F84230 		strb	r3, [r4, #66]
 2843 0036 84F84330 		strb	r3, [r4, #67]
 2844 003a 84F84430 		strb	r3, [r4, #68]
 2845 003e 84F84530 		strb	r3, [r4, #69]
 2846 0042 84F83D30 		strb	r3, [r4, #61]
 2847 0046 0020     		movs	r0, #0
 2848 0048 10BD     		pop	{r4, pc}
 2849              	.L347:
 2850 004a 80F83C30 		strb	r3, [r0, #60]
 2851 004e FFF7FEFF 		bl	HAL_TIM_IC_MspInit
 2852 0052 DBE7     		b	.L341
 2853              	.L342:
 2854 0054 0120     		movs	r0, #1
 2855 0056 7047     		bx	lr
 2857              		.section	.text.HAL_TIM_OnePulse_Init,"ax",%progbits
 2858              		.align	1
 2859              		.global	HAL_TIM_OnePulse_Init
 2860              		.syntax unified
 2861              		.thumb
 2862              		.thumb_func
 2864              	HAL_TIM_OnePulse_Init:
 2865              		@ args = 0, pretend = 0, frame = 0
 2866              		@ frame_needed = 0, uses_anonymous_args = 0
 2867 0000 50B3     		cbz	r0, .L351
 2868 0002 38B5     		push	{r3, r4, r5, lr}
 2869 0004 0D46     		mov	r5, r1
 2870 0006 0446     		mov	r4, r0
 2871 0008 90F83D30 		ldrb	r3, [r0, #61]	@ zero_extendqisi2
 2872 000c FBB1     		cbz	r3, .L356
 2873              	.L350:
 2874 000e 0223     		movs	r3, #2
 2875 0010 84F83D30 		strb	r3, [r4, #61]
 2876 0014 2146     		mov	r1, r4
 2877 0016 51F8040B 		ldr	r0, [r1], #4
 2878 001a FFF7FEFF 		bl	TIM_Base_SetConfig
 2879 001e 2268     		ldr	r2, [r4]
 2880 0020 1368     		ldr	r3, [r2]
 2881 0022 23F00803 		bic	r3, r3, #8
 2882 0026 1360     		str	r3, [r2]
 2883 0028 2268     		ldr	r2, [r4]
 2884 002a 1368     		ldr	r3, [r2]
 2885 002c 2B43     		orrs	r3, r3, r5
 2886 002e 1360     		str	r3, [r2]
 2887 0030 0123     		movs	r3, #1
 2888 0032 84F84630 		strb	r3, [r4, #70]
 2889 0036 84F83E30 		strb	r3, [r4, #62]
ARM GAS  C:\Users\Rick\AppData\Local\Temp\cccDRXLh.s 			page 49


 2890 003a 84F83F30 		strb	r3, [r4, #63]
 2891 003e 84F84230 		strb	r3, [r4, #66]
 2892 0042 84F84330 		strb	r3, [r4, #67]
 2893 0046 84F83D30 		strb	r3, [r4, #61]
 2894 004a 0020     		movs	r0, #0
 2895 004c 38BD     		pop	{r3, r4, r5, pc}
 2896              	.L356:
 2897 004e 80F83C30 		strb	r3, [r0, #60]
 2898 0052 FFF7FEFF 		bl	HAL_TIM_OnePulse_MspInit
 2899 0056 DAE7     		b	.L350
 2900              	.L351:
 2901 0058 0120     		movs	r0, #1
 2902 005a 7047     		bx	lr
 2904              		.section	.text.HAL_TIM_Encoder_Init,"ax",%progbits
 2905              		.align	1
 2906              		.global	HAL_TIM_Encoder_Init
 2907              		.syntax unified
 2908              		.thumb
 2909              		.thumb_func
 2911              	HAL_TIM_Encoder_Init:
 2912              		@ args = 0, pretend = 0, frame = 0
 2913              		@ frame_needed = 0, uses_anonymous_args = 0
 2914 0000 0028     		cmp	r0, #0
 2915 0002 53D0     		beq	.L360
 2916 0004 F8B5     		push	{r3, r4, r5, r6, r7, lr}
 2917 0006 0D46     		mov	r5, r1
 2918 0008 0446     		mov	r4, r0
 2919 000a 90F83D30 		ldrb	r3, [r0, #61]	@ zero_extendqisi2
 2920 000e 002B     		cmp	r3, #0
 2921 0010 47D0     		beq	.L365
 2922              	.L359:
 2923 0012 0223     		movs	r3, #2
 2924 0014 84F83D30 		strb	r3, [r4, #61]
 2925 0018 2268     		ldr	r2, [r4]
 2926 001a 9368     		ldr	r3, [r2, #8]
 2927 001c 23F48043 		bic	r3, r3, #16384
 2928 0020 23F00703 		bic	r3, r3, #7
 2929 0024 9360     		str	r3, [r2, #8]
 2930 0026 2146     		mov	r1, r4
 2931 0028 51F8040B 		ldr	r0, [r1], #4
 2932 002c FFF7FEFF 		bl	TIM_Base_SetConfig
 2933 0030 2168     		ldr	r1, [r4]
 2934 0032 8B68     		ldr	r3, [r1, #8]
 2935 0034 8A69     		ldr	r2, [r1, #24]
 2936 0036 0E6A     		ldr	r6, [r1, #32]
 2937 0038 2868     		ldr	r0, [r5]
 2938 003a 1843     		orrs	r0, r0, r3
 2939 003c 22F44072 		bic	r2, r2, #768
 2940 0040 22F00302 		bic	r2, r2, #3
 2941 0044 AB68     		ldr	r3, [r5, #8]
 2942 0046 AF69     		ldr	r7, [r5, #24]
 2943 0048 43EA0723 		orr	r3, r3, r7, lsl #8
 2944 004c 1343     		orrs	r3, r3, r2
 2945 004e 23F47C43 		bic	r3, r3, #64512
 2946 0052 23F0FC03 		bic	r3, r3, #252
 2947 0056 EA68     		ldr	r2, [r5, #12]
 2948 0058 EF69     		ldr	r7, [r5, #28]
ARM GAS  C:\Users\Rick\AppData\Local\Temp\cccDRXLh.s 			page 50


 2949 005a 42EA0722 		orr	r2, r2, r7, lsl #8
 2950 005e 1A43     		orrs	r2, r2, r3
 2951 0060 2B6A     		ldr	r3, [r5, #32]
 2952 0062 1B03     		lsls	r3, r3, #12
 2953 0064 2F69     		ldr	r7, [r5, #16]
 2954 0066 43EA0713 		orr	r3, r3, r7, lsl #4
 2955 006a 1343     		orrs	r3, r3, r2
 2956 006c 26F0AA06 		bic	r6, r6, #170
 2957 0070 6A68     		ldr	r2, [r5, #4]
 2958 0072 6D69     		ldr	r5, [r5, #20]
 2959 0074 42EA0512 		orr	r2, r2, r5, lsl #4
 2960 0078 3243     		orrs	r2, r2, r6
 2961 007a 8860     		str	r0, [r1, #8]
 2962 007c 2168     		ldr	r1, [r4]
 2963 007e 8B61     		str	r3, [r1, #24]
 2964 0080 2368     		ldr	r3, [r4]
 2965 0082 1A62     		str	r2, [r3, #32]
 2966 0084 0123     		movs	r3, #1
 2967 0086 84F84630 		strb	r3, [r4, #70]
 2968 008a 84F83E30 		strb	r3, [r4, #62]
 2969 008e 84F83F30 		strb	r3, [r4, #63]
 2970 0092 84F84230 		strb	r3, [r4, #66]
 2971 0096 84F84330 		strb	r3, [r4, #67]
 2972 009a 84F83D30 		strb	r3, [r4, #61]
 2973 009e 0020     		movs	r0, #0
 2974 00a0 F8BD     		pop	{r3, r4, r5, r6, r7, pc}
 2975              	.L365:
 2976 00a2 80F83C30 		strb	r3, [r0, #60]
 2977 00a6 FFF7FEFF 		bl	HAL_TIM_Encoder_MspInit
 2978 00aa B2E7     		b	.L359
 2979              	.L360:
 2980 00ac 0120     		movs	r0, #1
 2981 00ae 7047     		bx	lr
 2983              		.section	.text.TIM_OC2_SetConfig,"ax",%progbits
 2984              		.align	1
 2985              		.global	TIM_OC2_SetConfig
 2986              		.syntax unified
 2987              		.thumb
 2988              		.thumb_func
 2990              	TIM_OC2_SetConfig:
 2991              		@ args = 0, pretend = 0, frame = 0
 2992              		@ frame_needed = 0, uses_anonymous_args = 0
 2993              		@ link register save eliminated.
 2994 0000 30B4     		push	{r4, r5}
 2995 0002 036A     		ldr	r3, [r0, #32]
 2996 0004 026A     		ldr	r2, [r0, #32]
 2997 0006 22F01002 		bic	r2, r2, #16
 2998 000a 0262     		str	r2, [r0, #32]
 2999 000c 4468     		ldr	r4, [r0, #4]
 3000 000e 8269     		ldr	r2, [r0, #24]
 3001 0010 22F4E642 		bic	r2, r2, #29440
 3002 0014 0D68     		ldr	r5, [r1]
 3003 0016 42EA0522 		orr	r2, r2, r5, lsl #8
 3004 001a 23F02003 		bic	r3, r3, #32
 3005 001e 8D68     		ldr	r5, [r1, #8]
 3006 0020 43EA0513 		orr	r3, r3, r5, lsl #4
 3007 0024 114D     		ldr	r5, .L372
ARM GAS  C:\Users\Rick\AppData\Local\Temp\cccDRXLh.s 			page 51


 3008 0026 A842     		cmp	r0, r5
 3009 0028 03D0     		beq	.L367
 3010 002a 05F58065 		add	r5, r5, #1024
 3011 002e A842     		cmp	r0, r5
 3012 0030 06D1     		bne	.L368
 3013              	.L367:
 3014 0032 23F08003 		bic	r3, r3, #128
 3015 0036 CD68     		ldr	r5, [r1, #12]
 3016 0038 43EA0513 		orr	r3, r3, r5, lsl #4
 3017 003c 23F04003 		bic	r3, r3, #64
 3018              	.L368:
 3019 0040 0A4D     		ldr	r5, .L372
 3020 0042 A842     		cmp	r0, r5
 3021 0044 03D0     		beq	.L369
 3022 0046 05F58065 		add	r5, r5, #1024
 3023 004a A842     		cmp	r0, r5
 3024 004c 07D1     		bne	.L370
 3025              	.L369:
 3026 004e 24F44064 		bic	r4, r4, #3072
 3027 0052 4D69     		ldr	r5, [r1, #20]
 3028 0054 44EA8504 		orr	r4, r4, r5, lsl #2
 3029 0058 8D69     		ldr	r5, [r1, #24]
 3030 005a 44EA8504 		orr	r4, r4, r5, lsl #2
 3031              	.L370:
 3032 005e 4460     		str	r4, [r0, #4]
 3033 0060 8261     		str	r2, [r0, #24]
 3034 0062 4A68     		ldr	r2, [r1, #4]
 3035 0064 8263     		str	r2, [r0, #56]
 3036 0066 0362     		str	r3, [r0, #32]
 3037 0068 30BC     		pop	{r4, r5}
 3038 006a 7047     		bx	lr
 3039              	.L373:
 3040              		.align	2
 3041              	.L372:
 3042 006c 00000140 		.word	1073807360
 3044              		.section	.text.HAL_TIM_OC_ConfigChannel,"ax",%progbits
 3045              		.align	1
 3046              		.global	HAL_TIM_OC_ConfigChannel
 3047              		.syntax unified
 3048              		.thumb
 3049              		.thumb_func
 3051              	HAL_TIM_OC_ConfigChannel:
 3052              		@ args = 0, pretend = 0, frame = 0
 3053              		@ frame_needed = 0, uses_anonymous_args = 0
 3054 0000 90F83C30 		ldrb	r3, [r0, #60]	@ zero_extendqisi2
 3055 0004 012B     		cmp	r3, #1
 3056 0006 28D0     		beq	.L382
 3057 0008 10B5     		push	{r4, lr}
 3058 000a 0446     		mov	r4, r0
 3059 000c 0123     		movs	r3, #1
 3060 000e 80F83C30 		strb	r3, [r0, #60]
 3061 0012 0C2A     		cmp	r2, #12
 3062 0014 1CD8     		bhi	.L383
 3063 0016 DFE802F0 		tbb	[pc, r2]
 3064              	.L378:
 3065 001a 07       		.byte	(.L381-.L378)/2
 3066 001b 1B       		.byte	(.L383-.L378)/2
ARM GAS  C:\Users\Rick\AppData\Local\Temp\cccDRXLh.s 			page 52


 3067 001c 1B       		.byte	(.L383-.L378)/2
 3068 001d 1B       		.byte	(.L383-.L378)/2
 3069 001e 0C       		.byte	(.L380-.L378)/2
 3070 001f 1B       		.byte	(.L383-.L378)/2
 3071 0020 1B       		.byte	(.L383-.L378)/2
 3072 0021 1B       		.byte	(.L383-.L378)/2
 3073 0022 11       		.byte	(.L379-.L378)/2
 3074 0023 1B       		.byte	(.L383-.L378)/2
 3075 0024 1B       		.byte	(.L383-.L378)/2
 3076 0025 1B       		.byte	(.L383-.L378)/2
 3077 0026 16       		.byte	(.L377-.L378)/2
 3078 0027 00       		.p2align 1
 3079              	.L381:
 3080 0028 0068     		ldr	r0, [r0]
 3081 002a FFF7FEFF 		bl	TIM_OC1_SetConfig
 3082 002e 0020     		movs	r0, #0
 3083 0030 0FE0     		b	.L376
 3084              	.L380:
 3085 0032 0068     		ldr	r0, [r0]
 3086 0034 FFF7FEFF 		bl	TIM_OC2_SetConfig
 3087 0038 0020     		movs	r0, #0
 3088 003a 0AE0     		b	.L376
 3089              	.L379:
 3090 003c 0068     		ldr	r0, [r0]
 3091 003e FFF7FEFF 		bl	TIM_OC3_SetConfig
 3092 0042 0020     		movs	r0, #0
 3093 0044 05E0     		b	.L376
 3094              	.L377:
 3095 0046 0068     		ldr	r0, [r0]
 3096 0048 FFF7FEFF 		bl	TIM_OC4_SetConfig
 3097 004c 0020     		movs	r0, #0
 3098 004e 00E0     		b	.L376
 3099              	.L383:
 3100 0050 0120     		movs	r0, #1
 3101              	.L376:
 3102 0052 0023     		movs	r3, #0
 3103 0054 84F83C30 		strb	r3, [r4, #60]
 3104 0058 10BD     		pop	{r4, pc}
 3105              	.L382:
 3106 005a 0220     		movs	r0, #2
 3107 005c 7047     		bx	lr
 3109              		.section	.text.HAL_TIM_PWM_ConfigChannel,"ax",%progbits
 3110              		.align	1
 3111              		.global	HAL_TIM_PWM_ConfigChannel
 3112              		.syntax unified
 3113              		.thumb
 3114              		.thumb_func
 3116              	HAL_TIM_PWM_ConfigChannel:
 3117              		@ args = 0, pretend = 0, frame = 0
 3118              		@ frame_needed = 0, uses_anonymous_args = 0
 3119 0000 38B5     		push	{r3, r4, r5, lr}
 3120 0002 90F83C30 		ldrb	r3, [r0, #60]	@ zero_extendqisi2
 3121 0006 012B     		cmp	r3, #1
 3122 0008 66D0     		beq	.L396
 3123 000a 0446     		mov	r4, r0
 3124 000c 0D46     		mov	r5, r1
 3125 000e 0123     		movs	r3, #1
ARM GAS  C:\Users\Rick\AppData\Local\Temp\cccDRXLh.s 			page 53


 3126 0010 80F83C30 		strb	r3, [r0, #60]
 3127 0014 0C2A     		cmp	r2, #12
 3128 0016 5AD8     		bhi	.L397
 3129 0018 DFE802F0 		tbb	[pc, r2]
 3130              	.L392:
 3131 001c 07       		.byte	(.L395-.L392)/2
 3132 001d 59       		.byte	(.L397-.L392)/2
 3133 001e 59       		.byte	(.L397-.L392)/2
 3134 001f 59       		.byte	(.L397-.L392)/2
 3135 0020 1B       		.byte	(.L394-.L392)/2
 3136 0021 59       		.byte	(.L397-.L392)/2
 3137 0022 59       		.byte	(.L397-.L392)/2
 3138 0023 59       		.byte	(.L397-.L392)/2
 3139 0024 30       		.byte	(.L393-.L392)/2
 3140 0025 59       		.byte	(.L397-.L392)/2
 3141 0026 59       		.byte	(.L397-.L392)/2
 3142 0027 59       		.byte	(.L397-.L392)/2
 3143 0028 44       		.byte	(.L391-.L392)/2
 3144 0029 00       		.p2align 1
 3145              	.L395:
 3146 002a 0068     		ldr	r0, [r0]
 3147 002c FFF7FEFF 		bl	TIM_OC1_SetConfig
 3148 0030 2268     		ldr	r2, [r4]
 3149 0032 9369     		ldr	r3, [r2, #24]
 3150 0034 43F00803 		orr	r3, r3, #8
 3151 0038 9361     		str	r3, [r2, #24]
 3152 003a 2268     		ldr	r2, [r4]
 3153 003c 9369     		ldr	r3, [r2, #24]
 3154 003e 23F00403 		bic	r3, r3, #4
 3155 0042 9361     		str	r3, [r2, #24]
 3156 0044 2268     		ldr	r2, [r4]
 3157 0046 9369     		ldr	r3, [r2, #24]
 3158 0048 2969     		ldr	r1, [r5, #16]
 3159 004a 0B43     		orrs	r3, r3, r1
 3160 004c 9361     		str	r3, [r2, #24]
 3161 004e 0020     		movs	r0, #0
 3162 0050 3EE0     		b	.L390
 3163              	.L394:
 3164 0052 0068     		ldr	r0, [r0]
 3165 0054 FFF7FEFF 		bl	TIM_OC2_SetConfig
 3166 0058 2268     		ldr	r2, [r4]
 3167 005a 9369     		ldr	r3, [r2, #24]
 3168 005c 43F40063 		orr	r3, r3, #2048
 3169 0060 9361     		str	r3, [r2, #24]
 3170 0062 2268     		ldr	r2, [r4]
 3171 0064 9369     		ldr	r3, [r2, #24]
 3172 0066 23F48063 		bic	r3, r3, #1024
 3173 006a 9361     		str	r3, [r2, #24]
 3174 006c 2268     		ldr	r2, [r4]
 3175 006e 9369     		ldr	r3, [r2, #24]
 3176 0070 2969     		ldr	r1, [r5, #16]
 3177 0072 43EA0123 		orr	r3, r3, r1, lsl #8
 3178 0076 9361     		str	r3, [r2, #24]
 3179 0078 0020     		movs	r0, #0
 3180 007a 29E0     		b	.L390
 3181              	.L393:
 3182 007c 0068     		ldr	r0, [r0]
ARM GAS  C:\Users\Rick\AppData\Local\Temp\cccDRXLh.s 			page 54


 3183 007e FFF7FEFF 		bl	TIM_OC3_SetConfig
 3184 0082 2268     		ldr	r2, [r4]
 3185 0084 D369     		ldr	r3, [r2, #28]
 3186 0086 43F00803 		orr	r3, r3, #8
 3187 008a D361     		str	r3, [r2, #28]
 3188 008c 2268     		ldr	r2, [r4]
 3189 008e D369     		ldr	r3, [r2, #28]
 3190 0090 23F00403 		bic	r3, r3, #4
 3191 0094 D361     		str	r3, [r2, #28]
 3192 0096 2268     		ldr	r2, [r4]
 3193 0098 D369     		ldr	r3, [r2, #28]
 3194 009a 2969     		ldr	r1, [r5, #16]
 3195 009c 0B43     		orrs	r3, r3, r1
 3196 009e D361     		str	r3, [r2, #28]
 3197 00a0 0020     		movs	r0, #0
 3198 00a2 15E0     		b	.L390
 3199              	.L391:
 3200 00a4 0068     		ldr	r0, [r0]
 3201 00a6 FFF7FEFF 		bl	TIM_OC4_SetConfig
 3202 00aa 2268     		ldr	r2, [r4]
 3203 00ac D369     		ldr	r3, [r2, #28]
 3204 00ae 43F40063 		orr	r3, r3, #2048
 3205 00b2 D361     		str	r3, [r2, #28]
 3206 00b4 2268     		ldr	r2, [r4]
 3207 00b6 D369     		ldr	r3, [r2, #28]
 3208 00b8 23F48063 		bic	r3, r3, #1024
 3209 00bc D361     		str	r3, [r2, #28]
 3210 00be 2268     		ldr	r2, [r4]
 3211 00c0 D369     		ldr	r3, [r2, #28]
 3212 00c2 2969     		ldr	r1, [r5, #16]
 3213 00c4 43EA0123 		orr	r3, r3, r1, lsl #8
 3214 00c8 D361     		str	r3, [r2, #28]
 3215 00ca 0020     		movs	r0, #0
 3216 00cc 00E0     		b	.L390
 3217              	.L397:
 3218 00ce 0120     		movs	r0, #1
 3219              	.L390:
 3220 00d0 0023     		movs	r3, #0
 3221 00d2 84F83C30 		strb	r3, [r4, #60]
 3222              	.L389:
 3223 00d6 38BD     		pop	{r3, r4, r5, pc}
 3224              	.L396:
 3225 00d8 0220     		movs	r0, #2
 3226 00da FCE7     		b	.L389
 3228              		.section	.text.TIM_TI1_SetConfig,"ax",%progbits
 3229              		.align	1
 3230              		.global	TIM_TI1_SetConfig
 3231              		.syntax unified
 3232              		.thumb
 3233              		.thumb_func
 3235              	TIM_TI1_SetConfig:
 3236              		@ args = 0, pretend = 0, frame = 0
 3237              		@ frame_needed = 0, uses_anonymous_args = 0
 3238              		@ link register save eliminated.
 3239 0000 70B4     		push	{r4, r5, r6}
 3240 0002 9446     		mov	ip, r2
 3241 0004 066A     		ldr	r6, [r0, #32]
ARM GAS  C:\Users\Rick\AppData\Local\Temp\cccDRXLh.s 			page 55


 3242 0006 046A     		ldr	r4, [r0, #32]
 3243 0008 24F00104 		bic	r4, r4, #1
 3244 000c 0462     		str	r4, [r0, #32]
 3245 000e 8469     		ldr	r4, [r0, #24]
 3246 0010 184D     		ldr	r5, .L403
 3247 0012 A842     		cmp	r0, r5
 3248 0014 1CD0     		beq	.L400
 3249 0016 B0F1804F 		cmp	r0, #1073741824
 3250 001a 19D0     		beq	.L400
 3251 001c 164A     		ldr	r2, .L403+4
 3252 001e 9042     		cmp	r0, r2
 3253 0020 16D0     		beq	.L400
 3254 0022 02F58062 		add	r2, r2, #1024
 3255 0026 9042     		cmp	r0, r2
 3256 0028 12D0     		beq	.L400
 3257 002a 02F58062 		add	r2, r2, #1024
 3258 002e 9042     		cmp	r0, r2
 3259 0030 0ED0     		beq	.L400
 3260 0032 02F57842 		add	r2, r2, #63488
 3261 0036 9042     		cmp	r0, r2
 3262 0038 0AD0     		beq	.L400
 3263 003a 02F57052 		add	r2, r2, #15360
 3264 003e 9042     		cmp	r0, r2
 3265 0040 06D0     		beq	.L400
 3266 0042 A2F59432 		sub	r2, r2, #75776
 3267 0046 9042     		cmp	r0, r2
 3268 0048 02D0     		beq	.L400
 3269 004a 44F00102 		orr	r2, r4, #1
 3270 004e 03E0     		b	.L401
 3271              	.L400:
 3272 0050 24F00302 		bic	r2, r4, #3
 3273 0054 42EA0C02 		orr	r2, r2, ip
 3274              	.L401:
 3275 0058 22F0F002 		bic	r2, r2, #240
 3276 005c 1B01     		lsls	r3, r3, #4
 3277 005e DBB2     		uxtb	r3, r3
 3278 0060 1343     		orrs	r3, r3, r2
 3279 0062 26F00A02 		bic	r2, r6, #10
 3280 0066 01F00A01 		and	r1, r1, #10
 3281 006a 1143     		orrs	r1, r1, r2
 3282 006c 8361     		str	r3, [r0, #24]
 3283 006e 0162     		str	r1, [r0, #32]
 3284 0070 70BC     		pop	{r4, r5, r6}
 3285 0072 7047     		bx	lr
 3286              	.L404:
 3287              		.align	2
 3288              	.L403:
 3289 0074 00000140 		.word	1073807360
 3290 0078 00040040 		.word	1073742848
 3292              		.section	.text.HAL_TIM_IC_ConfigChannel,"ax",%progbits
 3293              		.align	1
 3294              		.global	HAL_TIM_IC_ConfigChannel
 3295              		.syntax unified
 3296              		.thumb
 3297              		.thumb_func
 3299              	HAL_TIM_IC_ConfigChannel:
 3300              		@ args = 0, pretend = 0, frame = 0
ARM GAS  C:\Users\Rick\AppData\Local\Temp\cccDRXLh.s 			page 56


 3301              		@ frame_needed = 0, uses_anonymous_args = 0
 3302 0000 38B5     		push	{r3, r4, r5, lr}
 3303 0002 90F83C30 		ldrb	r3, [r0, #60]	@ zero_extendqisi2
 3304 0006 012B     		cmp	r3, #1
 3305 0008 5ED0     		beq	.L413
 3306 000a 0446     		mov	r4, r0
 3307 000c 0D46     		mov	r5, r1
 3308 000e 0123     		movs	r3, #1
 3309 0010 80F83C30 		strb	r3, [r0, #60]
 3310 0014 0C2A     		cmp	r2, #12
 3311 0016 52D8     		bhi	.L414
 3312 0018 DFE802F0 		tbb	[pc, r2]
 3313              	.L409:
 3314 001c 07       		.byte	(.L412-.L409)/2
 3315 001d 51       		.byte	(.L414-.L409)/2
 3316 001e 51       		.byte	(.L414-.L409)/2
 3317 001f 51       		.byte	(.L414-.L409)/2
 3318 0020 19       		.byte	(.L411-.L409)/2
 3319 0021 51       		.byte	(.L414-.L409)/2
 3320 0022 51       		.byte	(.L414-.L409)/2
 3321 0023 51       		.byte	(.L414-.L409)/2
 3322 0024 2C       		.byte	(.L410-.L409)/2
 3323 0025 51       		.byte	(.L414-.L409)/2
 3324 0026 51       		.byte	(.L414-.L409)/2
 3325 0027 51       		.byte	(.L414-.L409)/2
 3326 0028 3E       		.byte	(.L408-.L409)/2
 3327 0029 00       		.p2align 1
 3328              	.L412:
 3329 002a CB68     		ldr	r3, [r1, #12]
 3330 002c 4A68     		ldr	r2, [r1, #4]
 3331 002e 0968     		ldr	r1, [r1]
 3332 0030 0068     		ldr	r0, [r0]
 3333 0032 FFF7FEFF 		bl	TIM_TI1_SetConfig
 3334 0036 2268     		ldr	r2, [r4]
 3335 0038 9369     		ldr	r3, [r2, #24]
 3336 003a 23F00C03 		bic	r3, r3, #12
 3337 003e 9361     		str	r3, [r2, #24]
 3338 0040 2268     		ldr	r2, [r4]
 3339 0042 9369     		ldr	r3, [r2, #24]
 3340 0044 A968     		ldr	r1, [r5, #8]
 3341 0046 0B43     		orrs	r3, r3, r1
 3342 0048 9361     		str	r3, [r2, #24]
 3343 004a 0020     		movs	r0, #0
 3344 004c 38E0     		b	.L407
 3345              	.L411:
 3346 004e CB68     		ldr	r3, [r1, #12]
 3347 0050 4A68     		ldr	r2, [r1, #4]
 3348 0052 0968     		ldr	r1, [r1]
 3349 0054 0068     		ldr	r0, [r0]
 3350 0056 FFF7FEFF 		bl	TIM_TI2_SetConfig
 3351 005a 2268     		ldr	r2, [r4]
 3352 005c 9369     		ldr	r3, [r2, #24]
 3353 005e 23F44063 		bic	r3, r3, #3072
 3354 0062 9361     		str	r3, [r2, #24]
 3355 0064 2268     		ldr	r2, [r4]
 3356 0066 9369     		ldr	r3, [r2, #24]
 3357 0068 A968     		ldr	r1, [r5, #8]
ARM GAS  C:\Users\Rick\AppData\Local\Temp\cccDRXLh.s 			page 57


 3358 006a 43EA0123 		orr	r3, r3, r1, lsl #8
 3359 006e 9361     		str	r3, [r2, #24]
 3360 0070 0020     		movs	r0, #0
 3361 0072 25E0     		b	.L407
 3362              	.L410:
 3363 0074 CB68     		ldr	r3, [r1, #12]
 3364 0076 4A68     		ldr	r2, [r1, #4]
 3365 0078 0968     		ldr	r1, [r1]
 3366 007a 0068     		ldr	r0, [r0]
 3367 007c FFF7FEFF 		bl	TIM_TI3_SetConfig
 3368 0080 2268     		ldr	r2, [r4]
 3369 0082 D369     		ldr	r3, [r2, #28]
 3370 0084 23F00C03 		bic	r3, r3, #12
 3371 0088 D361     		str	r3, [r2, #28]
 3372 008a 2268     		ldr	r2, [r4]
 3373 008c D369     		ldr	r3, [r2, #28]
 3374 008e A968     		ldr	r1, [r5, #8]
 3375 0090 0B43     		orrs	r3, r3, r1
 3376 0092 D361     		str	r3, [r2, #28]
 3377 0094 0020     		movs	r0, #0
 3378 0096 13E0     		b	.L407
 3379              	.L408:
 3380 0098 CB68     		ldr	r3, [r1, #12]
 3381 009a 4A68     		ldr	r2, [r1, #4]
 3382 009c 0968     		ldr	r1, [r1]
 3383 009e 0068     		ldr	r0, [r0]
 3384 00a0 FFF7FEFF 		bl	TIM_TI4_SetConfig
 3385 00a4 2268     		ldr	r2, [r4]
 3386 00a6 D369     		ldr	r3, [r2, #28]
 3387 00a8 23F44063 		bic	r3, r3, #3072
 3388 00ac D361     		str	r3, [r2, #28]
 3389 00ae 2268     		ldr	r2, [r4]
 3390 00b0 D369     		ldr	r3, [r2, #28]
 3391 00b2 A968     		ldr	r1, [r5, #8]
 3392 00b4 43EA0123 		orr	r3, r3, r1, lsl #8
 3393 00b8 D361     		str	r3, [r2, #28]
 3394 00ba 0020     		movs	r0, #0
 3395 00bc 00E0     		b	.L407
 3396              	.L414:
 3397 00be 0120     		movs	r0, #1
 3398              	.L407:
 3399 00c0 0023     		movs	r3, #0
 3400 00c2 84F83C30 		strb	r3, [r4, #60]
 3401              	.L406:
 3402 00c6 38BD     		pop	{r3, r4, r5, pc}
 3403              	.L413:
 3404 00c8 0220     		movs	r0, #2
 3405 00ca FCE7     		b	.L406
 3407              		.section	.text.HAL_TIM_OnePulse_ConfigChannel,"ax",%progbits
 3408              		.align	1
 3409              		.global	HAL_TIM_OnePulse_ConfigChannel
 3410              		.syntax unified
 3411              		.thumb
 3412              		.thumb_func
 3414              	HAL_TIM_OnePulse_ConfigChannel:
 3415              		@ args = 0, pretend = 0, frame = 32
 3416              		@ frame_needed = 0, uses_anonymous_args = 0
ARM GAS  C:\Users\Rick\AppData\Local\Temp\cccDRXLh.s 			page 58


 3417 0000 9A42     		cmp	r2, r3
 3418 0002 76D0     		beq	.L424
 3419 0004 70B5     		push	{r4, r5, r6, lr}
 3420 0006 88B0     		sub	sp, sp, #32
 3421 0008 0446     		mov	r4, r0
 3422 000a 0D46     		mov	r5, r1
 3423 000c 1E46     		mov	r6, r3
 3424 000e 90F83C30 		ldrb	r3, [r0, #60]	@ zero_extendqisi2
 3425 0012 012B     		cmp	r3, #1
 3426 0014 6FD0     		beq	.L425
 3427 0016 0123     		movs	r3, #1
 3428 0018 80F83C30 		strb	r3, [r0, #60]
 3429 001c 0223     		movs	r3, #2
 3430 001e 80F83D30 		strb	r3, [r0, #61]
 3431 0022 0B68     		ldr	r3, [r1]
 3432 0024 0193     		str	r3, [sp, #4]
 3433 0026 4B68     		ldr	r3, [r1, #4]
 3434 0028 0293     		str	r3, [sp, #8]
 3435 002a 8B68     		ldr	r3, [r1, #8]
 3436 002c 0393     		str	r3, [sp, #12]
 3437 002e CB68     		ldr	r3, [r1, #12]
 3438 0030 0493     		str	r3, [sp, #16]
 3439 0032 0B69     		ldr	r3, [r1, #16]
 3440 0034 0693     		str	r3, [sp, #24]
 3441 0036 4B69     		ldr	r3, [r1, #20]
 3442 0038 0793     		str	r3, [sp, #28]
 3443 003a 52B1     		cbz	r2, .L418
 3444 003c 042A     		cmp	r2, #4
 3445 003e 11D0     		beq	.L419
 3446 0040 0120     		movs	r0, #1
 3447              	.L420:
 3448 0042 0123     		movs	r3, #1
 3449 0044 84F83D30 		strb	r3, [r4, #61]
 3450 0048 0023     		movs	r3, #0
 3451 004a 84F83C30 		strb	r3, [r4, #60]
 3452              	.L417:
 3453 004e 08B0     		add	sp, sp, #32
 3454              		@ sp needed
 3455 0050 70BD     		pop	{r4, r5, r6, pc}
 3456              	.L418:
 3457 0052 01A9     		add	r1, sp, #4
 3458 0054 0068     		ldr	r0, [r0]
 3459 0056 FFF7FEFF 		bl	TIM_OC1_SetConfig
 3460              	.L421:
 3461 005a 46B1     		cbz	r6, .L422
 3462 005c 042E     		cmp	r6, #4
 3463 005e 27D0     		beq	.L423
 3464 0060 0120     		movs	r0, #1
 3465 0062 EEE7     		b	.L420
 3466              	.L419:
 3467 0064 01A9     		add	r1, sp, #4
 3468 0066 0068     		ldr	r0, [r0]
 3469 0068 FFF7FEFF 		bl	TIM_OC2_SetConfig
 3470 006c F5E7     		b	.L421
 3471              	.L422:
 3472 006e 2B6A     		ldr	r3, [r5, #32]
 3473 0070 EA69     		ldr	r2, [r5, #28]
ARM GAS  C:\Users\Rick\AppData\Local\Temp\cccDRXLh.s 			page 59


 3474 0072 A969     		ldr	r1, [r5, #24]
 3475 0074 2068     		ldr	r0, [r4]
 3476 0076 FFF7FEFF 		bl	TIM_TI1_SetConfig
 3477 007a 2268     		ldr	r2, [r4]
 3478 007c 9369     		ldr	r3, [r2, #24]
 3479 007e 23F00C03 		bic	r3, r3, #12
 3480 0082 9361     		str	r3, [r2, #24]
 3481 0084 2268     		ldr	r2, [r4]
 3482 0086 9368     		ldr	r3, [r2, #8]
 3483 0088 23F07003 		bic	r3, r3, #112
 3484 008c 9360     		str	r3, [r2, #8]
 3485 008e 2268     		ldr	r2, [r4]
 3486 0090 9368     		ldr	r3, [r2, #8]
 3487 0092 43F05003 		orr	r3, r3, #80
 3488 0096 9360     		str	r3, [r2, #8]
 3489 0098 2268     		ldr	r2, [r4]
 3490 009a 9368     		ldr	r3, [r2, #8]
 3491 009c 23F00703 		bic	r3, r3, #7
 3492 00a0 9360     		str	r3, [r2, #8]
 3493 00a2 2268     		ldr	r2, [r4]
 3494 00a4 9368     		ldr	r3, [r2, #8]
 3495 00a6 43F00603 		orr	r3, r3, #6
 3496 00aa 9360     		str	r3, [r2, #8]
 3497 00ac 0020     		movs	r0, #0
 3498 00ae C8E7     		b	.L420
 3499              	.L423:
 3500 00b0 2B6A     		ldr	r3, [r5, #32]
 3501 00b2 EA69     		ldr	r2, [r5, #28]
 3502 00b4 A969     		ldr	r1, [r5, #24]
 3503 00b6 2068     		ldr	r0, [r4]
 3504 00b8 FFF7FEFF 		bl	TIM_TI2_SetConfig
 3505 00bc 2268     		ldr	r2, [r4]
 3506 00be 9369     		ldr	r3, [r2, #24]
 3507 00c0 23F44063 		bic	r3, r3, #3072
 3508 00c4 9361     		str	r3, [r2, #24]
 3509 00c6 2268     		ldr	r2, [r4]
 3510 00c8 9368     		ldr	r3, [r2, #8]
 3511 00ca 23F07003 		bic	r3, r3, #112
 3512 00ce 9360     		str	r3, [r2, #8]
 3513 00d0 2268     		ldr	r2, [r4]
 3514 00d2 9368     		ldr	r3, [r2, #8]
 3515 00d4 43F06003 		orr	r3, r3, #96
 3516 00d8 9360     		str	r3, [r2, #8]
 3517 00da 2268     		ldr	r2, [r4]
 3518 00dc 9368     		ldr	r3, [r2, #8]
 3519 00de 23F00703 		bic	r3, r3, #7
 3520 00e2 9360     		str	r3, [r2, #8]
 3521 00e4 2268     		ldr	r2, [r4]
 3522 00e6 9368     		ldr	r3, [r2, #8]
 3523 00e8 43F00603 		orr	r3, r3, #6
 3524 00ec 9360     		str	r3, [r2, #8]
 3525 00ee 0020     		movs	r0, #0
 3526 00f0 A7E7     		b	.L420
 3527              	.L424:
 3528 00f2 0120     		movs	r0, #1
 3529 00f4 7047     		bx	lr
 3530              	.L425:
ARM GAS  C:\Users\Rick\AppData\Local\Temp\cccDRXLh.s 			page 60


 3531 00f6 0220     		movs	r0, #2
 3532 00f8 A9E7     		b	.L417
 3534              		.section	.text.TIM_ETR_SetConfig,"ax",%progbits
 3535              		.align	1
 3536              		.global	TIM_ETR_SetConfig
 3537              		.syntax unified
 3538              		.thumb
 3539              		.thumb_func
 3541              	TIM_ETR_SetConfig:
 3542              		@ args = 0, pretend = 0, frame = 0
 3543              		@ frame_needed = 0, uses_anonymous_args = 0
 3544              		@ link register save eliminated.
 3545 0000 10B4     		push	{r4}
 3546 0002 8468     		ldr	r4, [r0, #8]
 3547 0004 24F47F4C 		bic	ip, r4, #65280
 3548 0008 42EA0322 		orr	r2, r2, r3, lsl #8
 3549 000c 0A43     		orrs	r2, r2, r1
 3550 000e 42EA0C02 		orr	r2, r2, ip
 3551 0012 8260     		str	r2, [r0, #8]
 3552 0014 5DF8044B 		ldr	r4, [sp], #4
 3553 0018 7047     		bx	lr
 3555              		.section	.text.HAL_TIM_ConfigOCrefClear,"ax",%progbits
 3556              		.align	1
 3557              		.global	HAL_TIM_ConfigOCrefClear
 3558              		.syntax unified
 3559              		.thumb
 3560              		.thumb_func
 3562              	HAL_TIM_ConfigOCrefClear:
 3563              		@ args = 0, pretend = 0, frame = 0
 3564              		@ frame_needed = 0, uses_anonymous_args = 0
 3565 0000 90F83C30 		ldrb	r3, [r0, #60]	@ zero_extendqisi2
 3566 0004 012B     		cmp	r3, #1
 3567 0006 76D0     		beq	.L448
 3568 0008 70B5     		push	{r4, r5, r6, lr}
 3569 000a 0446     		mov	r4, r0
 3570 000c 0D46     		mov	r5, r1
 3571 000e 1646     		mov	r6, r2
 3572 0010 0123     		movs	r3, #1
 3573 0012 80F83C30 		strb	r3, [r0, #60]
 3574 0016 0223     		movs	r3, #2
 3575 0018 80F83D30 		strb	r3, [r0, #61]
 3576 001c 4B68     		ldr	r3, [r1, #4]
 3577 001e 4BB1     		cbz	r3, .L434
 3578 0020 012B     		cmp	r3, #1
 3579 0022 17D0     		beq	.L435
 3580 0024 0120     		movs	r0, #1
 3581              	.L436:
 3582 0026 0123     		movs	r3, #1
 3583 0028 84F83D30 		strb	r3, [r4, #61]
 3584 002c 0023     		movs	r3, #0
 3585 002e 84F83C30 		strb	r3, [r4, #60]
 3586              	.L433:
 3587 0032 70BD     		pop	{r4, r5, r6, pc}
 3588              	.L434:
 3589 0034 0268     		ldr	r2, [r0]
 3590 0036 9368     		ldr	r3, [r2, #8]
 3591 0038 23F47F43 		bic	r3, r3, #65280
ARM GAS  C:\Users\Rick\AppData\Local\Temp\cccDRXLh.s 			page 61


 3592 003c 9360     		str	r3, [r2, #8]
 3593              	.L437:
 3594 003e 0C2E     		cmp	r6, #12
 3595 0040 57D8     		bhi	.L449
 3596 0042 DFE806F0 		tbb	[pc, r6]
 3597              	.L440:
 3598 0046 16       		.byte	(.L443-.L440)/2
 3599 0047 56       		.byte	(.L449-.L440)/2
 3600 0048 56       		.byte	(.L449-.L440)/2
 3601 0049 56       		.byte	(.L449-.L440)/2
 3602 004a 26       		.byte	(.L442-.L440)/2
 3603 004b 56       		.byte	(.L449-.L440)/2
 3604 004c 56       		.byte	(.L449-.L440)/2
 3605 004d 56       		.byte	(.L449-.L440)/2
 3606 004e 36       		.byte	(.L441-.L440)/2
 3607 004f 56       		.byte	(.L449-.L440)/2
 3608 0050 56       		.byte	(.L449-.L440)/2
 3609 0051 56       		.byte	(.L449-.L440)/2
 3610 0052 46       		.byte	(.L439-.L440)/2
 3611 0053 00       		.p2align 1
 3612              	.L435:
 3613 0054 C968     		ldr	r1, [r1, #12]
 3614 0056 31B1     		cbz	r1, .L438
 3615 0058 0120     		movs	r0, #1
 3616 005a 84F83D00 		strb	r0, [r4, #61]
 3617 005e 0023     		movs	r3, #0
 3618 0060 84F83C30 		strb	r3, [r4, #60]
 3619 0064 E5E7     		b	.L433
 3620              	.L438:
 3621 0066 2B69     		ldr	r3, [r5, #16]
 3622 0068 AA68     		ldr	r2, [r5, #8]
 3623 006a 0068     		ldr	r0, [r0]
 3624 006c FFF7FEFF 		bl	TIM_ETR_SetConfig
 3625 0070 E5E7     		b	.L437
 3626              	.L443:
 3627 0072 2B68     		ldr	r3, [r5]
 3628 0074 33B1     		cbz	r3, .L444
 3629 0076 2268     		ldr	r2, [r4]
 3630 0078 9369     		ldr	r3, [r2, #24]
 3631 007a 43F08003 		orr	r3, r3, #128
 3632 007e 9361     		str	r3, [r2, #24]
 3633 0080 0020     		movs	r0, #0
 3634 0082 D0E7     		b	.L436
 3635              	.L444:
 3636 0084 2268     		ldr	r2, [r4]
 3637 0086 9369     		ldr	r3, [r2, #24]
 3638 0088 23F08003 		bic	r3, r3, #128
 3639 008c 9361     		str	r3, [r2, #24]
 3640 008e 0020     		movs	r0, #0
 3641 0090 C9E7     		b	.L436
 3642              	.L442:
 3643 0092 2B68     		ldr	r3, [r5]
 3644 0094 33B1     		cbz	r3, .L445
 3645 0096 2268     		ldr	r2, [r4]
 3646 0098 9369     		ldr	r3, [r2, #24]
 3647 009a 43F40043 		orr	r3, r3, #32768
 3648 009e 9361     		str	r3, [r2, #24]
ARM GAS  C:\Users\Rick\AppData\Local\Temp\cccDRXLh.s 			page 62


 3649 00a0 0020     		movs	r0, #0
 3650 00a2 C0E7     		b	.L436
 3651              	.L445:
 3652 00a4 2268     		ldr	r2, [r4]
 3653 00a6 9369     		ldr	r3, [r2, #24]
 3654 00a8 23F40043 		bic	r3, r3, #32768
 3655 00ac 9361     		str	r3, [r2, #24]
 3656 00ae 0020     		movs	r0, #0
 3657 00b0 B9E7     		b	.L436
 3658              	.L441:
 3659 00b2 2B68     		ldr	r3, [r5]
 3660 00b4 33B1     		cbz	r3, .L446
 3661 00b6 2268     		ldr	r2, [r4]
 3662 00b8 D369     		ldr	r3, [r2, #28]
 3663 00ba 43F08003 		orr	r3, r3, #128
 3664 00be D361     		str	r3, [r2, #28]
 3665 00c0 0020     		movs	r0, #0
 3666 00c2 B0E7     		b	.L436
 3667              	.L446:
 3668 00c4 2268     		ldr	r2, [r4]
 3669 00c6 D369     		ldr	r3, [r2, #28]
 3670 00c8 23F08003 		bic	r3, r3, #128
 3671 00cc D361     		str	r3, [r2, #28]
 3672 00ce 0020     		movs	r0, #0
 3673 00d0 A9E7     		b	.L436
 3674              	.L439:
 3675 00d2 2B68     		ldr	r3, [r5]
 3676 00d4 33B1     		cbz	r3, .L447
 3677 00d6 2268     		ldr	r2, [r4]
 3678 00d8 D369     		ldr	r3, [r2, #28]
 3679 00da 43F40043 		orr	r3, r3, #32768
 3680 00de D361     		str	r3, [r2, #28]
 3681 00e0 0020     		movs	r0, #0
 3682 00e2 A0E7     		b	.L436
 3683              	.L447:
 3684 00e4 2268     		ldr	r2, [r4]
 3685 00e6 D369     		ldr	r3, [r2, #28]
 3686 00e8 23F40043 		bic	r3, r3, #32768
 3687 00ec D361     		str	r3, [r2, #28]
 3688 00ee 0020     		movs	r0, #0
 3689 00f0 99E7     		b	.L436
 3690              	.L449:
 3691 00f2 0020     		movs	r0, #0
 3692 00f4 97E7     		b	.L436
 3693              	.L448:
 3694 00f6 0220     		movs	r0, #2
 3695 00f8 7047     		bx	lr
 3697              		.section	.text.HAL_TIM_ConfigClockSource,"ax",%progbits
 3698              		.align	1
 3699              		.global	HAL_TIM_ConfigClockSource
 3700              		.syntax unified
 3701              		.thumb
 3702              		.thumb_func
 3704              	HAL_TIM_ConfigClockSource:
 3705              		@ args = 0, pretend = 0, frame = 0
 3706              		@ frame_needed = 0, uses_anonymous_args = 0
 3707 0000 90F83C30 		ldrb	r3, [r0, #60]	@ zero_extendqisi2
ARM GAS  C:\Users\Rick\AppData\Local\Temp\cccDRXLh.s 			page 63


 3708 0004 012B     		cmp	r3, #1
 3709 0006 78D0     		beq	.L465
 3710 0008 10B5     		push	{r4, lr}
 3711 000a 0446     		mov	r4, r0
 3712 000c 0123     		movs	r3, #1
 3713 000e 80F83C30 		strb	r3, [r0, #60]
 3714 0012 0223     		movs	r3, #2
 3715 0014 80F83D30 		strb	r3, [r0, #61]
 3716 0018 0268     		ldr	r2, [r0]
 3717 001a 9368     		ldr	r3, [r2, #8]
 3718 001c 23F47F43 		bic	r3, r3, #65280
 3719 0020 23F07703 		bic	r3, r3, #119
 3720 0024 9360     		str	r3, [r2, #8]
 3721 0026 0B68     		ldr	r3, [r1]
 3722 0028 602B     		cmp	r3, #96
 3723 002a 4CD0     		beq	.L456
 3724 002c 23D8     		bhi	.L457
 3725 002e 402B     		cmp	r3, #64
 3726 0030 54D0     		beq	.L458
 3727 0032 11D8     		bhi	.L459
 3728 0034 202B     		cmp	r3, #32
 3729 0036 03D0     		beq	.L460
 3730 0038 0AD8     		bhi	.L461
 3731 003a 0BB1     		cbz	r3, .L460
 3732 003c 102B     		cmp	r3, #16
 3733 003e 05D1     		bne	.L472
 3734              	.L460:
 3735 0040 1946     		mov	r1, r3
 3736 0042 2068     		ldr	r0, [r4]
 3737 0044 FFF7FEFF 		bl	TIM_ITRx_SetConfig
 3738 0048 0020     		movs	r0, #0
 3739 004a 28E0     		b	.L462
 3740              	.L472:
 3741 004c 0120     		movs	r0, #1
 3742 004e 26E0     		b	.L462
 3743              	.L461:
 3744 0050 302B     		cmp	r3, #48
 3745 0052 F5D0     		beq	.L460
 3746 0054 0120     		movs	r0, #1
 3747 0056 22E0     		b	.L462
 3748              	.L459:
 3749 0058 502B     		cmp	r3, #80
 3750 005a 0AD1     		bne	.L473
 3751 005c CA68     		ldr	r2, [r1, #12]
 3752 005e 4968     		ldr	r1, [r1, #4]
 3753 0060 0068     		ldr	r0, [r0]
 3754 0062 FFF7FEFF 		bl	TIM_TI1_ConfigInputStage
 3755 0066 5021     		movs	r1, #80
 3756 0068 2068     		ldr	r0, [r4]
 3757 006a FFF7FEFF 		bl	TIM_ITRx_SetConfig
 3758 006e 0020     		movs	r0, #0
 3759 0070 15E0     		b	.L462
 3760              	.L473:
 3761 0072 0120     		movs	r0, #1
 3762 0074 13E0     		b	.L462
 3763              	.L457:
 3764 0076 B3F5805F 		cmp	r3, #4096
ARM GAS  C:\Users\Rick\AppData\Local\Temp\cccDRXLh.s 			page 64


 3765 007a 3AD0     		beq	.L466
 3766 007c B3F5005F 		cmp	r3, #8192
 3767 0080 14D0     		beq	.L464
 3768 0082 702B     		cmp	r3, #112
 3769 0084 37D1     		bne	.L467
 3770 0086 CB68     		ldr	r3, [r1, #12]
 3771 0088 4A68     		ldr	r2, [r1, #4]
 3772 008a 8968     		ldr	r1, [r1, #8]
 3773 008c 0068     		ldr	r0, [r0]
 3774 008e FFF7FEFF 		bl	TIM_ETR_SetConfig
 3775 0092 2268     		ldr	r2, [r4]
 3776 0094 9368     		ldr	r3, [r2, #8]
 3777 0096 43F07703 		orr	r3, r3, #119
 3778 009a 9360     		str	r3, [r2, #8]
 3779 009c 0020     		movs	r0, #0
 3780              	.L462:
 3781 009e 0123     		movs	r3, #1
 3782 00a0 84F83D30 		strb	r3, [r4, #61]
 3783 00a4 0023     		movs	r3, #0
 3784 00a6 84F83C30 		strb	r3, [r4, #60]
 3785 00aa 10BD     		pop	{r4, pc}
 3786              	.L464:
 3787 00ac CB68     		ldr	r3, [r1, #12]
 3788 00ae 4A68     		ldr	r2, [r1, #4]
 3789 00b0 8968     		ldr	r1, [r1, #8]
 3790 00b2 0068     		ldr	r0, [r0]
 3791 00b4 FFF7FEFF 		bl	TIM_ETR_SetConfig
 3792 00b8 2268     		ldr	r2, [r4]
 3793 00ba 9368     		ldr	r3, [r2, #8]
 3794 00bc 43F48043 		orr	r3, r3, #16384
 3795 00c0 9360     		str	r3, [r2, #8]
 3796 00c2 0020     		movs	r0, #0
 3797 00c4 EBE7     		b	.L462
 3798              	.L456:
 3799 00c6 CA68     		ldr	r2, [r1, #12]
 3800 00c8 4968     		ldr	r1, [r1, #4]
 3801 00ca 0068     		ldr	r0, [r0]
 3802 00cc FFF7FEFF 		bl	TIM_TI2_ConfigInputStage
 3803 00d0 6021     		movs	r1, #96
 3804 00d2 2068     		ldr	r0, [r4]
 3805 00d4 FFF7FEFF 		bl	TIM_ITRx_SetConfig
 3806 00d8 0020     		movs	r0, #0
 3807 00da E0E7     		b	.L462
 3808              	.L458:
 3809 00dc CA68     		ldr	r2, [r1, #12]
 3810 00de 4968     		ldr	r1, [r1, #4]
 3811 00e0 0068     		ldr	r0, [r0]
 3812 00e2 FFF7FEFF 		bl	TIM_TI1_ConfigInputStage
 3813 00e6 4021     		movs	r1, #64
 3814 00e8 2068     		ldr	r0, [r4]
 3815 00ea FFF7FEFF 		bl	TIM_ITRx_SetConfig
 3816 00ee 0020     		movs	r0, #0
 3817 00f0 D5E7     		b	.L462
 3818              	.L466:
 3819 00f2 0020     		movs	r0, #0
 3820 00f4 D3E7     		b	.L462
 3821              	.L467:
ARM GAS  C:\Users\Rick\AppData\Local\Temp\cccDRXLh.s 			page 65


 3822 00f6 0120     		movs	r0, #1
 3823 00f8 D1E7     		b	.L462
 3824              	.L465:
 3825 00fa 0220     		movs	r0, #2
 3826 00fc 7047     		bx	lr
 3828              		.section	.text.TIM_SlaveTimer_SetConfig,"ax",%progbits
 3829              		.align	1
 3830              		.syntax unified
 3831              		.thumb
 3832              		.thumb_func
 3834              	TIM_SlaveTimer_SetConfig:
 3835              		@ args = 0, pretend = 0, frame = 0
 3836              		@ frame_needed = 0, uses_anonymous_args = 0
 3837 0000 10B5     		push	{r4, lr}
 3838 0002 0468     		ldr	r4, [r0]
 3839 0004 A268     		ldr	r2, [r4, #8]
 3840 0006 22F07002 		bic	r2, r2, #112
 3841 000a 4B68     		ldr	r3, [r1, #4]
 3842 000c 1343     		orrs	r3, r3, r2
 3843 000e 23F00703 		bic	r3, r3, #7
 3844 0012 0A68     		ldr	r2, [r1]
 3845 0014 1A43     		orrs	r2, r2, r3
 3846 0016 A260     		str	r2, [r4, #8]
 3847 0018 4B68     		ldr	r3, [r1, #4]
 3848 001a 502B     		cmp	r3, #80
 3849 001c 30D0     		beq	.L475
 3850 001e 0BD9     		bls	.L489
 3851 0020 602B     		cmp	r3, #96
 3852 0022 34D0     		beq	.L480
 3853 0024 702B     		cmp	r3, #112
 3854 0026 43D1     		bne	.L486
 3855 0028 0B69     		ldr	r3, [r1, #16]
 3856 002a 8A68     		ldr	r2, [r1, #8]
 3857 002c C968     		ldr	r1, [r1, #12]
 3858 002e 0068     		ldr	r0, [r0]
 3859 0030 FFF7FEFF 		bl	TIM_ETR_SetConfig
 3860 0034 0020     		movs	r0, #0
 3861              	.L478:
 3862 0036 10BD     		pop	{r4, pc}
 3863              	.L489:
 3864 0038 402B     		cmp	r3, #64
 3865 003a 0CD0     		beq	.L477
 3866 003c 2ED8     		bhi	.L481
 3867 003e 202B     		cmp	r3, #32
 3868 0040 2ED0     		beq	.L482
 3869 0042 04D8     		bhi	.L479
 3870 0044 73B3     		cbz	r3, .L483
 3871 0046 102B     		cmp	r3, #16
 3872 0048 2ED1     		bne	.L484
 3873 004a 0020     		movs	r0, #0
 3874 004c F3E7     		b	.L478
 3875              	.L479:
 3876 004e 302B     		cmp	r3, #48
 3877 0050 2CD1     		bne	.L485
 3878 0052 0020     		movs	r0, #0
 3879 0054 EFE7     		b	.L478
 3880              	.L477:
ARM GAS  C:\Users\Rick\AppData\Local\Temp\cccDRXLh.s 			page 66


 3881 0056 0B68     		ldr	r3, [r1]
 3882 0058 052B     		cmp	r3, #5
 3883 005a 2BD0     		beq	.L487
 3884 005c 0368     		ldr	r3, [r0]
 3885 005e 1C6A     		ldr	r4, [r3, #32]
 3886 0060 1A6A     		ldr	r2, [r3, #32]
 3887 0062 22F00102 		bic	r2, r2, #1
 3888 0066 1A62     		str	r2, [r3, #32]
 3889 0068 0268     		ldr	r2, [r0]
 3890 006a 9369     		ldr	r3, [r2, #24]
 3891 006c 23F0F003 		bic	r3, r3, #240
 3892 0070 0969     		ldr	r1, [r1, #16]
 3893 0072 43EA0113 		orr	r3, r3, r1, lsl #4
 3894 0076 9361     		str	r3, [r2, #24]
 3895 0078 0368     		ldr	r3, [r0]
 3896 007a 1C62     		str	r4, [r3, #32]
 3897 007c 0020     		movs	r0, #0
 3898 007e DAE7     		b	.L478
 3899              	.L475:
 3900 0080 0A69     		ldr	r2, [r1, #16]
 3901 0082 8968     		ldr	r1, [r1, #8]
 3902 0084 0068     		ldr	r0, [r0]
 3903 0086 FFF7FEFF 		bl	TIM_TI1_ConfigInputStage
 3904 008a 0020     		movs	r0, #0
 3905 008c D3E7     		b	.L478
 3906              	.L480:
 3907 008e 0A69     		ldr	r2, [r1, #16]
 3908 0090 8968     		ldr	r1, [r1, #8]
 3909 0092 0068     		ldr	r0, [r0]
 3910 0094 FFF7FEFF 		bl	TIM_TI2_ConfigInputStage
 3911 0098 0020     		movs	r0, #0
 3912 009a CCE7     		b	.L478
 3913              	.L481:
 3914 009c 0120     		movs	r0, #1
 3915 009e CAE7     		b	.L478
 3916              	.L482:
 3917 00a0 0020     		movs	r0, #0
 3918 00a2 C8E7     		b	.L478
 3919              	.L483:
 3920 00a4 0020     		movs	r0, #0
 3921 00a6 C6E7     		b	.L478
 3922              	.L484:
 3923 00a8 0120     		movs	r0, #1
 3924 00aa C4E7     		b	.L478
 3925              	.L485:
 3926 00ac 0120     		movs	r0, #1
 3927 00ae C2E7     		b	.L478
 3928              	.L486:
 3929 00b0 0120     		movs	r0, #1
 3930 00b2 C0E7     		b	.L478
 3931              	.L487:
 3932 00b4 0120     		movs	r0, #1
 3933 00b6 BEE7     		b	.L478
 3935              		.section	.text.HAL_TIM_SlaveConfigSynchro,"ax",%progbits
 3936              		.align	1
 3937              		.global	HAL_TIM_SlaveConfigSynchro
 3938              		.syntax unified
ARM GAS  C:\Users\Rick\AppData\Local\Temp\cccDRXLh.s 			page 67


 3939              		.thumb
 3940              		.thumb_func
 3942              	HAL_TIM_SlaveConfigSynchro:
 3943              		@ args = 0, pretend = 0, frame = 0
 3944              		@ frame_needed = 0, uses_anonymous_args = 0
 3945 0000 90F83C30 		ldrb	r3, [r0, #60]	@ zero_extendqisi2
 3946 0004 012B     		cmp	r3, #1
 3947 0006 22D0     		beq	.L493
 3948 0008 10B5     		push	{r4, lr}
 3949 000a 0446     		mov	r4, r0
 3950 000c 0123     		movs	r3, #1
 3951 000e 80F83C30 		strb	r3, [r0, #60]
 3952 0012 0223     		movs	r3, #2
 3953 0014 80F83D30 		strb	r3, [r0, #61]
 3954 0018 FFF7FEFF 		bl	TIM_SlaveTimer_SetConfig
 3955 001c 80B9     		cbnz	r0, .L498
 3956 001e 2268     		ldr	r2, [r4]
 3957 0020 D368     		ldr	r3, [r2, #12]
 3958 0022 23F04003 		bic	r3, r3, #64
 3959 0026 D360     		str	r3, [r2, #12]
 3960 0028 2268     		ldr	r2, [r4]
 3961 002a D368     		ldr	r3, [r2, #12]
 3962 002c 23F48043 		bic	r3, r3, #16384
 3963 0030 D360     		str	r3, [r2, #12]
 3964 0032 0123     		movs	r3, #1
 3965 0034 84F83D30 		strb	r3, [r4, #61]
 3966 0038 0023     		movs	r3, #0
 3967 003a 84F83C30 		strb	r3, [r4, #60]
 3968              	.L491:
 3969 003e 10BD     		pop	{r4, pc}
 3970              	.L498:
 3971 0040 0120     		movs	r0, #1
 3972 0042 84F83D00 		strb	r0, [r4, #61]
 3973 0046 0023     		movs	r3, #0
 3974 0048 84F83C30 		strb	r3, [r4, #60]
 3975 004c F7E7     		b	.L491
 3976              	.L493:
 3977 004e 0220     		movs	r0, #2
 3978 0050 7047     		bx	lr
 3980              		.section	.text.HAL_TIM_SlaveConfigSynchro_IT,"ax",%progbits
 3981              		.align	1
 3982              		.global	HAL_TIM_SlaveConfigSynchro_IT
 3983              		.syntax unified
 3984              		.thumb
 3985              		.thumb_func
 3987              	HAL_TIM_SlaveConfigSynchro_IT:
 3988              		@ args = 0, pretend = 0, frame = 0
 3989              		@ frame_needed = 0, uses_anonymous_args = 0
 3990 0000 90F83C30 		ldrb	r3, [r0, #60]	@ zero_extendqisi2
 3991 0004 012B     		cmp	r3, #1
 3992 0006 22D0     		beq	.L502
 3993 0008 10B5     		push	{r4, lr}
 3994 000a 0446     		mov	r4, r0
 3995 000c 0123     		movs	r3, #1
 3996 000e 80F83C30 		strb	r3, [r0, #60]
 3997 0012 0223     		movs	r3, #2
 3998 0014 80F83D30 		strb	r3, [r0, #61]
ARM GAS  C:\Users\Rick\AppData\Local\Temp\cccDRXLh.s 			page 68


 3999 0018 FFF7FEFF 		bl	TIM_SlaveTimer_SetConfig
 4000 001c 80B9     		cbnz	r0, .L507
 4001 001e 2268     		ldr	r2, [r4]
 4002 0020 D368     		ldr	r3, [r2, #12]
 4003 0022 43F04003 		orr	r3, r3, #64
 4004 0026 D360     		str	r3, [r2, #12]
 4005 0028 2268     		ldr	r2, [r4]
 4006 002a D368     		ldr	r3, [r2, #12]
 4007 002c 23F48043 		bic	r3, r3, #16384
 4008 0030 D360     		str	r3, [r2, #12]
 4009 0032 0123     		movs	r3, #1
 4010 0034 84F83D30 		strb	r3, [r4, #61]
 4011 0038 0023     		movs	r3, #0
 4012 003a 84F83C30 		strb	r3, [r4, #60]
 4013              	.L500:
 4014 003e 10BD     		pop	{r4, pc}
 4015              	.L507:
 4016 0040 0120     		movs	r0, #1
 4017 0042 84F83D00 		strb	r0, [r4, #61]
 4018 0046 0023     		movs	r3, #0
 4019 0048 84F83C30 		strb	r3, [r4, #60]
 4020 004c F7E7     		b	.L500
 4021              	.L502:
 4022 004e 0220     		movs	r0, #2
 4023 0050 7047     		bx	lr
 4025              		.section	.text.TIM_CCxChannelCmd,"ax",%progbits
 4026              		.align	1
 4027              		.global	TIM_CCxChannelCmd
 4028              		.syntax unified
 4029              		.thumb
 4030              		.thumb_func
 4032              	TIM_CCxChannelCmd:
 4033              		@ args = 0, pretend = 0, frame = 0
 4034              		@ frame_needed = 0, uses_anonymous_args = 0
 4035              		@ link register save eliminated.
 4036 0000 01F01F01 		and	r1, r1, #31
 4037 0004 4FF0010C 		mov	ip, #1
 4038 0008 0CFA01FC 		lsl	ip, ip, r1
 4039 000c 036A     		ldr	r3, [r0, #32]
 4040 000e 23EA0C03 		bic	r3, r3, ip
 4041 0012 0362     		str	r3, [r0, #32]
 4042 0014 036A     		ldr	r3, [r0, #32]
 4043 0016 8A40     		lsls	r2, r2, r1
 4044 0018 1343     		orrs	r3, r3, r2
 4045 001a 0362     		str	r3, [r0, #32]
 4046 001c 7047     		bx	lr
 4048              		.section	.text.HAL_TIM_OC_Start,"ax",%progbits
 4049              		.align	1
 4050              		.global	HAL_TIM_OC_Start
 4051              		.syntax unified
 4052              		.thumb
 4053              		.thumb_func
 4055              	HAL_TIM_OC_Start:
 4056              		@ args = 0, pretend = 0, frame = 0
 4057              		@ frame_needed = 0, uses_anonymous_args = 0
 4058 0000 10B5     		push	{r4, lr}
 4059 0002 0446     		mov	r4, r0
ARM GAS  C:\Users\Rick\AppData\Local\Temp\cccDRXLh.s 			page 69


 4060 0004 0846     		mov	r0, r1
 4061 0006 0029     		cmp	r1, #0
 4062 0008 41D1     		bne	.L510
 4063 000a 94F83E30 		ldrb	r3, [r4, #62]	@ zero_extendqisi2
 4064 000e 013B     		subs	r3, r3, #1
 4065 0010 18BF     		it	ne
 4066 0012 0123     		movne	r3, #1
 4067              	.L511:
 4068 0014 002B     		cmp	r3, #0
 4069 0016 6BD1     		bne	.L523
 4070 0018 0028     		cmp	r0, #0
 4071 001a 4ED1     		bne	.L515
 4072 001c 0223     		movs	r3, #2
 4073 001e 84F83E30 		strb	r3, [r4, #62]
 4074              	.L516:
 4075 0022 0122     		movs	r2, #1
 4076 0024 0146     		mov	r1, r0
 4077 0026 2068     		ldr	r0, [r4]
 4078 0028 FFF7FEFF 		bl	TIM_CCxChannelCmd
 4079 002c 2368     		ldr	r3, [r4]
 4080 002e 324A     		ldr	r2, .L530
 4081 0030 9342     		cmp	r3, r2
 4082 0032 03D0     		beq	.L519
 4083 0034 02F58062 		add	r2, r2, #1024
 4084 0038 9342     		cmp	r3, r2
 4085 003a 03D1     		bne	.L520
 4086              	.L519:
 4087 003c 5A6C     		ldr	r2, [r3, #68]
 4088 003e 42F40042 		orr	r2, r2, #32768
 4089 0042 5A64     		str	r2, [r3, #68]
 4090              	.L520:
 4091 0044 2368     		ldr	r3, [r4]
 4092 0046 2C4A     		ldr	r2, .L530
 4093 0048 9342     		cmp	r3, r2
 4094 004a 46D0     		beq	.L521
 4095 004c B3F1804F 		cmp	r3, #1073741824
 4096 0050 43D0     		beq	.L521
 4097 0052 A2F57C42 		sub	r2, r2, #64512
 4098 0056 9342     		cmp	r3, r2
 4099 0058 3FD0     		beq	.L521
 4100 005a 02F58062 		add	r2, r2, #1024
 4101 005e 9342     		cmp	r3, r2
 4102 0060 3BD0     		beq	.L521
 4103 0062 02F58062 		add	r2, r2, #1024
 4104 0066 9342     		cmp	r3, r2
 4105 0068 37D0     		beq	.L521
 4106 006a 02F57842 		add	r2, r2, #63488
 4107 006e 9342     		cmp	r3, r2
 4108 0070 33D0     		beq	.L521
 4109 0072 02F57052 		add	r2, r2, #15360
 4110 0076 9342     		cmp	r3, r2
 4111 0078 2FD0     		beq	.L521
 4112 007a A2F59432 		sub	r2, r2, #75776
 4113 007e 9342     		cmp	r3, r2
 4114 0080 2BD0     		beq	.L521
 4115 0082 1A68     		ldr	r2, [r3]
 4116 0084 42F00102 		orr	r2, r2, #1
ARM GAS  C:\Users\Rick\AppData\Local\Temp\cccDRXLh.s 			page 70


 4117 0088 1A60     		str	r2, [r3]
 4118 008a 0020     		movs	r0, #0
 4119 008c 2FE0     		b	.L514
 4120              	.L510:
 4121 008e 0429     		cmp	r1, #4
 4122 0090 07D0     		beq	.L526
 4123 0092 0829     		cmp	r1, #8
 4124 0094 0BD0     		beq	.L527
 4125 0096 94F84130 		ldrb	r3, [r4, #65]	@ zero_extendqisi2
 4126 009a 013B     		subs	r3, r3, #1
 4127 009c 18BF     		it	ne
 4128 009e 0123     		movne	r3, #1
 4129 00a0 B8E7     		b	.L511
 4130              	.L526:
 4131 00a2 94F83F30 		ldrb	r3, [r4, #63]	@ zero_extendqisi2
 4132 00a6 013B     		subs	r3, r3, #1
 4133 00a8 18BF     		it	ne
 4134 00aa 0123     		movne	r3, #1
 4135 00ac B2E7     		b	.L511
 4136              	.L527:
 4137 00ae 94F84030 		ldrb	r3, [r4, #64]	@ zero_extendqisi2
 4138 00b2 013B     		subs	r3, r3, #1
 4139 00b4 18BF     		it	ne
 4140 00b6 0123     		movne	r3, #1
 4141 00b8 ACE7     		b	.L511
 4142              	.L515:
 4143 00ba 0428     		cmp	r0, #4
 4144 00bc 05D0     		beq	.L528
 4145 00be 0828     		cmp	r0, #8
 4146 00c0 07D0     		beq	.L529
 4147 00c2 0223     		movs	r3, #2
 4148 00c4 84F84130 		strb	r3, [r4, #65]
 4149 00c8 ABE7     		b	.L516
 4150              	.L528:
 4151 00ca 0223     		movs	r3, #2
 4152 00cc 84F83F30 		strb	r3, [r4, #63]
 4153 00d0 A7E7     		b	.L516
 4154              	.L529:
 4155 00d2 0223     		movs	r3, #2
 4156 00d4 84F84030 		strb	r3, [r4, #64]
 4157 00d8 A3E7     		b	.L516
 4158              	.L521:
 4159 00da 9A68     		ldr	r2, [r3, #8]
 4160 00dc 02F00702 		and	r2, r2, #7
 4161 00e0 062A     		cmp	r2, #6
 4162 00e2 07D0     		beq	.L524
 4163 00e4 1A68     		ldr	r2, [r3]
 4164 00e6 42F00102 		orr	r2, r2, #1
 4165 00ea 1A60     		str	r2, [r3]
 4166 00ec 0020     		movs	r0, #0
 4167              	.L514:
 4168 00ee 10BD     		pop	{r4, pc}
 4169              	.L523:
 4170 00f0 0120     		movs	r0, #1
 4171 00f2 FCE7     		b	.L514
 4172              	.L524:
 4173 00f4 0020     		movs	r0, #0
ARM GAS  C:\Users\Rick\AppData\Local\Temp\cccDRXLh.s 			page 71


 4174 00f6 FAE7     		b	.L514
 4175              	.L531:
 4176              		.align	2
 4177              	.L530:
 4178 00f8 00000140 		.word	1073807360
 4180              		.section	.text.HAL_TIM_OC_Stop,"ax",%progbits
 4181              		.align	1
 4182              		.global	HAL_TIM_OC_Stop
 4183              		.syntax unified
 4184              		.thumb
 4185              		.thumb_func
 4187              	HAL_TIM_OC_Stop:
 4188              		@ args = 0, pretend = 0, frame = 0
 4189              		@ frame_needed = 0, uses_anonymous_args = 0
 4190 0000 38B5     		push	{r3, r4, r5, lr}
 4191 0002 0446     		mov	r4, r0
 4192 0004 0D46     		mov	r5, r1
 4193 0006 0022     		movs	r2, #0
 4194 0008 0068     		ldr	r0, [r0]
 4195 000a FFF7FEFF 		bl	TIM_CCxChannelCmd
 4196 000e 2368     		ldr	r3, [r4]
 4197 0010 1D4A     		ldr	r2, .L543
 4198 0012 9342     		cmp	r3, r2
 4199 0014 18D0     		beq	.L533
 4200 0016 02F58062 		add	r2, r2, #1024
 4201 001a 9342     		cmp	r3, r2
 4202 001c 14D0     		beq	.L533
 4203              	.L534:
 4204 001e 2368     		ldr	r3, [r4]
 4205 0020 196A     		ldr	r1, [r3, #32]
 4206 0022 41F21112 		movw	r2, #4369
 4207 0026 1142     		tst	r1, r2
 4208 0028 08D1     		bne	.L535
 4209 002a 196A     		ldr	r1, [r3, #32]
 4210 002c 40F24442 		movw	r2, #1092
 4211 0030 1142     		tst	r1, r2
 4212 0032 03D1     		bne	.L535
 4213 0034 1A68     		ldr	r2, [r3]
 4214 0036 22F00102 		bic	r2, r2, #1
 4215 003a 1A60     		str	r2, [r3]
 4216              	.L535:
 4217 003c 9DB9     		cbnz	r5, .L536
 4218 003e 0123     		movs	r3, #1
 4219 0040 84F83E30 		strb	r3, [r4, #62]
 4220              	.L537:
 4221 0044 0020     		movs	r0, #0
 4222 0046 38BD     		pop	{r3, r4, r5, pc}
 4223              	.L533:
 4224 0048 196A     		ldr	r1, [r3, #32]
 4225 004a 41F21112 		movw	r2, #4369
 4226 004e 1142     		tst	r1, r2
 4227 0050 E5D1     		bne	.L534
 4228 0052 196A     		ldr	r1, [r3, #32]
 4229 0054 40F24442 		movw	r2, #1092
 4230 0058 1142     		tst	r1, r2
 4231 005a E0D1     		bne	.L534
 4232 005c 5A6C     		ldr	r2, [r3, #68]
ARM GAS  C:\Users\Rick\AppData\Local\Temp\cccDRXLh.s 			page 72


 4233 005e 22F40042 		bic	r2, r2, #32768
 4234 0062 5A64     		str	r2, [r3, #68]
 4235 0064 DBE7     		b	.L534
 4236              	.L536:
 4237 0066 042D     		cmp	r5, #4
 4238 0068 05D0     		beq	.L541
 4239 006a 082D     		cmp	r5, #8
 4240 006c 07D0     		beq	.L542
 4241 006e 0123     		movs	r3, #1
 4242 0070 84F84130 		strb	r3, [r4, #65]
 4243 0074 E6E7     		b	.L537
 4244              	.L541:
 4245 0076 0123     		movs	r3, #1
 4246 0078 84F83F30 		strb	r3, [r4, #63]
 4247 007c E2E7     		b	.L537
 4248              	.L542:
 4249 007e 0123     		movs	r3, #1
 4250 0080 84F84030 		strb	r3, [r4, #64]
 4251 0084 DEE7     		b	.L537
 4252              	.L544:
 4253 0086 00BF     		.align	2
 4254              	.L543:
 4255 0088 00000140 		.word	1073807360
 4257              		.section	.text.HAL_TIM_OC_Start_IT,"ax",%progbits
 4258              		.align	1
 4259              		.global	HAL_TIM_OC_Start_IT
 4260              		.syntax unified
 4261              		.thumb
 4262              		.thumb_func
 4264              	HAL_TIM_OC_Start_IT:
 4265              		@ args = 0, pretend = 0, frame = 0
 4266              		@ frame_needed = 0, uses_anonymous_args = 0
 4267 0000 10B5     		push	{r4, lr}
 4268 0002 0446     		mov	r4, r0
 4269 0004 0846     		mov	r0, r1
 4270 0006 0029     		cmp	r1, #0
 4271 0008 47D1     		bne	.L546
 4272 000a 94F83E30 		ldrb	r3, [r4, #62]	@ zero_extendqisi2
 4273 000e 013B     		subs	r3, r3, #1
 4274 0010 18BF     		it	ne
 4275 0012 0123     		movne	r3, #1
 4276              	.L547:
 4277 0014 002B     		cmp	r3, #0
 4278 0016 40F0A080 		bne	.L564
 4279 001a 0028     		cmp	r0, #0
 4280 001c 53D1     		bne	.L551
 4281 001e 0223     		movs	r3, #2
 4282 0020 84F83E30 		strb	r3, [r4, #62]
 4283              	.L552:
 4284 0024 2268     		ldr	r2, [r4]
 4285 0026 D368     		ldr	r3, [r2, #12]
 4286 0028 43F00203 		orr	r3, r3, #2
 4287 002c D360     		str	r3, [r2, #12]
 4288              	.L559:
 4289 002e 0122     		movs	r2, #1
 4290 0030 0146     		mov	r1, r0
 4291 0032 2068     		ldr	r0, [r4]
ARM GAS  C:\Users\Rick\AppData\Local\Temp\cccDRXLh.s 			page 73


 4292 0034 FFF7FEFF 		bl	TIM_CCxChannelCmd
 4293 0038 2368     		ldr	r3, [r4]
 4294 003a 4B4A     		ldr	r2, .L575
 4295 003c 9342     		cmp	r3, r2
 4296 003e 03D0     		beq	.L560
 4297 0040 02F58062 		add	r2, r2, #1024
 4298 0044 9342     		cmp	r3, r2
 4299 0046 03D1     		bne	.L561
 4300              	.L560:
 4301 0048 5A6C     		ldr	r2, [r3, #68]
 4302 004a 42F40042 		orr	r2, r2, #32768
 4303 004e 5A64     		str	r2, [r3, #68]
 4304              	.L561:
 4305 0050 2368     		ldr	r3, [r4]
 4306 0052 454A     		ldr	r2, .L575
 4307 0054 9342     		cmp	r3, r2
 4308 0056 75D0     		beq	.L562
 4309 0058 B3F1804F 		cmp	r3, #1073741824
 4310 005c 72D0     		beq	.L562
 4311 005e A2F57C42 		sub	r2, r2, #64512
 4312 0062 9342     		cmp	r3, r2
 4313 0064 6ED0     		beq	.L562
 4314 0066 02F58062 		add	r2, r2, #1024
 4315 006a 9342     		cmp	r3, r2
 4316 006c 6AD0     		beq	.L562
 4317 006e 02F58062 		add	r2, r2, #1024
 4318 0072 9342     		cmp	r3, r2
 4319 0074 66D0     		beq	.L562
 4320 0076 02F57842 		add	r2, r2, #63488
 4321 007a 9342     		cmp	r3, r2
 4322 007c 62D0     		beq	.L562
 4323 007e 02F57052 		add	r2, r2, #15360
 4324 0082 9342     		cmp	r3, r2
 4325 0084 5ED0     		beq	.L562
 4326 0086 A2F59432 		sub	r2, r2, #75776
 4327 008a 9342     		cmp	r3, r2
 4328 008c 5AD0     		beq	.L562
 4329 008e 1A68     		ldr	r2, [r3]
 4330 0090 42F00102 		orr	r2, r2, #1
 4331 0094 1A60     		str	r2, [r3]
 4332 0096 0020     		movs	r0, #0
 4333 0098 5EE0     		b	.L550
 4334              	.L546:
 4335 009a 0429     		cmp	r1, #4
 4336 009c 07D0     		beq	.L571
 4337 009e 0829     		cmp	r1, #8
 4338 00a0 0BD0     		beq	.L572
 4339 00a2 94F84130 		ldrb	r3, [r4, #65]	@ zero_extendqisi2
 4340 00a6 013B     		subs	r3, r3, #1
 4341 00a8 18BF     		it	ne
 4342 00aa 0123     		movne	r3, #1
 4343 00ac B2E7     		b	.L547
 4344              	.L571:
 4345 00ae 94F83F30 		ldrb	r3, [r4, #63]	@ zero_extendqisi2
 4346 00b2 013B     		subs	r3, r3, #1
 4347 00b4 18BF     		it	ne
 4348 00b6 0123     		movne	r3, #1
ARM GAS  C:\Users\Rick\AppData\Local\Temp\cccDRXLh.s 			page 74


 4349 00b8 ACE7     		b	.L547
 4350              	.L572:
 4351 00ba 94F84030 		ldrb	r3, [r4, #64]	@ zero_extendqisi2
 4352 00be 013B     		subs	r3, r3, #1
 4353 00c0 18BF     		it	ne
 4354 00c2 0123     		movne	r3, #1
 4355 00c4 A6E7     		b	.L547
 4356              	.L551:
 4357 00c6 0428     		cmp	r0, #4
 4358 00c8 24D0     		beq	.L573
 4359 00ca 0828     		cmp	r0, #8
 4360 00cc 2BD0     		beq	.L574
 4361 00ce 0223     		movs	r3, #2
 4362 00d0 84F84130 		strb	r3, [r4, #65]
 4363 00d4 0C28     		cmp	r0, #12
 4364 00d6 42D8     		bhi	.L565
 4365 00d8 01A3     		adr	r3, .L558
 4366 00da 53F820F0 		ldr	pc, [r3, r0, lsl #2]
 4367 00de 00BF     		.p2align 2
 4368              	.L558:
 4369 00e0 25000000 		.word	.L552+1
 4370 00e4 5F010000 		.word	.L565+1
 4371 00e8 5F010000 		.word	.L565+1
 4372 00ec 5F010000 		.word	.L565+1
 4373 00f0 1B010000 		.word	.L554+1
 4374 00f4 5F010000 		.word	.L565+1
 4375 00f8 5F010000 		.word	.L565+1
 4376 00fc 5F010000 		.word	.L565+1
 4377 0100 2D010000 		.word	.L556+1
 4378 0104 5F010000 		.word	.L565+1
 4379 0108 5F010000 		.word	.L565+1
 4380 010c 5F010000 		.word	.L565+1
 4381 0110 39010000 		.word	.L557+1
 4382              		.p2align 1
 4383              	.L573:
 4384 0114 0223     		movs	r3, #2
 4385 0116 84F83F30 		strb	r3, [r4, #63]
 4386              	.L554:
 4387 011a 2268     		ldr	r2, [r4]
 4388 011c D368     		ldr	r3, [r2, #12]
 4389 011e 43F00403 		orr	r3, r3, #4
 4390 0122 D360     		str	r3, [r2, #12]
 4391 0124 83E7     		b	.L559
 4392              	.L574:
 4393 0126 0223     		movs	r3, #2
 4394 0128 84F84030 		strb	r3, [r4, #64]
 4395              	.L556:
 4396 012c 2268     		ldr	r2, [r4]
 4397 012e D368     		ldr	r3, [r2, #12]
 4398 0130 43F00803 		orr	r3, r3, #8
 4399 0134 D360     		str	r3, [r2, #12]
 4400 0136 7AE7     		b	.L559
 4401              	.L557:
 4402 0138 2268     		ldr	r2, [r4]
 4403 013a D368     		ldr	r3, [r2, #12]
 4404 013c 43F01003 		orr	r3, r3, #16
 4405 0140 D360     		str	r3, [r2, #12]
ARM GAS  C:\Users\Rick\AppData\Local\Temp\cccDRXLh.s 			page 75


 4406 0142 74E7     		b	.L559
 4407              	.L562:
 4408 0144 9A68     		ldr	r2, [r3, #8]
 4409 0146 02F00702 		and	r2, r2, #7
 4410 014a 062A     		cmp	r2, #6
 4411 014c 09D0     		beq	.L566
 4412 014e 1A68     		ldr	r2, [r3]
 4413 0150 42F00102 		orr	r2, r2, #1
 4414 0154 1A60     		str	r2, [r3]
 4415 0156 0020     		movs	r0, #0
 4416              	.L550:
 4417 0158 10BD     		pop	{r4, pc}
 4418              	.L564:
 4419 015a 0120     		movs	r0, #1
 4420 015c FCE7     		b	.L550
 4421              	.L565:
 4422 015e 0120     		movs	r0, #1
 4423 0160 FAE7     		b	.L550
 4424              	.L566:
 4425 0162 0020     		movs	r0, #0
 4426 0164 F8E7     		b	.L550
 4427              	.L576:
 4428 0166 00BF     		.align	2
 4429              	.L575:
 4430 0168 00000140 		.word	1073807360
 4432              		.section	.text.HAL_TIM_OC_Stop_IT,"ax",%progbits
 4433              		.align	1
 4434              		.global	HAL_TIM_OC_Stop_IT
 4435              		.syntax unified
 4436              		.thumb
 4437              		.thumb_func
 4439              	HAL_TIM_OC_Stop_IT:
 4440              		@ args = 0, pretend = 0, frame = 0
 4441              		@ frame_needed = 0, uses_anonymous_args = 0
 4442 0000 38B5     		push	{r3, r4, r5, lr}
 4443 0002 0546     		mov	r5, r0
 4444 0004 0C46     		mov	r4, r1
 4445 0006 0C29     		cmp	r1, #12
 4446 0008 63D8     		bhi	.L591
 4447 000a DFE801F0 		tbb	[pc, r1]
 4448              	.L580:
 4449 000e 07       		.byte	(.L583-.L580)/2
 4450 000f 62       		.byte	(.L591-.L580)/2
 4451 0010 62       		.byte	(.L591-.L580)/2
 4452 0011 62       		.byte	(.L591-.L580)/2
 4453 0012 2E       		.byte	(.L582-.L580)/2
 4454 0013 62       		.byte	(.L591-.L580)/2
 4455 0014 62       		.byte	(.L591-.L580)/2
 4456 0015 62       		.byte	(.L591-.L580)/2
 4457 0016 34       		.byte	(.L581-.L580)/2
 4458 0017 62       		.byte	(.L591-.L580)/2
 4459 0018 62       		.byte	(.L591-.L580)/2
 4460 0019 62       		.byte	(.L591-.L580)/2
 4461 001a 3A       		.byte	(.L579-.L580)/2
 4462 001b 00       		.p2align 1
 4463              	.L583:
 4464 001c 0268     		ldr	r2, [r0]
ARM GAS  C:\Users\Rick\AppData\Local\Temp\cccDRXLh.s 			page 76


 4465 001e D368     		ldr	r3, [r2, #12]
 4466 0020 23F00203 		bic	r3, r3, #2
 4467 0024 D360     		str	r3, [r2, #12]
 4468              	.L584:
 4469 0026 0022     		movs	r2, #0
 4470 0028 2146     		mov	r1, r4
 4471 002a 2868     		ldr	r0, [r5]
 4472 002c FFF7FEFF 		bl	TIM_CCxChannelCmd
 4473 0030 2B68     		ldr	r3, [r5]
 4474 0032 294A     		ldr	r2, .L595
 4475 0034 9342     		cmp	r3, r2
 4476 0036 2AD0     		beq	.L585
 4477 0038 02F58062 		add	r2, r2, #1024
 4478 003c 9342     		cmp	r3, r2
 4479 003e 26D0     		beq	.L585
 4480              	.L586:
 4481 0040 2B68     		ldr	r3, [r5]
 4482 0042 196A     		ldr	r1, [r3, #32]
 4483 0044 41F21112 		movw	r2, #4369
 4484 0048 1142     		tst	r1, r2
 4485 004a 08D1     		bne	.L587
 4486 004c 196A     		ldr	r1, [r3, #32]
 4487 004e 40F24442 		movw	r2, #1092
 4488 0052 1142     		tst	r1, r2
 4489 0054 03D1     		bne	.L587
 4490 0056 1A68     		ldr	r2, [r3]
 4491 0058 22F00102 		bic	r2, r2, #1
 4492 005c 1A60     		str	r2, [r3]
 4493              	.L587:
 4494 005e 2CBB     		cbnz	r4, .L588
 4495 0060 0123     		movs	r3, #1
 4496 0062 85F83E30 		strb	r3, [r5, #62]
 4497 0066 0020     		movs	r0, #0
 4498 0068 34E0     		b	.L578
 4499              	.L582:
 4500 006a 0268     		ldr	r2, [r0]
 4501 006c D368     		ldr	r3, [r2, #12]
 4502 006e 23F00403 		bic	r3, r3, #4
 4503 0072 D360     		str	r3, [r2, #12]
 4504 0074 D7E7     		b	.L584
 4505              	.L581:
 4506 0076 0268     		ldr	r2, [r0]
 4507 0078 D368     		ldr	r3, [r2, #12]
 4508 007a 23F00803 		bic	r3, r3, #8
 4509 007e D360     		str	r3, [r2, #12]
 4510 0080 D1E7     		b	.L584
 4511              	.L579:
 4512 0082 0268     		ldr	r2, [r0]
 4513 0084 D368     		ldr	r3, [r2, #12]
 4514 0086 23F01003 		bic	r3, r3, #16
 4515 008a D360     		str	r3, [r2, #12]
 4516 008c CBE7     		b	.L584
 4517              	.L585:
 4518 008e 196A     		ldr	r1, [r3, #32]
 4519 0090 41F21112 		movw	r2, #4369
 4520 0094 1142     		tst	r1, r2
 4521 0096 D3D1     		bne	.L586
ARM GAS  C:\Users\Rick\AppData\Local\Temp\cccDRXLh.s 			page 77


 4522 0098 196A     		ldr	r1, [r3, #32]
 4523 009a 40F24442 		movw	r2, #1092
 4524 009e 1142     		tst	r1, r2
 4525 00a0 CED1     		bne	.L586
 4526 00a2 5A6C     		ldr	r2, [r3, #68]
 4527 00a4 22F40042 		bic	r2, r2, #32768
 4528 00a8 5A64     		str	r2, [r3, #68]
 4529 00aa C9E7     		b	.L586
 4530              	.L588:
 4531 00ac 042C     		cmp	r4, #4
 4532 00ae 06D0     		beq	.L593
 4533 00b0 082C     		cmp	r4, #8
 4534 00b2 09D0     		beq	.L594
 4535 00b4 0123     		movs	r3, #1
 4536 00b6 85F84130 		strb	r3, [r5, #65]
 4537 00ba 0020     		movs	r0, #0
 4538 00bc 0AE0     		b	.L578
 4539              	.L593:
 4540 00be 0123     		movs	r3, #1
 4541 00c0 85F83F30 		strb	r3, [r5, #63]
 4542 00c4 0020     		movs	r0, #0
 4543 00c6 05E0     		b	.L578
 4544              	.L594:
 4545 00c8 0123     		movs	r3, #1
 4546 00ca 85F84030 		strb	r3, [r5, #64]
 4547 00ce 0020     		movs	r0, #0
 4548 00d0 00E0     		b	.L578
 4549              	.L591:
 4550 00d2 0120     		movs	r0, #1
 4551              	.L578:
 4552 00d4 38BD     		pop	{r3, r4, r5, pc}
 4553              	.L596:
 4554 00d6 00BF     		.align	2
 4555              	.L595:
 4556 00d8 00000140 		.word	1073807360
 4558              		.section	.text.HAL_TIM_OC_Start_DMA,"ax",%progbits
 4559              		.align	1
 4560              		.global	HAL_TIM_OC_Start_DMA
 4561              		.syntax unified
 4562              		.thumb
 4563              		.thumb_func
 4565              	HAL_TIM_OC_Start_DMA:
 4566              		@ args = 0, pretend = 0, frame = 0
 4567              		@ frame_needed = 0, uses_anonymous_args = 0
 4568 0000 70B5     		push	{r4, r5, r6, lr}
 4569 0002 0446     		mov	r4, r0
 4570 0004 1646     		mov	r6, r2
 4571 0006 0D46     		mov	r5, r1
 4572 0008 0029     		cmp	r1, #0
 4573 000a 75D1     		bne	.L598
 4574 000c 90F83E00 		ldrb	r0, [r0, #62]	@ zero_extendqisi2
 4575 0010 0228     		cmp	r0, #2
 4576 0012 14BF     		ite	ne
 4577 0014 0020     		movne	r0, #0
 4578 0016 0120     		moveq	r0, #1
 4579              	.L599:
 4580 0018 0028     		cmp	r0, #0
ARM GAS  C:\Users\Rick\AppData\Local\Temp\cccDRXLh.s 			page 78


 4581 001a 40F01A81 		bne	.L620
 4582 001e 002D     		cmp	r5, #0
 4583 0020 40F08380 		bne	.L603
 4584 0024 94F83E20 		ldrb	r2, [r4, #62]	@ zero_extendqisi2
 4585 0028 012A     		cmp	r2, #1
 4586 002a 14BF     		ite	ne
 4587 002c 0022     		movne	r2, #0
 4588 002e 0122     		moveq	r2, #1
 4589              	.L604:
 4590 0030 002A     		cmp	r2, #0
 4591 0032 00F01081 		beq	.L621
 4592 0036 002E     		cmp	r6, #0
 4593 0038 00F00F81 		beq	.L622
 4594 003c 002B     		cmp	r3, #0
 4595 003e 00F00E81 		beq	.L623
 4596 0042 002D     		cmp	r5, #0
 4597 0044 40F08A80 		bne	.L607
 4598 0048 0222     		movs	r2, #2
 4599 004a 84F83E20 		strb	r2, [r4, #62]
 4600              	.L608:
 4601 004e 626A     		ldr	r2, [r4, #36]
 4602 0050 8A49     		ldr	r1, .L640
 4603 0052 D163     		str	r1, [r2, #60]
 4604 0054 626A     		ldr	r2, [r4, #36]
 4605 0056 8A49     		ldr	r1, .L640+4
 4606 0058 1164     		str	r1, [r2, #64]
 4607 005a 626A     		ldr	r2, [r4, #36]
 4608 005c 8949     		ldr	r1, .L640+8
 4609 005e D164     		str	r1, [r2, #76]
 4610 0060 2268     		ldr	r2, [r4]
 4611 0062 3432     		adds	r2, r2, #52
 4612 0064 3146     		mov	r1, r6
 4613 0066 606A     		ldr	r0, [r4, #36]
 4614 0068 FFF7FEFF 		bl	HAL_DMA_Start_IT
 4615 006c 0028     		cmp	r0, #0
 4616 006e 40F0FA80 		bne	.L625
 4617 0072 2268     		ldr	r2, [r4]
 4618 0074 D368     		ldr	r3, [r2, #12]
 4619 0076 43F40073 		orr	r3, r3, #512
 4620 007a D360     		str	r3, [r2, #12]
 4621              	.L615:
 4622 007c 0122     		movs	r2, #1
 4623 007e 2946     		mov	r1, r5
 4624 0080 2068     		ldr	r0, [r4]
 4625 0082 FFF7FEFF 		bl	TIM_CCxChannelCmd
 4626 0086 2368     		ldr	r3, [r4]
 4627 0088 7F4A     		ldr	r2, .L640+12
 4628 008a 9342     		cmp	r3, r2
 4629 008c 03D0     		beq	.L616
 4630 008e 02F58062 		add	r2, r2, #1024
 4631 0092 9342     		cmp	r3, r2
 4632 0094 03D1     		bne	.L617
 4633              	.L616:
 4634 0096 5A6C     		ldr	r2, [r3, #68]
 4635 0098 42F40042 		orr	r2, r2, #32768
 4636 009c 5A64     		str	r2, [r3, #68]
 4637              	.L617:
ARM GAS  C:\Users\Rick\AppData\Local\Temp\cccDRXLh.s 			page 79


 4638 009e 2368     		ldr	r3, [r4]
 4639 00a0 794A     		ldr	r2, .L640+12
 4640 00a2 9342     		cmp	r3, r2
 4641 00a4 00F0CA80 		beq	.L618
 4642 00a8 B3F1804F 		cmp	r3, #1073741824
 4643 00ac 00F0C680 		beq	.L618
 4644 00b0 A2F57C42 		sub	r2, r2, #64512
 4645 00b4 9342     		cmp	r3, r2
 4646 00b6 00F0C180 		beq	.L618
 4647 00ba 02F58062 		add	r2, r2, #1024
 4648 00be 9342     		cmp	r3, r2
 4649 00c0 00F0BC80 		beq	.L618
 4650 00c4 02F58062 		add	r2, r2, #1024
 4651 00c8 9342     		cmp	r3, r2
 4652 00ca 00F0B780 		beq	.L618
 4653 00ce 02F57842 		add	r2, r2, #63488
 4654 00d2 9342     		cmp	r3, r2
 4655 00d4 00F0B280 		beq	.L618
 4656 00d8 02F57052 		add	r2, r2, #15360
 4657 00dc 9342     		cmp	r3, r2
 4658 00de 00F0AD80 		beq	.L618
 4659 00e2 A2F59432 		sub	r2, r2, #75776
 4660 00e6 9342     		cmp	r3, r2
 4661 00e8 00F0A880 		beq	.L618
 4662 00ec 1A68     		ldr	r2, [r3]
 4663 00ee 42F00102 		orr	r2, r2, #1
 4664 00f2 1A60     		str	r2, [r3]
 4665 00f4 0020     		movs	r0, #0
 4666 00f6 AFE0     		b	.L602
 4667              	.L598:
 4668 00f8 0429     		cmp	r1, #4
 4669 00fa 08D0     		beq	.L634
 4670 00fc 0829     		cmp	r1, #8
 4671 00fe 0DD0     		beq	.L635
 4672 0100 90F84100 		ldrb	r0, [r0, #65]	@ zero_extendqisi2
 4673 0104 0228     		cmp	r0, #2
 4674 0106 14BF     		ite	ne
 4675 0108 0020     		movne	r0, #0
 4676 010a 0120     		moveq	r0, #1
 4677 010c 84E7     		b	.L599
 4678              	.L634:
 4679 010e 90F83F00 		ldrb	r0, [r0, #63]	@ zero_extendqisi2
 4680 0112 0228     		cmp	r0, #2
 4681 0114 14BF     		ite	ne
 4682 0116 0020     		movne	r0, #0
 4683 0118 0120     		moveq	r0, #1
 4684 011a 7DE7     		b	.L599
 4685              	.L635:
 4686 011c 90F84000 		ldrb	r0, [r0, #64]	@ zero_extendqisi2
 4687 0120 0228     		cmp	r0, #2
 4688 0122 14BF     		ite	ne
 4689 0124 0020     		movne	r0, #0
 4690 0126 0120     		moveq	r0, #1
 4691 0128 76E7     		b	.L599
 4692              	.L603:
 4693 012a 042D     		cmp	r5, #4
 4694 012c 08D0     		beq	.L636
ARM GAS  C:\Users\Rick\AppData\Local\Temp\cccDRXLh.s 			page 80


 4695 012e 082D     		cmp	r5, #8
 4696 0130 0DD0     		beq	.L637
 4697 0132 94F84120 		ldrb	r2, [r4, #65]	@ zero_extendqisi2
 4698 0136 012A     		cmp	r2, #1
 4699 0138 14BF     		ite	ne
 4700 013a 0022     		movne	r2, #0
 4701 013c 0122     		moveq	r2, #1
 4702 013e 77E7     		b	.L604
 4703              	.L636:
 4704 0140 94F83F20 		ldrb	r2, [r4, #63]	@ zero_extendqisi2
 4705 0144 012A     		cmp	r2, #1
 4706 0146 14BF     		ite	ne
 4707 0148 0022     		movne	r2, #0
 4708 014a 0122     		moveq	r2, #1
 4709 014c 70E7     		b	.L604
 4710              	.L637:
 4711 014e 94F84020 		ldrb	r2, [r4, #64]	@ zero_extendqisi2
 4712 0152 012A     		cmp	r2, #1
 4713 0154 14BF     		ite	ne
 4714 0156 0022     		movne	r2, #0
 4715 0158 0122     		moveq	r2, #1
 4716 015a 69E7     		b	.L604
 4717              	.L607:
 4718 015c 042D     		cmp	r5, #4
 4719 015e 23D0     		beq	.L638
 4720 0160 082D     		cmp	r5, #8
 4721 0162 3BD0     		beq	.L639
 4722 0164 0222     		movs	r2, #2
 4723 0166 84F84120 		strb	r2, [r4, #65]
 4724 016a 0C2D     		cmp	r5, #12
 4725 016c 79D8     		bhi	.L624
 4726 016e 01A2     		adr	r2, .L614
 4727 0170 52F825F0 		ldr	pc, [r2, r5, lsl #2]
 4728              		.p2align 2
 4729              	.L614:
 4730 0174 4F000000 		.word	.L608+1
 4731 0178 63020000 		.word	.L624+1
 4732 017c 63020000 		.word	.L624+1
 4733 0180 63020000 		.word	.L624+1
 4734 0184 AF010000 		.word	.L610+1
 4735 0188 63020000 		.word	.L624+1
 4736 018c 63020000 		.word	.L624+1
 4737 0190 63020000 		.word	.L624+1
 4738 0194 E3010000 		.word	.L612+1
 4739 0198 63020000 		.word	.L624+1
 4740 019c 63020000 		.word	.L624+1
 4741 01a0 63020000 		.word	.L624+1
 4742 01a4 11020000 		.word	.L613+1
 4743              		.p2align 1
 4744              	.L638:
 4745 01a8 0222     		movs	r2, #2
 4746 01aa 84F83F20 		strb	r2, [r4, #63]
 4747              	.L610:
 4748 01ae A26A     		ldr	r2, [r4, #40]
 4749 01b0 3249     		ldr	r1, .L640
 4750 01b2 D163     		str	r1, [r2, #60]
 4751 01b4 A26A     		ldr	r2, [r4, #40]
ARM GAS  C:\Users\Rick\AppData\Local\Temp\cccDRXLh.s 			page 81


 4752 01b6 3249     		ldr	r1, .L640+4
 4753 01b8 1164     		str	r1, [r2, #64]
 4754 01ba A26A     		ldr	r2, [r4, #40]
 4755 01bc 3149     		ldr	r1, .L640+8
 4756 01be D164     		str	r1, [r2, #76]
 4757 01c0 2268     		ldr	r2, [r4]
 4758 01c2 3832     		adds	r2, r2, #56
 4759 01c4 3146     		mov	r1, r6
 4760 01c6 A06A     		ldr	r0, [r4, #40]
 4761 01c8 FFF7FEFF 		bl	HAL_DMA_Start_IT
 4762 01cc 0028     		cmp	r0, #0
 4763 01ce 4CD1     		bne	.L626
 4764 01d0 2268     		ldr	r2, [r4]
 4765 01d2 D368     		ldr	r3, [r2, #12]
 4766 01d4 43F48063 		orr	r3, r3, #1024
 4767 01d8 D360     		str	r3, [r2, #12]
 4768 01da 4FE7     		b	.L615
 4769              	.L639:
 4770 01dc 0222     		movs	r2, #2
 4771 01de 84F84020 		strb	r2, [r4, #64]
 4772              	.L612:
 4773 01e2 E26A     		ldr	r2, [r4, #44]
 4774 01e4 2549     		ldr	r1, .L640
 4775 01e6 D163     		str	r1, [r2, #60]
 4776 01e8 E26A     		ldr	r2, [r4, #44]
 4777 01ea 2549     		ldr	r1, .L640+4
 4778 01ec 1164     		str	r1, [r2, #64]
 4779 01ee E26A     		ldr	r2, [r4, #44]
 4780 01f0 2449     		ldr	r1, .L640+8
 4781 01f2 D164     		str	r1, [r2, #76]
 4782 01f4 2268     		ldr	r2, [r4]
 4783 01f6 3C32     		adds	r2, r2, #60
 4784 01f8 3146     		mov	r1, r6
 4785 01fa E06A     		ldr	r0, [r4, #44]
 4786 01fc FFF7FEFF 		bl	HAL_DMA_Start_IT
 4787 0200 0028     		cmp	r0, #0
 4788 0202 34D1     		bne	.L627
 4789 0204 2268     		ldr	r2, [r4]
 4790 0206 D368     		ldr	r3, [r2, #12]
 4791 0208 43F40063 		orr	r3, r3, #2048
 4792 020c D360     		str	r3, [r2, #12]
 4793 020e 35E7     		b	.L615
 4794              	.L613:
 4795 0210 226B     		ldr	r2, [r4, #48]
 4796 0212 1A49     		ldr	r1, .L640
 4797 0214 D163     		str	r1, [r2, #60]
 4798 0216 226B     		ldr	r2, [r4, #48]
 4799 0218 1949     		ldr	r1, .L640+4
 4800 021a 1164     		str	r1, [r2, #64]
 4801 021c 226B     		ldr	r2, [r4, #48]
 4802 021e 1949     		ldr	r1, .L640+8
 4803 0220 D164     		str	r1, [r2, #76]
 4804 0222 2268     		ldr	r2, [r4]
 4805 0224 4032     		adds	r2, r2, #64
 4806 0226 3146     		mov	r1, r6
 4807 0228 206B     		ldr	r0, [r4, #48]
 4808 022a FFF7FEFF 		bl	HAL_DMA_Start_IT
ARM GAS  C:\Users\Rick\AppData\Local\Temp\cccDRXLh.s 			page 82


 4809 022e 00BB     		cbnz	r0, .L628
 4810 0230 2268     		ldr	r2, [r4]
 4811 0232 D368     		ldr	r3, [r2, #12]
 4812 0234 43F48053 		orr	r3, r3, #4096
 4813 0238 D360     		str	r3, [r2, #12]
 4814 023a 1FE7     		b	.L615
 4815              	.L618:
 4816 023c 9A68     		ldr	r2, [r3, #8]
 4817 023e 02F00702 		and	r2, r2, #7
 4818 0242 062A     		cmp	r2, #6
 4819 0244 17D0     		beq	.L629
 4820 0246 1A68     		ldr	r2, [r3]
 4821 0248 42F00102 		orr	r2, r2, #1
 4822 024c 1A60     		str	r2, [r3]
 4823 024e 0020     		movs	r0, #0
 4824 0250 02E0     		b	.L602
 4825              	.L620:
 4826 0252 0220     		movs	r0, #2
 4827 0254 00E0     		b	.L602
 4828              	.L621:
 4829 0256 0120     		movs	r0, #1
 4830              	.L602:
 4831 0258 70BD     		pop	{r4, r5, r6, pc}
 4832              	.L622:
 4833 025a 0120     		movs	r0, #1
 4834 025c FCE7     		b	.L602
 4835              	.L623:
 4836 025e 0120     		movs	r0, #1
 4837 0260 FAE7     		b	.L602
 4838              	.L624:
 4839 0262 0120     		movs	r0, #1
 4840 0264 F8E7     		b	.L602
 4841              	.L625:
 4842 0266 0120     		movs	r0, #1
 4843 0268 F6E7     		b	.L602
 4844              	.L626:
 4845 026a 0120     		movs	r0, #1
 4846 026c F4E7     		b	.L602
 4847              	.L627:
 4848 026e 0120     		movs	r0, #1
 4849 0270 F2E7     		b	.L602
 4850              	.L628:
 4851 0272 0120     		movs	r0, #1
 4852 0274 F0E7     		b	.L602
 4853              	.L629:
 4854 0276 0020     		movs	r0, #0
 4855 0278 EEE7     		b	.L602
 4856              	.L641:
 4857 027a 00BF     		.align	2
 4858              	.L640:
 4859 027c 00000000 		.word	TIM_DMADelayPulseCplt
 4860 0280 00000000 		.word	TIM_DMADelayPulseHalfCplt
 4861 0284 00000000 		.word	TIM_DMAError
 4862 0288 00000140 		.word	1073807360
 4864              		.section	.text.HAL_TIM_OC_Stop_DMA,"ax",%progbits
 4865              		.align	1
 4866              		.global	HAL_TIM_OC_Stop_DMA
ARM GAS  C:\Users\Rick\AppData\Local\Temp\cccDRXLh.s 			page 83


 4867              		.syntax unified
 4868              		.thumb
 4869              		.thumb_func
 4871              	HAL_TIM_OC_Stop_DMA:
 4872              		@ args = 0, pretend = 0, frame = 0
 4873              		@ frame_needed = 0, uses_anonymous_args = 0
 4874 0000 38B5     		push	{r3, r4, r5, lr}
 4875 0002 0546     		mov	r5, r0
 4876 0004 0C46     		mov	r4, r1
 4877 0006 0C29     		cmp	r1, #12
 4878 0008 70D8     		bhi	.L656
 4879 000a DFE801F0 		tbb	[pc, r1]
 4880              	.L645:
 4881 000e 07       		.byte	(.L648-.L645)/2
 4882 000f 6F       		.byte	(.L656-.L645)/2
 4883 0010 6F       		.byte	(.L656-.L645)/2
 4884 0011 6F       		.byte	(.L656-.L645)/2
 4885 0012 32       		.byte	(.L647-.L645)/2
 4886 0013 6F       		.byte	(.L656-.L645)/2
 4887 0014 6F       		.byte	(.L656-.L645)/2
 4888 0015 6F       		.byte	(.L656-.L645)/2
 4889 0016 3B       		.byte	(.L646-.L645)/2
 4890 0017 6F       		.byte	(.L656-.L645)/2
 4891 0018 6F       		.byte	(.L656-.L645)/2
 4892 0019 6F       		.byte	(.L656-.L645)/2
 4893 001a 44       		.byte	(.L644-.L645)/2
 4894 001b 00       		.p2align 1
 4895              	.L648:
 4896 001c 0268     		ldr	r2, [r0]
 4897 001e D368     		ldr	r3, [r2, #12]
 4898 0020 23F40073 		bic	r3, r3, #512
 4899 0024 D360     		str	r3, [r2, #12]
 4900 0026 406A     		ldr	r0, [r0, #36]
 4901 0028 FFF7FEFF 		bl	HAL_DMA_Abort_IT
 4902              	.L649:
 4903 002c 0022     		movs	r2, #0
 4904 002e 2146     		mov	r1, r4
 4905 0030 2868     		ldr	r0, [r5]
 4906 0032 FFF7FEFF 		bl	TIM_CCxChannelCmd
 4907 0036 2B68     		ldr	r3, [r5]
 4908 0038 2D4A     		ldr	r2, .L660
 4909 003a 9342     		cmp	r3, r2
 4910 003c 34D0     		beq	.L650
 4911 003e 02F58062 		add	r2, r2, #1024
 4912 0042 9342     		cmp	r3, r2
 4913 0044 30D0     		beq	.L650
 4914              	.L651:
 4915 0046 2B68     		ldr	r3, [r5]
 4916 0048 196A     		ldr	r1, [r3, #32]
 4917 004a 41F21112 		movw	r2, #4369
 4918 004e 1142     		tst	r1, r2
 4919 0050 08D1     		bne	.L652
 4920 0052 196A     		ldr	r1, [r3, #32]
 4921 0054 40F24442 		movw	r2, #1092
 4922 0058 1142     		tst	r1, r2
 4923 005a 03D1     		bne	.L652
 4924 005c 1A68     		ldr	r2, [r3]
ARM GAS  C:\Users\Rick\AppData\Local\Temp\cccDRXLh.s 			page 84


 4925 005e 22F00102 		bic	r2, r2, #1
 4926 0062 1A60     		str	r2, [r3]
 4927              	.L652:
 4928 0064 002C     		cmp	r4, #0
 4929 0066 2ED1     		bne	.L653
 4930 0068 0123     		movs	r3, #1
 4931 006a 85F83E30 		strb	r3, [r5, #62]
 4932 006e 0020     		movs	r0, #0
 4933 0070 3DE0     		b	.L643
 4934              	.L647:
 4935 0072 0268     		ldr	r2, [r0]
 4936 0074 D368     		ldr	r3, [r2, #12]
 4937 0076 23F48063 		bic	r3, r3, #1024
 4938 007a D360     		str	r3, [r2, #12]
 4939 007c 806A     		ldr	r0, [r0, #40]
 4940 007e FFF7FEFF 		bl	HAL_DMA_Abort_IT
 4941 0082 D3E7     		b	.L649
 4942              	.L646:
 4943 0084 0268     		ldr	r2, [r0]
 4944 0086 D368     		ldr	r3, [r2, #12]
 4945 0088 23F40063 		bic	r3, r3, #2048
 4946 008c D360     		str	r3, [r2, #12]
 4947 008e C06A     		ldr	r0, [r0, #44]
 4948 0090 FFF7FEFF 		bl	HAL_DMA_Abort_IT
 4949 0094 CAE7     		b	.L649
 4950              	.L644:
 4951 0096 0268     		ldr	r2, [r0]
 4952 0098 D368     		ldr	r3, [r2, #12]
 4953 009a 23F48053 		bic	r3, r3, #4096
 4954 009e D360     		str	r3, [r2, #12]
 4955 00a0 006B     		ldr	r0, [r0, #48]
 4956 00a2 FFF7FEFF 		bl	HAL_DMA_Abort_IT
 4957 00a6 C1E7     		b	.L649
 4958              	.L650:
 4959 00a8 196A     		ldr	r1, [r3, #32]
 4960 00aa 41F21112 		movw	r2, #4369
 4961 00ae 1142     		tst	r1, r2
 4962 00b0 C9D1     		bne	.L651
 4963 00b2 196A     		ldr	r1, [r3, #32]
 4964 00b4 40F24442 		movw	r2, #1092
 4965 00b8 1142     		tst	r1, r2
 4966 00ba C4D1     		bne	.L651
 4967 00bc 5A6C     		ldr	r2, [r3, #68]
 4968 00be 22F40042 		bic	r2, r2, #32768
 4969 00c2 5A64     		str	r2, [r3, #68]
 4970 00c4 BFE7     		b	.L651
 4971              	.L653:
 4972 00c6 042C     		cmp	r4, #4
 4973 00c8 06D0     		beq	.L658
 4974 00ca 082C     		cmp	r4, #8
 4975 00cc 09D0     		beq	.L659
 4976 00ce 0123     		movs	r3, #1
 4977 00d0 85F84130 		strb	r3, [r5, #65]
 4978 00d4 0020     		movs	r0, #0
 4979 00d6 0AE0     		b	.L643
 4980              	.L658:
 4981 00d8 0123     		movs	r3, #1
ARM GAS  C:\Users\Rick\AppData\Local\Temp\cccDRXLh.s 			page 85


 4982 00da 85F83F30 		strb	r3, [r5, #63]
 4983 00de 0020     		movs	r0, #0
 4984 00e0 05E0     		b	.L643
 4985              	.L659:
 4986 00e2 0123     		movs	r3, #1
 4987 00e4 85F84030 		strb	r3, [r5, #64]
 4988 00e8 0020     		movs	r0, #0
 4989 00ea 00E0     		b	.L643
 4990              	.L656:
 4991 00ec 0120     		movs	r0, #1
 4992              	.L643:
 4993 00ee 38BD     		pop	{r3, r4, r5, pc}
 4994              	.L661:
 4995              		.align	2
 4996              	.L660:
 4997 00f0 00000140 		.word	1073807360
 4999              		.section	.text.HAL_TIM_PWM_Start,"ax",%progbits
 5000              		.align	1
 5001              		.global	HAL_TIM_PWM_Start
 5002              		.syntax unified
 5003              		.thumb
 5004              		.thumb_func
 5006              	HAL_TIM_PWM_Start:
 5007              		@ args = 0, pretend = 0, frame = 0
 5008              		@ frame_needed = 0, uses_anonymous_args = 0
 5009 0000 10B5     		push	{r4, lr}
 5010 0002 0446     		mov	r4, r0
 5011 0004 0846     		mov	r0, r1
 5012 0006 0029     		cmp	r1, #0
 5013 0008 41D1     		bne	.L663
 5014 000a 94F83E30 		ldrb	r3, [r4, #62]	@ zero_extendqisi2
 5015 000e 013B     		subs	r3, r3, #1
 5016 0010 18BF     		it	ne
 5017 0012 0123     		movne	r3, #1
 5018              	.L664:
 5019 0014 002B     		cmp	r3, #0
 5020 0016 6BD1     		bne	.L676
 5021 0018 0028     		cmp	r0, #0
 5022 001a 4ED1     		bne	.L668
 5023 001c 0223     		movs	r3, #2
 5024 001e 84F83E30 		strb	r3, [r4, #62]
 5025              	.L669:
 5026 0022 0122     		movs	r2, #1
 5027 0024 0146     		mov	r1, r0
 5028 0026 2068     		ldr	r0, [r4]
 5029 0028 FFF7FEFF 		bl	TIM_CCxChannelCmd
 5030 002c 2368     		ldr	r3, [r4]
 5031 002e 324A     		ldr	r2, .L683
 5032 0030 9342     		cmp	r3, r2
 5033 0032 03D0     		beq	.L672
 5034 0034 02F58062 		add	r2, r2, #1024
 5035 0038 9342     		cmp	r3, r2
 5036 003a 03D1     		bne	.L673
 5037              	.L672:
 5038 003c 5A6C     		ldr	r2, [r3, #68]
 5039 003e 42F40042 		orr	r2, r2, #32768
 5040 0042 5A64     		str	r2, [r3, #68]
ARM GAS  C:\Users\Rick\AppData\Local\Temp\cccDRXLh.s 			page 86


 5041              	.L673:
 5042 0044 2368     		ldr	r3, [r4]
 5043 0046 2C4A     		ldr	r2, .L683
 5044 0048 9342     		cmp	r3, r2
 5045 004a 46D0     		beq	.L674
 5046 004c B3F1804F 		cmp	r3, #1073741824
 5047 0050 43D0     		beq	.L674
 5048 0052 A2F57C42 		sub	r2, r2, #64512
 5049 0056 9342     		cmp	r3, r2
 5050 0058 3FD0     		beq	.L674
 5051 005a 02F58062 		add	r2, r2, #1024
 5052 005e 9342     		cmp	r3, r2
 5053 0060 3BD0     		beq	.L674
 5054 0062 02F58062 		add	r2, r2, #1024
 5055 0066 9342     		cmp	r3, r2
 5056 0068 37D0     		beq	.L674
 5057 006a 02F57842 		add	r2, r2, #63488
 5058 006e 9342     		cmp	r3, r2
 5059 0070 33D0     		beq	.L674
 5060 0072 02F57052 		add	r2, r2, #15360
 5061 0076 9342     		cmp	r3, r2
 5062 0078 2FD0     		beq	.L674
 5063 007a A2F59432 		sub	r2, r2, #75776
 5064 007e 9342     		cmp	r3, r2
 5065 0080 2BD0     		beq	.L674
 5066 0082 1A68     		ldr	r2, [r3]
 5067 0084 42F00102 		orr	r2, r2, #1
 5068 0088 1A60     		str	r2, [r3]
 5069 008a 0020     		movs	r0, #0
 5070 008c 2FE0     		b	.L667
 5071              	.L663:
 5072 008e 0429     		cmp	r1, #4
 5073 0090 07D0     		beq	.L679
 5074 0092 0829     		cmp	r1, #8
 5075 0094 0BD0     		beq	.L680
 5076 0096 94F84130 		ldrb	r3, [r4, #65]	@ zero_extendqisi2
 5077 009a 013B     		subs	r3, r3, #1
 5078 009c 18BF     		it	ne
 5079 009e 0123     		movne	r3, #1
 5080 00a0 B8E7     		b	.L664
 5081              	.L679:
 5082 00a2 94F83F30 		ldrb	r3, [r4, #63]	@ zero_extendqisi2
 5083 00a6 013B     		subs	r3, r3, #1
 5084 00a8 18BF     		it	ne
 5085 00aa 0123     		movne	r3, #1
 5086 00ac B2E7     		b	.L664
 5087              	.L680:
 5088 00ae 94F84030 		ldrb	r3, [r4, #64]	@ zero_extendqisi2
 5089 00b2 013B     		subs	r3, r3, #1
 5090 00b4 18BF     		it	ne
 5091 00b6 0123     		movne	r3, #1
 5092 00b8 ACE7     		b	.L664
 5093              	.L668:
 5094 00ba 0428     		cmp	r0, #4
 5095 00bc 05D0     		beq	.L681
 5096 00be 0828     		cmp	r0, #8
 5097 00c0 07D0     		beq	.L682
ARM GAS  C:\Users\Rick\AppData\Local\Temp\cccDRXLh.s 			page 87


 5098 00c2 0223     		movs	r3, #2
 5099 00c4 84F84130 		strb	r3, [r4, #65]
 5100 00c8 ABE7     		b	.L669
 5101              	.L681:
 5102 00ca 0223     		movs	r3, #2
 5103 00cc 84F83F30 		strb	r3, [r4, #63]
 5104 00d0 A7E7     		b	.L669
 5105              	.L682:
 5106 00d2 0223     		movs	r3, #2
 5107 00d4 84F84030 		strb	r3, [r4, #64]
 5108 00d8 A3E7     		b	.L669
 5109              	.L674:
 5110 00da 9A68     		ldr	r2, [r3, #8]
 5111 00dc 02F00702 		and	r2, r2, #7
 5112 00e0 062A     		cmp	r2, #6
 5113 00e2 07D0     		beq	.L677
 5114 00e4 1A68     		ldr	r2, [r3]
 5115 00e6 42F00102 		orr	r2, r2, #1
 5116 00ea 1A60     		str	r2, [r3]
 5117 00ec 0020     		movs	r0, #0
 5118              	.L667:
 5119 00ee 10BD     		pop	{r4, pc}
 5120              	.L676:
 5121 00f0 0120     		movs	r0, #1
 5122 00f2 FCE7     		b	.L667
 5123              	.L677:
 5124 00f4 0020     		movs	r0, #0
 5125 00f6 FAE7     		b	.L667
 5126              	.L684:
 5127              		.align	2
 5128              	.L683:
 5129 00f8 00000140 		.word	1073807360
 5131              		.section	.text.HAL_TIM_PWM_Stop,"ax",%progbits
 5132              		.align	1
 5133              		.global	HAL_TIM_PWM_Stop
 5134              		.syntax unified
 5135              		.thumb
 5136              		.thumb_func
 5138              	HAL_TIM_PWM_Stop:
 5139              		@ args = 0, pretend = 0, frame = 0
 5140              		@ frame_needed = 0, uses_anonymous_args = 0
 5141 0000 38B5     		push	{r3, r4, r5, lr}
 5142 0002 0446     		mov	r4, r0
 5143 0004 0D46     		mov	r5, r1
 5144 0006 0022     		movs	r2, #0
 5145 0008 0068     		ldr	r0, [r0]
 5146 000a FFF7FEFF 		bl	TIM_CCxChannelCmd
 5147 000e 2368     		ldr	r3, [r4]
 5148 0010 1D4A     		ldr	r2, .L696
 5149 0012 9342     		cmp	r3, r2
 5150 0014 18D0     		beq	.L686
 5151 0016 02F58062 		add	r2, r2, #1024
 5152 001a 9342     		cmp	r3, r2
 5153 001c 14D0     		beq	.L686
 5154              	.L687:
 5155 001e 2368     		ldr	r3, [r4]
 5156 0020 196A     		ldr	r1, [r3, #32]
ARM GAS  C:\Users\Rick\AppData\Local\Temp\cccDRXLh.s 			page 88


 5157 0022 41F21112 		movw	r2, #4369
 5158 0026 1142     		tst	r1, r2
 5159 0028 08D1     		bne	.L688
 5160 002a 196A     		ldr	r1, [r3, #32]
 5161 002c 40F24442 		movw	r2, #1092
 5162 0030 1142     		tst	r1, r2
 5163 0032 03D1     		bne	.L688
 5164 0034 1A68     		ldr	r2, [r3]
 5165 0036 22F00102 		bic	r2, r2, #1
 5166 003a 1A60     		str	r2, [r3]
 5167              	.L688:
 5168 003c 9DB9     		cbnz	r5, .L689
 5169 003e 0123     		movs	r3, #1
 5170 0040 84F83E30 		strb	r3, [r4, #62]
 5171              	.L690:
 5172 0044 0020     		movs	r0, #0
 5173 0046 38BD     		pop	{r3, r4, r5, pc}
 5174              	.L686:
 5175 0048 196A     		ldr	r1, [r3, #32]
 5176 004a 41F21112 		movw	r2, #4369
 5177 004e 1142     		tst	r1, r2
 5178 0050 E5D1     		bne	.L687
 5179 0052 196A     		ldr	r1, [r3, #32]
 5180 0054 40F24442 		movw	r2, #1092
 5181 0058 1142     		tst	r1, r2
 5182 005a E0D1     		bne	.L687
 5183 005c 5A6C     		ldr	r2, [r3, #68]
 5184 005e 22F40042 		bic	r2, r2, #32768
 5185 0062 5A64     		str	r2, [r3, #68]
 5186 0064 DBE7     		b	.L687
 5187              	.L689:
 5188 0066 042D     		cmp	r5, #4
 5189 0068 05D0     		beq	.L694
 5190 006a 082D     		cmp	r5, #8
 5191 006c 07D0     		beq	.L695
 5192 006e 0123     		movs	r3, #1
 5193 0070 84F84130 		strb	r3, [r4, #65]
 5194 0074 E6E7     		b	.L690
 5195              	.L694:
 5196 0076 0123     		movs	r3, #1
 5197 0078 84F83F30 		strb	r3, [r4, #63]
 5198 007c E2E7     		b	.L690
 5199              	.L695:
 5200 007e 0123     		movs	r3, #1
 5201 0080 84F84030 		strb	r3, [r4, #64]
 5202 0084 DEE7     		b	.L690
 5203              	.L697:
 5204 0086 00BF     		.align	2
 5205              	.L696:
 5206 0088 00000140 		.word	1073807360
 5208              		.section	.text.HAL_TIM_PWM_Start_IT,"ax",%progbits
 5209              		.align	1
 5210              		.global	HAL_TIM_PWM_Start_IT
 5211              		.syntax unified
 5212              		.thumb
 5213              		.thumb_func
 5215              	HAL_TIM_PWM_Start_IT:
ARM GAS  C:\Users\Rick\AppData\Local\Temp\cccDRXLh.s 			page 89


 5216              		@ args = 0, pretend = 0, frame = 0
 5217              		@ frame_needed = 0, uses_anonymous_args = 0
 5218 0000 10B5     		push	{r4, lr}
 5219 0002 0446     		mov	r4, r0
 5220 0004 0846     		mov	r0, r1
 5221 0006 0029     		cmp	r1, #0
 5222 0008 47D1     		bne	.L699
 5223 000a 94F83E30 		ldrb	r3, [r4, #62]	@ zero_extendqisi2
 5224 000e 013B     		subs	r3, r3, #1
 5225 0010 18BF     		it	ne
 5226 0012 0123     		movne	r3, #1
 5227              	.L700:
 5228 0014 002B     		cmp	r3, #0
 5229 0016 40F0A080 		bne	.L717
 5230 001a 0028     		cmp	r0, #0
 5231 001c 53D1     		bne	.L704
 5232 001e 0223     		movs	r3, #2
 5233 0020 84F83E30 		strb	r3, [r4, #62]
 5234              	.L705:
 5235 0024 2268     		ldr	r2, [r4]
 5236 0026 D368     		ldr	r3, [r2, #12]
 5237 0028 43F00203 		orr	r3, r3, #2
 5238 002c D360     		str	r3, [r2, #12]
 5239              	.L712:
 5240 002e 0122     		movs	r2, #1
 5241 0030 0146     		mov	r1, r0
 5242 0032 2068     		ldr	r0, [r4]
 5243 0034 FFF7FEFF 		bl	TIM_CCxChannelCmd
 5244 0038 2368     		ldr	r3, [r4]
 5245 003a 4B4A     		ldr	r2, .L728
 5246 003c 9342     		cmp	r3, r2
 5247 003e 03D0     		beq	.L713
 5248 0040 02F58062 		add	r2, r2, #1024
 5249 0044 9342     		cmp	r3, r2
 5250 0046 03D1     		bne	.L714
 5251              	.L713:
 5252 0048 5A6C     		ldr	r2, [r3, #68]
 5253 004a 42F40042 		orr	r2, r2, #32768
 5254 004e 5A64     		str	r2, [r3, #68]
 5255              	.L714:
 5256 0050 2368     		ldr	r3, [r4]
 5257 0052 454A     		ldr	r2, .L728
 5258 0054 9342     		cmp	r3, r2
 5259 0056 75D0     		beq	.L715
 5260 0058 B3F1804F 		cmp	r3, #1073741824
 5261 005c 72D0     		beq	.L715
 5262 005e A2F57C42 		sub	r2, r2, #64512
 5263 0062 9342     		cmp	r3, r2
 5264 0064 6ED0     		beq	.L715
 5265 0066 02F58062 		add	r2, r2, #1024
 5266 006a 9342     		cmp	r3, r2
 5267 006c 6AD0     		beq	.L715
 5268 006e 02F58062 		add	r2, r2, #1024
 5269 0072 9342     		cmp	r3, r2
 5270 0074 66D0     		beq	.L715
 5271 0076 02F57842 		add	r2, r2, #63488
 5272 007a 9342     		cmp	r3, r2
ARM GAS  C:\Users\Rick\AppData\Local\Temp\cccDRXLh.s 			page 90


 5273 007c 62D0     		beq	.L715
 5274 007e 02F57052 		add	r2, r2, #15360
 5275 0082 9342     		cmp	r3, r2
 5276 0084 5ED0     		beq	.L715
 5277 0086 A2F59432 		sub	r2, r2, #75776
 5278 008a 9342     		cmp	r3, r2
 5279 008c 5AD0     		beq	.L715
 5280 008e 1A68     		ldr	r2, [r3]
 5281 0090 42F00102 		orr	r2, r2, #1
 5282 0094 1A60     		str	r2, [r3]
 5283 0096 0020     		movs	r0, #0
 5284 0098 5EE0     		b	.L703
 5285              	.L699:
 5286 009a 0429     		cmp	r1, #4
 5287 009c 07D0     		beq	.L724
 5288 009e 0829     		cmp	r1, #8
 5289 00a0 0BD0     		beq	.L725
 5290 00a2 94F84130 		ldrb	r3, [r4, #65]	@ zero_extendqisi2
 5291 00a6 013B     		subs	r3, r3, #1
 5292 00a8 18BF     		it	ne
 5293 00aa 0123     		movne	r3, #1
 5294 00ac B2E7     		b	.L700
 5295              	.L724:
 5296 00ae 94F83F30 		ldrb	r3, [r4, #63]	@ zero_extendqisi2
 5297 00b2 013B     		subs	r3, r3, #1
 5298 00b4 18BF     		it	ne
 5299 00b6 0123     		movne	r3, #1
 5300 00b8 ACE7     		b	.L700
 5301              	.L725:
 5302 00ba 94F84030 		ldrb	r3, [r4, #64]	@ zero_extendqisi2
 5303 00be 013B     		subs	r3, r3, #1
 5304 00c0 18BF     		it	ne
 5305 00c2 0123     		movne	r3, #1
 5306 00c4 A6E7     		b	.L700
 5307              	.L704:
 5308 00c6 0428     		cmp	r0, #4
 5309 00c8 24D0     		beq	.L726
 5310 00ca 0828     		cmp	r0, #8
 5311 00cc 2BD0     		beq	.L727
 5312 00ce 0223     		movs	r3, #2
 5313 00d0 84F84130 		strb	r3, [r4, #65]
 5314 00d4 0C28     		cmp	r0, #12
 5315 00d6 42D8     		bhi	.L718
 5316 00d8 01A3     		adr	r3, .L711
 5317 00da 53F820F0 		ldr	pc, [r3, r0, lsl #2]
 5318 00de 00BF     		.p2align 2
 5319              	.L711:
 5320 00e0 25000000 		.word	.L705+1
 5321 00e4 5F010000 		.word	.L718+1
 5322 00e8 5F010000 		.word	.L718+1
 5323 00ec 5F010000 		.word	.L718+1
 5324 00f0 1B010000 		.word	.L707+1
 5325 00f4 5F010000 		.word	.L718+1
 5326 00f8 5F010000 		.word	.L718+1
 5327 00fc 5F010000 		.word	.L718+1
 5328 0100 2D010000 		.word	.L709+1
 5329 0104 5F010000 		.word	.L718+1
ARM GAS  C:\Users\Rick\AppData\Local\Temp\cccDRXLh.s 			page 91


 5330 0108 5F010000 		.word	.L718+1
 5331 010c 5F010000 		.word	.L718+1
 5332 0110 39010000 		.word	.L710+1
 5333              		.p2align 1
 5334              	.L726:
 5335 0114 0223     		movs	r3, #2
 5336 0116 84F83F30 		strb	r3, [r4, #63]
 5337              	.L707:
 5338 011a 2268     		ldr	r2, [r4]
 5339 011c D368     		ldr	r3, [r2, #12]
 5340 011e 43F00403 		orr	r3, r3, #4
 5341 0122 D360     		str	r3, [r2, #12]
 5342 0124 83E7     		b	.L712
 5343              	.L727:
 5344 0126 0223     		movs	r3, #2
 5345 0128 84F84030 		strb	r3, [r4, #64]
 5346              	.L709:
 5347 012c 2268     		ldr	r2, [r4]
 5348 012e D368     		ldr	r3, [r2, #12]
 5349 0130 43F00803 		orr	r3, r3, #8
 5350 0134 D360     		str	r3, [r2, #12]
 5351 0136 7AE7     		b	.L712
 5352              	.L710:
 5353 0138 2268     		ldr	r2, [r4]
 5354 013a D368     		ldr	r3, [r2, #12]
 5355 013c 43F01003 		orr	r3, r3, #16
 5356 0140 D360     		str	r3, [r2, #12]
 5357 0142 74E7     		b	.L712
 5358              	.L715:
 5359 0144 9A68     		ldr	r2, [r3, #8]
 5360 0146 02F00702 		and	r2, r2, #7
 5361 014a 062A     		cmp	r2, #6
 5362 014c 09D0     		beq	.L719
 5363 014e 1A68     		ldr	r2, [r3]
 5364 0150 42F00102 		orr	r2, r2, #1
 5365 0154 1A60     		str	r2, [r3]
 5366 0156 0020     		movs	r0, #0
 5367              	.L703:
 5368 0158 10BD     		pop	{r4, pc}
 5369              	.L717:
 5370 015a 0120     		movs	r0, #1
 5371 015c FCE7     		b	.L703
 5372              	.L718:
 5373 015e 0120     		movs	r0, #1
 5374 0160 FAE7     		b	.L703
 5375              	.L719:
 5376 0162 0020     		movs	r0, #0
 5377 0164 F8E7     		b	.L703
 5378              	.L729:
 5379 0166 00BF     		.align	2
 5380              	.L728:
 5381 0168 00000140 		.word	1073807360
 5383              		.section	.text.HAL_TIM_PWM_Stop_IT,"ax",%progbits
 5384              		.align	1
 5385              		.global	HAL_TIM_PWM_Stop_IT
 5386              		.syntax unified
 5387              		.thumb
ARM GAS  C:\Users\Rick\AppData\Local\Temp\cccDRXLh.s 			page 92


 5388              		.thumb_func
 5390              	HAL_TIM_PWM_Stop_IT:
 5391              		@ args = 0, pretend = 0, frame = 0
 5392              		@ frame_needed = 0, uses_anonymous_args = 0
 5393 0000 38B5     		push	{r3, r4, r5, lr}
 5394 0002 0546     		mov	r5, r0
 5395 0004 0C46     		mov	r4, r1
 5396 0006 0C29     		cmp	r1, #12
 5397 0008 63D8     		bhi	.L744
 5398 000a DFE801F0 		tbb	[pc, r1]
 5399              	.L733:
 5400 000e 07       		.byte	(.L736-.L733)/2
 5401 000f 62       		.byte	(.L744-.L733)/2
 5402 0010 62       		.byte	(.L744-.L733)/2
 5403 0011 62       		.byte	(.L744-.L733)/2
 5404 0012 2E       		.byte	(.L735-.L733)/2
 5405 0013 62       		.byte	(.L744-.L733)/2
 5406 0014 62       		.byte	(.L744-.L733)/2
 5407 0015 62       		.byte	(.L744-.L733)/2
 5408 0016 34       		.byte	(.L734-.L733)/2
 5409 0017 62       		.byte	(.L744-.L733)/2
 5410 0018 62       		.byte	(.L744-.L733)/2
 5411 0019 62       		.byte	(.L744-.L733)/2
 5412 001a 3A       		.byte	(.L732-.L733)/2
 5413 001b 00       		.p2align 1
 5414              	.L736:
 5415 001c 0268     		ldr	r2, [r0]
 5416 001e D368     		ldr	r3, [r2, #12]
 5417 0020 23F00203 		bic	r3, r3, #2
 5418 0024 D360     		str	r3, [r2, #12]
 5419              	.L737:
 5420 0026 0022     		movs	r2, #0
 5421 0028 2146     		mov	r1, r4
 5422 002a 2868     		ldr	r0, [r5]
 5423 002c FFF7FEFF 		bl	TIM_CCxChannelCmd
 5424 0030 2B68     		ldr	r3, [r5]
 5425 0032 294A     		ldr	r2, .L748
 5426 0034 9342     		cmp	r3, r2
 5427 0036 2AD0     		beq	.L738
 5428 0038 02F58062 		add	r2, r2, #1024
 5429 003c 9342     		cmp	r3, r2
 5430 003e 26D0     		beq	.L738
 5431              	.L739:
 5432 0040 2B68     		ldr	r3, [r5]
 5433 0042 196A     		ldr	r1, [r3, #32]
 5434 0044 41F21112 		movw	r2, #4369
 5435 0048 1142     		tst	r1, r2
 5436 004a 08D1     		bne	.L740
 5437 004c 196A     		ldr	r1, [r3, #32]
 5438 004e 40F24442 		movw	r2, #1092
 5439 0052 1142     		tst	r1, r2
 5440 0054 03D1     		bne	.L740
 5441 0056 1A68     		ldr	r2, [r3]
 5442 0058 22F00102 		bic	r2, r2, #1
 5443 005c 1A60     		str	r2, [r3]
 5444              	.L740:
 5445 005e 2CBB     		cbnz	r4, .L741
ARM GAS  C:\Users\Rick\AppData\Local\Temp\cccDRXLh.s 			page 93


 5446 0060 0123     		movs	r3, #1
 5447 0062 85F83E30 		strb	r3, [r5, #62]
 5448 0066 0020     		movs	r0, #0
 5449 0068 34E0     		b	.L731
 5450              	.L735:
 5451 006a 0268     		ldr	r2, [r0]
 5452 006c D368     		ldr	r3, [r2, #12]
 5453 006e 23F00403 		bic	r3, r3, #4
 5454 0072 D360     		str	r3, [r2, #12]
 5455 0074 D7E7     		b	.L737
 5456              	.L734:
 5457 0076 0268     		ldr	r2, [r0]
 5458 0078 D368     		ldr	r3, [r2, #12]
 5459 007a 23F00803 		bic	r3, r3, #8
 5460 007e D360     		str	r3, [r2, #12]
 5461 0080 D1E7     		b	.L737
 5462              	.L732:
 5463 0082 0268     		ldr	r2, [r0]
 5464 0084 D368     		ldr	r3, [r2, #12]
 5465 0086 23F01003 		bic	r3, r3, #16
 5466 008a D360     		str	r3, [r2, #12]
 5467 008c CBE7     		b	.L737
 5468              	.L738:
 5469 008e 196A     		ldr	r1, [r3, #32]
 5470 0090 41F21112 		movw	r2, #4369
 5471 0094 1142     		tst	r1, r2
 5472 0096 D3D1     		bne	.L739
 5473 0098 196A     		ldr	r1, [r3, #32]
 5474 009a 40F24442 		movw	r2, #1092
 5475 009e 1142     		tst	r1, r2
 5476 00a0 CED1     		bne	.L739
 5477 00a2 5A6C     		ldr	r2, [r3, #68]
 5478 00a4 22F40042 		bic	r2, r2, #32768
 5479 00a8 5A64     		str	r2, [r3, #68]
 5480 00aa C9E7     		b	.L739
 5481              	.L741:
 5482 00ac 042C     		cmp	r4, #4
 5483 00ae 06D0     		beq	.L746
 5484 00b0 082C     		cmp	r4, #8
 5485 00b2 09D0     		beq	.L747
 5486 00b4 0123     		movs	r3, #1
 5487 00b6 85F84130 		strb	r3, [r5, #65]
 5488 00ba 0020     		movs	r0, #0
 5489 00bc 0AE0     		b	.L731
 5490              	.L746:
 5491 00be 0123     		movs	r3, #1
 5492 00c0 85F83F30 		strb	r3, [r5, #63]
 5493 00c4 0020     		movs	r0, #0
 5494 00c6 05E0     		b	.L731
 5495              	.L747:
 5496 00c8 0123     		movs	r3, #1
 5497 00ca 85F84030 		strb	r3, [r5, #64]
 5498 00ce 0020     		movs	r0, #0
 5499 00d0 00E0     		b	.L731
 5500              	.L744:
 5501 00d2 0120     		movs	r0, #1
 5502              	.L731:
ARM GAS  C:\Users\Rick\AppData\Local\Temp\cccDRXLh.s 			page 94


 5503 00d4 38BD     		pop	{r3, r4, r5, pc}
 5504              	.L749:
 5505 00d6 00BF     		.align	2
 5506              	.L748:
 5507 00d8 00000140 		.word	1073807360
 5509              		.section	.text.HAL_TIM_PWM_Start_DMA,"ax",%progbits
 5510              		.align	1
 5511              		.global	HAL_TIM_PWM_Start_DMA
 5512              		.syntax unified
 5513              		.thumb
 5514              		.thumb_func
 5516              	HAL_TIM_PWM_Start_DMA:
 5517              		@ args = 0, pretend = 0, frame = 0
 5518              		@ frame_needed = 0, uses_anonymous_args = 0
 5519 0000 70B5     		push	{r4, r5, r6, lr}
 5520 0002 0446     		mov	r4, r0
 5521 0004 1646     		mov	r6, r2
 5522 0006 0D46     		mov	r5, r1
 5523 0008 0029     		cmp	r1, #0
 5524 000a 75D1     		bne	.L751
 5525 000c 90F83E00 		ldrb	r0, [r0, #62]	@ zero_extendqisi2
 5526 0010 0228     		cmp	r0, #2
 5527 0012 14BF     		ite	ne
 5528 0014 0020     		movne	r0, #0
 5529 0016 0120     		moveq	r0, #1
 5530              	.L752:
 5531 0018 0028     		cmp	r0, #0
 5532 001a 40F01A81 		bne	.L773
 5533 001e 002D     		cmp	r5, #0
 5534 0020 40F08380 		bne	.L756
 5535 0024 94F83E20 		ldrb	r2, [r4, #62]	@ zero_extendqisi2
 5536 0028 012A     		cmp	r2, #1
 5537 002a 14BF     		ite	ne
 5538 002c 0022     		movne	r2, #0
 5539 002e 0122     		moveq	r2, #1
 5540              	.L757:
 5541 0030 002A     		cmp	r2, #0
 5542 0032 00F01081 		beq	.L774
 5543 0036 002E     		cmp	r6, #0
 5544 0038 00F00F81 		beq	.L775
 5545 003c 002B     		cmp	r3, #0
 5546 003e 00F00E81 		beq	.L776
 5547 0042 002D     		cmp	r5, #0
 5548 0044 40F08A80 		bne	.L760
 5549 0048 0222     		movs	r2, #2
 5550 004a 84F83E20 		strb	r2, [r4, #62]
 5551              	.L761:
 5552 004e 626A     		ldr	r2, [r4, #36]
 5553 0050 8A49     		ldr	r1, .L793
 5554 0052 D163     		str	r1, [r2, #60]
 5555 0054 626A     		ldr	r2, [r4, #36]
 5556 0056 8A49     		ldr	r1, .L793+4
 5557 0058 1164     		str	r1, [r2, #64]
 5558 005a 626A     		ldr	r2, [r4, #36]
 5559 005c 8949     		ldr	r1, .L793+8
 5560 005e D164     		str	r1, [r2, #76]
 5561 0060 2268     		ldr	r2, [r4]
ARM GAS  C:\Users\Rick\AppData\Local\Temp\cccDRXLh.s 			page 95


 5562 0062 3432     		adds	r2, r2, #52
 5563 0064 3146     		mov	r1, r6
 5564 0066 606A     		ldr	r0, [r4, #36]
 5565 0068 FFF7FEFF 		bl	HAL_DMA_Start_IT
 5566 006c 0028     		cmp	r0, #0
 5567 006e 40F0FA80 		bne	.L778
 5568 0072 2268     		ldr	r2, [r4]
 5569 0074 D368     		ldr	r3, [r2, #12]
 5570 0076 43F40073 		orr	r3, r3, #512
 5571 007a D360     		str	r3, [r2, #12]
 5572              	.L768:
 5573 007c 0122     		movs	r2, #1
 5574 007e 2946     		mov	r1, r5
 5575 0080 2068     		ldr	r0, [r4]
 5576 0082 FFF7FEFF 		bl	TIM_CCxChannelCmd
 5577 0086 2368     		ldr	r3, [r4]
 5578 0088 7F4A     		ldr	r2, .L793+12
 5579 008a 9342     		cmp	r3, r2
 5580 008c 03D0     		beq	.L769
 5581 008e 02F58062 		add	r2, r2, #1024
 5582 0092 9342     		cmp	r3, r2
 5583 0094 03D1     		bne	.L770
 5584              	.L769:
 5585 0096 5A6C     		ldr	r2, [r3, #68]
 5586 0098 42F40042 		orr	r2, r2, #32768
 5587 009c 5A64     		str	r2, [r3, #68]
 5588              	.L770:
 5589 009e 2368     		ldr	r3, [r4]
 5590 00a0 794A     		ldr	r2, .L793+12
 5591 00a2 9342     		cmp	r3, r2
 5592 00a4 00F0CA80 		beq	.L771
 5593 00a8 B3F1804F 		cmp	r3, #1073741824
 5594 00ac 00F0C680 		beq	.L771
 5595 00b0 A2F57C42 		sub	r2, r2, #64512
 5596 00b4 9342     		cmp	r3, r2
 5597 00b6 00F0C180 		beq	.L771
 5598 00ba 02F58062 		add	r2, r2, #1024
 5599 00be 9342     		cmp	r3, r2
 5600 00c0 00F0BC80 		beq	.L771
 5601 00c4 02F58062 		add	r2, r2, #1024
 5602 00c8 9342     		cmp	r3, r2
 5603 00ca 00F0B780 		beq	.L771
 5604 00ce 02F57842 		add	r2, r2, #63488
 5605 00d2 9342     		cmp	r3, r2
 5606 00d4 00F0B280 		beq	.L771
 5607 00d8 02F57052 		add	r2, r2, #15360
 5608 00dc 9342     		cmp	r3, r2
 5609 00de 00F0AD80 		beq	.L771
 5610 00e2 A2F59432 		sub	r2, r2, #75776
 5611 00e6 9342     		cmp	r3, r2
 5612 00e8 00F0A880 		beq	.L771
 5613 00ec 1A68     		ldr	r2, [r3]
 5614 00ee 42F00102 		orr	r2, r2, #1
 5615 00f2 1A60     		str	r2, [r3]
 5616 00f4 0020     		movs	r0, #0
 5617 00f6 AFE0     		b	.L755
 5618              	.L751:
ARM GAS  C:\Users\Rick\AppData\Local\Temp\cccDRXLh.s 			page 96


 5619 00f8 0429     		cmp	r1, #4
 5620 00fa 08D0     		beq	.L787
 5621 00fc 0829     		cmp	r1, #8
 5622 00fe 0DD0     		beq	.L788
 5623 0100 90F84100 		ldrb	r0, [r0, #65]	@ zero_extendqisi2
 5624 0104 0228     		cmp	r0, #2
 5625 0106 14BF     		ite	ne
 5626 0108 0020     		movne	r0, #0
 5627 010a 0120     		moveq	r0, #1
 5628 010c 84E7     		b	.L752
 5629              	.L787:
 5630 010e 90F83F00 		ldrb	r0, [r0, #63]	@ zero_extendqisi2
 5631 0112 0228     		cmp	r0, #2
 5632 0114 14BF     		ite	ne
 5633 0116 0020     		movne	r0, #0
 5634 0118 0120     		moveq	r0, #1
 5635 011a 7DE7     		b	.L752
 5636              	.L788:
 5637 011c 90F84000 		ldrb	r0, [r0, #64]	@ zero_extendqisi2
 5638 0120 0228     		cmp	r0, #2
 5639 0122 14BF     		ite	ne
 5640 0124 0020     		movne	r0, #0
 5641 0126 0120     		moveq	r0, #1
 5642 0128 76E7     		b	.L752
 5643              	.L756:
 5644 012a 042D     		cmp	r5, #4
 5645 012c 08D0     		beq	.L789
 5646 012e 082D     		cmp	r5, #8
 5647 0130 0DD0     		beq	.L790
 5648 0132 94F84120 		ldrb	r2, [r4, #65]	@ zero_extendqisi2
 5649 0136 012A     		cmp	r2, #1
 5650 0138 14BF     		ite	ne
 5651 013a 0022     		movne	r2, #0
 5652 013c 0122     		moveq	r2, #1
 5653 013e 77E7     		b	.L757
 5654              	.L789:
 5655 0140 94F83F20 		ldrb	r2, [r4, #63]	@ zero_extendqisi2
 5656 0144 012A     		cmp	r2, #1
 5657 0146 14BF     		ite	ne
 5658 0148 0022     		movne	r2, #0
 5659 014a 0122     		moveq	r2, #1
 5660 014c 70E7     		b	.L757
 5661              	.L790:
 5662 014e 94F84020 		ldrb	r2, [r4, #64]	@ zero_extendqisi2
 5663 0152 012A     		cmp	r2, #1
 5664 0154 14BF     		ite	ne
 5665 0156 0022     		movne	r2, #0
 5666 0158 0122     		moveq	r2, #1
 5667 015a 69E7     		b	.L757
 5668              	.L760:
 5669 015c 042D     		cmp	r5, #4
 5670 015e 23D0     		beq	.L791
 5671 0160 082D     		cmp	r5, #8
 5672 0162 3BD0     		beq	.L792
 5673 0164 0222     		movs	r2, #2
 5674 0166 84F84120 		strb	r2, [r4, #65]
 5675 016a 0C2D     		cmp	r5, #12
ARM GAS  C:\Users\Rick\AppData\Local\Temp\cccDRXLh.s 			page 97


 5676 016c 79D8     		bhi	.L777
 5677 016e 01A2     		adr	r2, .L767
 5678 0170 52F825F0 		ldr	pc, [r2, r5, lsl #2]
 5679              		.p2align 2
 5680              	.L767:
 5681 0174 4F000000 		.word	.L761+1
 5682 0178 63020000 		.word	.L777+1
 5683 017c 63020000 		.word	.L777+1
 5684 0180 63020000 		.word	.L777+1
 5685 0184 AF010000 		.word	.L763+1
 5686 0188 63020000 		.word	.L777+1
 5687 018c 63020000 		.word	.L777+1
 5688 0190 63020000 		.word	.L777+1
 5689 0194 E3010000 		.word	.L765+1
 5690 0198 63020000 		.word	.L777+1
 5691 019c 63020000 		.word	.L777+1
 5692 01a0 63020000 		.word	.L777+1
 5693 01a4 11020000 		.word	.L766+1
 5694              		.p2align 1
 5695              	.L791:
 5696 01a8 0222     		movs	r2, #2
 5697 01aa 84F83F20 		strb	r2, [r4, #63]
 5698              	.L763:
 5699 01ae A26A     		ldr	r2, [r4, #40]
 5700 01b0 3249     		ldr	r1, .L793
 5701 01b2 D163     		str	r1, [r2, #60]
 5702 01b4 A26A     		ldr	r2, [r4, #40]
 5703 01b6 3249     		ldr	r1, .L793+4
 5704 01b8 1164     		str	r1, [r2, #64]
 5705 01ba A26A     		ldr	r2, [r4, #40]
 5706 01bc 3149     		ldr	r1, .L793+8
 5707 01be D164     		str	r1, [r2, #76]
 5708 01c0 2268     		ldr	r2, [r4]
 5709 01c2 3832     		adds	r2, r2, #56
 5710 01c4 3146     		mov	r1, r6
 5711 01c6 A06A     		ldr	r0, [r4, #40]
 5712 01c8 FFF7FEFF 		bl	HAL_DMA_Start_IT
 5713 01cc 0028     		cmp	r0, #0
 5714 01ce 4CD1     		bne	.L779
 5715 01d0 2268     		ldr	r2, [r4]
 5716 01d2 D368     		ldr	r3, [r2, #12]
 5717 01d4 43F48063 		orr	r3, r3, #1024
 5718 01d8 D360     		str	r3, [r2, #12]
 5719 01da 4FE7     		b	.L768
 5720              	.L792:
 5721 01dc 0222     		movs	r2, #2
 5722 01de 84F84020 		strb	r2, [r4, #64]
 5723              	.L765:
 5724 01e2 E26A     		ldr	r2, [r4, #44]
 5725 01e4 2549     		ldr	r1, .L793
 5726 01e6 D163     		str	r1, [r2, #60]
 5727 01e8 E26A     		ldr	r2, [r4, #44]
 5728 01ea 2549     		ldr	r1, .L793+4
 5729 01ec 1164     		str	r1, [r2, #64]
 5730 01ee E26A     		ldr	r2, [r4, #44]
 5731 01f0 2449     		ldr	r1, .L793+8
 5732 01f2 D164     		str	r1, [r2, #76]
ARM GAS  C:\Users\Rick\AppData\Local\Temp\cccDRXLh.s 			page 98


 5733 01f4 2268     		ldr	r2, [r4]
 5734 01f6 3C32     		adds	r2, r2, #60
 5735 01f8 3146     		mov	r1, r6
 5736 01fa E06A     		ldr	r0, [r4, #44]
 5737 01fc FFF7FEFF 		bl	HAL_DMA_Start_IT
 5738 0200 0028     		cmp	r0, #0
 5739 0202 34D1     		bne	.L780
 5740 0204 2268     		ldr	r2, [r4]
 5741 0206 D368     		ldr	r3, [r2, #12]
 5742 0208 43F40063 		orr	r3, r3, #2048
 5743 020c D360     		str	r3, [r2, #12]
 5744 020e 35E7     		b	.L768
 5745              	.L766:
 5746 0210 226B     		ldr	r2, [r4, #48]
 5747 0212 1A49     		ldr	r1, .L793
 5748 0214 D163     		str	r1, [r2, #60]
 5749 0216 226B     		ldr	r2, [r4, #48]
 5750 0218 1949     		ldr	r1, .L793+4
 5751 021a 1164     		str	r1, [r2, #64]
 5752 021c 226B     		ldr	r2, [r4, #48]
 5753 021e 1949     		ldr	r1, .L793+8
 5754 0220 D164     		str	r1, [r2, #76]
 5755 0222 2268     		ldr	r2, [r4]
 5756 0224 4032     		adds	r2, r2, #64
 5757 0226 3146     		mov	r1, r6
 5758 0228 206B     		ldr	r0, [r4, #48]
 5759 022a FFF7FEFF 		bl	HAL_DMA_Start_IT
 5760 022e 00BB     		cbnz	r0, .L781
 5761 0230 2268     		ldr	r2, [r4]
 5762 0232 D368     		ldr	r3, [r2, #12]
 5763 0234 43F48053 		orr	r3, r3, #4096
 5764 0238 D360     		str	r3, [r2, #12]
 5765 023a 1FE7     		b	.L768
 5766              	.L771:
 5767 023c 9A68     		ldr	r2, [r3, #8]
 5768 023e 02F00702 		and	r2, r2, #7
 5769 0242 062A     		cmp	r2, #6
 5770 0244 17D0     		beq	.L782
 5771 0246 1A68     		ldr	r2, [r3]
 5772 0248 42F00102 		orr	r2, r2, #1
 5773 024c 1A60     		str	r2, [r3]
 5774 024e 0020     		movs	r0, #0
 5775 0250 02E0     		b	.L755
 5776              	.L773:
 5777 0252 0220     		movs	r0, #2
 5778 0254 00E0     		b	.L755
 5779              	.L774:
 5780 0256 0120     		movs	r0, #1
 5781              	.L755:
 5782 0258 70BD     		pop	{r4, r5, r6, pc}
 5783              	.L775:
 5784 025a 0120     		movs	r0, #1
 5785 025c FCE7     		b	.L755
 5786              	.L776:
 5787 025e 0120     		movs	r0, #1
 5788 0260 FAE7     		b	.L755
 5789              	.L777:
ARM GAS  C:\Users\Rick\AppData\Local\Temp\cccDRXLh.s 			page 99


 5790 0262 0120     		movs	r0, #1
 5791 0264 F8E7     		b	.L755
 5792              	.L778:
 5793 0266 0120     		movs	r0, #1
 5794 0268 F6E7     		b	.L755
 5795              	.L779:
 5796 026a 0120     		movs	r0, #1
 5797 026c F4E7     		b	.L755
 5798              	.L780:
 5799 026e 0120     		movs	r0, #1
 5800 0270 F2E7     		b	.L755
 5801              	.L781:
 5802 0272 0120     		movs	r0, #1
 5803 0274 F0E7     		b	.L755
 5804              	.L782:
 5805 0276 0020     		movs	r0, #0
 5806 0278 EEE7     		b	.L755
 5807              	.L794:
 5808 027a 00BF     		.align	2
 5809              	.L793:
 5810 027c 00000000 		.word	TIM_DMADelayPulseCplt
 5811 0280 00000000 		.word	TIM_DMADelayPulseHalfCplt
 5812 0284 00000000 		.word	TIM_DMAError
 5813 0288 00000140 		.word	1073807360
 5815              		.section	.text.HAL_TIM_PWM_Stop_DMA,"ax",%progbits
 5816              		.align	1
 5817              		.global	HAL_TIM_PWM_Stop_DMA
 5818              		.syntax unified
 5819              		.thumb
 5820              		.thumb_func
 5822              	HAL_TIM_PWM_Stop_DMA:
 5823              		@ args = 0, pretend = 0, frame = 0
 5824              		@ frame_needed = 0, uses_anonymous_args = 0
 5825 0000 38B5     		push	{r3, r4, r5, lr}
 5826 0002 0546     		mov	r5, r0
 5827 0004 0C46     		mov	r4, r1
 5828 0006 0C29     		cmp	r1, #12
 5829 0008 70D8     		bhi	.L809
 5830 000a DFE801F0 		tbb	[pc, r1]
 5831              	.L798:
 5832 000e 07       		.byte	(.L801-.L798)/2
 5833 000f 6F       		.byte	(.L809-.L798)/2
 5834 0010 6F       		.byte	(.L809-.L798)/2
 5835 0011 6F       		.byte	(.L809-.L798)/2
 5836 0012 32       		.byte	(.L800-.L798)/2
 5837 0013 6F       		.byte	(.L809-.L798)/2
 5838 0014 6F       		.byte	(.L809-.L798)/2
 5839 0015 6F       		.byte	(.L809-.L798)/2
 5840 0016 3B       		.byte	(.L799-.L798)/2
 5841 0017 6F       		.byte	(.L809-.L798)/2
 5842 0018 6F       		.byte	(.L809-.L798)/2
 5843 0019 6F       		.byte	(.L809-.L798)/2
 5844 001a 44       		.byte	(.L797-.L798)/2
 5845 001b 00       		.p2align 1
 5846              	.L801:
 5847 001c 0268     		ldr	r2, [r0]
 5848 001e D368     		ldr	r3, [r2, #12]
ARM GAS  C:\Users\Rick\AppData\Local\Temp\cccDRXLh.s 			page 100


 5849 0020 23F40073 		bic	r3, r3, #512
 5850 0024 D360     		str	r3, [r2, #12]
 5851 0026 406A     		ldr	r0, [r0, #36]
 5852 0028 FFF7FEFF 		bl	HAL_DMA_Abort_IT
 5853              	.L802:
 5854 002c 0022     		movs	r2, #0
 5855 002e 2146     		mov	r1, r4
 5856 0030 2868     		ldr	r0, [r5]
 5857 0032 FFF7FEFF 		bl	TIM_CCxChannelCmd
 5858 0036 2B68     		ldr	r3, [r5]
 5859 0038 2D4A     		ldr	r2, .L813
 5860 003a 9342     		cmp	r3, r2
 5861 003c 34D0     		beq	.L803
 5862 003e 02F58062 		add	r2, r2, #1024
 5863 0042 9342     		cmp	r3, r2
 5864 0044 30D0     		beq	.L803
 5865              	.L804:
 5866 0046 2B68     		ldr	r3, [r5]
 5867 0048 196A     		ldr	r1, [r3, #32]
 5868 004a 41F21112 		movw	r2, #4369
 5869 004e 1142     		tst	r1, r2
 5870 0050 08D1     		bne	.L805
 5871 0052 196A     		ldr	r1, [r3, #32]
 5872 0054 40F24442 		movw	r2, #1092
 5873 0058 1142     		tst	r1, r2
 5874 005a 03D1     		bne	.L805
 5875 005c 1A68     		ldr	r2, [r3]
 5876 005e 22F00102 		bic	r2, r2, #1
 5877 0062 1A60     		str	r2, [r3]
 5878              	.L805:
 5879 0064 002C     		cmp	r4, #0
 5880 0066 2ED1     		bne	.L806
 5881 0068 0123     		movs	r3, #1
 5882 006a 85F83E30 		strb	r3, [r5, #62]
 5883 006e 0020     		movs	r0, #0
 5884 0070 3DE0     		b	.L796
 5885              	.L800:
 5886 0072 0268     		ldr	r2, [r0]
 5887 0074 D368     		ldr	r3, [r2, #12]
 5888 0076 23F48063 		bic	r3, r3, #1024
 5889 007a D360     		str	r3, [r2, #12]
 5890 007c 806A     		ldr	r0, [r0, #40]
 5891 007e FFF7FEFF 		bl	HAL_DMA_Abort_IT
 5892 0082 D3E7     		b	.L802
 5893              	.L799:
 5894 0084 0268     		ldr	r2, [r0]
 5895 0086 D368     		ldr	r3, [r2, #12]
 5896 0088 23F40063 		bic	r3, r3, #2048
 5897 008c D360     		str	r3, [r2, #12]
 5898 008e C06A     		ldr	r0, [r0, #44]
 5899 0090 FFF7FEFF 		bl	HAL_DMA_Abort_IT
 5900 0094 CAE7     		b	.L802
 5901              	.L797:
 5902 0096 0268     		ldr	r2, [r0]
 5903 0098 D368     		ldr	r3, [r2, #12]
 5904 009a 23F48053 		bic	r3, r3, #4096
 5905 009e D360     		str	r3, [r2, #12]
ARM GAS  C:\Users\Rick\AppData\Local\Temp\cccDRXLh.s 			page 101


 5906 00a0 006B     		ldr	r0, [r0, #48]
 5907 00a2 FFF7FEFF 		bl	HAL_DMA_Abort_IT
 5908 00a6 C1E7     		b	.L802
 5909              	.L803:
 5910 00a8 196A     		ldr	r1, [r3, #32]
 5911 00aa 41F21112 		movw	r2, #4369
 5912 00ae 1142     		tst	r1, r2
 5913 00b0 C9D1     		bne	.L804
 5914 00b2 196A     		ldr	r1, [r3, #32]
 5915 00b4 40F24442 		movw	r2, #1092
 5916 00b8 1142     		tst	r1, r2
 5917 00ba C4D1     		bne	.L804
 5918 00bc 5A6C     		ldr	r2, [r3, #68]
 5919 00be 22F40042 		bic	r2, r2, #32768
 5920 00c2 5A64     		str	r2, [r3, #68]
 5921 00c4 BFE7     		b	.L804
 5922              	.L806:
 5923 00c6 042C     		cmp	r4, #4
 5924 00c8 06D0     		beq	.L811
 5925 00ca 082C     		cmp	r4, #8
 5926 00cc 09D0     		beq	.L812
 5927 00ce 0123     		movs	r3, #1
 5928 00d0 85F84130 		strb	r3, [r5, #65]
 5929 00d4 0020     		movs	r0, #0
 5930 00d6 0AE0     		b	.L796
 5931              	.L811:
 5932 00d8 0123     		movs	r3, #1
 5933 00da 85F83F30 		strb	r3, [r5, #63]
 5934 00de 0020     		movs	r0, #0
 5935 00e0 05E0     		b	.L796
 5936              	.L812:
 5937 00e2 0123     		movs	r3, #1
 5938 00e4 85F84030 		strb	r3, [r5, #64]
 5939 00e8 0020     		movs	r0, #0
 5940 00ea 00E0     		b	.L796
 5941              	.L809:
 5942 00ec 0120     		movs	r0, #1
 5943              	.L796:
 5944 00ee 38BD     		pop	{r3, r4, r5, pc}
 5945              	.L814:
 5946              		.align	2
 5947              	.L813:
 5948 00f0 00000140 		.word	1073807360
 5950              		.section	.text.HAL_TIM_IC_Start,"ax",%progbits
 5951              		.align	1
 5952              		.global	HAL_TIM_IC_Start
 5953              		.syntax unified
 5954              		.thumb
 5955              		.thumb_func
 5957              	HAL_TIM_IC_Start:
 5958              		@ args = 0, pretend = 0, frame = 0
 5959              		@ frame_needed = 0, uses_anonymous_args = 0
 5960 0000 10B5     		push	{r4, lr}
 5961 0002 0446     		mov	r4, r0
 5962 0004 0B46     		mov	r3, r1
 5963 0006 0029     		cmp	r1, #0
 5964 0008 3AD1     		bne	.L816
ARM GAS  C:\Users\Rick\AppData\Local\Temp\cccDRXLh.s 			page 102


 5965 000a 90F83E00 		ldrb	r0, [r0, #62]	@ zero_extendqisi2
 5966 000e C0B2     		uxtb	r0, r0
 5967 0010 94F84220 		ldrb	r2, [r4, #66]	@ zero_extendqisi2
 5968 0014 D2B2     		uxtb	r2, r2
 5969              	.L817:
 5970 0016 0128     		cmp	r0, #1
 5971 0018 7BD1     		bne	.L833
 5972 001a 012A     		cmp	r2, #1
 5973 001c 7AD1     		bne	.L823
 5974 001e 002B     		cmp	r3, #0
 5975 0020 4DD1     		bne	.L824
 5976 0022 0222     		movs	r2, #2
 5977 0024 84F83E20 		strb	r2, [r4, #62]
 5978 0028 84F84220 		strb	r2, [r4, #66]
 5979              	.L825:
 5980 002c 0122     		movs	r2, #1
 5981 002e 1946     		mov	r1, r3
 5982 0030 2068     		ldr	r0, [r4]
 5983 0032 FFF7FEFF 		bl	TIM_CCxChannelCmd
 5984 0036 2368     		ldr	r3, [r4]
 5985 0038 384A     		ldr	r2, .L844
 5986 003a 9342     		cmp	r3, r2
 5987 003c 5ED0     		beq	.L831
 5988 003e B3F1804F 		cmp	r3, #1073741824
 5989 0042 5BD0     		beq	.L831
 5990 0044 A2F57C42 		sub	r2, r2, #64512
 5991 0048 9342     		cmp	r3, r2
 5992 004a 57D0     		beq	.L831
 5993 004c 02F58062 		add	r2, r2, #1024
 5994 0050 9342     		cmp	r3, r2
 5995 0052 53D0     		beq	.L831
 5996 0054 02F58062 		add	r2, r2, #1024
 5997 0058 9342     		cmp	r3, r2
 5998 005a 4FD0     		beq	.L831
 5999 005c 02F57842 		add	r2, r2, #63488
 6000 0060 9342     		cmp	r3, r2
 6001 0062 4BD0     		beq	.L831
 6002 0064 02F57052 		add	r2, r2, #15360
 6003 0068 9342     		cmp	r3, r2
 6004 006a 47D0     		beq	.L831
 6005 006c A2F59432 		sub	r2, r2, #75776
 6006 0070 9342     		cmp	r3, r2
 6007 0072 43D0     		beq	.L831
 6008 0074 1A68     		ldr	r2, [r3]
 6009 0076 42F00102 		orr	r2, r2, #1
 6010 007a 1A60     		str	r2, [r3]
 6011 007c 0020     		movs	r0, #0
 6012 007e 49E0     		b	.L823
 6013              	.L816:
 6014 0080 0429     		cmp	r1, #4
 6015 0082 0CD0     		beq	.L836
 6016 0084 0829     		cmp	r1, #8
 6017 0086 0ED0     		beq	.L837
 6018 0088 90F84100 		ldrb	r0, [r0, #65]	@ zero_extendqisi2
 6019 008c C0B2     		uxtb	r0, r0
 6020              	.L819:
 6021 008e 042B     		cmp	r3, #4
ARM GAS  C:\Users\Rick\AppData\Local\Temp\cccDRXLh.s 			page 103


 6022 0090 0DD0     		beq	.L838
 6023 0092 082B     		cmp	r3, #8
 6024 0094 0FD0     		beq	.L839
 6025 0096 94F84520 		ldrb	r2, [r4, #69]	@ zero_extendqisi2
 6026 009a D2B2     		uxtb	r2, r2
 6027 009c BBE7     		b	.L817
 6028              	.L836:
 6029 009e 90F83F00 		ldrb	r0, [r0, #63]	@ zero_extendqisi2
 6030 00a2 C0B2     		uxtb	r0, r0
 6031 00a4 F3E7     		b	.L819
 6032              	.L837:
 6033 00a6 90F84000 		ldrb	r0, [r0, #64]	@ zero_extendqisi2
 6034 00aa C0B2     		uxtb	r0, r0
 6035 00ac EFE7     		b	.L819
 6036              	.L838:
 6037 00ae 94F84320 		ldrb	r2, [r4, #67]	@ zero_extendqisi2
 6038 00b2 D2B2     		uxtb	r2, r2
 6039 00b4 AFE7     		b	.L817
 6040              	.L839:
 6041 00b6 94F84420 		ldrb	r2, [r4, #68]	@ zero_extendqisi2
 6042 00ba D2B2     		uxtb	r2, r2
 6043 00bc ABE7     		b	.L817
 6044              	.L824:
 6045 00be 042B     		cmp	r3, #4
 6046 00c0 0CD0     		beq	.L840
 6047 00c2 082B     		cmp	r3, #8
 6048 00c4 0ED0     		beq	.L841
 6049 00c6 0222     		movs	r2, #2
 6050 00c8 84F84120 		strb	r2, [r4, #65]
 6051              	.L827:
 6052 00cc 042B     		cmp	r3, #4
 6053 00ce 0DD0     		beq	.L842
 6054 00d0 082B     		cmp	r3, #8
 6055 00d2 0FD0     		beq	.L843
 6056 00d4 0222     		movs	r2, #2
 6057 00d6 84F84520 		strb	r2, [r4, #69]
 6058 00da A7E7     		b	.L825
 6059              	.L840:
 6060 00dc 0222     		movs	r2, #2
 6061 00de 84F83F20 		strb	r2, [r4, #63]
 6062 00e2 F3E7     		b	.L827
 6063              	.L841:
 6064 00e4 0222     		movs	r2, #2
 6065 00e6 84F84020 		strb	r2, [r4, #64]
 6066 00ea EFE7     		b	.L827
 6067              	.L842:
 6068 00ec 0222     		movs	r2, #2
 6069 00ee 84F84320 		strb	r2, [r4, #67]
 6070 00f2 9BE7     		b	.L825
 6071              	.L843:
 6072 00f4 0222     		movs	r2, #2
 6073 00f6 84F84420 		strb	r2, [r4, #68]
 6074 00fa 97E7     		b	.L825
 6075              	.L831:
 6076 00fc 9A68     		ldr	r2, [r3, #8]
 6077 00fe 02F00702 		and	r2, r2, #7
 6078 0102 062A     		cmp	r2, #6
ARM GAS  C:\Users\Rick\AppData\Local\Temp\cccDRXLh.s 			page 104


 6079 0104 07D0     		beq	.L834
 6080 0106 1A68     		ldr	r2, [r3]
 6081 0108 42F00102 		orr	r2, r2, #1
 6082 010c 1A60     		str	r2, [r3]
 6083 010e 0020     		movs	r0, #0
 6084 0110 00E0     		b	.L823
 6085              	.L833:
 6086 0112 0120     		movs	r0, #1
 6087              	.L823:
 6088 0114 10BD     		pop	{r4, pc}
 6089              	.L834:
 6090 0116 0020     		movs	r0, #0
 6091 0118 FCE7     		b	.L823
 6092              	.L845:
 6093 011a 00BF     		.align	2
 6094              	.L844:
 6095 011c 00000140 		.word	1073807360
 6097              		.section	.text.HAL_TIM_IC_Stop,"ax",%progbits
 6098              		.align	1
 6099              		.global	HAL_TIM_IC_Stop
 6100              		.syntax unified
 6101              		.thumb
 6102              		.thumb_func
 6104              	HAL_TIM_IC_Stop:
 6105              		@ args = 0, pretend = 0, frame = 0
 6106              		@ frame_needed = 0, uses_anonymous_args = 0
 6107 0000 38B5     		push	{r3, r4, r5, lr}
 6108 0002 0446     		mov	r4, r0
 6109 0004 0D46     		mov	r5, r1
 6110 0006 0022     		movs	r2, #0
 6111 0008 0068     		ldr	r0, [r0]
 6112 000a FFF7FEFF 		bl	TIM_CCxChannelCmd
 6113 000e 2368     		ldr	r3, [r4]
 6114 0010 196A     		ldr	r1, [r3, #32]
 6115 0012 41F21112 		movw	r2, #4369
 6116 0016 1142     		tst	r1, r2
 6117 0018 08D1     		bne	.L847
 6118 001a 196A     		ldr	r1, [r3, #32]
 6119 001c 40F24442 		movw	r2, #1092
 6120 0020 1142     		tst	r1, r2
 6121 0022 03D1     		bne	.L847
 6122 0024 1A68     		ldr	r2, [r3]
 6123 0026 22F00102 		bic	r2, r2, #1
 6124 002a 1A60     		str	r2, [r3]
 6125              	.L847:
 6126 002c 35B9     		cbnz	r5, .L848
 6127 002e 0123     		movs	r3, #1
 6128 0030 84F83E30 		strb	r3, [r4, #62]
 6129 0034 84F84230 		strb	r3, [r4, #66]
 6130              	.L849:
 6131 0038 0020     		movs	r0, #0
 6132 003a 38BD     		pop	{r3, r4, r5, pc}
 6133              	.L848:
 6134 003c 042D     		cmp	r5, #4
 6135 003e 0CD0     		beq	.L856
 6136 0040 082D     		cmp	r5, #8
 6137 0042 0ED0     		beq	.L857
ARM GAS  C:\Users\Rick\AppData\Local\Temp\cccDRXLh.s 			page 105


 6138 0044 0123     		movs	r3, #1
 6139 0046 84F84130 		strb	r3, [r4, #65]
 6140              	.L851:
 6141 004a 042D     		cmp	r5, #4
 6142 004c 0DD0     		beq	.L858
 6143 004e 082D     		cmp	r5, #8
 6144 0050 0FD0     		beq	.L859
 6145 0052 0123     		movs	r3, #1
 6146 0054 84F84530 		strb	r3, [r4, #69]
 6147 0058 EEE7     		b	.L849
 6148              	.L856:
 6149 005a 0123     		movs	r3, #1
 6150 005c 84F83F30 		strb	r3, [r4, #63]
 6151 0060 F3E7     		b	.L851
 6152              	.L857:
 6153 0062 0123     		movs	r3, #1
 6154 0064 84F84030 		strb	r3, [r4, #64]
 6155 0068 EFE7     		b	.L851
 6156              	.L858:
 6157 006a 0123     		movs	r3, #1
 6158 006c 84F84330 		strb	r3, [r4, #67]
 6159 0070 E2E7     		b	.L849
 6160              	.L859:
 6161 0072 0123     		movs	r3, #1
 6162 0074 84F84430 		strb	r3, [r4, #68]
 6163 0078 DEE7     		b	.L849
 6165              		.section	.text.HAL_TIM_IC_Start_IT,"ax",%progbits
 6166              		.align	1
 6167              		.global	HAL_TIM_IC_Start_IT
 6168              		.syntax unified
 6169              		.thumb
 6170              		.thumb_func
 6172              	HAL_TIM_IC_Start_IT:
 6173              		@ args = 0, pretend = 0, frame = 0
 6174              		@ frame_needed = 0, uses_anonymous_args = 0
 6175 0000 10B5     		push	{r4, lr}
 6176 0002 0446     		mov	r4, r0
 6177 0004 0B46     		mov	r3, r1
 6178 0006 0029     		cmp	r1, #0
 6179 0008 45D1     		bne	.L861
 6180 000a 90F83E00 		ldrb	r0, [r0, #62]	@ zero_extendqisi2
 6181 000e C0B2     		uxtb	r0, r0
 6182 0010 94F84220 		ldrb	r2, [r4, #66]	@ zero_extendqisi2
 6183 0014 D2B2     		uxtb	r2, r2
 6184              	.L862:
 6185 0016 0128     		cmp	r0, #1
 6186 0018 40F0B580 		bne	.L883
 6187 001c 012A     		cmp	r2, #1
 6188 001e 40F0B380 		bne	.L868
 6189 0022 002B     		cmp	r3, #0
 6190 0024 56D1     		bne	.L869
 6191 0026 0222     		movs	r2, #2
 6192 0028 84F83E20 		strb	r2, [r4, #62]
 6193 002c 84F84220 		strb	r2, [r4, #66]
 6194              	.L870:
 6195 0030 2168     		ldr	r1, [r4]
 6196 0032 CA68     		ldr	r2, [r1, #12]
ARM GAS  C:\Users\Rick\AppData\Local\Temp\cccDRXLh.s 			page 106


 6197 0034 42F00202 		orr	r2, r2, #2
 6198 0038 CA60     		str	r2, [r1, #12]
 6199              	.L880:
 6200 003a 0122     		movs	r2, #1
 6201 003c 1946     		mov	r1, r3
 6202 003e 2068     		ldr	r0, [r4]
 6203 0040 FFF7FEFF 		bl	TIM_CCxChannelCmd
 6204 0044 2368     		ldr	r3, [r4]
 6205 0046 534A     		ldr	r2, .L898
 6206 0048 9342     		cmp	r3, r2
 6207 004a 00F09180 		beq	.L881
 6208 004e B3F1804F 		cmp	r3, #1073741824
 6209 0052 00F08D80 		beq	.L881
 6210 0056 A2F57C42 		sub	r2, r2, #64512
 6211 005a 9342     		cmp	r3, r2
 6212 005c 00F08880 		beq	.L881
 6213 0060 02F58062 		add	r2, r2, #1024
 6214 0064 9342     		cmp	r3, r2
 6215 0066 00F08380 		beq	.L881
 6216 006a 02F58062 		add	r2, r2, #1024
 6217 006e 9342     		cmp	r3, r2
 6218 0070 7ED0     		beq	.L881
 6219 0072 02F57842 		add	r2, r2, #63488
 6220 0076 9342     		cmp	r3, r2
 6221 0078 7AD0     		beq	.L881
 6222 007a 02F57052 		add	r2, r2, #15360
 6223 007e 9342     		cmp	r3, r2
 6224 0080 76D0     		beq	.L881
 6225 0082 A2F59432 		sub	r2, r2, #75776
 6226 0086 9342     		cmp	r3, r2
 6227 0088 72D0     		beq	.L881
 6228 008a 1A68     		ldr	r2, [r3]
 6229 008c 42F00102 		orr	r2, r2, #1
 6230 0090 1A60     		str	r2, [r3]
 6231 0092 0020     		movs	r0, #0
 6232 0094 78E0     		b	.L868
 6233              	.L861:
 6234 0096 0429     		cmp	r1, #4
 6235 0098 0CD0     		beq	.L890
 6236 009a 0829     		cmp	r1, #8
 6237 009c 0ED0     		beq	.L891
 6238 009e 90F84100 		ldrb	r0, [r0, #65]	@ zero_extendqisi2
 6239 00a2 C0B2     		uxtb	r0, r0
 6240              	.L864:
 6241 00a4 042B     		cmp	r3, #4
 6242 00a6 0DD0     		beq	.L892
 6243 00a8 082B     		cmp	r3, #8
 6244 00aa 0FD0     		beq	.L893
 6245 00ac 94F84520 		ldrb	r2, [r4, #69]	@ zero_extendqisi2
 6246 00b0 D2B2     		uxtb	r2, r2
 6247 00b2 B0E7     		b	.L862
 6248              	.L890:
 6249 00b4 90F83F00 		ldrb	r0, [r0, #63]	@ zero_extendqisi2
 6250 00b8 C0B2     		uxtb	r0, r0
 6251 00ba F3E7     		b	.L864
 6252              	.L891:
 6253 00bc 90F84000 		ldrb	r0, [r0, #64]	@ zero_extendqisi2
ARM GAS  C:\Users\Rick\AppData\Local\Temp\cccDRXLh.s 			page 107


 6254 00c0 C0B2     		uxtb	r0, r0
 6255 00c2 EFE7     		b	.L864
 6256              	.L892:
 6257 00c4 94F84320 		ldrb	r2, [r4, #67]	@ zero_extendqisi2
 6258 00c8 D2B2     		uxtb	r2, r2
 6259 00ca A4E7     		b	.L862
 6260              	.L893:
 6261 00cc 94F84420 		ldrb	r2, [r4, #68]	@ zero_extendqisi2
 6262 00d0 D2B2     		uxtb	r2, r2
 6263 00d2 A0E7     		b	.L862
 6264              	.L869:
 6265 00d4 042B     		cmp	r3, #4
 6266 00d6 2BD0     		beq	.L894
 6267 00d8 082B     		cmp	r3, #8
 6268 00da 2DD0     		beq	.L895
 6269 00dc 0221     		movs	r1, #2
 6270 00de 84F84110 		strb	r1, [r4, #65]
 6271              	.L872:
 6272 00e2 042B     		cmp	r3, #4
 6273 00e4 2CD0     		beq	.L896
 6274 00e6 082B     		cmp	r3, #8
 6275 00e8 33D0     		beq	.L897
 6276 00ea 0221     		movs	r1, #2
 6277 00ec 84F84510 		strb	r1, [r4, #69]
 6278 00f0 0C2B     		cmp	r3, #12
 6279 00f2 4AD8     		bhi	.L884
 6280 00f4 01A1     		adr	r1, .L879
 6281 00f6 51F823F0 		ldr	pc, [r1, r3, lsl #2]
 6282 00fa 00BF     		.p2align 2
 6283              	.L879:
 6284 00fc 31000000 		.word	.L870+1
 6285 0100 8B010000 		.word	.L884+1
 6286 0104 8B010000 		.word	.L884+1
 6287 0108 8B010000 		.word	.L884+1
 6288 010c 47010000 		.word	.L875+1
 6289 0110 8B010000 		.word	.L884+1
 6290 0114 8B010000 		.word	.L884+1
 6291 0118 8B010000 		.word	.L884+1
 6292 011c 59010000 		.word	.L877+1
 6293 0120 8B010000 		.word	.L884+1
 6294 0124 8B010000 		.word	.L884+1
 6295 0128 8B010000 		.word	.L884+1
 6296 012c 65010000 		.word	.L878+1
 6297              		.p2align 1
 6298              	.L894:
 6299 0130 0221     		movs	r1, #2
 6300 0132 84F83F10 		strb	r1, [r4, #63]
 6301 0136 D4E7     		b	.L872
 6302              	.L895:
 6303 0138 0221     		movs	r1, #2
 6304 013a 84F84010 		strb	r1, [r4, #64]
 6305 013e D0E7     		b	.L872
 6306              	.L896:
 6307 0140 0222     		movs	r2, #2
 6308 0142 84F84320 		strb	r2, [r4, #67]
 6309              	.L875:
 6310 0146 2168     		ldr	r1, [r4]
ARM GAS  C:\Users\Rick\AppData\Local\Temp\cccDRXLh.s 			page 108


 6311 0148 CA68     		ldr	r2, [r1, #12]
 6312 014a 42F00402 		orr	r2, r2, #4
 6313 014e CA60     		str	r2, [r1, #12]
 6314 0150 73E7     		b	.L880
 6315              	.L897:
 6316 0152 0222     		movs	r2, #2
 6317 0154 84F84420 		strb	r2, [r4, #68]
 6318              	.L877:
 6319 0158 2168     		ldr	r1, [r4]
 6320 015a CA68     		ldr	r2, [r1, #12]
 6321 015c 42F00802 		orr	r2, r2, #8
 6322 0160 CA60     		str	r2, [r1, #12]
 6323 0162 6AE7     		b	.L880
 6324              	.L878:
 6325 0164 2168     		ldr	r1, [r4]
 6326 0166 CA68     		ldr	r2, [r1, #12]
 6327 0168 42F01002 		orr	r2, r2, #16
 6328 016c CA60     		str	r2, [r1, #12]
 6329 016e 64E7     		b	.L880
 6330              	.L881:
 6331 0170 9A68     		ldr	r2, [r3, #8]
 6332 0172 02F00702 		and	r2, r2, #7
 6333 0176 062A     		cmp	r2, #6
 6334 0178 09D0     		beq	.L885
 6335 017a 1A68     		ldr	r2, [r3]
 6336 017c 42F00102 		orr	r2, r2, #1
 6337 0180 1A60     		str	r2, [r3]
 6338 0182 0020     		movs	r0, #0
 6339 0184 00E0     		b	.L868
 6340              	.L883:
 6341 0186 0120     		movs	r0, #1
 6342              	.L868:
 6343 0188 10BD     		pop	{r4, pc}
 6344              	.L884:
 6345 018a 1046     		mov	r0, r2
 6346 018c FCE7     		b	.L868
 6347              	.L885:
 6348 018e 0020     		movs	r0, #0
 6349 0190 FAE7     		b	.L868
 6350              	.L899:
 6351 0192 00BF     		.align	2
 6352              	.L898:
 6353 0194 00000140 		.word	1073807360
 6355              		.section	.text.HAL_TIM_IC_Stop_IT,"ax",%progbits
 6356              		.align	1
 6357              		.global	HAL_TIM_IC_Stop_IT
 6358              		.syntax unified
 6359              		.thumb
 6360              		.thumb_func
 6362              	HAL_TIM_IC_Stop_IT:
 6363              		@ args = 0, pretend = 0, frame = 0
 6364              		@ frame_needed = 0, uses_anonymous_args = 0
 6365 0000 38B5     		push	{r3, r4, r5, lr}
 6366 0002 0546     		mov	r5, r0
 6367 0004 0C46     		mov	r4, r1
 6368 0006 0C29     		cmp	r1, #12
 6369 0008 5DD8     		bhi	.L915
ARM GAS  C:\Users\Rick\AppData\Local\Temp\cccDRXLh.s 			page 109


 6370 000a DFE801F0 		tbb	[pc, r1]
 6371              	.L903:
 6372 000e 07       		.byte	(.L906-.L903)/2
 6373 000f 5C       		.byte	(.L915-.L903)/2
 6374 0010 5C       		.byte	(.L915-.L903)/2
 6375 0011 5C       		.byte	(.L915-.L903)/2
 6376 0012 28       		.byte	(.L905-.L903)/2
 6377 0013 5C       		.byte	(.L915-.L903)/2
 6378 0014 5C       		.byte	(.L915-.L903)/2
 6379 0015 5C       		.byte	(.L915-.L903)/2
 6380 0016 2E       		.byte	(.L904-.L903)/2
 6381 0017 5C       		.byte	(.L915-.L903)/2
 6382 0018 5C       		.byte	(.L915-.L903)/2
 6383 0019 5C       		.byte	(.L915-.L903)/2
 6384 001a 34       		.byte	(.L902-.L903)/2
 6385 001b 00       		.p2align 1
 6386              	.L906:
 6387 001c 0268     		ldr	r2, [r0]
 6388 001e D368     		ldr	r3, [r2, #12]
 6389 0020 23F00203 		bic	r3, r3, #2
 6390 0024 D360     		str	r3, [r2, #12]
 6391              	.L907:
 6392 0026 0022     		movs	r2, #0
 6393 0028 2146     		mov	r1, r4
 6394 002a 2868     		ldr	r0, [r5]
 6395 002c FFF7FEFF 		bl	TIM_CCxChannelCmd
 6396 0030 2B68     		ldr	r3, [r5]
 6397 0032 196A     		ldr	r1, [r3, #32]
 6398 0034 41F21112 		movw	r2, #4369
 6399 0038 1142     		tst	r1, r2
 6400 003a 08D1     		bne	.L908
 6401 003c 196A     		ldr	r1, [r3, #32]
 6402 003e 40F24442 		movw	r2, #1092
 6403 0042 1142     		tst	r1, r2
 6404 0044 03D1     		bne	.L908
 6405 0046 1A68     		ldr	r2, [r3]
 6406 0048 22F00102 		bic	r2, r2, #1
 6407 004c 1A60     		str	r2, [r3]
 6408              	.L908:
 6409 004e C4B9     		cbnz	r4, .L909
 6410 0050 0123     		movs	r3, #1
 6411 0052 85F83E30 		strb	r3, [r5, #62]
 6412 0056 85F84230 		strb	r3, [r5, #66]
 6413 005a 0020     		movs	r0, #0
 6414 005c 34E0     		b	.L901
 6415              	.L905:
 6416 005e 0268     		ldr	r2, [r0]
 6417 0060 D368     		ldr	r3, [r2, #12]
 6418 0062 23F00403 		bic	r3, r3, #4
 6419 0066 D360     		str	r3, [r2, #12]
 6420 0068 DDE7     		b	.L907
 6421              	.L904:
 6422 006a 0268     		ldr	r2, [r0]
 6423 006c D368     		ldr	r3, [r2, #12]
 6424 006e 23F00803 		bic	r3, r3, #8
 6425 0072 D360     		str	r3, [r2, #12]
 6426 0074 D7E7     		b	.L907
ARM GAS  C:\Users\Rick\AppData\Local\Temp\cccDRXLh.s 			page 110


 6427              	.L902:
 6428 0076 0268     		ldr	r2, [r0]
 6429 0078 D368     		ldr	r3, [r2, #12]
 6430 007a 23F01003 		bic	r3, r3, #16
 6431 007e D360     		str	r3, [r2, #12]
 6432 0080 D1E7     		b	.L907
 6433              	.L909:
 6434 0082 042C     		cmp	r4, #4
 6435 0084 0DD0     		beq	.L917
 6436 0086 082C     		cmp	r4, #8
 6437 0088 0FD0     		beq	.L918
 6438 008a 0123     		movs	r3, #1
 6439 008c 85F84130 		strb	r3, [r5, #65]
 6440              	.L911:
 6441 0090 042C     		cmp	r4, #4
 6442 0092 0ED0     		beq	.L919
 6443 0094 082C     		cmp	r4, #8
 6444 0096 11D0     		beq	.L920
 6445 0098 0123     		movs	r3, #1
 6446 009a 85F84530 		strb	r3, [r5, #69]
 6447 009e 0020     		movs	r0, #0
 6448 00a0 12E0     		b	.L901
 6449              	.L917:
 6450 00a2 0123     		movs	r3, #1
 6451 00a4 85F83F30 		strb	r3, [r5, #63]
 6452 00a8 F2E7     		b	.L911
 6453              	.L918:
 6454 00aa 0123     		movs	r3, #1
 6455 00ac 85F84030 		strb	r3, [r5, #64]
 6456 00b0 EEE7     		b	.L911
 6457              	.L919:
 6458 00b2 0123     		movs	r3, #1
 6459 00b4 85F84330 		strb	r3, [r5, #67]
 6460 00b8 0020     		movs	r0, #0
 6461 00ba 05E0     		b	.L901
 6462              	.L920:
 6463 00bc 0123     		movs	r3, #1
 6464 00be 85F84430 		strb	r3, [r5, #68]
 6465 00c2 0020     		movs	r0, #0
 6466 00c4 00E0     		b	.L901
 6467              	.L915:
 6468 00c6 0120     		movs	r0, #1
 6469              	.L901:
 6470 00c8 38BD     		pop	{r3, r4, r5, pc}
 6472              		.section	.text.HAL_TIM_IC_Start_DMA,"ax",%progbits
 6473              		.align	1
 6474              		.global	HAL_TIM_IC_Start_DMA
 6475              		.syntax unified
 6476              		.thumb
 6477              		.thumb_func
 6479              	HAL_TIM_IC_Start_DMA:
 6480              		@ args = 0, pretend = 0, frame = 0
 6481              		@ frame_needed = 0, uses_anonymous_args = 0
 6482 0000 2DE9F041 		push	{r4, r5, r6, r7, r8, lr}
 6483 0004 0446     		mov	r4, r0
 6484 0006 1646     		mov	r6, r2
 6485 0008 1F46     		mov	r7, r3
ARM GAS  C:\Users\Rick\AppData\Local\Temp\cccDRXLh.s 			page 111


 6486 000a 0D46     		mov	r5, r1
 6487 000c 89BB     		cbnz	r1, .L922
 6488 000e 90F83E10 		ldrb	r1, [r0, #62]	@ zero_extendqisi2
 6489 0012 C8B2     		uxtb	r0, r1
 6490 0014 94F84280 		ldrb	r8, [r4, #66]	@ zero_extendqisi2
 6491 0018 5FFA88F8 		uxtb	r8, r8
 6492              	.L923:
 6493 001c 0228     		cmp	r0, #2
 6494 001e 00F0FF80 		beq	.L929
 6495 0022 B8F1020F 		cmp	r8, #2
 6496 0026 00F0F880 		beq	.L945
 6497 002a 0128     		cmp	r0, #1
 6498 002c 40F0F780 		bne	.L946
 6499 0030 B8F1010F 		cmp	r8, #1
 6500 0034 40F0F480 		bne	.L929
 6501 0038 002E     		cmp	r6, #0
 6502 003a 00F0F380 		beq	.L947
 6503 003e 002F     		cmp	r7, #0
 6504 0040 00F0F280 		beq	.L948
 6505 0044 002D     		cmp	r5, #0
 6506 0046 36D1     		bne	.L930
 6507 0048 0223     		movs	r3, #2
 6508 004a 84F83E30 		strb	r3, [r4, #62]
 6509 004e 84F84230 		strb	r3, [r4, #66]
 6510              	.L931:
 6511 0052 0122     		movs	r2, #1
 6512 0054 2946     		mov	r1, r5
 6513 0056 2068     		ldr	r0, [r4]
 6514 0058 FFF7FEFF 		bl	TIM_CCxChannelCmd
 6515 005c 0C2D     		cmp	r5, #12
 6516 005e 62D8     		bhi	.L937
 6517 0060 DFE805F0 		tbb	[pc, r5]
 6518              	.L939:
 6519 0064 48       		.byte	(.L942-.L939)/2
 6520 0065 61       		.byte	(.L937-.L939)/2
 6521 0066 61       		.byte	(.L937-.L939)/2
 6522 0067 61       		.byte	(.L937-.L939)/2
 6523 0068 86       		.byte	(.L941-.L939)/2
 6524 0069 61       		.byte	(.L937-.L939)/2
 6525 006a 61       		.byte	(.L937-.L939)/2
 6526 006b 61       		.byte	(.L937-.L939)/2
 6527 006c 9F       		.byte	(.L940-.L939)/2
 6528 006d 61       		.byte	(.L937-.L939)/2
 6529 006e 61       		.byte	(.L937-.L939)/2
 6530 006f 61       		.byte	(.L937-.L939)/2
 6531 0070 B8       		.byte	(.L938-.L939)/2
 6532 0071 00       		.p2align 1
 6533              	.L922:
 6534 0072 0429     		cmp	r1, #4
 6535 0074 0DD0     		beq	.L956
 6536 0076 0829     		cmp	r1, #8
 6537 0078 0FD0     		beq	.L957
 6538 007a 90F84110 		ldrb	r1, [r0, #65]	@ zero_extendqisi2
 6539 007e C8B2     		uxtb	r0, r1
 6540              	.L925:
 6541 0080 042D     		cmp	r5, #4
 6542 0082 0ED0     		beq	.L958
ARM GAS  C:\Users\Rick\AppData\Local\Temp\cccDRXLh.s 			page 112


 6543 0084 082D     		cmp	r5, #8
 6544 0086 11D0     		beq	.L959
 6545 0088 94F84580 		ldrb	r8, [r4, #69]	@ zero_extendqisi2
 6546 008c 5FFA88F8 		uxtb	r8, r8
 6547 0090 C4E7     		b	.L923
 6548              	.L956:
 6549 0092 90F83F10 		ldrb	r1, [r0, #63]	@ zero_extendqisi2
 6550 0096 C8B2     		uxtb	r0, r1
 6551 0098 F2E7     		b	.L925
 6552              	.L957:
 6553 009a 90F84000 		ldrb	r0, [r0, #64]	@ zero_extendqisi2
 6554 009e C0B2     		uxtb	r0, r0
 6555 00a0 EEE7     		b	.L925
 6556              	.L958:
 6557 00a2 94F84380 		ldrb	r8, [r4, #67]	@ zero_extendqisi2
 6558 00a6 5FFA88F8 		uxtb	r8, r8
 6559 00aa B7E7     		b	.L923
 6560              	.L959:
 6561 00ac 94F84480 		ldrb	r8, [r4, #68]	@ zero_extendqisi2
 6562 00b0 5FFA88F8 		uxtb	r8, r8
 6563 00b4 B2E7     		b	.L923
 6564              	.L930:
 6565 00b6 042D     		cmp	r5, #4
 6566 00b8 0CD0     		beq	.L960
 6567 00ba 082D     		cmp	r5, #8
 6568 00bc 0ED0     		beq	.L961
 6569 00be 0223     		movs	r3, #2
 6570 00c0 84F84130 		strb	r3, [r4, #65]
 6571              	.L933:
 6572 00c4 042D     		cmp	r5, #4
 6573 00c6 0DD0     		beq	.L962
 6574 00c8 082D     		cmp	r5, #8
 6575 00ca 0FD0     		beq	.L963
 6576 00cc 0223     		movs	r3, #2
 6577 00ce 84F84530 		strb	r3, [r4, #69]
 6578 00d2 BEE7     		b	.L931
 6579              	.L960:
 6580 00d4 0223     		movs	r3, #2
 6581 00d6 84F83F30 		strb	r3, [r4, #63]
 6582 00da F3E7     		b	.L933
 6583              	.L961:
 6584 00dc 0223     		movs	r3, #2
 6585 00de 84F84030 		strb	r3, [r4, #64]
 6586 00e2 EFE7     		b	.L933
 6587              	.L962:
 6588 00e4 0223     		movs	r3, #2
 6589 00e6 84F84330 		strb	r3, [r4, #67]
 6590 00ea B2E7     		b	.L931
 6591              	.L963:
 6592 00ec 0223     		movs	r3, #2
 6593 00ee 84F84430 		strb	r3, [r4, #68]
 6594 00f2 AEE7     		b	.L931
 6595              	.L942:
 6596 00f4 636A     		ldr	r3, [r4, #36]
 6597 00f6 524A     		ldr	r2, .L964
 6598 00f8 DA63     		str	r2, [r3, #60]
 6599 00fa 636A     		ldr	r3, [r4, #36]
ARM GAS  C:\Users\Rick\AppData\Local\Temp\cccDRXLh.s 			page 113


 6600 00fc 514A     		ldr	r2, .L964+4
 6601 00fe 1A64     		str	r2, [r3, #64]
 6602 0100 636A     		ldr	r3, [r4, #36]
 6603 0102 514A     		ldr	r2, .L964+8
 6604 0104 DA64     		str	r2, [r3, #76]
 6605 0106 2168     		ldr	r1, [r4]
 6606 0108 3B46     		mov	r3, r7
 6607 010a 3246     		mov	r2, r6
 6608 010c 3431     		adds	r1, r1, #52
 6609 010e 606A     		ldr	r0, [r4, #36]
 6610 0110 FFF7FEFF 		bl	HAL_DMA_Start_IT
 6611 0114 0028     		cmp	r0, #0
 6612 0116 40F08980 		bne	.L949
 6613 011a 2268     		ldr	r2, [r4]
 6614 011c D368     		ldr	r3, [r2, #12]
 6615 011e 43F40073 		orr	r3, r3, #512
 6616 0122 D360     		str	r3, [r2, #12]
 6617 0124 8046     		mov	r8, r0
 6618              	.L937:
 6619 0126 2368     		ldr	r3, [r4]
 6620 0128 484A     		ldr	r2, .L964+12
 6621 012a 9342     		cmp	r3, r2
 6622 012c 6AD0     		beq	.L943
 6623 012e B3F1804F 		cmp	r3, #1073741824
 6624 0132 67D0     		beq	.L943
 6625 0134 A2F57C42 		sub	r2, r2, #64512
 6626 0138 9342     		cmp	r3, r2
 6627 013a 63D0     		beq	.L943
 6628 013c 02F58062 		add	r2, r2, #1024
 6629 0140 9342     		cmp	r3, r2
 6630 0142 5FD0     		beq	.L943
 6631 0144 02F58062 		add	r2, r2, #1024
 6632 0148 9342     		cmp	r3, r2
 6633 014a 5BD0     		beq	.L943
 6634 014c 02F57842 		add	r2, r2, #63488
 6635 0150 9342     		cmp	r3, r2
 6636 0152 57D0     		beq	.L943
 6637 0154 02F57052 		add	r2, r2, #15360
 6638 0158 9342     		cmp	r3, r2
 6639 015a 53D0     		beq	.L943
 6640 015c A2F59432 		sub	r2, r2, #75776
 6641 0160 9342     		cmp	r3, r2
 6642 0162 4FD0     		beq	.L943
 6643 0164 1A68     		ldr	r2, [r3]
 6644 0166 42F00102 		orr	r2, r2, #1
 6645 016a 1A60     		str	r2, [r3]
 6646 016c 4046     		mov	r0, r8
 6647 016e 57E0     		b	.L929
 6648              	.L941:
 6649 0170 A36A     		ldr	r3, [r4, #40]
 6650 0172 334A     		ldr	r2, .L964
 6651 0174 DA63     		str	r2, [r3, #60]
 6652 0176 A36A     		ldr	r3, [r4, #40]
 6653 0178 324A     		ldr	r2, .L964+4
 6654 017a 1A64     		str	r2, [r3, #64]
 6655 017c A36A     		ldr	r3, [r4, #40]
 6656 017e 324A     		ldr	r2, .L964+8
ARM GAS  C:\Users\Rick\AppData\Local\Temp\cccDRXLh.s 			page 114


 6657 0180 DA64     		str	r2, [r3, #76]
 6658 0182 2168     		ldr	r1, [r4]
 6659 0184 3B46     		mov	r3, r7
 6660 0186 3246     		mov	r2, r6
 6661 0188 3831     		adds	r1, r1, #56
 6662 018a A06A     		ldr	r0, [r4, #40]
 6663 018c FFF7FEFF 		bl	HAL_DMA_Start_IT
 6664 0190 0028     		cmp	r0, #0
 6665 0192 4DD1     		bne	.L950
 6666 0194 2268     		ldr	r2, [r4]
 6667 0196 D368     		ldr	r3, [r2, #12]
 6668 0198 43F48063 		orr	r3, r3, #1024
 6669 019c D360     		str	r3, [r2, #12]
 6670 019e 8046     		mov	r8, r0
 6671 01a0 C1E7     		b	.L937
 6672              	.L940:
 6673 01a2 E36A     		ldr	r3, [r4, #44]
 6674 01a4 264A     		ldr	r2, .L964
 6675 01a6 DA63     		str	r2, [r3, #60]
 6676 01a8 E36A     		ldr	r3, [r4, #44]
 6677 01aa 264A     		ldr	r2, .L964+4
 6678 01ac 1A64     		str	r2, [r3, #64]
 6679 01ae E36A     		ldr	r3, [r4, #44]
 6680 01b0 254A     		ldr	r2, .L964+8
 6681 01b2 DA64     		str	r2, [r3, #76]
 6682 01b4 2168     		ldr	r1, [r4]
 6683 01b6 3B46     		mov	r3, r7
 6684 01b8 3246     		mov	r2, r6
 6685 01ba 3C31     		adds	r1, r1, #60
 6686 01bc E06A     		ldr	r0, [r4, #44]
 6687 01be FFF7FEFF 		bl	HAL_DMA_Start_IT
 6688 01c2 0028     		cmp	r0, #0
 6689 01c4 36D1     		bne	.L951
 6690 01c6 2268     		ldr	r2, [r4]
 6691 01c8 D368     		ldr	r3, [r2, #12]
 6692 01ca 43F40063 		orr	r3, r3, #2048
 6693 01ce D360     		str	r3, [r2, #12]
 6694 01d0 8046     		mov	r8, r0
 6695 01d2 A8E7     		b	.L937
 6696              	.L938:
 6697 01d4 236B     		ldr	r3, [r4, #48]
 6698 01d6 1A4A     		ldr	r2, .L964
 6699 01d8 DA63     		str	r2, [r3, #60]
 6700 01da 236B     		ldr	r3, [r4, #48]
 6701 01dc 194A     		ldr	r2, .L964+4
 6702 01de 1A64     		str	r2, [r3, #64]
 6703 01e0 236B     		ldr	r3, [r4, #48]
 6704 01e2 194A     		ldr	r2, .L964+8
 6705 01e4 DA64     		str	r2, [r3, #76]
 6706 01e6 2168     		ldr	r1, [r4]
 6707 01e8 3B46     		mov	r3, r7
 6708 01ea 3246     		mov	r2, r6
 6709 01ec 4031     		adds	r1, r1, #64
 6710 01ee 206B     		ldr	r0, [r4, #48]
 6711 01f0 FFF7FEFF 		bl	HAL_DMA_Start_IT
