ARM GAS  C:\Users\Rick\AppData\Local\Temp\cc8AJ81p.s 			page 1


   1              		.cpu cortex-m4
   2              		.arch armv7e-m
   3              		.fpu fpv4-sp-d16
   4              		.eabi_attribute 27, 1
   5              		.eabi_attribute 28, 1
   6              		.eabi_attribute 20, 1
   7              		.eabi_attribute 21, 1
   8              		.eabi_attribute 23, 3
   9              		.eabi_attribute 24, 1
  10              		.eabi_attribute 25, 1
  11              		.eabi_attribute 26, 1
  12              		.eabi_attribute 30, 1
  13              		.eabi_attribute 34, 1
  14              		.eabi_attribute 18, 4
  15              		.file	"stm32f4xx_hal_adc_ex.c"
  16              		.text
  17              		.section	.text.ADC_MultiModeDMAError,"ax",%progbits
  18              		.align	1
  19              		.syntax unified
  20              		.thumb
  21              		.thumb_func
  23              	ADC_MultiModeDMAError:
  24              		@ args = 0, pretend = 0, frame = 0
  25              		@ frame_needed = 0, uses_anonymous_args = 0
  26 0000 08B5     		push	{r3, lr}
  27 0002 806B     		ldr	r0, [r0, #56]
  28 0004 4023     		movs	r3, #64
  29 0006 0364     		str	r3, [r0, #64]
  30 0008 436C     		ldr	r3, [r0, #68]
  31 000a 43F00403 		orr	r3, r3, #4
  32 000e 4364     		str	r3, [r0, #68]
  33 0010 FFF7FEFF 		bl	HAL_ADC_ErrorCallback
  34 0014 08BD     		pop	{r3, pc}
  36              		.section	.text.ADC_MultiModeDMAHalfConvCplt,"ax",%progbits
  37              		.align	1
  38              		.syntax unified
  39              		.thumb
  40              		.thumb_func
  42              	ADC_MultiModeDMAHalfConvCplt:
  43              		@ args = 0, pretend = 0, frame = 0
  44              		@ frame_needed = 0, uses_anonymous_args = 0
  45 0000 08B5     		push	{r3, lr}
  46 0002 806B     		ldr	r0, [r0, #56]
  47 0004 FFF7FEFF 		bl	HAL_ADC_ConvHalfCpltCallback
  48 0008 08BD     		pop	{r3, pc}
  50              		.section	.text.ADC_MultiModeDMAConvCplt,"ax",%progbits
  51              		.align	1
  52              		.syntax unified
  53              		.thumb
  54              		.thumb_func
  56              	ADC_MultiModeDMAConvCplt:
  57              		@ args = 0, pretend = 0, frame = 0
  58              		@ frame_needed = 0, uses_anonymous_args = 0
  59 0000 08B5     		push	{r3, lr}
  60 0002 836B     		ldr	r3, [r0, #56]
  61 0004 1A6C     		ldr	r2, [r3, #64]
  62 0006 12F0500F 		tst	r2, #80
ARM GAS  C:\Users\Rick\AppData\Local\Temp\cc8AJ81p.s 			page 2


  63 000a 26D1     		bne	.L6
  64 000c 1A6C     		ldr	r2, [r3, #64]
  65 000e 42F40072 		orr	r2, r2, #512
  66 0012 1A64     		str	r2, [r3, #64]
  67 0014 1A68     		ldr	r2, [r3]
  68 0016 9168     		ldr	r1, [r2, #8]
  69 0018 11F0405F 		tst	r1, #805306368
  70 001c 19D1     		bne	.L7
  71 001e 197E     		ldrb	r1, [r3, #24]	@ zero_extendqisi2
  72 0020 B9B9     		cbnz	r1, .L7
  73 0022 D16A     		ldr	r1, [r2, #44]
  74 0024 11F4700F 		tst	r1, #15728640
  75 0028 03D0     		beq	.L8
  76 002a 9168     		ldr	r1, [r2, #8]
  77 002c 11F4806F 		tst	r1, #1024
  78 0030 0FD1     		bne	.L7
  79              	.L8:
  80 0032 5168     		ldr	r1, [r2, #4]
  81 0034 21F02001 		bic	r1, r1, #32
  82 0038 5160     		str	r1, [r2, #4]
  83 003a 1A6C     		ldr	r2, [r3, #64]
  84 003c 22F48072 		bic	r2, r2, #256
  85 0040 1A64     		str	r2, [r3, #64]
  86 0042 1A6C     		ldr	r2, [r3, #64]
  87 0044 12F4805F 		tst	r2, #4096
  88 0048 03D1     		bne	.L7
  89 004a 1A6C     		ldr	r2, [r3, #64]
  90 004c 42F00102 		orr	r2, r2, #1
  91 0050 1A64     		str	r2, [r3, #64]
  92              	.L7:
  93 0052 1846     		mov	r0, r3
  94 0054 FFF7FEFF 		bl	HAL_ADC_ConvCpltCallback
  95              	.L5:
  96 0058 08BD     		pop	{r3, pc}
  97              	.L6:
  98 005a 9B6B     		ldr	r3, [r3, #56]
  99 005c DB6C     		ldr	r3, [r3, #76]
 100 005e 9847     		blx	r3
 101 0060 FAE7     		b	.L5
 103              		.section	.text.HAL_ADCEx_InjectedStart,"ax",%progbits
 104              		.align	1
 105              		.global	HAL_ADCEx_InjectedStart
 106              		.syntax unified
 107              		.thumb
 108              		.thumb_func
 110              	HAL_ADCEx_InjectedStart:
 111              		@ args = 0, pretend = 0, frame = 8
 112              		@ frame_needed = 0, uses_anonymous_args = 0
 113              		@ link register save eliminated.
 114 0000 82B0     		sub	sp, sp, #8
 115 0002 0023     		movs	r3, #0
 116 0004 0193     		str	r3, [sp, #4]
 117 0006 90F83C30 		ldrb	r3, [r0, #60]	@ zero_extendqisi2
 118 000a 012B     		cmp	r3, #1
 119 000c 67D0     		beq	.L19
 120 000e 0123     		movs	r3, #1
 121 0010 80F83C30 		strb	r3, [r0, #60]
ARM GAS  C:\Users\Rick\AppData\Local\Temp\cc8AJ81p.s 			page 3


 122 0014 0368     		ldr	r3, [r0]
 123 0016 9A68     		ldr	r2, [r3, #8]
 124 0018 12F0010F 		tst	r2, #1
 125 001c 13D1     		bne	.L13
 126 001e 9A68     		ldr	r2, [r3, #8]
 127 0020 42F00102 		orr	r2, r2, #1
 128 0024 9A60     		str	r2, [r3, #8]
 129 0026 334B     		ldr	r3, .L27
 130 0028 1B68     		ldr	r3, [r3]
 131 002a 334A     		ldr	r2, .L27+4
 132 002c A2FB0323 		umull	r2, r3, r2, r3
 133 0030 9B0C     		lsrs	r3, r3, #18
 134 0032 03EB4303 		add	r3, r3, r3, lsl #1
 135 0036 0193     		str	r3, [sp, #4]
 136 0038 02E0     		b	.L14
 137              	.L15:
 138 003a 019B     		ldr	r3, [sp, #4]
 139 003c 013B     		subs	r3, r3, #1
 140 003e 0193     		str	r3, [sp, #4]
 141              	.L14:
 142 0040 019B     		ldr	r3, [sp, #4]
 143 0042 002B     		cmp	r3, #0
 144 0044 F9D1     		bne	.L15
 145              	.L13:
 146 0046 0268     		ldr	r2, [r0]
 147 0048 9368     		ldr	r3, [r2, #8]
 148 004a 13F0010F 		tst	r3, #1
 149 004e 3BD0     		beq	.L16
 150 0050 036C     		ldr	r3, [r0, #64]
 151 0052 23F44053 		bic	r3, r3, #12288
 152 0056 23F00103 		bic	r3, r3, #1
 153 005a 43F48053 		orr	r3, r3, #4096
 154 005e 0364     		str	r3, [r0, #64]
 155 0060 036C     		ldr	r3, [r0, #64]
 156 0062 13F4807F 		tst	r3, #256
 157 0066 01D1     		bne	.L17
 158 0068 0023     		movs	r3, #0
 159 006a 4364     		str	r3, [r0, #68]
 160              	.L17:
 161 006c 0023     		movs	r3, #0
 162 006e 80F83C30 		strb	r3, [r0, #60]
 163 0072 6FF00403 		mvn	r3, #4
 164 0076 1360     		str	r3, [r2]
 165 0078 204B     		ldr	r3, .L27+8
 166 007a 5B68     		ldr	r3, [r3, #4]
 167 007c 13F01F0F 		tst	r3, #31
 168 0080 0ED1     		bne	.L18
 169 0082 0268     		ldr	r2, [r0]
 170 0084 9168     		ldr	r1, [r2, #8]
 171 0086 5368     		ldr	r3, [r2, #4]
 172 0088 03F48063 		and	r3, r3, #1024
 173 008c 11F4401F 		tst	r1, #3145728
 174 0090 27D1     		bne	.L20
 175 0092 43BB     		cbnz	r3, .L21
 176 0094 9368     		ldr	r3, [r2, #8]
 177 0096 43F48003 		orr	r3, r3, #4194304
 178 009a 9360     		str	r3, [r2, #8]
ARM GAS  C:\Users\Rick\AppData\Local\Temp\cc8AJ81p.s 			page 4


 179 009c 0020     		movs	r0, #0
 180 009e 1CE0     		b	.L12
 181              	.L18:
 182 00a0 0368     		ldr	r3, [r0]
 183 00a2 9A68     		ldr	r2, [r3, #8]
 184 00a4 02F44012 		and	r2, r2, #3145728
 185 00a8 5968     		ldr	r1, [r3, #4]
 186 00aa 01F48061 		and	r1, r1, #1024
 187 00ae 1448     		ldr	r0, .L27+12
 188 00b0 8342     		cmp	r3, r0
 189 00b2 01D0     		beq	.L26
 190 00b4 0020     		movs	r0, #0
 191 00b6 10E0     		b	.L12
 192              	.L26:
 193 00b8 BAB9     		cbnz	r2, .L23
 194 00ba C1B9     		cbnz	r1, .L24
 195 00bc 9A68     		ldr	r2, [r3, #8]
 196 00be 42F48002 		orr	r2, r2, #4194304
 197 00c2 9A60     		str	r2, [r3, #8]
 198 00c4 0020     		movs	r0, #0
 199 00c6 08E0     		b	.L12
 200              	.L16:
 201 00c8 036C     		ldr	r3, [r0, #64]
 202 00ca 43F01003 		orr	r3, r3, #16
 203 00ce 0364     		str	r3, [r0, #64]
 204 00d0 436C     		ldr	r3, [r0, #68]
 205 00d2 43F00103 		orr	r3, r3, #1
 206 00d6 4364     		str	r3, [r0, #68]
 207 00d8 0020     		movs	r0, #0
 208              	.L12:
 209 00da 02B0     		add	sp, sp, #8
 210              		@ sp needed
 211 00dc 7047     		bx	lr
 212              	.L19:
 213 00de 0220     		movs	r0, #2
 214 00e0 FBE7     		b	.L12
 215              	.L20:
 216 00e2 0020     		movs	r0, #0
 217 00e4 F9E7     		b	.L12
 218              	.L21:
 219 00e6 0020     		movs	r0, #0
 220 00e8 F7E7     		b	.L12
 221              	.L23:
 222 00ea 0020     		movs	r0, #0
 223 00ec F5E7     		b	.L12
 224              	.L24:
 225 00ee 0020     		movs	r0, #0
 226 00f0 F3E7     		b	.L12
 227              	.L28:
 228 00f2 00BF     		.align	2
 229              	.L27:
 230 00f4 00000000 		.word	SystemCoreClock
 231 00f8 83DE1B43 		.word	1125899907
 232 00fc 00230140 		.word	1073816320
 233 0100 00200140 		.word	1073815552
 235              		.section	.text.HAL_ADCEx_InjectedStart_IT,"ax",%progbits
 236              		.align	1
ARM GAS  C:\Users\Rick\AppData\Local\Temp\cc8AJ81p.s 			page 5


 237              		.global	HAL_ADCEx_InjectedStart_IT
 238              		.syntax unified
 239              		.thumb
 240              		.thumb_func
 242              	HAL_ADCEx_InjectedStart_IT:
 243              		@ args = 0, pretend = 0, frame = 8
 244              		@ frame_needed = 0, uses_anonymous_args = 0
 245              		@ link register save eliminated.
 246 0000 82B0     		sub	sp, sp, #8
 247 0002 0023     		movs	r3, #0
 248 0004 0193     		str	r3, [sp, #4]
 249 0006 90F83C30 		ldrb	r3, [r0, #60]	@ zero_extendqisi2
 250 000a 012B     		cmp	r3, #1
 251 000c 6CD0     		beq	.L37
 252 000e 0123     		movs	r3, #1
 253 0010 80F83C30 		strb	r3, [r0, #60]
 254 0014 0368     		ldr	r3, [r0]
 255 0016 9A68     		ldr	r2, [r3, #8]
 256 0018 12F0010F 		tst	r2, #1
 257 001c 13D1     		bne	.L31
 258 001e 9A68     		ldr	r2, [r3, #8]
 259 0020 42F00102 		orr	r2, r2, #1
 260 0024 9A60     		str	r2, [r3, #8]
 261 0026 354B     		ldr	r3, .L45
 262 0028 1B68     		ldr	r3, [r3]
 263 002a 354A     		ldr	r2, .L45+4
 264 002c A2FB0323 		umull	r2, r3, r2, r3
 265 0030 9B0C     		lsrs	r3, r3, #18
 266 0032 03EB4303 		add	r3, r3, r3, lsl #1
 267 0036 0193     		str	r3, [sp, #4]
 268 0038 02E0     		b	.L32
 269              	.L33:
 270 003a 019B     		ldr	r3, [sp, #4]
 271 003c 013B     		subs	r3, r3, #1
 272 003e 0193     		str	r3, [sp, #4]
 273              	.L32:
 274 0040 019B     		ldr	r3, [sp, #4]
 275 0042 002B     		cmp	r3, #0
 276 0044 F9D1     		bne	.L33
 277              	.L31:
 278 0046 0268     		ldr	r2, [r0]
 279 0048 9368     		ldr	r3, [r2, #8]
 280 004a 13F0010F 		tst	r3, #1
 281 004e 40D0     		beq	.L34
 282 0050 036C     		ldr	r3, [r0, #64]
 283 0052 23F44053 		bic	r3, r3, #12288
 284 0056 23F00103 		bic	r3, r3, #1
 285 005a 43F48053 		orr	r3, r3, #4096
 286 005e 0364     		str	r3, [r0, #64]
 287 0060 036C     		ldr	r3, [r0, #64]
 288 0062 13F4807F 		tst	r3, #256
 289 0066 01D1     		bne	.L35
 290 0068 0023     		movs	r3, #0
 291 006a 4364     		str	r3, [r0, #68]
 292              	.L35:
 293 006c 0023     		movs	r3, #0
 294 006e 80F83C30 		strb	r3, [r0, #60]
ARM GAS  C:\Users\Rick\AppData\Local\Temp\cc8AJ81p.s 			page 6


 295 0072 6FF00403 		mvn	r3, #4
 296 0076 1360     		str	r3, [r2]
 297 0078 0268     		ldr	r2, [r0]
 298 007a 5368     		ldr	r3, [r2, #4]
 299 007c 43F08003 		orr	r3, r3, #128
 300 0080 5360     		str	r3, [r2, #4]
 301 0082 204B     		ldr	r3, .L45+8
 302 0084 5B68     		ldr	r3, [r3, #4]
 303 0086 13F01F0F 		tst	r3, #31
 304 008a 0ED1     		bne	.L36
 305 008c 0268     		ldr	r2, [r0]
 306 008e 9168     		ldr	r1, [r2, #8]
 307 0090 5368     		ldr	r3, [r2, #4]
 308 0092 03F48063 		and	r3, r3, #1024
 309 0096 11F4401F 		tst	r1, #3145728
 310 009a 27D1     		bne	.L38
 311 009c 43BB     		cbnz	r3, .L39
 312 009e 9368     		ldr	r3, [r2, #8]
 313 00a0 43F48003 		orr	r3, r3, #4194304
 314 00a4 9360     		str	r3, [r2, #8]
 315 00a6 0020     		movs	r0, #0
 316 00a8 1CE0     		b	.L30
 317              	.L36:
 318 00aa 0368     		ldr	r3, [r0]
 319 00ac 9A68     		ldr	r2, [r3, #8]
 320 00ae 02F44012 		and	r2, r2, #3145728
 321 00b2 5968     		ldr	r1, [r3, #4]
 322 00b4 01F48061 		and	r1, r1, #1024
 323 00b8 1348     		ldr	r0, .L45+12
 324 00ba 8342     		cmp	r3, r0
 325 00bc 01D0     		beq	.L44
 326 00be 0020     		movs	r0, #0
 327 00c0 10E0     		b	.L30
 328              	.L44:
 329 00c2 BAB9     		cbnz	r2, .L41
 330 00c4 C1B9     		cbnz	r1, .L42
 331 00c6 9A68     		ldr	r2, [r3, #8]
 332 00c8 42F48002 		orr	r2, r2, #4194304
 333 00cc 9A60     		str	r2, [r3, #8]
 334 00ce 0020     		movs	r0, #0
 335 00d0 08E0     		b	.L30
 336              	.L34:
 337 00d2 036C     		ldr	r3, [r0, #64]
 338 00d4 43F01003 		orr	r3, r3, #16
 339 00d8 0364     		str	r3, [r0, #64]
 340 00da 436C     		ldr	r3, [r0, #68]
 341 00dc 43F00103 		orr	r3, r3, #1
 342 00e0 4364     		str	r3, [r0, #68]
 343 00e2 0020     		movs	r0, #0
 344              	.L30:
 345 00e4 02B0     		add	sp, sp, #8
 346              		@ sp needed
 347 00e6 7047     		bx	lr
 348              	.L37:
 349 00e8 0220     		movs	r0, #2
 350 00ea FBE7     		b	.L30
 351              	.L38:
ARM GAS  C:\Users\Rick\AppData\Local\Temp\cc8AJ81p.s 			page 7


 352 00ec 0020     		movs	r0, #0
 353 00ee F9E7     		b	.L30
 354              	.L39:
 355 00f0 0020     		movs	r0, #0
 356 00f2 F7E7     		b	.L30
 357              	.L41:
 358 00f4 0020     		movs	r0, #0
 359 00f6 F5E7     		b	.L30
 360              	.L42:
 361 00f8 0020     		movs	r0, #0
 362 00fa F3E7     		b	.L30
 363              	.L46:
 364              		.align	2
 365              	.L45:
 366 00fc 00000000 		.word	SystemCoreClock
 367 0100 83DE1B43 		.word	1125899907
 368 0104 00230140 		.word	1073816320
 369 0108 00200140 		.word	1073815552
 371              		.section	.text.HAL_ADCEx_InjectedStop,"ax",%progbits
 372              		.align	1
 373              		.global	HAL_ADCEx_InjectedStop
 374              		.syntax unified
 375              		.thumb
 376              		.thumb_func
 378              	HAL_ADCEx_InjectedStop:
 379              		@ args = 0, pretend = 0, frame = 0
 380              		@ frame_needed = 0, uses_anonymous_args = 0
 381              		@ link register save eliminated.
 382 0000 0346     		mov	r3, r0
 383 0002 90F83C20 		ldrb	r2, [r0, #60]	@ zero_extendqisi2
 384 0006 012A     		cmp	r2, #1
 385 0008 29D0     		beq	.L51
 386 000a 0122     		movs	r2, #1
 387 000c 80F83C20 		strb	r2, [r0, #60]
 388 0010 026C     		ldr	r2, [r0, #64]
 389 0012 12F4807F 		tst	r2, #256
 390 0016 17D1     		bne	.L49
 391 0018 0268     		ldr	r2, [r0]
 392 001a 5168     		ldr	r1, [r2, #4]
 393 001c 11F4806F 		tst	r1, #1024
 394 0020 12D1     		bne	.L49
 395 0022 9168     		ldr	r1, [r2, #8]
 396 0024 21F00101 		bic	r1, r1, #1
 397 0028 9160     		str	r1, [r2, #8]
 398 002a 0268     		ldr	r2, [r0]
 399 002c 9268     		ldr	r2, [r2, #8]
 400 002e 12F0010F 		tst	r2, #1
 401 0032 12D1     		bne	.L52
 402 0034 026C     		ldr	r2, [r0, #64]
 403 0036 22F48852 		bic	r2, r2, #4352
 404 003a 22F00102 		bic	r2, r2, #1
 405 003e 42F00102 		orr	r2, r2, #1
 406 0042 0264     		str	r2, [r0, #64]
 407 0044 0020     		movs	r0, #0
 408 0046 04E0     		b	.L50
 409              	.L49:
 410 0048 1A6C     		ldr	r2, [r3, #64]
ARM GAS  C:\Users\Rick\AppData\Local\Temp\cc8AJ81p.s 			page 8


 411 004a 42F02002 		orr	r2, r2, #32
 412 004e 1A64     		str	r2, [r3, #64]
 413 0050 0120     		movs	r0, #1
 414              	.L50:
 415 0052 0022     		movs	r2, #0
 416 0054 83F83C20 		strb	r2, [r3, #60]
 417 0058 7047     		bx	lr
 418              	.L52:
 419 005a 0020     		movs	r0, #0
 420 005c F9E7     		b	.L50
 421              	.L51:
 422 005e 0220     		movs	r0, #2
 423 0060 7047     		bx	lr
 425              		.section	.text.HAL_ADCEx_InjectedPollForConversion,"ax",%progbits
 426              		.align	1
 427              		.global	HAL_ADCEx_InjectedPollForConversion
 428              		.syntax unified
 429              		.thumb
 430              		.thumb_func
 432              	HAL_ADCEx_InjectedPollForConversion:
 433              		@ args = 0, pretend = 0, frame = 0
 434              		@ frame_needed = 0, uses_anonymous_args = 0
 435 0000 70B5     		push	{r4, r5, r6, lr}
 436 0002 0446     		mov	r4, r0
 437 0004 0D46     		mov	r5, r1
 438 0006 FFF7FEFF 		bl	HAL_GetTick
 439 000a 0646     		mov	r6, r0
 440              	.L55:
 441 000c 2368     		ldr	r3, [r4]
 442 000e 1A68     		ldr	r2, [r3]
 443 0010 12F0040F 		tst	r2, #4
 444 0014 15D1     		bne	.L67
 445 0016 B5F1FF3F 		cmp	r5, #-1
 446 001a F7D0     		beq	.L55
 447 001c 5DB9     		cbnz	r5, .L68
 448              	.L56:
 449 001e 2368     		ldr	r3, [r4]
 450 0020 1B68     		ldr	r3, [r3]
 451 0022 13F0040F 		tst	r3, #4
 452 0026 F1D1     		bne	.L55
 453 0028 0423     		movs	r3, #4
 454 002a 2364     		str	r3, [r4, #64]
 455 002c 0023     		movs	r3, #0
 456 002e 84F83C30 		strb	r3, [r4, #60]
 457 0032 0320     		movs	r0, #3
 458 0034 31E0     		b	.L58
 459              	.L68:
 460 0036 FFF7FEFF 		bl	HAL_GetTick
 461 003a 801B     		subs	r0, r0, r6
 462 003c A842     		cmp	r0, r5
 463 003e E5D9     		bls	.L55
 464 0040 EDE7     		b	.L56
 465              	.L67:
 466 0042 6FF00C02 		mvn	r2, #12
 467 0046 1A60     		str	r2, [r3]
 468 0048 236C     		ldr	r3, [r4, #64]
 469 004a 43F40053 		orr	r3, r3, #8192
ARM GAS  C:\Users\Rick\AppData\Local\Temp\cc8AJ81p.s 			page 9


 470 004e 2364     		str	r3, [r4, #64]
 471 0050 2368     		ldr	r3, [r4]
 472 0052 9A68     		ldr	r2, [r3, #8]
 473 0054 12F4401F 		tst	r2, #3145728
 474 0058 1ED1     		bne	.L61
 475 005a 9A6B     		ldr	r2, [r3, #56]
 476 005c 12F4401F 		tst	r2, #3145728
 477 0060 03D0     		beq	.L60
 478 0062 9A68     		ldr	r2, [r3, #8]
 479 0064 12F4806F 		tst	r2, #1024
 480 0068 18D1     		bne	.L62
 481              	.L60:
 482 006a 5A68     		ldr	r2, [r3, #4]
 483 006c 12F4806F 		tst	r2, #1024
 484 0070 16D1     		bne	.L63
 485 0072 9B68     		ldr	r3, [r3, #8]
 486 0074 13F0405F 		tst	r3, #805306368
 487 0078 14D1     		bne	.L64
 488 007a 207E     		ldrb	r0, [r4, #24]	@ zero_extendqisi2
 489 007c A0B9     		cbnz	r0, .L65
 490 007e 236C     		ldr	r3, [r4, #64]
 491 0080 23F48053 		bic	r3, r3, #4096
 492 0084 2364     		str	r3, [r4, #64]
 493 0086 236C     		ldr	r3, [r4, #64]
 494 0088 13F4807F 		tst	r3, #256
 495 008c 05D1     		bne	.L58
 496 008e 236C     		ldr	r3, [r4, #64]
 497 0090 43F00103 		orr	r3, r3, #1
 498 0094 2364     		str	r3, [r4, #64]
 499 0096 00E0     		b	.L58
 500              	.L61:
 501 0098 0020     		movs	r0, #0
 502              	.L58:
 503 009a 70BD     		pop	{r4, r5, r6, pc}
 504              	.L62:
 505 009c 0020     		movs	r0, #0
 506 009e FCE7     		b	.L58
 507              	.L63:
 508 00a0 0020     		movs	r0, #0
 509 00a2 FAE7     		b	.L58
 510              	.L64:
 511 00a4 0020     		movs	r0, #0
 512 00a6 F8E7     		b	.L58
 513              	.L65:
 514 00a8 0020     		movs	r0, #0
 515 00aa F6E7     		b	.L58
 517              		.section	.text.HAL_ADCEx_InjectedStop_IT,"ax",%progbits
 518              		.align	1
 519              		.global	HAL_ADCEx_InjectedStop_IT
 520              		.syntax unified
 521              		.thumb
 522              		.thumb_func
 524              	HAL_ADCEx_InjectedStop_IT:
 525              		@ args = 0, pretend = 0, frame = 0
 526              		@ frame_needed = 0, uses_anonymous_args = 0
 527              		@ link register save eliminated.
 528 0000 0346     		mov	r3, r0
ARM GAS  C:\Users\Rick\AppData\Local\Temp\cc8AJ81p.s 			page 10


 529 0002 90F83C20 		ldrb	r2, [r0, #60]	@ zero_extendqisi2
 530 0006 012A     		cmp	r2, #1
 531 0008 2DD0     		beq	.L73
 532 000a 0122     		movs	r2, #1
 533 000c 80F83C20 		strb	r2, [r0, #60]
 534 0010 026C     		ldr	r2, [r0, #64]
 535 0012 12F4807F 		tst	r2, #256
 536 0016 1BD1     		bne	.L71
 537 0018 0268     		ldr	r2, [r0]
 538 001a 5168     		ldr	r1, [r2, #4]
 539 001c 11F4806F 		tst	r1, #1024
 540 0020 16D1     		bne	.L71
 541 0022 9168     		ldr	r1, [r2, #8]
 542 0024 21F00101 		bic	r1, r1, #1
 543 0028 9160     		str	r1, [r2, #8]
 544 002a 0268     		ldr	r2, [r0]
 545 002c 9168     		ldr	r1, [r2, #8]
 546 002e 11F0010F 		tst	r1, #1
 547 0032 16D1     		bne	.L74
 548 0034 5168     		ldr	r1, [r2, #4]
 549 0036 21F08001 		bic	r1, r1, #128
 550 003a 5160     		str	r1, [r2, #4]
 551 003c 026C     		ldr	r2, [r0, #64]
 552 003e 22F48852 		bic	r2, r2, #4352
 553 0042 22F00102 		bic	r2, r2, #1
 554 0046 42F00102 		orr	r2, r2, #1
 555 004a 0264     		str	r2, [r0, #64]
 556 004c 0020     		movs	r0, #0
 557 004e 04E0     		b	.L72
 558              	.L71:
 559 0050 1A6C     		ldr	r2, [r3, #64]
 560 0052 42F02002 		orr	r2, r2, #32
 561 0056 1A64     		str	r2, [r3, #64]
 562 0058 0120     		movs	r0, #1
 563              	.L72:
 564 005a 0022     		movs	r2, #0
 565 005c 83F83C20 		strb	r2, [r3, #60]
 566 0060 7047     		bx	lr
 567              	.L74:
 568 0062 0020     		movs	r0, #0
 569 0064 F9E7     		b	.L72
 570              	.L73:
 571 0066 0220     		movs	r0, #2
 572 0068 7047     		bx	lr
 574              		.section	.text.HAL_ADCEx_InjectedGetValue,"ax",%progbits
 575              		.align	1
 576              		.global	HAL_ADCEx_InjectedGetValue
 577              		.syntax unified
 578              		.thumb
 579              		.thumb_func
 581              	HAL_ADCEx_InjectedGetValue:
 582              		@ args = 0, pretend = 0, frame = 8
 583              		@ frame_needed = 0, uses_anonymous_args = 0
 584              		@ link register save eliminated.
 585 0000 82B0     		sub	sp, sp, #8
 586 0002 0023     		movs	r3, #0
 587 0004 0193     		str	r3, [sp, #4]
ARM GAS  C:\Users\Rick\AppData\Local\Temp\cc8AJ81p.s 			page 11


 588 0006 0368     		ldr	r3, [r0]
 589 0008 6FF00402 		mvn	r2, #4
 590 000c 1A60     		str	r2, [r3]
 591 000e 0139     		subs	r1, r1, #1
 592 0010 0329     		cmp	r1, #3
 593 0012 06D8     		bhi	.L76
 594 0014 DFE801F0 		tbb	[pc, r1]
 595              	.L78:
 596 0018 10       		.byte	(.L81-.L78)/2
 597 0019 0C       		.byte	(.L80-.L78)/2
 598 001a 08       		.byte	(.L79-.L78)/2
 599 001b 02       		.byte	(.L77-.L78)/2
 600              		.p2align 1
 601              	.L77:
 602 001c 0368     		ldr	r3, [r0]
 603 001e 9B6C     		ldr	r3, [r3, #72]
 604 0020 0193     		str	r3, [sp, #4]
 605              	.L76:
 606 0022 0198     		ldr	r0, [sp, #4]
 607 0024 02B0     		add	sp, sp, #8
 608              		@ sp needed
 609 0026 7047     		bx	lr
 610              	.L79:
 611 0028 0368     		ldr	r3, [r0]
 612 002a 5B6C     		ldr	r3, [r3, #68]
 613 002c 0193     		str	r3, [sp, #4]
 614 002e F8E7     		b	.L76
 615              	.L80:
 616 0030 0368     		ldr	r3, [r0]
 617 0032 1B6C     		ldr	r3, [r3, #64]
 618 0034 0193     		str	r3, [sp, #4]
 619 0036 F4E7     		b	.L76
 620              	.L81:
 621 0038 0368     		ldr	r3, [r0]
 622 003a DB6B     		ldr	r3, [r3, #60]
 623 003c 0193     		str	r3, [sp, #4]
 624 003e F0E7     		b	.L76
 626              		.section	.text.HAL_ADCEx_MultiModeStart_DMA,"ax",%progbits
 627              		.align	1
 628              		.global	HAL_ADCEx_MultiModeStart_DMA
 629              		.syntax unified
 630              		.thumb
 631              		.thumb_func
 633              	HAL_ADCEx_MultiModeStart_DMA:
 634              		@ args = 0, pretend = 0, frame = 8
 635              		@ frame_needed = 0, uses_anonymous_args = 0
 636 0000 10B5     		push	{r4, lr}
 637 0002 82B0     		sub	sp, sp, #8
 638 0004 1346     		mov	r3, r2
 639 0006 0022     		movs	r2, #0
 640 0008 0192     		str	r2, [sp, #4]
 641 000a 90F83C20 		ldrb	r2, [r0, #60]	@ zero_extendqisi2
 642 000e 012A     		cmp	r2, #1
 643 0010 7CD0     		beq	.L95
 644 0012 0446     		mov	r4, r0
 645 0014 0122     		movs	r2, #1
 646 0016 80F83C20 		strb	r2, [r0, #60]
ARM GAS  C:\Users\Rick\AppData\Local\Temp\cc8AJ81p.s 			page 12


 647 001a 0268     		ldr	r2, [r0]
 648 001c 9068     		ldr	r0, [r2, #8]
 649 001e 10F0010F 		tst	r0, #1
 650 0022 13D1     		bne	.L86
 651 0024 9068     		ldr	r0, [r2, #8]
 652 0026 40F00100 		orr	r0, r0, #1
 653 002a 9060     		str	r0, [r2, #8]
 654 002c 394A     		ldr	r2, .L98
 655 002e 1068     		ldr	r0, [r2]
 656 0030 394A     		ldr	r2, .L98+4
 657 0032 A2FB0020 		umull	r2, r0, r2, r0
 658 0036 800C     		lsrs	r0, r0, #18
 659 0038 00EB4000 		add	r0, r0, r0, lsl #1
 660 003c 0190     		str	r0, [sp, #4]
 661 003e 02E0     		b	.L87
 662              	.L88:
 663 0040 0198     		ldr	r0, [sp, #4]
 664 0042 0138     		subs	r0, r0, #1
 665 0044 0190     		str	r0, [sp, #4]
 666              	.L87:
 667 0046 0198     		ldr	r0, [sp, #4]
 668 0048 0028     		cmp	r0, #0
 669 004a F9D1     		bne	.L88
 670              	.L86:
 671 004c 2268     		ldr	r2, [r4]
 672 004e 9068     		ldr	r0, [r2, #8]
 673 0050 10F0010F 		tst	r0, #1
 674 0054 4FD0     		beq	.L89
 675 0056 206C     		ldr	r0, [r4, #64]
 676 0058 20F4E060 		bic	r0, r0, #1792
 677 005c 20F00100 		bic	r0, r0, #1
 678 0060 40F48070 		orr	r0, r0, #256
 679 0064 2064     		str	r0, [r4, #64]
 680 0066 5268     		ldr	r2, [r2, #4]
 681 0068 12F4806F 		tst	r2, #1024
 682 006c 05D0     		beq	.L90
 683 006e 226C     		ldr	r2, [r4, #64]
 684 0070 22F44052 		bic	r2, r2, #12288
 685 0074 42F48052 		orr	r2, r2, #4096
 686 0078 2264     		str	r2, [r4, #64]
 687              	.L90:
 688 007a 226C     		ldr	r2, [r4, #64]
 689 007c 12F4805F 		tst	r2, #4096
 690 0080 30D0     		beq	.L91
 691 0082 626C     		ldr	r2, [r4, #68]
 692 0084 22F00602 		bic	r2, r2, #6
 693 0088 6264     		str	r2, [r4, #68]
 694              	.L92:
 695 008a 0022     		movs	r2, #0
 696 008c 84F83C20 		strb	r2, [r4, #60]
 697 0090 A26B     		ldr	r2, [r4, #56]
 698 0092 2248     		ldr	r0, .L98+8
 699 0094 D063     		str	r0, [r2, #60]
 700 0096 A26B     		ldr	r2, [r4, #56]
 701 0098 2148     		ldr	r0, .L98+12
 702 009a 1064     		str	r0, [r2, #64]
 703 009c A26B     		ldr	r2, [r4, #56]
ARM GAS  C:\Users\Rick\AppData\Local\Temp\cc8AJ81p.s 			page 13


 704 009e 2148     		ldr	r0, .L98+16
 705 00a0 D064     		str	r0, [r2, #76]
 706 00a2 2268     		ldr	r2, [r4]
 707 00a4 6FF00200 		mvn	r0, #2
 708 00a8 1060     		str	r0, [r2]
 709 00aa 2068     		ldr	r0, [r4]
 710 00ac 4268     		ldr	r2, [r0, #4]
 711 00ae 42F08062 		orr	r2, r2, #67108864
 712 00b2 4260     		str	r2, [r0, #4]
 713 00b4 94F83020 		ldrb	r2, [r4, #48]	@ zero_extendqisi2
 714 00b8 BAB1     		cbz	r2, .L93
 715 00ba 1B48     		ldr	r0, .L98+20
 716 00bc 4268     		ldr	r2, [r0, #4]
 717 00be 42F40052 		orr	r2, r2, #8192
 718 00c2 4260     		str	r2, [r0, #4]
 719              	.L94:
 720 00c4 0A46     		mov	r2, r1
 721 00c6 1949     		ldr	r1, .L98+24
 722 00c8 A06B     		ldr	r0, [r4, #56]
 723 00ca FFF7FEFF 		bl	HAL_DMA_Start_IT
 724 00ce 2368     		ldr	r3, [r4]
 725 00d0 9A68     		ldr	r2, [r3, #8]
 726 00d2 12F0405F 		tst	r2, #805306368
 727 00d6 1BD1     		bne	.L96
 728 00d8 9A68     		ldr	r2, [r3, #8]
 729 00da 42F08042 		orr	r2, r2, #1073741824
 730 00de 9A60     		str	r2, [r3, #8]
 731 00e0 0020     		movs	r0, #0
 732 00e2 11E0     		b	.L85
 733              	.L91:
 734 00e4 0022     		movs	r2, #0
 735 00e6 6264     		str	r2, [r4, #68]
 736 00e8 CFE7     		b	.L92
 737              	.L93:
 738 00ea 0F48     		ldr	r0, .L98+20
 739 00ec 4268     		ldr	r2, [r0, #4]
 740 00ee 22F40052 		bic	r2, r2, #8192
 741 00f2 4260     		str	r2, [r0, #4]
 742 00f4 E6E7     		b	.L94
 743              	.L89:
 744 00f6 236C     		ldr	r3, [r4, #64]
 745 00f8 43F01003 		orr	r3, r3, #16
 746 00fc 2364     		str	r3, [r4, #64]
 747 00fe 636C     		ldr	r3, [r4, #68]
 748 0100 43F00103 		orr	r3, r3, #1
 749 0104 6364     		str	r3, [r4, #68]
 750 0106 0020     		movs	r0, #0
 751              	.L85:
 752 0108 02B0     		add	sp, sp, #8
 753              		@ sp needed
 754 010a 10BD     		pop	{r4, pc}
 755              	.L95:
 756 010c 0220     		movs	r0, #2
 757 010e FBE7     		b	.L85
 758              	.L96:
 759 0110 0020     		movs	r0, #0
 760 0112 F9E7     		b	.L85
ARM GAS  C:\Users\Rick\AppData\Local\Temp\cc8AJ81p.s 			page 14


 761              	.L99:
 762              		.align	2
 763              	.L98:
 764 0114 00000000 		.word	SystemCoreClock
 765 0118 83DE1B43 		.word	1125899907
 766 011c 00000000 		.word	ADC_MultiModeDMAConvCplt
 767 0120 00000000 		.word	ADC_MultiModeDMAHalfConvCplt
 768 0124 00000000 		.word	ADC_MultiModeDMAError
 769 0128 00230140 		.word	1073816320
 770 012c 08230140 		.word	1073816328
 772              		.section	.text.HAL_ADCEx_MultiModeStop_DMA,"ax",%progbits
 773              		.align	1
 774              		.global	HAL_ADCEx_MultiModeStop_DMA
 775              		.syntax unified
 776              		.thumb
 777              		.thumb_func
 779              	HAL_ADCEx_MultiModeStop_DMA:
 780              		@ args = 0, pretend = 0, frame = 0
 781              		@ frame_needed = 0, uses_anonymous_args = 0
 782 0000 90F83C30 		ldrb	r3, [r0, #60]	@ zero_extendqisi2
 783 0004 012B     		cmp	r3, #1
 784 0006 29D0     		beq	.L103
 785 0008 10B5     		push	{r4, lr}
 786 000a 0446     		mov	r4, r0
 787 000c 0123     		movs	r3, #1
 788 000e 80F83C30 		strb	r3, [r0, #60]
 789 0012 0268     		ldr	r2, [r0]
 790 0014 9368     		ldr	r3, [r2, #8]
 791 0016 23F00103 		bic	r3, r3, #1
 792 001a 9360     		str	r3, [r2, #8]
 793 001c 0368     		ldr	r3, [r0]
 794 001e 9B68     		ldr	r3, [r3, #8]
 795 0020 13F0010F 		tst	r3, #1
 796 0024 04D0     		beq	.L109
 797 0026 0020     		movs	r0, #0
 798              	.L102:
 799 0028 0023     		movs	r3, #0
 800 002a 84F83C30 		strb	r3, [r4, #60]
 801 002e 10BD     		pop	{r4, pc}
 802              	.L109:
 803 0030 0B4A     		ldr	r2, .L110
 804 0032 5368     		ldr	r3, [r2, #4]
 805 0034 23F40053 		bic	r3, r3, #8192
 806 0038 5360     		str	r3, [r2, #4]
 807 003a 806B     		ldr	r0, [r0, #56]
 808 003c FFF7FEFF 		bl	HAL_DMA_Abort
 809 0040 2268     		ldr	r2, [r4]
 810 0042 5368     		ldr	r3, [r2, #4]
 811 0044 23F08063 		bic	r3, r3, #67108864
 812 0048 5360     		str	r3, [r2, #4]
 813 004a 236C     		ldr	r3, [r4, #64]
 814 004c 23F48853 		bic	r3, r3, #4352
 815 0050 23F00103 		bic	r3, r3, #1
 816 0054 43F00103 		orr	r3, r3, #1
 817 0058 2364     		str	r3, [r4, #64]
 818 005a E5E7     		b	.L102
 819              	.L103:
ARM GAS  C:\Users\Rick\AppData\Local\Temp\cc8AJ81p.s 			page 15


 820 005c 0220     		movs	r0, #2
 821 005e 7047     		bx	lr
 822              	.L111:
 823              		.align	2
 824              	.L110:
 825 0060 00230140 		.word	1073816320
 827              		.section	.text.HAL_ADCEx_MultiModeGetValue,"ax",%progbits
 828              		.align	1
 829              		.global	HAL_ADCEx_MultiModeGetValue
 830              		.syntax unified
 831              		.thumb
 832              		.thumb_func
 834              	HAL_ADCEx_MultiModeGetValue:
 835              		@ args = 0, pretend = 0, frame = 0
 836              		@ frame_needed = 0, uses_anonymous_args = 0
 837              		@ link register save eliminated.
 838 0000 014B     		ldr	r3, .L113
 839 0002 9868     		ldr	r0, [r3, #8]
 840 0004 7047     		bx	lr
 841              	.L114:
 842 0006 00BF     		.align	2
 843              	.L113:
 844 0008 00230140 		.word	1073816320
 846              		.section	.text.HAL_ADCEx_InjectedConvCpltCallback,"ax",%progbits
 847              		.align	1
 848              		.weak	HAL_ADCEx_InjectedConvCpltCallback
 849              		.syntax unified
 850              		.thumb
 851              		.thumb_func
 853              	HAL_ADCEx_InjectedConvCpltCallback:
 854              		@ args = 0, pretend = 0, frame = 0
 855              		@ frame_needed = 0, uses_anonymous_args = 0
 856              		@ link register save eliminated.
 857 0000 7047     		bx	lr
 859              		.section	.text.HAL_ADCEx_InjectedConfigChannel,"ax",%progbits
 860              		.align	1
 861              		.global	HAL_ADCEx_InjectedConfigChannel
 862              		.syntax unified
 863              		.thumb
 864              		.thumb_func
 866              	HAL_ADCEx_InjectedConfigChannel:
 867              		@ args = 0, pretend = 0, frame = 0
 868              		@ frame_needed = 0, uses_anonymous_args = 0
 869              		@ link register save eliminated.
 870 0000 90F83C20 		ldrb	r2, [r0, #60]	@ zero_extendqisi2
 871 0004 012A     		cmp	r2, #1
 872 0006 00F0F480 		beq	.L133
 873 000a 30B4     		push	{r4, r5}
 874 000c 0346     		mov	r3, r0
 875 000e 0122     		movs	r2, #1
 876 0010 80F83C20 		strb	r2, [r0, #60]
 877 0014 0A68     		ldr	r2, [r1]
 878 0016 092A     		cmp	r2, #9
 879 0018 40F28980 		bls	.L118
 880 001c 0568     		ldr	r5, [r0]
 881 001e E868     		ldr	r0, [r5, #12]
 882 0020 92B2     		uxth	r2, r2
ARM GAS  C:\Users\Rick\AppData\Local\Temp\cc8AJ81p.s 			page 16


 883 0022 02EB4202 		add	r2, r2, r2, lsl #1
 884 0026 1E3A     		subs	r2, r2, #30
 885 0028 0724     		movs	r4, #7
 886 002a 04FA02F2 		lsl	r2, r4, r2
 887 002e 20EA0202 		bic	r2, r0, r2
 888 0032 EA60     		str	r2, [r5, #12]
 889 0034 1D68     		ldr	r5, [r3]
 890 0036 E868     		ldr	r0, [r5, #12]
 891 0038 8C68     		ldr	r4, [r1, #8]
 892 003a 0A88     		ldrh	r2, [r1]
 893 003c 02EB4202 		add	r2, r2, r2, lsl #1
 894 0040 1E3A     		subs	r2, r2, #30
 895 0042 9440     		lsls	r4, r4, r2
 896 0044 2043     		orrs	r0, r0, r4
 897 0046 E860     		str	r0, [r5, #12]
 898              	.L119:
 899 0048 1868     		ldr	r0, [r3]
 900 004a 826B     		ldr	r2, [r0, #56]
 901 004c 22F44012 		bic	r2, r2, #3145728
 902 0050 8263     		str	r2, [r0, #56]
 903 0052 1C68     		ldr	r4, [r3]
 904 0054 A26B     		ldr	r2, [r4, #56]
 905 0056 0869     		ldr	r0, [r1, #16]
 906 0058 0138     		subs	r0, r0, #1
 907 005a 42EA0052 		orr	r2, r2, r0, lsl #20
 908 005e A263     		str	r2, [r4, #56]
 909 0060 1C68     		ldr	r4, [r3]
 910 0062 A06B     		ldr	r0, [r4, #56]
 911 0064 4A68     		ldr	r2, [r1, #4]
 912 0066 0D69     		ldr	r5, [r1, #16]
 913 0068 521B     		subs	r2, r2, r5
 914 006a D2B2     		uxtb	r2, r2
 915 006c 0332     		adds	r2, r2, #3
 916 006e D2B2     		uxtb	r2, r2
 917 0070 02EB8202 		add	r2, r2, r2, lsl #2
 918 0074 4FF01F0C 		mov	ip, #31
 919 0078 0CFA02F2 		lsl	r2, ip, r2
 920 007c 20EA0202 		bic	r2, r0, r2
 921 0080 A263     		str	r2, [r4, #56]
 922 0082 1C68     		ldr	r4, [r3]
 923 0084 A06B     		ldr	r0, [r4, #56]
 924 0086 4A68     		ldr	r2, [r1, #4]
 925 0088 0D69     		ldr	r5, [r1, #16]
 926 008a 521B     		subs	r2, r2, r5
 927 008c D2B2     		uxtb	r2, r2
 928 008e 0332     		adds	r2, r2, #3
 929 0090 D2B2     		uxtb	r2, r2
 930 0092 02EB8202 		add	r2, r2, r2, lsl #2
 931 0096 B1F800C0 		ldrh	ip, [r1]
 932 009a 0CFA02F2 		lsl	r2, ip, r2
 933 009e 0243     		orrs	r2, r2, r0
 934 00a0 A263     		str	r2, [r4, #56]
 935 00a2 8869     		ldr	r0, [r1, #24]
 936 00a4 544A     		ldr	r2, .L140
 937 00a6 9042     		cmp	r0, r2
 938 00a8 56D0     		beq	.L120
 939 00aa 1868     		ldr	r0, [r3]
ARM GAS  C:\Users\Rick\AppData\Local\Temp\cc8AJ81p.s 			page 17


 940 00ac 8268     		ldr	r2, [r0, #8]
 941 00ae 22F47022 		bic	r2, r2, #983040
 942 00b2 8260     		str	r2, [r0, #8]
 943 00b4 1868     		ldr	r0, [r3]
 944 00b6 8268     		ldr	r2, [r0, #8]
 945 00b8 8C69     		ldr	r4, [r1, #24]
 946 00ba 2243     		orrs	r2, r2, r4
 947 00bc 8260     		str	r2, [r0, #8]
 948 00be 1868     		ldr	r0, [r3]
 949 00c0 8268     		ldr	r2, [r0, #8]
 950 00c2 22F44012 		bic	r2, r2, #3145728
 951 00c6 8260     		str	r2, [r0, #8]
 952 00c8 1868     		ldr	r0, [r3]
 953 00ca 8268     		ldr	r2, [r0, #8]
 954 00cc CC69     		ldr	r4, [r1, #28]
 955 00ce 2243     		orrs	r2, r2, r4
 956 00d0 8260     		str	r2, [r0, #8]
 957              	.L121:
 958 00d2 4A7D     		ldrb	r2, [r1, #21]	@ zero_extendqisi2
 959 00d4 002A     		cmp	r2, #0
 960 00d6 4AD0     		beq	.L122
 961 00d8 1868     		ldr	r0, [r3]
 962 00da 4268     		ldr	r2, [r0, #4]
 963 00dc 42F48062 		orr	r2, r2, #1024
 964 00e0 4260     		str	r2, [r0, #4]
 965              	.L123:
 966 00e2 0A7D     		ldrb	r2, [r1, #20]	@ zero_extendqisi2
 967 00e4 002A     		cmp	r2, #0
 968 00e6 48D0     		beq	.L124
 969 00e8 1868     		ldr	r0, [r3]
 970 00ea 4268     		ldr	r2, [r0, #4]
 971 00ec 42F48052 		orr	r2, r2, #4096
 972 00f0 4260     		str	r2, [r0, #4]
 973              	.L125:
 974 00f2 4A68     		ldr	r2, [r1, #4]
 975 00f4 022A     		cmp	r2, #2
 976 00f6 46D0     		beq	.L126
 977 00f8 032A     		cmp	r2, #3
 978 00fa 4FD0     		beq	.L127
 979 00fc 012A     		cmp	r2, #1
 980 00fe 58D1     		bne	.L128
 981 0100 1868     		ldr	r0, [r3]
 982 0102 4269     		ldr	r2, [r0, #20]
 983 0104 6FF30B02 		bfc	r2, #0, #12
 984 0108 4261     		str	r2, [r0, #20]
 985 010a 1868     		ldr	r0, [r3]
 986 010c 4269     		ldr	r2, [r0, #20]
 987 010e CC68     		ldr	r4, [r1, #12]
 988 0110 2243     		orrs	r2, r2, r4
 989 0112 4261     		str	r2, [r0, #20]
 990              	.L129:
 991 0114 1868     		ldr	r0, [r3]
 992 0116 394A     		ldr	r2, .L140+4
 993 0118 9042     		cmp	r0, r2
 994 011a 55D0     		beq	.L138
 995              	.L130:
 996 011c 1868     		ldr	r0, [r3]
ARM GAS  C:\Users\Rick\AppData\Local\Temp\cc8AJ81p.s 			page 18


 997 011e 374A     		ldr	r2, .L140+4
 998 0120 9042     		cmp	r0, r2
 999 0122 5AD0     		beq	.L139
 1000              	.L131:
 1001 0124 0020     		movs	r0, #0
 1002 0126 83F83C00 		strb	r0, [r3, #60]
 1003 012a 30BC     		pop	{r4, r5}
 1004 012c 7047     		bx	lr
 1005              	.L118:
 1006 012e 0568     		ldr	r5, [r0]
 1007 0130 2869     		ldr	r0, [r5, #16]
 1008 0132 92B2     		uxth	r2, r2
 1009 0134 02EB4202 		add	r2, r2, r2, lsl #1
 1010 0138 0724     		movs	r4, #7
 1011 013a 04FA02F2 		lsl	r2, r4, r2
 1012 013e 20EA0202 		bic	r2, r0, r2
 1013 0142 2A61     		str	r2, [r5, #16]
 1014 0144 1D68     		ldr	r5, [r3]
 1015 0146 2869     		ldr	r0, [r5, #16]
 1016 0148 8C68     		ldr	r4, [r1, #8]
 1017 014a 0A88     		ldrh	r2, [r1]
 1018 014c 02EB4202 		add	r2, r2, r2, lsl #1
 1019 0150 9440     		lsls	r4, r4, r2
 1020 0152 2043     		orrs	r0, r0, r4
 1021 0154 2861     		str	r0, [r5, #16]
 1022 0156 77E7     		b	.L119
 1023              	.L120:
 1024 0158 1868     		ldr	r0, [r3]
 1025 015a 8268     		ldr	r2, [r0, #8]
 1026 015c 22F47022 		bic	r2, r2, #983040
 1027 0160 8260     		str	r2, [r0, #8]
 1028 0162 1868     		ldr	r0, [r3]
 1029 0164 8268     		ldr	r2, [r0, #8]
 1030 0166 22F44012 		bic	r2, r2, #3145728
 1031 016a 8260     		str	r2, [r0, #8]
 1032 016c B1E7     		b	.L121
 1033              	.L122:
 1034 016e 1868     		ldr	r0, [r3]
 1035 0170 4268     		ldr	r2, [r0, #4]
 1036 0172 22F48062 		bic	r2, r2, #1024
 1037 0176 4260     		str	r2, [r0, #4]
 1038 0178 B3E7     		b	.L123
 1039              	.L124:
 1040 017a 1868     		ldr	r0, [r3]
 1041 017c 4268     		ldr	r2, [r0, #4]
 1042 017e 22F48052 		bic	r2, r2, #4096
 1043 0182 4260     		str	r2, [r0, #4]
 1044 0184 B5E7     		b	.L125
 1045              	.L126:
 1046 0186 1868     		ldr	r0, [r3]
 1047 0188 8269     		ldr	r2, [r0, #24]
 1048 018a 6FF30B02 		bfc	r2, #0, #12
 1049 018e 8261     		str	r2, [r0, #24]
 1050 0190 1868     		ldr	r0, [r3]
 1051 0192 8269     		ldr	r2, [r0, #24]
 1052 0194 CC68     		ldr	r4, [r1, #12]
 1053 0196 2243     		orrs	r2, r2, r4
ARM GAS  C:\Users\Rick\AppData\Local\Temp\cc8AJ81p.s 			page 19


 1054 0198 8261     		str	r2, [r0, #24]
 1055 019a BBE7     		b	.L129
 1056              	.L127:
 1057 019c 1868     		ldr	r0, [r3]
 1058 019e C269     		ldr	r2, [r0, #28]
 1059 01a0 6FF30B02 		bfc	r2, #0, #12
 1060 01a4 C261     		str	r2, [r0, #28]
 1061 01a6 1868     		ldr	r0, [r3]
 1062 01a8 C269     		ldr	r2, [r0, #28]
 1063 01aa CC68     		ldr	r4, [r1, #12]
 1064 01ac 2243     		orrs	r2, r2, r4
 1065 01ae C261     		str	r2, [r0, #28]
 1066 01b0 B0E7     		b	.L129
 1067              	.L128:
 1068 01b2 1868     		ldr	r0, [r3]
 1069 01b4 026A     		ldr	r2, [r0, #32]
 1070 01b6 6FF30B02 		bfc	r2, #0, #12
 1071 01ba 0262     		str	r2, [r0, #32]
 1072 01bc 1868     		ldr	r0, [r3]
 1073 01be 026A     		ldr	r2, [r0, #32]
 1074 01c0 CC68     		ldr	r4, [r1, #12]
 1075 01c2 2243     		orrs	r2, r2, r4
 1076 01c4 0262     		str	r2, [r0, #32]
 1077 01c6 A5E7     		b	.L129
 1078              	.L138:
 1079 01c8 0A68     		ldr	r2, [r1]
 1080 01ca 122A     		cmp	r2, #18
 1081 01cc A6D1     		bne	.L130
 1082 01ce 0C48     		ldr	r0, .L140+8
 1083 01d0 4268     		ldr	r2, [r0, #4]
 1084 01d2 42F48002 		orr	r2, r2, #4194304
 1085 01d6 4260     		str	r2, [r0, #4]
 1086 01d8 A0E7     		b	.L130
 1087              	.L139:
 1088 01da 0A68     		ldr	r2, [r1]
 1089 01dc 0949     		ldr	r1, .L140+12
 1090 01de 8A42     		cmp	r2, r1
 1091 01e0 01D0     		beq	.L132
 1092 01e2 112A     		cmp	r2, #17
 1093 01e4 9ED1     		bne	.L131
 1094              	.L132:
 1095 01e6 0649     		ldr	r1, .L140+8
 1096 01e8 4A68     		ldr	r2, [r1, #4]
 1097 01ea 42F40002 		orr	r2, r2, #8388608
 1098 01ee 4A60     		str	r2, [r1, #4]
 1099 01f0 98E7     		b	.L131
 1100              	.L133:
 1101 01f2 0220     		movs	r0, #2
 1102 01f4 7047     		bx	lr
 1103              	.L141:
 1104 01f6 00BF     		.align	2
 1105              	.L140:
 1106 01f8 01000F00 		.word	983041
 1107 01fc 00200140 		.word	1073815552
 1108 0200 00230140 		.word	1073816320
 1109 0204 12000010 		.word	268435474
 1111              		.section	.text.HAL_ADCEx_MultiModeConfigChannel,"ax",%progbits
ARM GAS  C:\Users\Rick\AppData\Local\Temp\cc8AJ81p.s 			page 20


 1112              		.align	1
 1113              		.global	HAL_ADCEx_MultiModeConfigChannel
 1114              		.syntax unified
 1115              		.thumb
 1116              		.thumb_func
 1118              	HAL_ADCEx_MultiModeConfigChannel:
 1119              		@ args = 0, pretend = 0, frame = 0
 1120              		@ frame_needed = 0, uses_anonymous_args = 0
 1121              		@ link register save eliminated.
 1122 0000 90F83C30 		ldrb	r3, [r0, #60]	@ zero_extendqisi2
 1123 0004 012B     		cmp	r3, #1
 1124 0006 23D0     		beq	.L144
 1125 0008 10B4     		push	{r4}
 1126 000a 0246     		mov	r2, r0
 1127 000c 0123     		movs	r3, #1
 1128 000e 80F83C30 		strb	r3, [r0, #60]
 1129 0012 104B     		ldr	r3, .L149
 1130 0014 5868     		ldr	r0, [r3, #4]
 1131 0016 20F01F00 		bic	r0, r0, #31
 1132 001a 5860     		str	r0, [r3, #4]
 1133 001c 5868     		ldr	r0, [r3, #4]
 1134 001e 0C68     		ldr	r4, [r1]
 1135 0020 2043     		orrs	r0, r0, r4
 1136 0022 5860     		str	r0, [r3, #4]
 1137 0024 5868     		ldr	r0, [r3, #4]
 1138 0026 20F44040 		bic	r0, r0, #49152
 1139 002a 5860     		str	r0, [r3, #4]
 1140 002c 5868     		ldr	r0, [r3, #4]
 1141 002e 4C68     		ldr	r4, [r1, #4]
 1142 0030 2043     		orrs	r0, r0, r4
 1143 0032 5860     		str	r0, [r3, #4]
 1144 0034 5868     		ldr	r0, [r3, #4]
 1145 0036 20F47060 		bic	r0, r0, #3840
 1146 003a 5860     		str	r0, [r3, #4]
 1147 003c 5868     		ldr	r0, [r3, #4]
 1148 003e 8968     		ldr	r1, [r1, #8]
 1149 0040 0143     		orrs	r1, r1, r0
 1150 0042 5960     		str	r1, [r3, #4]
 1151 0044 0020     		movs	r0, #0
 1152 0046 82F83C00 		strb	r0, [r2, #60]
 1153 004a 5DF8044B 		ldr	r4, [sp], #4
 1154 004e 7047     		bx	lr
 1155              	.L144:
 1156 0050 0220     		movs	r0, #2
 1157 0052 7047     		bx	lr
 1158              	.L150:
 1159              		.align	2
 1160              	.L149:
 1161 0054 00230140 		.word	1073816320
 1163              		.ident	"GCC: (xPack GNU Arm Embedded GCC x86_64) 14.2.1 20241119"
ARM GAS  C:\Users\Rick\AppData\Local\Temp\cc8AJ81p.s 			page 21

