ARM GAS  C:\Users\Rick\AppData\Local\Temp\ccw94w4a.s 			page 1


   1              		.cpu cortex-m4
   2              		.arch armv7e-m
   3              		.fpu fpv4-sp-d16
   4              		.eabi_attribute 27, 1
   5              		.eabi_attribute 28, 1
   6              		.eabi_attribute 20, 1
   7              		.eabi_attribute 21, 1
   8              		.eabi_attribute 23, 3
   9              		.eabi_attribute 24, 1
  10              		.eabi_attribute 25, 1
  11              		.eabi_attribute 26, 1
  12              		.eabi_attribute 30, 1
  13              		.eabi_attribute 34, 1
  14              		.eabi_attribute 18, 4
  15              		.file	"stm32f4xx_hal_rcc.c"
  16              		.text
  17              		.section	.text.HAL_RCC_DeInit,"ax",%progbits
  18              		.align	1
  19              		.weak	HAL_RCC_DeInit
  20              		.syntax unified
  21              		.thumb
  22              		.thumb_func
  24              	HAL_RCC_DeInit:
  25              		@ args = 0, pretend = 0, frame = 0
  26              		@ frame_needed = 0, uses_anonymous_args = 0
  27              		@ link register save eliminated.
  28 0000 0020     		movs	r0, #0
  29 0002 7047     		bx	lr
  31              		.section	.text.HAL_RCC_OscConfig,"ax",%progbits
  32              		.align	1
  33              		.weak	HAL_RCC_OscConfig
  34              		.syntax unified
  35              		.thumb
  36              		.thumb_func
  38              	HAL_RCC_OscConfig:
  39              		@ args = 0, pretend = 0, frame = 8
  40              		@ frame_needed = 0, uses_anonymous_args = 0
  41 0000 0028     		cmp	r0, #0
  42 0002 00F0E681 		beq	.L52
  43 0006 70B5     		push	{r4, r5, r6, lr}
  44 0008 82B0     		sub	sp, sp, #8
  45 000a 0446     		mov	r4, r0
  46 000c 0368     		ldr	r3, [r0]
  47 000e 13F0010F 		tst	r3, #1
  48 0012 3BD0     		beq	.L4
  49 0014 9F4B     		ldr	r3, .L94
  50 0016 9B68     		ldr	r3, [r3, #8]
  51 0018 03F00C03 		and	r3, r3, #12
  52 001c 042B     		cmp	r3, #4
  53 001e 2CD0     		beq	.L5
  54 0020 9C4B     		ldr	r3, .L94
  55 0022 9B68     		ldr	r3, [r3, #8]
  56 0024 03F00C03 		and	r3, r3, #12
  57 0028 082B     		cmp	r3, #8
  58 002a 21D0     		beq	.L80
  59              	.L6:
  60 002c 6368     		ldr	r3, [r4, #4]
ARM GAS  C:\Users\Rick\AppData\Local\Temp\ccw94w4a.s 			page 2


  61 002e B3F5803F 		cmp	r3, #65536
  62 0032 4FD0     		beq	.L81
  63 0034 B3F5A02F 		cmp	r3, #327680
  64 0038 52D0     		beq	.L82
  65 003a 964B     		ldr	r3, .L94
  66 003c 1A68     		ldr	r2, [r3]
  67 003e 22F48032 		bic	r2, r2, #65536
  68 0042 1A60     		str	r2, [r3]
  69 0044 1A68     		ldr	r2, [r3]
  70 0046 22F48022 		bic	r2, r2, #262144
  71 004a 1A60     		str	r2, [r3]
  72              	.L8:
  73 004c 6368     		ldr	r3, [r4, #4]
  74 004e 002B     		cmp	r3, #0
  75 0050 50D0     		beq	.L10
  76 0052 FFF7FEFF 		bl	HAL_GetTick
  77 0056 0546     		mov	r5, r0
  78              	.L11:
  79 0058 8E4B     		ldr	r3, .L94
  80 005a 1B68     		ldr	r3, [r3]
  81 005c 13F4003F 		tst	r3, #131072
  82 0060 14D1     		bne	.L4
  83 0062 FFF7FEFF 		bl	HAL_GetTick
  84 0066 401B     		subs	r0, r0, r5
  85 0068 6428     		cmp	r0, #100
  86 006a F5D9     		bls	.L11
  87 006c 0320     		movs	r0, #3
  88 006e B7E1     		b	.L3
  89              	.L80:
  90 0070 884B     		ldr	r3, .L94
  91 0072 5B68     		ldr	r3, [r3, #4]
  92 0074 13F4800F 		tst	r3, #4194304
  93 0078 D8D0     		beq	.L6
  94              	.L5:
  95 007a 864B     		ldr	r3, .L94
  96 007c 1B68     		ldr	r3, [r3]
  97 007e 13F4003F 		tst	r3, #131072
  98 0082 03D0     		beq	.L4
  99 0084 6368     		ldr	r3, [r4, #4]
 100 0086 002B     		cmp	r3, #0
 101 0088 00F0A581 		beq	.L83
 102              	.L4:
 103 008c 2368     		ldr	r3, [r4]
 104 008e 13F0020F 		tst	r3, #2
 105 0092 54D0     		beq	.L15
 106 0094 7F4B     		ldr	r3, .L94
 107 0096 9B68     		ldr	r3, [r3, #8]
 108 0098 13F00C0F 		tst	r3, #12
 109 009c 3ED0     		beq	.L16
 110 009e 7D4B     		ldr	r3, .L94
 111 00a0 9B68     		ldr	r3, [r3, #8]
 112 00a2 03F00C03 		and	r3, r3, #12
 113 00a6 082B     		cmp	r3, #8
 114 00a8 33D0     		beq	.L84
 115              	.L17:
 116 00aa E368     		ldr	r3, [r4, #12]
 117 00ac 002B     		cmp	r3, #0
ARM GAS  C:\Users\Rick\AppData\Local\Temp\ccw94w4a.s 			page 3


 118 00ae 68D0     		beq	.L19
 119 00b0 794B     		ldr	r3, .L94+4
 120 00b2 0122     		movs	r2, #1
 121 00b4 1A60     		str	r2, [r3]
 122 00b6 FFF7FEFF 		bl	HAL_GetTick
 123 00ba 0546     		mov	r5, r0
 124              	.L20:
 125 00bc 754B     		ldr	r3, .L94
 126 00be 1B68     		ldr	r3, [r3]
 127 00c0 13F0020F 		tst	r3, #2
 128 00c4 54D1     		bne	.L85
 129 00c6 FFF7FEFF 		bl	HAL_GetTick
 130 00ca 401B     		subs	r0, r0, r5
 131 00cc 0228     		cmp	r0, #2
 132 00ce F5D9     		bls	.L20
 133 00d0 0320     		movs	r0, #3
 134 00d2 85E1     		b	.L3
 135              	.L81:
 136 00d4 6F4A     		ldr	r2, .L94
 137 00d6 1368     		ldr	r3, [r2]
 138 00d8 43F48033 		orr	r3, r3, #65536
 139 00dc 1360     		str	r3, [r2]
 140 00de B5E7     		b	.L8
 141              	.L82:
 142 00e0 6C4B     		ldr	r3, .L94
 143 00e2 1A68     		ldr	r2, [r3]
 144 00e4 42F48022 		orr	r2, r2, #262144
 145 00e8 1A60     		str	r2, [r3]
 146 00ea 1A68     		ldr	r2, [r3]
 147 00ec 42F48032 		orr	r2, r2, #65536
 148 00f0 1A60     		str	r2, [r3]
 149 00f2 ABE7     		b	.L8
 150              	.L10:
 151 00f4 FFF7FEFF 		bl	HAL_GetTick
 152 00f8 0546     		mov	r5, r0
 153              	.L13:
 154 00fa 664B     		ldr	r3, .L94
 155 00fc 1B68     		ldr	r3, [r3]
 156 00fe 13F4003F 		tst	r3, #131072
 157 0102 C3D0     		beq	.L4
 158 0104 FFF7FEFF 		bl	HAL_GetTick
 159 0108 401B     		subs	r0, r0, r5
 160 010a 6428     		cmp	r0, #100
 161 010c F5D9     		bls	.L13
 162 010e 0320     		movs	r0, #3
 163 0110 66E1     		b	.L3
 164              	.L84:
 165 0112 604B     		ldr	r3, .L94
 166 0114 5B68     		ldr	r3, [r3, #4]
 167 0116 13F4800F 		tst	r3, #4194304
 168 011a C6D1     		bne	.L17
 169              	.L16:
 170 011c 5D4B     		ldr	r3, .L94
 171 011e 1B68     		ldr	r3, [r3]
 172 0120 13F0020F 		tst	r3, #2
 173 0124 03D0     		beq	.L18
 174 0126 E368     		ldr	r3, [r4, #12]
ARM GAS  C:\Users\Rick\AppData\Local\Temp\ccw94w4a.s 			page 4


 175 0128 012B     		cmp	r3, #1
 176 012a 40F05681 		bne	.L56
 177              	.L18:
 178 012e 594A     		ldr	r2, .L94
 179 0130 1368     		ldr	r3, [r2]
 180 0132 23F0F803 		bic	r3, r3, #248
 181 0136 2169     		ldr	r1, [r4, #16]
 182 0138 43EAC103 		orr	r3, r3, r1, lsl #3
 183 013c 1360     		str	r3, [r2]
 184              	.L15:
 185 013e 2368     		ldr	r3, [r4]
 186 0140 13F0080F 		tst	r3, #8
 187 0144 42D0     		beq	.L24
 188 0146 6369     		ldr	r3, [r4, #20]
 189 0148 6BB3     		cbz	r3, .L25
 190 014a 534B     		ldr	r3, .L94+4
 191 014c 0122     		movs	r2, #1
 192 014e C3F8802E 		str	r2, [r3, #3712]
 193 0152 FFF7FEFF 		bl	HAL_GetTick
 194 0156 0546     		mov	r5, r0
 195              	.L26:
 196 0158 4E4B     		ldr	r3, .L94
 197 015a 5B6F     		ldr	r3, [r3, #116]
 198 015c 13F0020F 		tst	r3, #2
 199 0160 34D1     		bne	.L24
 200 0162 FFF7FEFF 		bl	HAL_GetTick
 201 0166 401B     		subs	r0, r0, r5
 202 0168 0228     		cmp	r0, #2
 203 016a F5D9     		bls	.L26
 204 016c 0320     		movs	r0, #3
 205 016e 37E1     		b	.L3
 206              	.L85:
 207 0170 484A     		ldr	r2, .L94
 208 0172 1368     		ldr	r3, [r2]
 209 0174 23F0F803 		bic	r3, r3, #248
 210 0178 2169     		ldr	r1, [r4, #16]
 211 017a 43EAC103 		orr	r3, r3, r1, lsl #3
 212 017e 1360     		str	r3, [r2]
 213 0180 DDE7     		b	.L15
 214              	.L19:
 215 0182 454B     		ldr	r3, .L94+4
 216 0184 0022     		movs	r2, #0
 217 0186 1A60     		str	r2, [r3]
 218 0188 FFF7FEFF 		bl	HAL_GetTick
 219 018c 0546     		mov	r5, r0
 220              	.L22:
 221 018e 414B     		ldr	r3, .L94
 222 0190 1B68     		ldr	r3, [r3]
 223 0192 13F0020F 		tst	r3, #2
 224 0196 D2D0     		beq	.L15
 225 0198 FFF7FEFF 		bl	HAL_GetTick
 226 019c 401B     		subs	r0, r0, r5
 227 019e 0228     		cmp	r0, #2
 228 01a0 F5D9     		bls	.L22
 229 01a2 0320     		movs	r0, #3
 230 01a4 1CE1     		b	.L3
 231              	.L25:
ARM GAS  C:\Users\Rick\AppData\Local\Temp\ccw94w4a.s 			page 5


 232 01a6 3C4B     		ldr	r3, .L94+4
 233 01a8 0022     		movs	r2, #0
 234 01aa C3F8802E 		str	r2, [r3, #3712]
 235 01ae FFF7FEFF 		bl	HAL_GetTick
 236 01b2 0546     		mov	r5, r0
 237              	.L28:
 238 01b4 374B     		ldr	r3, .L94
 239 01b6 5B6F     		ldr	r3, [r3, #116]
 240 01b8 13F0020F 		tst	r3, #2
 241 01bc 06D0     		beq	.L24
 242 01be FFF7FEFF 		bl	HAL_GetTick
 243 01c2 401B     		subs	r0, r0, r5
 244 01c4 0228     		cmp	r0, #2
 245 01c6 F5D9     		bls	.L28
 246 01c8 0320     		movs	r0, #3
 247 01ca 09E1     		b	.L3
 248              	.L24:
 249 01cc 2368     		ldr	r3, [r4]
 250 01ce 13F0040F 		tst	r3, #4
 251 01d2 77D0     		beq	.L30
 252 01d4 2F4B     		ldr	r3, .L94
 253 01d6 1B6C     		ldr	r3, [r3, #64]
 254 01d8 13F0805F 		tst	r3, #268435456
 255 01dc 33D1     		bne	.L61
 256 01de 0023     		movs	r3, #0
 257 01e0 0193     		str	r3, [sp, #4]
 258 01e2 2C4B     		ldr	r3, .L94
 259 01e4 1A6C     		ldr	r2, [r3, #64]
 260 01e6 42F08052 		orr	r2, r2, #268435456
 261 01ea 1A64     		str	r2, [r3, #64]
 262 01ec 1B6C     		ldr	r3, [r3, #64]
 263 01ee 03F08053 		and	r3, r3, #268435456
 264 01f2 0193     		str	r3, [sp, #4]
 265 01f4 019B     		ldr	r3, [sp, #4]
 266 01f6 0125     		movs	r5, #1
 267              	.L31:
 268 01f8 284B     		ldr	r3, .L94+8
 269 01fa 1B68     		ldr	r3, [r3]
 270 01fc 13F4807F 		tst	r3, #256
 271 0200 23D0     		beq	.L86
 272              	.L32:
 273 0202 A368     		ldr	r3, [r4, #8]
 274 0204 012B     		cmp	r3, #1
 275 0206 34D0     		beq	.L87
 276 0208 052B     		cmp	r3, #5
 277 020a 38D0     		beq	.L88
 278 020c 214B     		ldr	r3, .L94
 279 020e 1A6F     		ldr	r2, [r3, #112]
 280 0210 22F00102 		bic	r2, r2, #1
 281 0214 1A67     		str	r2, [r3, #112]
 282 0216 1A6F     		ldr	r2, [r3, #112]
 283 0218 22F00402 		bic	r2, r2, #4
 284 021c 1A67     		str	r2, [r3, #112]
 285              	.L36:
 286 021e A368     		ldr	r3, [r4, #8]
 287 0220 002B     		cmp	r3, #0
 288 0222 3DD0     		beq	.L38
ARM GAS  C:\Users\Rick\AppData\Local\Temp\ccw94w4a.s 			page 6


 289 0224 FFF7FEFF 		bl	HAL_GetTick
 290 0228 0646     		mov	r6, r0
 291              	.L39:
 292 022a 1A4B     		ldr	r3, .L94
 293 022c 1B6F     		ldr	r3, [r3, #112]
 294 022e 13F0020F 		tst	r3, #2
 295 0232 46D1     		bne	.L41
 296 0234 FFF7FEFF 		bl	HAL_GetTick
 297 0238 801B     		subs	r0, r0, r6
 298 023a 41F28833 		movw	r3, #5000
 299 023e 9842     		cmp	r0, r3
 300 0240 F3D9     		bls	.L39
 301 0242 0320     		movs	r0, #3
 302 0244 CCE0     		b	.L3
 303              	.L61:
 304 0246 0025     		movs	r5, #0
 305 0248 D6E7     		b	.L31
 306              	.L86:
 307 024a 144A     		ldr	r2, .L94+8
 308 024c 1368     		ldr	r3, [r2]
 309 024e 43F48073 		orr	r3, r3, #256
 310 0252 1360     		str	r3, [r2]
 311 0254 FFF7FEFF 		bl	HAL_GetTick
 312 0258 0646     		mov	r6, r0
 313              	.L33:
 314 025a 104B     		ldr	r3, .L94+8
 315 025c 1B68     		ldr	r3, [r3]
 316 025e 13F4807F 		tst	r3, #256
 317 0262 CED1     		bne	.L32
 318 0264 FFF7FEFF 		bl	HAL_GetTick
 319 0268 801B     		subs	r0, r0, r6
 320 026a 0228     		cmp	r0, #2
 321 026c F5D9     		bls	.L33
 322 026e 0320     		movs	r0, #3
 323 0270 B6E0     		b	.L3
 324              	.L87:
 325 0272 084A     		ldr	r2, .L94
 326 0274 136F     		ldr	r3, [r2, #112]
 327 0276 43F00103 		orr	r3, r3, #1
 328 027a 1367     		str	r3, [r2, #112]
 329 027c CFE7     		b	.L36
 330              	.L88:
 331 027e 054B     		ldr	r3, .L94
 332 0280 1A6F     		ldr	r2, [r3, #112]
 333 0282 42F00402 		orr	r2, r2, #4
 334 0286 1A67     		str	r2, [r3, #112]
 335 0288 1A6F     		ldr	r2, [r3, #112]
 336 028a 42F00102 		orr	r2, r2, #1
 337 028e 1A67     		str	r2, [r3, #112]
 338 0290 C5E7     		b	.L36
 339              	.L95:
 340 0292 00BF     		.align	2
 341              	.L94:
 342 0294 00380240 		.word	1073887232
 343 0298 00004742 		.word	1111949312
 344 029c 00700040 		.word	1073770496
 345              	.L38:
ARM GAS  C:\Users\Rick\AppData\Local\Temp\ccw94w4a.s 			page 7


 346 02a0 FFF7FEFF 		bl	HAL_GetTick
 347 02a4 0646     		mov	r6, r0
 348              	.L42:
 349 02a6 564B     		ldr	r3, .L96
 350 02a8 1B6F     		ldr	r3, [r3, #112]
 351 02aa 13F0020F 		tst	r3, #2
 352 02ae 08D0     		beq	.L41
 353 02b0 FFF7FEFF 		bl	HAL_GetTick
 354 02b4 801B     		subs	r0, r0, r6
 355 02b6 41F28833 		movw	r3, #5000
 356 02ba 9842     		cmp	r0, r3
 357 02bc F3D9     		bls	.L42
 358 02be 0320     		movs	r0, #3
 359 02c0 8EE0     		b	.L3
 360              	.L41:
 361 02c2 EDB9     		cbnz	r5, .L89
 362              	.L30:
 363 02c4 A369     		ldr	r3, [r4, #24]
 364 02c6 002B     		cmp	r3, #0
 365 02c8 00F08980 		beq	.L65
 366 02cc 4C4A     		ldr	r2, .L96
 367 02ce 9268     		ldr	r2, [r2, #8]
 368 02d0 02F00C02 		and	r2, r2, #12
 369 02d4 082A     		cmp	r2, #8
 370 02d6 51D0     		beq	.L44
 371 02d8 022B     		cmp	r3, #2
 372 02da 17D0     		beq	.L90
 373 02dc 494B     		ldr	r3, .L96+4
 374 02de 0022     		movs	r2, #0
 375 02e0 1A66     		str	r2, [r3, #96]
 376 02e2 FFF7FEFF 		bl	HAL_GetTick
 377 02e6 0446     		mov	r4, r0
 378              	.L50:
 379 02e8 454B     		ldr	r3, .L96
 380 02ea 1B68     		ldr	r3, [r3]
 381 02ec 13F0007F 		tst	r3, #33554432
 382 02f0 42D0     		beq	.L91
 383 02f2 FFF7FEFF 		bl	HAL_GetTick
 384 02f6 001B     		subs	r0, r0, r4
 385 02f8 0228     		cmp	r0, #2
 386 02fa F5D9     		bls	.L50
 387 02fc 0320     		movs	r0, #3
 388 02fe 6FE0     		b	.L3
 389              	.L89:
 390 0300 3F4A     		ldr	r2, .L96
 391 0302 136C     		ldr	r3, [r2, #64]
 392 0304 23F08053 		bic	r3, r3, #268435456
 393 0308 1364     		str	r3, [r2, #64]
 394 030a DBE7     		b	.L30
 395              	.L90:
 396 030c 3D4B     		ldr	r3, .L96+4
 397 030e 0022     		movs	r2, #0
 398 0310 1A66     		str	r2, [r3, #96]
 399 0312 FFF7FEFF 		bl	HAL_GetTick
 400 0316 0546     		mov	r5, r0
 401              	.L46:
 402 0318 394B     		ldr	r3, .L96
ARM GAS  C:\Users\Rick\AppData\Local\Temp\ccw94w4a.s 			page 8


 403 031a 1B68     		ldr	r3, [r3]
 404 031c 13F0007F 		tst	r3, #33554432
 405 0320 06D0     		beq	.L92
 406 0322 FFF7FEFF 		bl	HAL_GetTick
 407 0326 401B     		subs	r0, r0, r5
 408 0328 0228     		cmp	r0, #2
 409 032a F5D9     		bls	.L46
 410 032c 0320     		movs	r0, #3
 411 032e 57E0     		b	.L3
 412              	.L92:
 413 0330 E369     		ldr	r3, [r4, #28]
 414 0332 226A     		ldr	r2, [r4, #32]
 415 0334 1343     		orrs	r3, r3, r2
 416 0336 626A     		ldr	r2, [r4, #36]
 417 0338 43EA8213 		orr	r3, r3, r2, lsl #6
 418 033c A26A     		ldr	r2, [r4, #40]
 419 033e 5208     		lsrs	r2, r2, #1
 420 0340 013A     		subs	r2, r2, #1
 421 0342 43EA0243 		orr	r3, r3, r2, lsl #16
 422 0346 E26A     		ldr	r2, [r4, #44]
 423 0348 43EA0263 		orr	r3, r3, r2, lsl #24
 424 034c 2C4A     		ldr	r2, .L96
 425 034e 5360     		str	r3, [r2, #4]
 426 0350 2C4B     		ldr	r3, .L96+4
 427 0352 0122     		movs	r2, #1
 428 0354 1A66     		str	r2, [r3, #96]
 429 0356 FFF7FEFF 		bl	HAL_GetTick
 430 035a 0446     		mov	r4, r0
 431              	.L48:
 432 035c 284B     		ldr	r3, .L96
 433 035e 1B68     		ldr	r3, [r3]
 434 0360 13F0007F 		tst	r3, #33554432
 435 0364 06D1     		bne	.L93
 436 0366 FFF7FEFF 		bl	HAL_GetTick
 437 036a 001B     		subs	r0, r0, r4
 438 036c 0228     		cmp	r0, #2
 439 036e F5D9     		bls	.L48
 440 0370 0320     		movs	r0, #3
 441 0372 35E0     		b	.L3
 442              	.L93:
 443 0374 0020     		movs	r0, #0
 444 0376 33E0     		b	.L3
 445              	.L91:
 446 0378 0020     		movs	r0, #0
 447 037a 31E0     		b	.L3
 448              	.L44:
 449 037c 012B     		cmp	r3, #1
 450 037e 31D0     		beq	.L69
 451 0380 1F4B     		ldr	r3, .L96
 452 0382 5B68     		ldr	r3, [r3, #4]
 453 0384 03F48001 		and	r1, r3, #4194304
 454 0388 E269     		ldr	r2, [r4, #28]
 455 038a 9142     		cmp	r1, r2
 456 038c 2CD1     		bne	.L70
 457 038e 03F03F02 		and	r2, r3, #63
 458 0392 216A     		ldr	r1, [r4, #32]
 459 0394 8A42     		cmp	r2, r1
ARM GAS  C:\Users\Rick\AppData\Local\Temp\ccw94w4a.s 			page 9


 460 0396 29D1     		bne	.L71
 461 0398 616A     		ldr	r1, [r4, #36]
 462 039a 47F6C072 		movw	r2, #32704
 463 039e 1A40     		ands	r2, r2, r3
 464 03a0 B2EB811F 		cmp	r2, r1, lsl #6
 465 03a4 24D1     		bne	.L72
 466 03a6 03F44031 		and	r1, r3, #196608
 467 03aa A26A     		ldr	r2, [r4, #40]
 468 03ac 5208     		lsrs	r2, r2, #1
 469 03ae 013A     		subs	r2, r2, #1
 470 03b0 B1EB024F 		cmp	r1, r2, lsl #16
 471 03b4 1ED1     		bne	.L73
 472 03b6 03F07062 		and	r2, r3, #251658240
 473 03ba E16A     		ldr	r1, [r4, #44]
 474 03bc B2EB016F 		cmp	r2, r1, lsl #24
 475 03c0 1AD1     		bne	.L74
 476 03c2 03F0E043 		and	r3, r3, #1879048192
 477 03c6 226B     		ldr	r2, [r4, #48]
 478 03c8 B3EB027F 		cmp	r3, r2, lsl #28
 479 03cc 16D1     		bne	.L75
 480 03ce 0020     		movs	r0, #0
 481 03d0 06E0     		b	.L3
 482              	.L52:
 483 03d2 0120     		movs	r0, #1
 484 03d4 7047     		bx	lr
 485              	.L83:
 486 03d6 0120     		movs	r0, #1
 487 03d8 02E0     		b	.L3
 488              	.L56:
 489 03da 0120     		movs	r0, #1
 490 03dc 00E0     		b	.L3
 491              	.L65:
 492 03de 0020     		movs	r0, #0
 493              	.L3:
 494 03e0 02B0     		add	sp, sp, #8
 495              		@ sp needed
 496 03e2 70BD     		pop	{r4, r5, r6, pc}
 497              	.L69:
 498 03e4 0120     		movs	r0, #1
 499 03e6 FBE7     		b	.L3
 500              	.L70:
 501 03e8 0120     		movs	r0, #1
 502 03ea F9E7     		b	.L3
 503              	.L71:
 504 03ec 0120     		movs	r0, #1
 505 03ee F7E7     		b	.L3
 506              	.L72:
 507 03f0 0120     		movs	r0, #1
 508 03f2 F5E7     		b	.L3
 509              	.L73:
 510 03f4 0120     		movs	r0, #1
 511 03f6 F3E7     		b	.L3
 512              	.L74:
 513 03f8 0120     		movs	r0, #1
 514 03fa F1E7     		b	.L3
 515              	.L75:
 516 03fc 0120     		movs	r0, #1
ARM GAS  C:\Users\Rick\AppData\Local\Temp\ccw94w4a.s 			page 10


 517 03fe EFE7     		b	.L3
 518              	.L97:
 519              		.align	2
 520              	.L96:
 521 0400 00380240 		.word	1073887232
 522 0404 00004742 		.word	1111949312
 524              		.section	.text.HAL_RCC_MCOConfig,"ax",%progbits
 525              		.align	1
 526              		.global	HAL_RCC_MCOConfig
 527              		.syntax unified
 528              		.thumb
 529              		.thumb_func
 531              	HAL_RCC_MCOConfig:
 532              		@ args = 0, pretend = 0, frame = 32
 533              		@ frame_needed = 0, uses_anonymous_args = 0
 534 0000 70B5     		push	{r4, r5, r6, lr}
 535 0002 88B0     		sub	sp, sp, #32
 536 0004 0C46     		mov	r4, r1
 537 0006 1546     		mov	r5, r2
 538 0008 00BB     		cbnz	r0, .L99
 539 000a 0023     		movs	r3, #0
 540 000c 0193     		str	r3, [sp, #4]
 541 000e 204E     		ldr	r6, .L102
 542 0010 326B     		ldr	r2, [r6, #48]
 543 0012 42F00102 		orr	r2, r2, #1
 544 0016 3263     		str	r2, [r6, #48]
 545 0018 326B     		ldr	r2, [r6, #48]
 546 001a 02F00102 		and	r2, r2, #1
 547 001e 0192     		str	r2, [sp, #4]
 548 0020 019A     		ldr	r2, [sp, #4]
 549 0022 4FF48072 		mov	r2, #256
 550 0026 0392     		str	r2, [sp, #12]
 551 0028 0222     		movs	r2, #2
 552 002a 0492     		str	r2, [sp, #16]
 553 002c 0322     		movs	r2, #3
 554 002e 0692     		str	r2, [sp, #24]
 555 0030 0593     		str	r3, [sp, #20]
 556 0032 0793     		str	r3, [sp, #28]
 557 0034 03A9     		add	r1, sp, #12
 558 0036 1748     		ldr	r0, .L102+4
 559 0038 FFF7FEFF 		bl	HAL_GPIO_Init
 560 003c B368     		ldr	r3, [r6, #8]
 561 003e 23F0EC63 		bic	r3, r3, #123731968
 562 0042 2543     		orrs	r5, r5, r4
 563 0044 1D43     		orrs	r5, r5, r3
 564 0046 B560     		str	r5, [r6, #8]
 565              	.L98:
 566 0048 08B0     		add	sp, sp, #32
 567              		@ sp needed
 568 004a 70BD     		pop	{r4, r5, r6, pc}
 569              	.L99:
 570 004c 0023     		movs	r3, #0
 571 004e 0293     		str	r3, [sp, #8]
 572 0050 0F4E     		ldr	r6, .L102
 573 0052 326B     		ldr	r2, [r6, #48]
 574 0054 42F00402 		orr	r2, r2, #4
 575 0058 3263     		str	r2, [r6, #48]
ARM GAS  C:\Users\Rick\AppData\Local\Temp\ccw94w4a.s 			page 11


 576 005a 326B     		ldr	r2, [r6, #48]
 577 005c 02F00402 		and	r2, r2, #4
 578 0060 0292     		str	r2, [sp, #8]
 579 0062 029A     		ldr	r2, [sp, #8]
 580 0064 4FF40072 		mov	r2, #512
 581 0068 0392     		str	r2, [sp, #12]
 582 006a 0222     		movs	r2, #2
 583 006c 0492     		str	r2, [sp, #16]
 584 006e 0322     		movs	r2, #3
 585 0070 0692     		str	r2, [sp, #24]
 586 0072 0593     		str	r3, [sp, #20]
 587 0074 0793     		str	r3, [sp, #28]
 588 0076 03A9     		add	r1, sp, #12
 589 0078 0748     		ldr	r0, .L102+8
 590 007a FFF7FEFF 		bl	HAL_GPIO_Init
 591 007e B368     		ldr	r3, [r6, #8]
 592 0080 23F07843 		bic	r3, r3, #-134217728
 593 0084 44EAC504 		orr	r4, r4, r5, lsl #3
 594 0088 1C43     		orrs	r4, r4, r3
 595 008a B460     		str	r4, [r6, #8]
 596 008c DCE7     		b	.L98
 597              	.L103:
 598 008e 00BF     		.align	2
 599              	.L102:
 600 0090 00380240 		.word	1073887232
 601 0094 00000240 		.word	1073872896
 602 0098 00080240 		.word	1073874944
 604              		.section	.text.HAL_RCC_EnableCSS,"ax",%progbits
 605              		.align	1
 606              		.global	HAL_RCC_EnableCSS
 607              		.syntax unified
 608              		.thumb
 609              		.thumb_func
 611              	HAL_RCC_EnableCSS:
 612              		@ args = 0, pretend = 0, frame = 0
 613              		@ frame_needed = 0, uses_anonymous_args = 0
 614              		@ link register save eliminated.
 615 0000 014B     		ldr	r3, .L105
 616 0002 0122     		movs	r2, #1
 617 0004 DA64     		str	r2, [r3, #76]
 618 0006 7047     		bx	lr
 619              	.L106:
 620              		.align	2
 621              	.L105:
 622 0008 00004742 		.word	1111949312
 624              		.section	.text.HAL_RCC_DisableCSS,"ax",%progbits
 625              		.align	1
 626              		.global	HAL_RCC_DisableCSS
 627              		.syntax unified
 628              		.thumb
 629              		.thumb_func
 631              	HAL_RCC_DisableCSS:
 632              		@ args = 0, pretend = 0, frame = 0
 633              		@ frame_needed = 0, uses_anonymous_args = 0
 634              		@ link register save eliminated.
 635 0000 014B     		ldr	r3, .L108
 636 0002 0022     		movs	r2, #0
ARM GAS  C:\Users\Rick\AppData\Local\Temp\ccw94w4a.s 			page 12


 637 0004 DA64     		str	r2, [r3, #76]
 638 0006 7047     		bx	lr
 639              	.L109:
 640              		.align	2
 641              	.L108:
 642 0008 00004742 		.word	1111949312
 644              		.section	.text.HAL_RCC_GetSysClockFreq,"ax",%progbits
 645              		.align	1
 646              		.weak	HAL_RCC_GetSysClockFreq
 647              		.syntax unified
 648              		.thumb
 649              		.thumb_func
 651              	HAL_RCC_GetSysClockFreq:
 652              		@ args = 0, pretend = 0, frame = 0
 653              		@ frame_needed = 0, uses_anonymous_args = 0
 654 0000 08B5     		push	{r3, lr}
 655 0002 314B     		ldr	r3, .L117
 656 0004 9B68     		ldr	r3, [r3, #8]
 657 0006 03F00C03 		and	r3, r3, #12
 658 000a 082B     		cmp	r3, #8
 659 000c 01D0     		beq	.L116
 660 000e 2F48     		ldr	r0, .L117+4
 661              	.L110:
 662 0010 08BD     		pop	{r3, pc}
 663              	.L116:
 664 0012 2D4B     		ldr	r3, .L117
 665 0014 5A68     		ldr	r2, [r3, #4]
 666 0016 02F03F02 		and	r2, r2, #63
 667 001a 5B68     		ldr	r3, [r3, #4]
 668 001c 13F4800F 		tst	r3, #4194304
 669 0020 2CD0     		beq	.L112
 670 0022 294B     		ldr	r3, .L117
 671 0024 5868     		ldr	r0, [r3, #4]
 672 0026 C0F38810 		ubfx	r0, r0, #6, #9
 673 002a 4FEA401C 		lsl	ip, r0, #5
 674 002e BCEB000C 		subs	ip, ip, r0
 675 0032 6EEB0E0E 		sbc	lr, lr, lr
 676 0036 4FEA8E13 		lsl	r3, lr, #6
 677 003a 43EA9C63 		orr	r3, r3, ip, lsr #26
 678 003e 4FEA8C11 		lsl	r1, ip, #6
 679 0042 B1EB0C01 		subs	r1, r1, ip
 680 0046 63EB0E03 		sbc	r3, r3, lr
 681 004a DB00     		lsls	r3, r3, #3
 682 004c 43EA5173 		orr	r3, r3, r1, lsr #29
 683 0050 C900     		lsls	r1, r1, #3
 684 0052 11EB000C 		adds	ip, r1, r0
 685 0056 43F10003 		adc	r3, r3, #0
 686 005a 9902     		lsls	r1, r3, #10
 687 005c 0023     		movs	r3, #0
 688 005e 4FEA8C20 		lsl	r0, ip, #10
 689 0062 41EA9C51 		orr	r1, r1, ip, lsr #22
 690 0066 FFF7FEFF 		bl	__aeabi_uldivmod
 691              	.L113:
 692 006a 174B     		ldr	r3, .L117
 693 006c 5B68     		ldr	r3, [r3, #4]
 694 006e C3F30143 		ubfx	r3, r3, #16, #2
 695 0072 0133     		adds	r3, r3, #1
ARM GAS  C:\Users\Rick\AppData\Local\Temp\ccw94w4a.s 			page 13


 696 0074 5B00     		lsls	r3, r3, #1
 697 0076 B0FBF3F0 		udiv	r0, r0, r3
 698 007a C9E7     		b	.L110
 699              	.L112:
 700 007c 124B     		ldr	r3, .L117
 701 007e 5868     		ldr	r0, [r3, #4]
 702 0080 C0F38810 		ubfx	r0, r0, #6, #9
 703 0084 4FEA401C 		lsl	ip, r0, #5
 704 0088 BCEB000C 		subs	ip, ip, r0
 705 008c 6EEB0E0E 		sbc	lr, lr, lr
 706 0090 4FEA8E13 		lsl	r3, lr, #6
 707 0094 43EA9C63 		orr	r3, r3, ip, lsr #26
 708 0098 4FEA8C11 		lsl	r1, ip, #6
 709 009c B1EB0C01 		subs	r1, r1, ip
 710 00a0 63EB0E03 		sbc	r3, r3, lr
 711 00a4 DB00     		lsls	r3, r3, #3
 712 00a6 43EA5173 		orr	r3, r3, r1, lsr #29
 713 00aa C900     		lsls	r1, r1, #3
 714 00ac 11EB000C 		adds	ip, r1, r0
 715 00b0 43F10003 		adc	r3, r3, #0
 716 00b4 9902     		lsls	r1, r3, #10
 717 00b6 0023     		movs	r3, #0
 718 00b8 4FEA8C20 		lsl	r0, ip, #10
 719 00bc 41EA9C51 		orr	r1, r1, ip, lsr #22
 720 00c0 FFF7FEFF 		bl	__aeabi_uldivmod
 721 00c4 D1E7     		b	.L113
 722              	.L118:
 723 00c6 00BF     		.align	2
 724              	.L117:
 725 00c8 00380240 		.word	1073887232
 726 00cc 0024F400 		.word	16000000
 728              		.section	.text.HAL_RCC_ClockConfig,"ax",%progbits
 729              		.align	1
 730              		.global	HAL_RCC_ClockConfig
 731              		.syntax unified
 732              		.thumb
 733              		.thumb_func
 735              	HAL_RCC_ClockConfig:
 736              		@ args = 0, pretend = 0, frame = 0
 737              		@ frame_needed = 0, uses_anonymous_args = 0
 738 0000 0028     		cmp	r0, #0
 739 0002 00F09B80 		beq	.L134
 740 0006 70B5     		push	{r4, r5, r6, lr}
 741 0008 0D46     		mov	r5, r1
 742 000a 0446     		mov	r4, r0
 743 000c 4F4B     		ldr	r3, .L147
 744 000e 1B68     		ldr	r3, [r3]
 745 0010 03F00F03 		and	r3, r3, #15
 746 0014 8B42     		cmp	r3, r1
 747 0016 08D2     		bcs	.L121
 748 0018 CBB2     		uxtb	r3, r1
 749 001a 4C4A     		ldr	r2, .L147
 750 001c 1370     		strb	r3, [r2]
 751 001e 1368     		ldr	r3, [r2]
 752 0020 03F00F03 		and	r3, r3, #15
 753 0024 8B42     		cmp	r3, r1
 754 0026 40F08B80 		bne	.L135
ARM GAS  C:\Users\Rick\AppData\Local\Temp\ccw94w4a.s 			page 14


 755              	.L121:
 756 002a 2368     		ldr	r3, [r4]
 757 002c 13F0020F 		tst	r3, #2
 758 0030 17D0     		beq	.L122
 759 0032 13F0040F 		tst	r3, #4
 760 0036 04D0     		beq	.L123
 761 0038 454A     		ldr	r2, .L147+4
 762 003a 9368     		ldr	r3, [r2, #8]
 763 003c 43F4E053 		orr	r3, r3, #7168
 764 0040 9360     		str	r3, [r2, #8]
 765              	.L123:
 766 0042 2368     		ldr	r3, [r4]
 767 0044 13F0080F 		tst	r3, #8
 768 0048 04D0     		beq	.L124
 769 004a 414A     		ldr	r2, .L147+4
 770 004c 9368     		ldr	r3, [r2, #8]
 771 004e 43F46043 		orr	r3, r3, #57344
 772 0052 9360     		str	r3, [r2, #8]
 773              	.L124:
 774 0054 3E4A     		ldr	r2, .L147+4
 775 0056 9368     		ldr	r3, [r2, #8]
 776 0058 23F0F003 		bic	r3, r3, #240
 777 005c A168     		ldr	r1, [r4, #8]
 778 005e 0B43     		orrs	r3, r3, r1
 779 0060 9360     		str	r3, [r2, #8]
 780              	.L122:
 781 0062 2368     		ldr	r3, [r4]
 782 0064 13F0010F 		tst	r3, #1
 783 0068 32D0     		beq	.L125
 784 006a 6368     		ldr	r3, [r4, #4]
 785 006c 012B     		cmp	r3, #1
 786 006e 21D0     		beq	.L145
 787 0070 9A1E     		subs	r2, r3, #2
 788 0072 012A     		cmp	r2, #1
 789 0074 25D9     		bls	.L146
 790 0076 364A     		ldr	r2, .L147+4
 791 0078 1268     		ldr	r2, [r2]
 792 007a 12F0020F 		tst	r2, #2
 793 007e 61D0     		beq	.L138
 794              	.L127:
 795 0080 3349     		ldr	r1, .L147+4
 796 0082 8A68     		ldr	r2, [r1, #8]
 797 0084 22F00302 		bic	r2, r2, #3
 798 0088 1343     		orrs	r3, r3, r2
 799 008a 8B60     		str	r3, [r1, #8]
 800 008c FFF7FEFF 		bl	HAL_GetTick
 801 0090 0646     		mov	r6, r0
 802              	.L129:
 803 0092 2F4B     		ldr	r3, .L147+4
 804 0094 9B68     		ldr	r3, [r3, #8]
 805 0096 03F00C03 		and	r3, r3, #12
 806 009a 6268     		ldr	r2, [r4, #4]
 807 009c B3EB820F 		cmp	r3, r2, lsl #2
 808 00a0 16D0     		beq	.L125
 809 00a2 FFF7FEFF 		bl	HAL_GetTick
 810 00a6 801B     		subs	r0, r0, r6
 811 00a8 41F28833 		movw	r3, #5000
ARM GAS  C:\Users\Rick\AppData\Local\Temp\ccw94w4a.s 			page 15


 812 00ac 9842     		cmp	r0, r3
 813 00ae F0D9     		bls	.L129
 814 00b0 0320     		movs	r0, #3
 815 00b2 42E0     		b	.L120
 816              	.L145:
 817 00b4 264A     		ldr	r2, .L147+4
 818 00b6 1268     		ldr	r2, [r2]
 819 00b8 12F4003F 		tst	r2, #131072
 820 00bc E0D1     		bne	.L127
 821 00be 0120     		movs	r0, #1
 822 00c0 3BE0     		b	.L120
 823              	.L146:
 824 00c2 234A     		ldr	r2, .L147+4
 825 00c4 1268     		ldr	r2, [r2]
 826 00c6 12F0007F 		tst	r2, #33554432
 827 00ca D9D1     		bne	.L127
 828 00cc 0120     		movs	r0, #1
 829 00ce 34E0     		b	.L120
 830              	.L125:
 831 00d0 1E4B     		ldr	r3, .L147
 832 00d2 1B68     		ldr	r3, [r3]
 833 00d4 03F00F03 		and	r3, r3, #15
 834 00d8 AB42     		cmp	r3, r5
 835 00da 07D9     		bls	.L131
 836 00dc EAB2     		uxtb	r2, r5
 837 00de 1B4B     		ldr	r3, .L147
 838 00e0 1A70     		strb	r2, [r3]
 839 00e2 1B68     		ldr	r3, [r3]
 840 00e4 03F00F03 		and	r3, r3, #15
 841 00e8 AB42     		cmp	r3, r5
 842 00ea 2DD1     		bne	.L140
 843              	.L131:
 844 00ec 2368     		ldr	r3, [r4]
 845 00ee 13F0040F 		tst	r3, #4
 846 00f2 06D0     		beq	.L132
 847 00f4 164A     		ldr	r2, .L147+4
 848 00f6 9368     		ldr	r3, [r2, #8]
 849 00f8 23F4E053 		bic	r3, r3, #7168
 850 00fc E168     		ldr	r1, [r4, #12]
 851 00fe 0B43     		orrs	r3, r3, r1
 852 0100 9360     		str	r3, [r2, #8]
 853              	.L132:
 854 0102 2368     		ldr	r3, [r4]
 855 0104 13F0080F 		tst	r3, #8
 856 0108 07D0     		beq	.L133
 857 010a 114A     		ldr	r2, .L147+4
 858 010c 9368     		ldr	r3, [r2, #8]
 859 010e 23F46043 		bic	r3, r3, #57344
 860 0112 2169     		ldr	r1, [r4, #16]
 861 0114 43EAC103 		orr	r3, r3, r1, lsl #3
 862 0118 9360     		str	r3, [r2, #8]
 863              	.L133:
 864 011a FFF7FEFF 		bl	HAL_RCC_GetSysClockFreq
 865 011e 0C4B     		ldr	r3, .L147+4
 866 0120 9B68     		ldr	r3, [r3, #8]
 867 0122 C3F30313 		ubfx	r3, r3, #4, #4
 868 0126 0B4A     		ldr	r2, .L147+8
ARM GAS  C:\Users\Rick\AppData\Local\Temp\ccw94w4a.s 			page 16


 869 0128 D35C     		ldrb	r3, [r2, r3]	@ zero_extendqisi2
 870 012a D840     		lsrs	r0, r0, r3
 871 012c 0A4B     		ldr	r3, .L147+12
 872 012e 1860     		str	r0, [r3]
 873 0130 0A4B     		ldr	r3, .L147+16
 874 0132 1868     		ldr	r0, [r3]
 875 0134 FFF7FEFF 		bl	HAL_InitTick
 876 0138 0020     		movs	r0, #0
 877              	.L120:
 878 013a 70BD     		pop	{r4, r5, r6, pc}
 879              	.L134:
 880 013c 0120     		movs	r0, #1
 881 013e 7047     		bx	lr
 882              	.L135:
 883 0140 0120     		movs	r0, #1
 884 0142 FAE7     		b	.L120
 885              	.L138:
 886 0144 0120     		movs	r0, #1
 887 0146 F8E7     		b	.L120
 888              	.L140:
 889 0148 0120     		movs	r0, #1
 890 014a F6E7     		b	.L120
 891              	.L148:
 892              		.align	2
 893              	.L147:
 894 014c 003C0240 		.word	1073888256
 895 0150 00380240 		.word	1073887232
 896 0154 00000000 		.word	AHBPrescTable
 897 0158 00000000 		.word	SystemCoreClock
 898 015c 00000000 		.word	uwTickPrio
 900              		.section	.text.HAL_RCC_GetHCLKFreq,"ax",%progbits
 901              		.align	1
 902              		.global	HAL_RCC_GetHCLKFreq
 903              		.syntax unified
 904              		.thumb
 905              		.thumb_func
 907              	HAL_RCC_GetHCLKFreq:
 908              		@ args = 0, pretend = 0, frame = 0
 909              		@ frame_needed = 0, uses_anonymous_args = 0
 910              		@ link register save eliminated.
 911 0000 014B     		ldr	r3, .L150
 912 0002 1868     		ldr	r0, [r3]
 913 0004 7047     		bx	lr
 914              	.L151:
 915 0006 00BF     		.align	2
 916              	.L150:
 917 0008 00000000 		.word	SystemCoreClock
 919              		.section	.text.HAL_RCC_GetPCLK1Freq,"ax",%progbits
 920              		.align	1
 921              		.global	HAL_RCC_GetPCLK1Freq
 922              		.syntax unified
 923              		.thumb
 924              		.thumb_func
 926              	HAL_RCC_GetPCLK1Freq:
 927              		@ args = 0, pretend = 0, frame = 0
 928              		@ frame_needed = 0, uses_anonymous_args = 0
 929 0000 08B5     		push	{r3, lr}
ARM GAS  C:\Users\Rick\AppData\Local\Temp\ccw94w4a.s 			page 17


 930 0002 FFF7FEFF 		bl	HAL_RCC_GetHCLKFreq
 931 0006 044B     		ldr	r3, .L154
 932 0008 9B68     		ldr	r3, [r3, #8]
 933 000a C3F38223 		ubfx	r3, r3, #10, #3
 934 000e 034A     		ldr	r2, .L154+4
 935 0010 D35C     		ldrb	r3, [r2, r3]	@ zero_extendqisi2
 936 0012 D840     		lsrs	r0, r0, r3
 937 0014 08BD     		pop	{r3, pc}
 938              	.L155:
 939 0016 00BF     		.align	2
 940              	.L154:
 941 0018 00380240 		.word	1073887232
 942 001c 00000000 		.word	APBPrescTable
 944              		.section	.text.HAL_RCC_GetPCLK2Freq,"ax",%progbits
 945              		.align	1
 946              		.global	HAL_RCC_GetPCLK2Freq
 947              		.syntax unified
 948              		.thumb
 949              		.thumb_func
 951              	HAL_RCC_GetPCLK2Freq:
 952              		@ args = 0, pretend = 0, frame = 0
 953              		@ frame_needed = 0, uses_anonymous_args = 0
 954 0000 08B5     		push	{r3, lr}
 955 0002 FFF7FEFF 		bl	HAL_RCC_GetHCLKFreq
 956 0006 044B     		ldr	r3, .L158
 957 0008 9B68     		ldr	r3, [r3, #8]
 958 000a C3F34233 		ubfx	r3, r3, #13, #3
 959 000e 034A     		ldr	r2, .L158+4
 960 0010 D35C     		ldrb	r3, [r2, r3]	@ zero_extendqisi2
 961 0012 D840     		lsrs	r0, r0, r3
 962 0014 08BD     		pop	{r3, pc}
 963              	.L159:
 964 0016 00BF     		.align	2
 965              	.L158:
 966 0018 00380240 		.word	1073887232
 967 001c 00000000 		.word	APBPrescTable
 969              		.section	.text.HAL_RCC_GetOscConfig,"ax",%progbits
 970              		.align	1
 971              		.weak	HAL_RCC_GetOscConfig
 972              		.syntax unified
 973              		.thumb
 974              		.thumb_func
 976              	HAL_RCC_GetOscConfig:
 977              		@ args = 0, pretend = 0, frame = 0
 978              		@ frame_needed = 0, uses_anonymous_args = 0
 979              		@ link register save eliminated.
 980 0000 0F23     		movs	r3, #15
 981 0002 0360     		str	r3, [r0]
 982 0004 304B     		ldr	r3, .L173
 983 0006 1B68     		ldr	r3, [r3]
 984 0008 13F4802F 		tst	r3, #262144
 985 000c 3BD0     		beq	.L161
 986 000e 4FF4A023 		mov	r3, #327680
 987 0012 4360     		str	r3, [r0, #4]
 988              	.L162:
 989 0014 2C4B     		ldr	r3, .L173
 990 0016 1B68     		ldr	r3, [r3]
ARM GAS  C:\Users\Rick\AppData\Local\Temp\ccw94w4a.s 			page 18


 991 0018 13F0010F 		tst	r3, #1
 992 001c 3FD0     		beq	.L164
 993 001e 0123     		movs	r3, #1
 994 0020 C360     		str	r3, [r0, #12]
 995              	.L165:
 996 0022 294A     		ldr	r2, .L173
 997 0024 1368     		ldr	r3, [r2]
 998 0026 C3F3C403 		ubfx	r3, r3, #3, #5
 999 002a 0361     		str	r3, [r0, #16]
 1000 002c 136F     		ldr	r3, [r2, #112]
 1001 002e 13F0040F 		tst	r3, #4
 1002 0032 37D0     		beq	.L166
 1003 0034 0523     		movs	r3, #5
 1004 0036 8360     		str	r3, [r0, #8]
 1005              	.L167:
 1006 0038 234B     		ldr	r3, .L173
 1007 003a 5B6F     		ldr	r3, [r3, #116]
 1008 003c 13F0010F 		tst	r3, #1
 1009 0040 3BD0     		beq	.L169
 1010 0042 0123     		movs	r3, #1
 1011 0044 4361     		str	r3, [r0, #20]
 1012              	.L170:
 1013 0046 204B     		ldr	r3, .L173
 1014 0048 1B68     		ldr	r3, [r3]
 1015 004a 13F0807F 		tst	r3, #16777216
 1016 004e 37D0     		beq	.L171
 1017 0050 0223     		movs	r3, #2
 1018 0052 8361     		str	r3, [r0, #24]
 1019              	.L172:
 1020 0054 1C4A     		ldr	r2, .L173
 1021 0056 5368     		ldr	r3, [r2, #4]
 1022 0058 03F48003 		and	r3, r3, #4194304
 1023 005c C361     		str	r3, [r0, #28]
 1024 005e 5368     		ldr	r3, [r2, #4]
 1025 0060 03F03F03 		and	r3, r3, #63
 1026 0064 0362     		str	r3, [r0, #32]
 1027 0066 5368     		ldr	r3, [r2, #4]
 1028 0068 C3F38813 		ubfx	r3, r3, #6, #9
 1029 006c 4362     		str	r3, [r0, #36]
 1030 006e 5368     		ldr	r3, [r2, #4]
 1031 0070 03F44033 		and	r3, r3, #196608
 1032 0074 03F58033 		add	r3, r3, #65536
 1033 0078 DB0B     		lsrs	r3, r3, #15
 1034 007a 8362     		str	r3, [r0, #40]
 1035 007c 5368     		ldr	r3, [r2, #4]
 1036 007e C3F30363 		ubfx	r3, r3, #24, #4
 1037 0082 C362     		str	r3, [r0, #44]
 1038 0084 7047     		bx	lr
 1039              	.L161:
 1040 0086 104B     		ldr	r3, .L173
 1041 0088 1B68     		ldr	r3, [r3]
 1042 008a 13F4803F 		tst	r3, #65536
 1043 008e 03D0     		beq	.L163
 1044 0090 4FF48033 		mov	r3, #65536
 1045 0094 4360     		str	r3, [r0, #4]
 1046 0096 BDE7     		b	.L162
 1047              	.L163:
ARM GAS  C:\Users\Rick\AppData\Local\Temp\ccw94w4a.s 			page 19


 1048 0098 0023     		movs	r3, #0
 1049 009a 4360     		str	r3, [r0, #4]
 1050 009c BAE7     		b	.L162
 1051              	.L164:
 1052 009e 0023     		movs	r3, #0
 1053 00a0 C360     		str	r3, [r0, #12]
 1054 00a2 BEE7     		b	.L165
 1055              	.L166:
 1056 00a4 084B     		ldr	r3, .L173
 1057 00a6 1B6F     		ldr	r3, [r3, #112]
 1058 00a8 13F0010F 		tst	r3, #1
 1059 00ac 02D0     		beq	.L168
 1060 00ae 0123     		movs	r3, #1
 1061 00b0 8360     		str	r3, [r0, #8]
 1062 00b2 C1E7     		b	.L167
 1063              	.L168:
 1064 00b4 0023     		movs	r3, #0
 1065 00b6 8360     		str	r3, [r0, #8]
 1066 00b8 BEE7     		b	.L167
 1067              	.L169:
 1068 00ba 0023     		movs	r3, #0
 1069 00bc 4361     		str	r3, [r0, #20]
 1070 00be C2E7     		b	.L170
 1071              	.L171:
 1072 00c0 0123     		movs	r3, #1
 1073 00c2 8361     		str	r3, [r0, #24]
 1074 00c4 C6E7     		b	.L172
 1075              	.L174:
 1076 00c6 00BF     		.align	2
 1077              	.L173:
 1078 00c8 00380240 		.word	1073887232
 1080              		.section	.text.HAL_RCC_GetClockConfig,"ax",%progbits
 1081              		.align	1
 1082              		.global	HAL_RCC_GetClockConfig
 1083              		.syntax unified
 1084              		.thumb
 1085              		.thumb_func
 1087              	HAL_RCC_GetClockConfig:
 1088              		@ args = 0, pretend = 0, frame = 0
 1089              		@ frame_needed = 0, uses_anonymous_args = 0
 1090              		@ link register save eliminated.
 1091 0000 0F23     		movs	r3, #15
 1092 0002 0360     		str	r3, [r0]
 1093 0004 0B4B     		ldr	r3, .L176
 1094 0006 9A68     		ldr	r2, [r3, #8]
 1095 0008 02F00302 		and	r2, r2, #3
 1096 000c 4260     		str	r2, [r0, #4]
 1097 000e 9A68     		ldr	r2, [r3, #8]
 1098 0010 02F0F002 		and	r2, r2, #240
 1099 0014 8260     		str	r2, [r0, #8]
 1100 0016 9A68     		ldr	r2, [r3, #8]
 1101 0018 02F4E052 		and	r2, r2, #7168
 1102 001c C260     		str	r2, [r0, #12]
 1103 001e 9B68     		ldr	r3, [r3, #8]
 1104 0020 DB08     		lsrs	r3, r3, #3
 1105 0022 03F4E053 		and	r3, r3, #7168
 1106 0026 0361     		str	r3, [r0, #16]
ARM GAS  C:\Users\Rick\AppData\Local\Temp\ccw94w4a.s 			page 20


 1107 0028 034B     		ldr	r3, .L176+4
 1108 002a 1B68     		ldr	r3, [r3]
 1109 002c 03F00F03 		and	r3, r3, #15
 1110 0030 0B60     		str	r3, [r1]
 1111 0032 7047     		bx	lr
 1112              	.L177:
 1113              		.align	2
 1114              	.L176:
 1115 0034 00380240 		.word	1073887232
 1116 0038 003C0240 		.word	1073888256
 1118              		.section	.text.HAL_RCC_CSSCallback,"ax",%progbits
 1119              		.align	1
 1120              		.weak	HAL_RCC_CSSCallback
 1121              		.syntax unified
 1122              		.thumb
 1123              		.thumb_func
 1125              	HAL_RCC_CSSCallback:
 1126              		@ args = 0, pretend = 0, frame = 0
 1127              		@ frame_needed = 0, uses_anonymous_args = 0
 1128              		@ link register save eliminated.
 1129 0000 7047     		bx	lr
 1131              		.section	.text.HAL_RCC_NMI_IRQHandler,"ax",%progbits
 1132              		.align	1
 1133              		.global	HAL_RCC_NMI_IRQHandler
 1134              		.syntax unified
 1135              		.thumb
 1136              		.thumb_func
 1138              	HAL_RCC_NMI_IRQHandler:
 1139              		@ args = 0, pretend = 0, frame = 0
 1140              		@ frame_needed = 0, uses_anonymous_args = 0
 1141 0000 08B5     		push	{r3, lr}
 1142 0002 064B     		ldr	r3, .L183
 1143 0004 DB68     		ldr	r3, [r3, #12]
 1144 0006 13F0800F 		tst	r3, #128
 1145 000a 00D1     		bne	.L182
 1146              	.L179:
 1147 000c 08BD     		pop	{r3, pc}
 1148              	.L182:
 1149 000e FFF7FEFF 		bl	HAL_RCC_CSSCallback
 1150 0012 024B     		ldr	r3, .L183
 1151 0014 8022     		movs	r2, #128
 1152 0016 9A73     		strb	r2, [r3, #14]
 1153 0018 F8E7     		b	.L179
 1154              	.L184:
 1155 001a 00BF     		.align	2
 1156              	.L183:
 1157 001c 00380240 		.word	1073887232
 1159              		.global	__aeabi_uldivmod
 1160              		.ident	"GCC: (xPack GNU Arm Embedded GCC x86_64) 14.2.1 20241119"
ARM GAS  C:\Users\Rick\AppData\Local\Temp\ccw94w4a.s 			page 21

