ARM GAS  C:\Users\Rick\AppData\Local\Temp\ccKiRdUA.s 			page 1


   1              		.cpu cortex-m4
   2              		.arch armv7e-m
   3              		.fpu fpv4-sp-d16
   4              		.eabi_attribute 27, 1
   5              		.eabi_attribute 28, 1
   6              		.eabi_attribute 20, 1
   7              		.eabi_attribute 21, 1
   8              		.eabi_attribute 23, 3
   9              		.eabi_attribute 24, 1
  10              		.eabi_attribute 25, 1
  11              		.eabi_attribute 26, 1
  12              		.eabi_attribute 30, 1
  13              		.eabi_attribute 34, 1
  14              		.eabi_attribute 18, 4
  15              		.file	"stm32f4xx_hal_dma_ex.c"
  16              		.text
  17              		.section	.text.DMA_MultiBufferSetConfig,"ax",%progbits
  18              		.align	1
  19              		.syntax unified
  20              		.thumb
  21              		.thumb_func
  23              	DMA_MultiBufferSetConfig:
  24              		@ args = 0, pretend = 0, frame = 0
  25              		@ frame_needed = 0, uses_anonymous_args = 0
  26              		@ link register save eliminated.
  27 0000 10B4     		push	{r4}
  28 0002 0468     		ldr	r4, [r0]
  29 0004 6360     		str	r3, [r4, #4]
  30 0006 8368     		ldr	r3, [r0, #8]
  31 0008 402B     		cmp	r3, #64
  32 000a 06D0     		beq	.L5
  33 000c 0368     		ldr	r3, [r0]
  34 000e 9960     		str	r1, [r3, #8]
  35 0010 0368     		ldr	r3, [r0]
  36 0012 DA60     		str	r2, [r3, #12]
  37              	.L1:
  38 0014 5DF8044B 		ldr	r4, [sp], #4
  39 0018 7047     		bx	lr
  40              	.L5:
  41 001a 0368     		ldr	r3, [r0]
  42 001c 9A60     		str	r2, [r3, #8]
  43 001e 0368     		ldr	r3, [r0]
  44 0020 D960     		str	r1, [r3, #12]
  45 0022 F7E7     		b	.L1
  47              		.section	.text.HAL_DMAEx_MultiBufferStart,"ax",%progbits
  48              		.align	1
  49              		.global	HAL_DMAEx_MultiBufferStart
  50              		.syntax unified
  51              		.thumb
  52              		.thumb_func
  54              	HAL_DMAEx_MultiBufferStart:
  55              		@ args = 4, pretend = 0, frame = 0
  56              		@ frame_needed = 0, uses_anonymous_args = 0
  57 0000 38B5     		push	{r3, r4, r5, lr}
  58 0002 0446     		mov	r4, r0
  59 0004 8068     		ldr	r0, [r0, #8]
  60 0006 8028     		cmp	r0, #128
ARM GAS  C:\Users\Rick\AppData\Local\Temp\ccKiRdUA.s 			page 2


  61 0008 0CD0     		beq	.L12
  62 000a 94F83400 		ldrb	r0, [r4, #52]	@ zero_extendqisi2
  63 000e 0128     		cmp	r0, #1
  64 0010 22D0     		beq	.L9
  65 0012 0120     		movs	r0, #1
  66 0014 84F83400 		strb	r0, [r4, #52]
  67 0018 94F83500 		ldrb	r0, [r4, #53]	@ zero_extendqisi2
  68 001c 0128     		cmp	r0, #1
  69 001e 06D0     		beq	.L13
  70 0020 0220     		movs	r0, #2
  71              	.L8:
  72 0022 38BD     		pop	{r3, r4, r5, pc}
  73              	.L12:
  74 0024 4FF48073 		mov	r3, #256
  75 0028 6365     		str	r3, [r4, #84]
  76 002a 0120     		movs	r0, #1
  77 002c F9E7     		b	.L8
  78              	.L13:
  79 002e 0220     		movs	r0, #2
  80 0030 84F83500 		strb	r0, [r4, #53]
  81 0034 2568     		ldr	r5, [r4]
  82 0036 2868     		ldr	r0, [r5]
  83 0038 40F48020 		orr	r0, r0, #262144
  84 003c 2860     		str	r0, [r5]
  85 003e 2068     		ldr	r0, [r4]
  86 0040 0361     		str	r3, [r0, #16]
  87 0042 049B     		ldr	r3, [sp, #16]
  88 0044 2046     		mov	r0, r4
  89 0046 FFF7FEFF 		bl	DMA_MultiBufferSetConfig
  90 004a 2268     		ldr	r2, [r4]
  91 004c 1368     		ldr	r3, [r2]
  92 004e 43F00103 		orr	r3, r3, #1
  93 0052 1360     		str	r3, [r2]
  94 0054 0020     		movs	r0, #0
  95 0056 E4E7     		b	.L8
  96              	.L9:
  97 0058 0220     		movs	r0, #2
  98 005a E2E7     		b	.L8
 100              		.section	.text.HAL_DMAEx_MultiBufferStart_IT,"ax",%progbits
 101              		.align	1
 102              		.global	HAL_DMAEx_MultiBufferStart_IT
 103              		.syntax unified
 104              		.thumb
 105              		.thumb_func
 107              	HAL_DMAEx_MultiBufferStart_IT:
 108              		@ args = 4, pretend = 0, frame = 0
 109              		@ frame_needed = 0, uses_anonymous_args = 0
 110 0000 38B5     		push	{r3, r4, r5, lr}
 111 0002 0446     		mov	r4, r0
 112 0004 8068     		ldr	r0, [r0, #8]
 113 0006 8028     		cmp	r0, #128
 114 0008 16D0     		beq	.L304
 115 000a E06B     		ldr	r0, [r4, #60]
 116 000c C8B1     		cbz	r0, .L17
 117 000e 606C     		ldr	r0, [r4, #68]
 118 0010 B8B1     		cbz	r0, .L17
 119 0012 E06C     		ldr	r0, [r4, #76]
ARM GAS  C:\Users\Rick\AppData\Local\Temp\ccKiRdUA.s 			page 3


 120 0014 A8B1     		cbz	r0, .L17
 121 0016 94F83400 		ldrb	r0, [r4, #52]	@ zero_extendqisi2
 122 001a 0128     		cmp	r0, #1
 123 001c 00F06787 		beq	.L62
 124 0020 0120     		movs	r0, #1
 125 0022 84F83400 		strb	r0, [r4, #52]
 126 0026 94F83500 		ldrb	r0, [r4, #53]	@ zero_extendqisi2
 127 002a 0128     		cmp	r0, #1
 128 002c 0DD0     		beq	.L305
 129 002e 0023     		movs	r3, #0
 130 0030 84F83430 		strb	r3, [r4, #52]
 131 0034 0220     		movs	r0, #2
 132 0036 07E0     		b	.L16
 133              	.L304:
 134 0038 4FF48073 		mov	r3, #256
 135 003c 6365     		str	r3, [r4, #84]
 136 003e 0120     		movs	r0, #1
 137 0040 02E0     		b	.L16
 138              	.L17:
 139 0042 4023     		movs	r3, #64
 140 0044 6365     		str	r3, [r4, #84]
 141 0046 0120     		movs	r0, #1
 142              	.L16:
 143 0048 38BD     		pop	{r3, r4, r5, pc}
 144              	.L305:
 145 004a 0220     		movs	r0, #2
 146 004c 84F83500 		strb	r0, [r4, #53]
 147 0050 0020     		movs	r0, #0
 148 0052 6065     		str	r0, [r4, #84]
 149 0054 2568     		ldr	r5, [r4]
 150 0056 2868     		ldr	r0, [r5]
 151 0058 40F48020 		orr	r0, r0, #262144
 152 005c 2860     		str	r0, [r5]
 153 005e 2068     		ldr	r0, [r4]
 154 0060 0361     		str	r3, [r0, #16]
 155 0062 049B     		ldr	r3, [sp, #16]
 156 0064 2046     		mov	r0, r4
 157 0066 FFF7FEFF 		bl	DMA_MultiBufferSetConfig
 158 006a 2368     		ldr	r3, [r4]
 159 006c A44A     		ldr	r2, .L327
 160 006e 9342     		cmp	r3, r2
 161 0070 40F29880 		bls	.L20
 162 0074 A2F58962 		sub	r2, r2, #1096
 163 0078 9342     		cmp	r3, r2
 164 007a 31D0     		beq	.L63
 165 007c 02F58062 		add	r2, r2, #1024
 166 0080 9342     		cmp	r3, r2
 167 0082 74D0     		beq	.L64
 168 0084 A2F56872 		sub	r2, r2, #928
 169 0088 9342     		cmp	r3, r2
 170 008a 72D0     		beq	.L65
 171 008c 02F58062 		add	r2, r2, #1024
 172 0090 9342     		cmp	r3, r2
 173 0092 70D0     		beq	.L66
 174 0094 A2F58962 		sub	r2, r2, #1096
 175 0098 9342     		cmp	r3, r2
 176 009a 6ED0     		beq	.L67
ARM GAS  C:\Users\Rick\AppData\Local\Temp\ccKiRdUA.s 			page 4


 177 009c 02F58062 		add	r2, r2, #1024
 178 00a0 9342     		cmp	r3, r2
 179 00a2 6DD0     		beq	.L68
 180 00a4 A2F56872 		sub	r2, r2, #928
 181 00a8 9342     		cmp	r3, r2
 182 00aa 6CD0     		beq	.L69
 183 00ac 02F58062 		add	r2, r2, #1024
 184 00b0 9342     		cmp	r3, r2
 185 00b2 6BD0     		beq	.L70
 186 00b4 A2F58962 		sub	r2, r2, #1096
 187 00b8 9342     		cmp	r3, r2
 188 00ba 6AD0     		beq	.L71
 189 00bc 02F58062 		add	r2, r2, #1024
 190 00c0 9342     		cmp	r3, r2
 191 00c2 69D0     		beq	.L72
 192 00c4 A2F56872 		sub	r2, r2, #928
 193 00c8 9342     		cmp	r3, r2
 194 00ca 68D0     		beq	.L73
 195 00cc 02F58062 		add	r2, r2, #1024
 196 00d0 9342     		cmp	r3, r2
 197 00d2 02D0     		beq	.L306
 198 00d4 4FF00062 		mov	r2, #134217728
 199 00d8 03E0     		b	.L21
 200              	.L306:
 201 00da 4FF40012 		mov	r2, #2097152
 202 00de 00E0     		b	.L21
 203              	.L63:
 204 00e0 2022     		movs	r2, #32
 205              	.L21:
 206 00e2 884B     		ldr	r3, .L327+4
 207 00e4 DA60     		str	r2, [r3, #12]
 208              	.L22:
 209 00e6 2368     		ldr	r3, [r4]
 210 00e8 854A     		ldr	r2, .L327
 211 00ea 9342     		cmp	r3, r2
 212 00ec 40F2CB81 		bls	.L28
 213 00f0 A2F58962 		sub	r2, r2, #1096
 214 00f4 9342     		cmp	r3, r2
 215 00f6 00F06481 		beq	.L111
 216 00fa 02F58062 		add	r2, r2, #1024
 217 00fe 9342     		cmp	r3, r2
 218 0100 00F0A681 		beq	.L112
 219 0104 A2F56872 		sub	r2, r2, #928
 220 0108 9342     		cmp	r3, r2
 221 010a 00F0A381 		beq	.L113
 222 010e 02F58062 		add	r2, r2, #1024
 223 0112 9342     		cmp	r3, r2
 224 0114 00F0A081 		beq	.L114
 225 0118 A2F58962 		sub	r2, r2, #1096
 226 011c 9342     		cmp	r3, r2
 227 011e 00F09D81 		beq	.L115
 228 0122 02F58062 		add	r2, r2, #1024
 229 0126 9342     		cmp	r3, r2
 230 0128 00F09B81 		beq	.L116
 231 012c A2F56872 		sub	r2, r2, #928
 232 0130 9342     		cmp	r3, r2
 233 0132 00F09981 		beq	.L117
ARM GAS  C:\Users\Rick\AppData\Local\Temp\ccKiRdUA.s 			page 5


 234 0136 02F58062 		add	r2, r2, #1024
 235 013a 9342     		cmp	r3, r2
 236 013c 00F09781 		beq	.L118
 237 0140 A2F58962 		sub	r2, r2, #1096
 238 0144 9342     		cmp	r3, r2
 239 0146 00F09581 		beq	.L119
 240 014a 02F58062 		add	r2, r2, #1024
 241 014e 9342     		cmp	r3, r2
 242 0150 00F09381 		beq	.L120
 243 0154 A2F56872 		sub	r2, r2, #928
 244 0158 9342     		cmp	r3, r2
 245 015a 00F09181 		beq	.L121
 246 015e 02F58062 		add	r2, r2, #1024
 247 0162 9342     		cmp	r3, r2
 248 0164 00F02A81 		beq	.L307
 249 0168 4FF08062 		mov	r2, #67108864
 250 016c 2AE1     		b	.L29
 251              	.L64:
 252 016e 2022     		movs	r2, #32
 253 0170 B7E7     		b	.L21
 254              	.L65:
 255 0172 2022     		movs	r2, #32
 256 0174 B5E7     		b	.L21
 257              	.L66:
 258 0176 2022     		movs	r2, #32
 259 0178 B3E7     		b	.L21
 260              	.L67:
 261 017a 4FF40062 		mov	r2, #2048
 262 017e B0E7     		b	.L21
 263              	.L68:
 264 0180 4FF40062 		mov	r2, #2048
 265 0184 ADE7     		b	.L21
 266              	.L69:
 267 0186 4FF40062 		mov	r2, #2048
 268 018a AAE7     		b	.L21
 269              	.L70:
 270 018c 4FF40062 		mov	r2, #2048
 271 0190 A7E7     		b	.L21
 272              	.L71:
 273 0192 4FF40012 		mov	r2, #2097152
 274 0196 A4E7     		b	.L21
 275              	.L72:
 276 0198 4FF40012 		mov	r2, #2097152
 277 019c A1E7     		b	.L21
 278              	.L73:
 279 019e 4FF40012 		mov	r2, #2097152
 280 01a2 9EE7     		b	.L21
 281              	.L20:
 282 01a4 584A     		ldr	r2, .L327+8
 283 01a6 9342     		cmp	r3, r2
 284 01a8 53D9     		bls	.L23
 285 01aa A83A     		subs	r2, r2, #168
 286 01ac 9342     		cmp	r3, r2
 287 01ae 31D0     		beq	.L75
 288 01b0 02F58062 		add	r2, r2, #1024
 289 01b4 9342     		cmp	r3, r2
 290 01b6 31D0     		beq	.L76
ARM GAS  C:\Users\Rick\AppData\Local\Temp\ccKiRdUA.s 			page 6


 291 01b8 A2F56872 		sub	r2, r2, #928
 292 01bc 9342     		cmp	r3, r2
 293 01be 2FD0     		beq	.L77
 294 01c0 02F58062 		add	r2, r2, #1024
 295 01c4 9342     		cmp	r3, r2
 296 01c6 2DD0     		beq	.L78
 297 01c8 A2F58962 		sub	r2, r2, #1096
 298 01cc 9342     		cmp	r3, r2
 299 01ce 2BD0     		beq	.L79
 300 01d0 02F58062 		add	r2, r2, #1024
 301 01d4 9342     		cmp	r3, r2
 302 01d6 2AD0     		beq	.L80
 303 01d8 A2F56872 		sub	r2, r2, #928
 304 01dc 9342     		cmp	r3, r2
 305 01de 29D0     		beq	.L81
 306 01e0 02F58062 		add	r2, r2, #1024
 307 01e4 9342     		cmp	r3, r2
 308 01e6 28D0     		beq	.L82
 309 01e8 A2F58962 		sub	r2, r2, #1096
 310 01ec 9342     		cmp	r3, r2
 311 01ee 27D0     		beq	.L83
 312 01f0 02F58062 		add	r2, r2, #1024
 313 01f4 9342     		cmp	r3, r2
 314 01f6 26D0     		beq	.L84
 315 01f8 A2F56872 		sub	r2, r2, #928
 316 01fc 9342     		cmp	r3, r2
 317 01fe 25D0     		beq	.L85
 318 0200 02F58062 		add	r2, r2, #1024
 319 0204 9342     		cmp	r3, r2
 320 0206 02D0     		beq	.L308
 321 0208 4FF00063 		mov	r3, #134217728
 322 020c 03E0     		b	.L24
 323              	.L308:
 324 020e 4FF40013 		mov	r3, #2097152
 325 0212 00E0     		b	.L24
 326              	.L75:
 327 0214 2023     		movs	r3, #32
 328              	.L24:
 329 0216 3B4A     		ldr	r2, .L327+4
 330 0218 9360     		str	r3, [r2, #8]
 331 021a 64E7     		b	.L22
 332              	.L76:
 333 021c 2023     		movs	r3, #32
 334 021e FAE7     		b	.L24
 335              	.L77:
 336 0220 2023     		movs	r3, #32
 337 0222 F8E7     		b	.L24
 338              	.L78:
 339 0224 2023     		movs	r3, #32
 340 0226 F6E7     		b	.L24
 341              	.L79:
 342 0228 4FF40063 		mov	r3, #2048
 343 022c F3E7     		b	.L24
 344              	.L80:
 345 022e 4FF40063 		mov	r3, #2048
 346 0232 F0E7     		b	.L24
 347              	.L81:
ARM GAS  C:\Users\Rick\AppData\Local\Temp\ccKiRdUA.s 			page 7


 348 0234 4FF40063 		mov	r3, #2048
 349 0238 EDE7     		b	.L24
 350              	.L82:
 351 023a 4FF40063 		mov	r3, #2048
 352 023e EAE7     		b	.L24
 353              	.L83:
 354 0240 4FF40013 		mov	r3, #2097152
 355 0244 E7E7     		b	.L24
 356              	.L84:
 357 0246 4FF40013 		mov	r3, #2097152
 358 024a E4E7     		b	.L24
 359              	.L85:
 360 024c 4FF40013 		mov	r3, #2097152
 361 0250 E1E7     		b	.L24
 362              	.L23:
 363 0252 2E4A     		ldr	r2, .L327+12
 364 0254 9342     		cmp	r3, r2
 365 0256 5DD9     		bls	.L25
 366 0258 483A     		subs	r2, r2, #72
 367 025a 9342     		cmp	r3, r2
 368 025c 31D0     		beq	.L87
 369 025e 02F58062 		add	r2, r2, #1024
 370 0262 9342     		cmp	r3, r2
 371 0264 31D0     		beq	.L88
 372 0266 A2F56872 		sub	r2, r2, #928
 373 026a 9342     		cmp	r3, r2
 374 026c 2FD0     		beq	.L89
 375 026e 02F58062 		add	r2, r2, #1024
 376 0272 9342     		cmp	r3, r2
 377 0274 2DD0     		beq	.L90
 378 0276 A2F58962 		sub	r2, r2, #1096
 379 027a 9342     		cmp	r3, r2
 380 027c 2BD0     		beq	.L91
 381 027e 02F58062 		add	r2, r2, #1024
 382 0282 9342     		cmp	r3, r2
 383 0284 2AD0     		beq	.L92
 384 0286 A2F56872 		sub	r2, r2, #928
 385 028a 9342     		cmp	r3, r2
 386 028c 29D0     		beq	.L93
 387 028e 02F58062 		add	r2, r2, #1024
 388 0292 9342     		cmp	r3, r2
 389 0294 28D0     		beq	.L94
 390 0296 A2F58962 		sub	r2, r2, #1096
 391 029a 9342     		cmp	r3, r2
 392 029c 27D0     		beq	.L95
 393 029e 02F58062 		add	r2, r2, #1024
 394 02a2 9342     		cmp	r3, r2
 395 02a4 26D0     		beq	.L96
 396 02a6 A2F56872 		sub	r2, r2, #928
 397 02aa 9342     		cmp	r3, r2
 398 02ac 25D0     		beq	.L97
 399 02ae 02F58062 		add	r2, r2, #1024
 400 02b2 9342     		cmp	r3, r2
 401 02b4 02D0     		beq	.L309
 402 02b6 4FF00063 		mov	r3, #134217728
 403 02ba 03E0     		b	.L26
 404              	.L309:
ARM GAS  C:\Users\Rick\AppData\Local\Temp\ccKiRdUA.s 			page 8


 405 02bc 4FF40013 		mov	r3, #2097152
 406 02c0 00E0     		b	.L26
 407              	.L87:
 408 02c2 2023     		movs	r3, #32
 409              	.L26:
 410 02c4 124A     		ldr	r2, .L327+16
 411 02c6 D360     		str	r3, [r2, #12]
 412 02c8 0DE7     		b	.L22
 413              	.L88:
 414 02ca 2023     		movs	r3, #32
 415 02cc FAE7     		b	.L26
 416              	.L89:
 417 02ce 2023     		movs	r3, #32
 418 02d0 F8E7     		b	.L26
 419              	.L90:
 420 02d2 2023     		movs	r3, #32
 421 02d4 F6E7     		b	.L26
 422              	.L91:
 423 02d6 4FF40063 		mov	r3, #2048
 424 02da F3E7     		b	.L26
 425              	.L92:
 426 02dc 4FF40063 		mov	r3, #2048
 427 02e0 F0E7     		b	.L26
 428              	.L93:
 429 02e2 4FF40063 		mov	r3, #2048
 430 02e6 EDE7     		b	.L26
 431              	.L94:
 432 02e8 4FF40063 		mov	r3, #2048
 433 02ec EAE7     		b	.L26
 434              	.L95:
 435 02ee 4FF40013 		mov	r3, #2097152
 436 02f2 E7E7     		b	.L26
 437              	.L96:
 438 02f4 4FF40013 		mov	r3, #2097152
 439 02f8 E4E7     		b	.L26
 440              	.L97:
 441 02fa 4FF40013 		mov	r3, #2097152
 442 02fe E1E7     		b	.L26
 443              	.L328:
 444              		.align	2
 445              	.L327:
 446 0300 58640240 		.word	1073898584
 447 0304 00640240 		.word	1073898496
 448 0308 B8600240 		.word	1073897656
 449 030c 58600240 		.word	1073897560
 450 0310 00600240 		.word	1073897472
 451              	.L25:
 452 0314 B14A     		ldr	r2, .L329
 453 0316 9342     		cmp	r3, r2
 454 0318 31D0     		beq	.L99
 455 031a 02F58062 		add	r2, r2, #1024
 456 031e 9342     		cmp	r3, r2
 457 0320 31D0     		beq	.L100
 458 0322 A2F56872 		sub	r2, r2, #928
 459 0326 9342     		cmp	r3, r2
 460 0328 2FD0     		beq	.L101
 461 032a 02F58062 		add	r2, r2, #1024
ARM GAS  C:\Users\Rick\AppData\Local\Temp\ccKiRdUA.s 			page 9


 462 032e 9342     		cmp	r3, r2
 463 0330 2DD0     		beq	.L102
 464 0332 A2F58962 		sub	r2, r2, #1096
 465 0336 9342     		cmp	r3, r2
 466 0338 2BD0     		beq	.L103
 467 033a 02F58062 		add	r2, r2, #1024
 468 033e 9342     		cmp	r3, r2
 469 0340 2AD0     		beq	.L104
 470 0342 A2F56872 		sub	r2, r2, #928
 471 0346 9342     		cmp	r3, r2
 472 0348 29D0     		beq	.L105
 473 034a 02F58062 		add	r2, r2, #1024
 474 034e 9342     		cmp	r3, r2
 475 0350 28D0     		beq	.L106
 476 0352 A2F58962 		sub	r2, r2, #1096
 477 0356 9342     		cmp	r3, r2
 478 0358 27D0     		beq	.L107
 479 035a 02F58062 		add	r2, r2, #1024
 480 035e 9342     		cmp	r3, r2
 481 0360 26D0     		beq	.L108
 482 0362 A2F56872 		sub	r2, r2, #928
 483 0366 9342     		cmp	r3, r2
 484 0368 25D0     		beq	.L109
 485 036a 02F58062 		add	r2, r2, #1024
 486 036e 9342     		cmp	r3, r2
 487 0370 02D0     		beq	.L310
 488 0372 4FF00063 		mov	r3, #134217728
 489 0376 03E0     		b	.L27
 490              	.L310:
 491 0378 4FF40013 		mov	r3, #2097152
 492 037c 00E0     		b	.L27
 493              	.L99:
 494 037e 2023     		movs	r3, #32
 495              	.L27:
 496 0380 974A     		ldr	r2, .L329+4
 497 0382 9360     		str	r3, [r2, #8]
 498 0384 AFE6     		b	.L22
 499              	.L100:
 500 0386 2023     		movs	r3, #32
 501 0388 FAE7     		b	.L27
 502              	.L101:
 503 038a 2023     		movs	r3, #32
 504 038c F8E7     		b	.L27
 505              	.L102:
 506 038e 2023     		movs	r3, #32
 507 0390 F6E7     		b	.L27
 508              	.L103:
 509 0392 4FF40063 		mov	r3, #2048
 510 0396 F3E7     		b	.L27
 511              	.L104:
 512 0398 4FF40063 		mov	r3, #2048
 513 039c F0E7     		b	.L27
 514              	.L105:
 515 039e 4FF40063 		mov	r3, #2048
 516 03a2 EDE7     		b	.L27
 517              	.L106:
 518 03a4 4FF40063 		mov	r3, #2048
ARM GAS  C:\Users\Rick\AppData\Local\Temp\ccKiRdUA.s 			page 10


 519 03a8 EAE7     		b	.L27
 520              	.L107:
 521 03aa 4FF40013 		mov	r3, #2097152
 522 03ae E7E7     		b	.L27
 523              	.L108:
 524 03b0 4FF40013 		mov	r3, #2097152
 525 03b4 E4E7     		b	.L27
 526              	.L109:
 527 03b6 4FF40013 		mov	r3, #2097152
 528 03ba E1E7     		b	.L27
 529              	.L307:
 530 03bc 4FF48012 		mov	r2, #1048576
 531 03c0 00E0     		b	.L29
 532              	.L111:
 533 03c2 1022     		movs	r2, #16
 534              	.L29:
 535 03c4 874B     		ldr	r3, .L329+8
 536 03c6 DA60     		str	r2, [r3, #12]
 537              	.L30:
 538 03c8 2368     		ldr	r3, [r4]
 539 03ca 874A     		ldr	r2, .L329+12
 540 03cc 9342     		cmp	r3, r2
 541 03ce 40F2CD81 		bls	.L36
 542 03d2 A2F58962 		sub	r2, r2, #1096
 543 03d6 9342     		cmp	r3, r2
 544 03d8 00F06681 		beq	.L159
 545 03dc 02F58062 		add	r2, r2, #1024
 546 03e0 9342     		cmp	r3, r2
 547 03e2 00F0A881 		beq	.L160
 548 03e6 A2F56872 		sub	r2, r2, #928
 549 03ea 9342     		cmp	r3, r2
 550 03ec 00F0A581 		beq	.L161
 551 03f0 02F58062 		add	r2, r2, #1024
 552 03f4 9342     		cmp	r3, r2
 553 03f6 00F0A281 		beq	.L162
 554 03fa A2F58962 		sub	r2, r2, #1096
 555 03fe 9342     		cmp	r3, r2
 556 0400 00F09F81 		beq	.L163
 557 0404 02F58062 		add	r2, r2, #1024
 558 0408 9342     		cmp	r3, r2
 559 040a 00F09D81 		beq	.L164
 560 040e A2F56872 		sub	r2, r2, #928
 561 0412 9342     		cmp	r3, r2
 562 0414 00F09B81 		beq	.L165
 563 0418 02F58062 		add	r2, r2, #1024
 564 041c 9342     		cmp	r3, r2
 565 041e 00F09981 		beq	.L166
 566 0422 A2F58962 		sub	r2, r2, #1096
 567 0426 9342     		cmp	r3, r2
 568 0428 00F09781 		beq	.L167
 569 042c 02F58062 		add	r2, r2, #1024
 570 0430 9342     		cmp	r3, r2
 571 0432 00F09581 		beq	.L168
 572 0436 A2F56872 		sub	r2, r2, #928
 573 043a 9342     		cmp	r3, r2
 574 043c 00F09381 		beq	.L169
 575 0440 02F58062 		add	r2, r2, #1024
ARM GAS  C:\Users\Rick\AppData\Local\Temp\ccKiRdUA.s 			page 11


 576 0444 9342     		cmp	r3, r2
 577 0446 00F02C81 		beq	.L311
 578 044a 4FF00072 		mov	r2, #33554432
 579 044e 2CE1     		b	.L37
 580              	.L112:
 581 0450 1022     		movs	r2, #16
 582 0452 B7E7     		b	.L29
 583              	.L113:
 584 0454 1022     		movs	r2, #16
 585 0456 B5E7     		b	.L29
 586              	.L114:
 587 0458 1022     		movs	r2, #16
 588 045a B3E7     		b	.L29
 589              	.L115:
 590 045c 4FF48062 		mov	r2, #1024
 591 0460 B0E7     		b	.L29
 592              	.L116:
 593 0462 4FF48062 		mov	r2, #1024
 594 0466 ADE7     		b	.L29
 595              	.L117:
 596 0468 4FF48062 		mov	r2, #1024
 597 046c AAE7     		b	.L29
 598              	.L118:
 599 046e 4FF48062 		mov	r2, #1024
 600 0472 A7E7     		b	.L29
 601              	.L119:
 602 0474 4FF48012 		mov	r2, #1048576
 603 0478 A4E7     		b	.L29
 604              	.L120:
 605 047a 4FF48012 		mov	r2, #1048576
 606 047e A1E7     		b	.L29
 607              	.L121:
 608 0480 4FF48012 		mov	r2, #1048576
 609 0484 9EE7     		b	.L29
 610              	.L28:
 611 0486 594A     		ldr	r2, .L329+16
 612 0488 9342     		cmp	r3, r2
 613 048a 53D9     		bls	.L31
 614 048c A83A     		subs	r2, r2, #168
 615 048e 9342     		cmp	r3, r2
 616 0490 31D0     		beq	.L123
 617 0492 02F58062 		add	r2, r2, #1024
 618 0496 9342     		cmp	r3, r2
 619 0498 31D0     		beq	.L124
 620 049a A2F56872 		sub	r2, r2, #928
 621 049e 9342     		cmp	r3, r2
 622 04a0 2FD0     		beq	.L125
 623 04a2 02F58062 		add	r2, r2, #1024
 624 04a6 9342     		cmp	r3, r2
 625 04a8 2DD0     		beq	.L126
 626 04aa A2F58962 		sub	r2, r2, #1096
 627 04ae 9342     		cmp	r3, r2
 628 04b0 2BD0     		beq	.L127
 629 04b2 02F58062 		add	r2, r2, #1024
 630 04b6 9342     		cmp	r3, r2
 631 04b8 2AD0     		beq	.L128
 632 04ba A2F56872 		sub	r2, r2, #928
ARM GAS  C:\Users\Rick\AppData\Local\Temp\ccKiRdUA.s 			page 12


 633 04be 9342     		cmp	r3, r2
 634 04c0 29D0     		beq	.L129
 635 04c2 02F58062 		add	r2, r2, #1024
 636 04c6 9342     		cmp	r3, r2
 637 04c8 28D0     		beq	.L130
 638 04ca A2F58962 		sub	r2, r2, #1096
 639 04ce 9342     		cmp	r3, r2
 640 04d0 27D0     		beq	.L131
 641 04d2 02F58062 		add	r2, r2, #1024
 642 04d6 9342     		cmp	r3, r2
 643 04d8 26D0     		beq	.L132
 644 04da A2F56872 		sub	r2, r2, #928
 645 04de 9342     		cmp	r3, r2
 646 04e0 25D0     		beq	.L133
 647 04e2 02F58062 		add	r2, r2, #1024
 648 04e6 9342     		cmp	r3, r2
 649 04e8 02D0     		beq	.L312
 650 04ea 4FF08063 		mov	r3, #67108864
 651 04ee 03E0     		b	.L32
 652              	.L312:
 653 04f0 4FF48013 		mov	r3, #1048576
 654 04f4 00E0     		b	.L32
 655              	.L123:
 656 04f6 1023     		movs	r3, #16
 657              	.L32:
 658 04f8 3A4A     		ldr	r2, .L329+8
 659 04fa 9360     		str	r3, [r2, #8]
 660 04fc 64E7     		b	.L30
 661              	.L124:
 662 04fe 1023     		movs	r3, #16
 663 0500 FAE7     		b	.L32
 664              	.L125:
 665 0502 1023     		movs	r3, #16
 666 0504 F8E7     		b	.L32
 667              	.L126:
 668 0506 1023     		movs	r3, #16
 669 0508 F6E7     		b	.L32
 670              	.L127:
 671 050a 4FF48063 		mov	r3, #1024
 672 050e F3E7     		b	.L32
 673              	.L128:
 674 0510 4FF48063 		mov	r3, #1024
 675 0514 F0E7     		b	.L32
 676              	.L129:
 677 0516 4FF48063 		mov	r3, #1024
 678 051a EDE7     		b	.L32
 679              	.L130:
 680 051c 4FF48063 		mov	r3, #1024
 681 0520 EAE7     		b	.L32
 682              	.L131:
 683 0522 4FF48013 		mov	r3, #1048576
 684 0526 E7E7     		b	.L32
 685              	.L132:
 686 0528 4FF48013 		mov	r3, #1048576
 687 052c E4E7     		b	.L32
 688              	.L133:
 689 052e 4FF48013 		mov	r3, #1048576
ARM GAS  C:\Users\Rick\AppData\Local\Temp\ccKiRdUA.s 			page 13


 690 0532 E1E7     		b	.L32
 691              	.L31:
 692 0534 2E4A     		ldr	r2, .L329+20
 693 0536 9342     		cmp	r3, r2
 694 0538 5FD9     		bls	.L33
 695 053a 483A     		subs	r2, r2, #72
 696 053c 9342     		cmp	r3, r2
 697 053e 31D0     		beq	.L135
 698 0540 02F58062 		add	r2, r2, #1024
 699 0544 9342     		cmp	r3, r2
 700 0546 31D0     		beq	.L136
 701 0548 A2F56872 		sub	r2, r2, #928
 702 054c 9342     		cmp	r3, r2
 703 054e 2FD0     		beq	.L137
 704 0550 02F58062 		add	r2, r2, #1024
 705 0554 9342     		cmp	r3, r2
 706 0556 2DD0     		beq	.L138
 707 0558 A2F58962 		sub	r2, r2, #1096
 708 055c 9342     		cmp	r3, r2
 709 055e 2BD0     		beq	.L139
 710 0560 02F58062 		add	r2, r2, #1024
 711 0564 9342     		cmp	r3, r2
 712 0566 2AD0     		beq	.L140
 713 0568 A2F56872 		sub	r2, r2, #928
 714 056c 9342     		cmp	r3, r2
 715 056e 29D0     		beq	.L141
 716 0570 02F58062 		add	r2, r2, #1024
 717 0574 9342     		cmp	r3, r2
 718 0576 28D0     		beq	.L142
 719 0578 A2F58962 		sub	r2, r2, #1096
 720 057c 9342     		cmp	r3, r2
 721 057e 27D0     		beq	.L143
 722 0580 02F58062 		add	r2, r2, #1024
 723 0584 9342     		cmp	r3, r2
 724 0586 26D0     		beq	.L144
 725 0588 A2F56872 		sub	r2, r2, #928
 726 058c 9342     		cmp	r3, r2
 727 058e 31D0     		beq	.L145
 728 0590 02F58062 		add	r2, r2, #1024
 729 0594 9342     		cmp	r3, r2
 730 0596 02D0     		beq	.L313
 731 0598 4FF08063 		mov	r3, #67108864
 732 059c 03E0     		b	.L34
 733              	.L313:
 734 059e 4FF48013 		mov	r3, #1048576
 735 05a2 00E0     		b	.L34
 736              	.L135:
 737 05a4 1023     		movs	r3, #16
 738              	.L34:
 739 05a6 0E4A     		ldr	r2, .L329+4
 740 05a8 D360     		str	r3, [r2, #12]
 741 05aa 0DE7     		b	.L30
 742              	.L136:
 743 05ac 1023     		movs	r3, #16
 744 05ae FAE7     		b	.L34
 745              	.L137:
 746 05b0 1023     		movs	r3, #16
ARM GAS  C:\Users\Rick\AppData\Local\Temp\ccKiRdUA.s 			page 14


 747 05b2 F8E7     		b	.L34
 748              	.L138:
 749 05b4 1023     		movs	r3, #16
 750 05b6 F6E7     		b	.L34
 751              	.L139:
 752 05b8 4FF48063 		mov	r3, #1024
 753 05bc F3E7     		b	.L34
 754              	.L140:
 755 05be 4FF48063 		mov	r3, #1024
 756 05c2 F0E7     		b	.L34
 757              	.L141:
 758 05c4 4FF48063 		mov	r3, #1024
 759 05c8 EDE7     		b	.L34
 760              	.L142:
 761 05ca 4FF48063 		mov	r3, #1024
 762 05ce EAE7     		b	.L34
 763              	.L143:
 764 05d0 4FF48013 		mov	r3, #1048576
 765 05d4 E7E7     		b	.L34
 766              	.L144:
 767 05d6 4FF48013 		mov	r3, #1048576
 768 05da E4E7     		b	.L34
 769              	.L330:
 770              		.align	2
 771              	.L329:
 772 05dc 10600240 		.word	1073897488
 773 05e0 00600240 		.word	1073897472
 774 05e4 00640240 		.word	1073898496
 775 05e8 58640240 		.word	1073898584
 776 05ec B8600240 		.word	1073897656
 777 05f0 58600240 		.word	1073897560
 778              	.L145:
 779 05f4 4FF48013 		mov	r3, #1048576
 780 05f8 D5E7     		b	.L34
 781              	.L33:
 782 05fa B24A     		ldr	r2, .L331
 783 05fc 9342     		cmp	r3, r2
 784 05fe 31D0     		beq	.L147
 785 0600 02F58062 		add	r2, r2, #1024
 786 0604 9342     		cmp	r3, r2
 787 0606 31D0     		beq	.L148
 788 0608 A2F56872 		sub	r2, r2, #928
 789 060c 9342     		cmp	r3, r2
 790 060e 2FD0     		beq	.L149
 791 0610 02F58062 		add	r2, r2, #1024
 792 0614 9342     		cmp	r3, r2
 793 0616 2DD0     		beq	.L150
 794 0618 A2F58962 		sub	r2, r2, #1096
 795 061c 9342     		cmp	r3, r2
 796 061e 2BD0     		beq	.L151
 797 0620 02F58062 		add	r2, r2, #1024
 798 0624 9342     		cmp	r3, r2
 799 0626 2AD0     		beq	.L152
 800 0628 A2F56872 		sub	r2, r2, #928
 801 062c 9342     		cmp	r3, r2
 802 062e 29D0     		beq	.L153
 803 0630 02F58062 		add	r2, r2, #1024
ARM GAS  C:\Users\Rick\AppData\Local\Temp\ccKiRdUA.s 			page 15


 804 0634 9342     		cmp	r3, r2
 805 0636 28D0     		beq	.L154
 806 0638 A2F58962 		sub	r2, r2, #1096
 807 063c 9342     		cmp	r3, r2
 808 063e 27D0     		beq	.L155
 809 0640 02F58062 		add	r2, r2, #1024
 810 0644 9342     		cmp	r3, r2
 811 0646 26D0     		beq	.L156
 812 0648 A2F56872 		sub	r2, r2, #928
 813 064c 9342     		cmp	r3, r2
 814 064e 25D0     		beq	.L157
 815 0650 02F58062 		add	r2, r2, #1024
 816 0654 9342     		cmp	r3, r2
 817 0656 02D0     		beq	.L314
 818 0658 4FF08063 		mov	r3, #67108864
 819 065c 03E0     		b	.L35
 820              	.L314:
 821 065e 4FF48013 		mov	r3, #1048576
 822 0662 00E0     		b	.L35
 823              	.L147:
 824 0664 1023     		movs	r3, #16
 825              	.L35:
 826 0666 984A     		ldr	r2, .L331+4
 827 0668 9360     		str	r3, [r2, #8]
 828 066a ADE6     		b	.L30
 829              	.L148:
 830 066c 1023     		movs	r3, #16
 831 066e FAE7     		b	.L35
 832              	.L149:
 833 0670 1023     		movs	r3, #16
 834 0672 F8E7     		b	.L35
 835              	.L150:
 836 0674 1023     		movs	r3, #16
 837 0676 F6E7     		b	.L35
 838              	.L151:
 839 0678 4FF48063 		mov	r3, #1024
 840 067c F3E7     		b	.L35
 841              	.L152:
 842 067e 4FF48063 		mov	r3, #1024
 843 0682 F0E7     		b	.L35
 844              	.L153:
 845 0684 4FF48063 		mov	r3, #1024
 846 0688 EDE7     		b	.L35
 847              	.L154:
 848 068a 4FF48063 		mov	r3, #1024
 849 068e EAE7     		b	.L35
 850              	.L155:
 851 0690 4FF48013 		mov	r3, #1048576
 852 0694 E7E7     		b	.L35
 853              	.L156:
 854 0696 4FF48013 		mov	r3, #1048576
 855 069a E4E7     		b	.L35
 856              	.L157:
 857 069c 4FF48013 		mov	r3, #1048576
 858 06a0 E1E7     		b	.L35
 859              	.L311:
 860 06a2 4FF40022 		mov	r2, #524288
ARM GAS  C:\Users\Rick\AppData\Local\Temp\ccKiRdUA.s 			page 16


 861 06a6 00E0     		b	.L37
 862              	.L159:
 863 06a8 0822     		movs	r2, #8
 864              	.L37:
 865 06aa 884B     		ldr	r3, .L331+8
 866 06ac DA60     		str	r2, [r3, #12]
 867              	.L38:
 868 06ae 2368     		ldr	r3, [r4]
 869 06b0 874A     		ldr	r2, .L331+12
 870 06b2 9342     		cmp	r3, r2
 871 06b4 40F2CE81 		bls	.L44
 872 06b8 A2F58962 		sub	r2, r2, #1096
 873 06bc 9342     		cmp	r3, r2
 874 06be 00F06781 		beq	.L207
 875 06c2 02F58062 		add	r2, r2, #1024
 876 06c6 9342     		cmp	r3, r2
 877 06c8 00F0A981 		beq	.L208
 878 06cc A2F56872 		sub	r2, r2, #928
 879 06d0 9342     		cmp	r3, r2
 880 06d2 00F0A681 		beq	.L209
 881 06d6 02F58062 		add	r2, r2, #1024
 882 06da 9342     		cmp	r3, r2
 883 06dc 00F0A381 		beq	.L210
 884 06e0 A2F58962 		sub	r2, r2, #1096
 885 06e4 9342     		cmp	r3, r2
 886 06e6 00F0A081 		beq	.L211
 887 06ea 02F58062 		add	r2, r2, #1024
 888 06ee 9342     		cmp	r3, r2
 889 06f0 00F09E81 		beq	.L212
 890 06f4 A2F56872 		sub	r2, r2, #928
 891 06f8 9342     		cmp	r3, r2
 892 06fa 00F09C81 		beq	.L213
 893 06fe 02F58062 		add	r2, r2, #1024
 894 0702 9342     		cmp	r3, r2
 895 0704 00F09A81 		beq	.L214
 896 0708 A2F58962 		sub	r2, r2, #1096
 897 070c 9342     		cmp	r3, r2
 898 070e 00F09881 		beq	.L215
 899 0712 02F58062 		add	r2, r2, #1024
 900 0716 9342     		cmp	r3, r2
 901 0718 00F09681 		beq	.L216
 902 071c A2F56872 		sub	r2, r2, #928
 903 0720 9342     		cmp	r3, r2
 904 0722 00F09481 		beq	.L217
 905 0726 02F58062 		add	r2, r2, #1024
 906 072a 9342     		cmp	r3, r2
 907 072c 00F02D81 		beq	.L315
 908 0730 4FF08072 		mov	r2, #16777216
 909 0734 2DE1     		b	.L45
 910              	.L160:
 911 0736 0822     		movs	r2, #8
 912 0738 B7E7     		b	.L37
 913              	.L161:
 914 073a 0822     		movs	r2, #8
 915 073c B5E7     		b	.L37
 916              	.L162:
 917 073e 0822     		movs	r2, #8
ARM GAS  C:\Users\Rick\AppData\Local\Temp\ccKiRdUA.s 			page 17


 918 0740 B3E7     		b	.L37
 919              	.L163:
 920 0742 4FF40072 		mov	r2, #512
 921 0746 B0E7     		b	.L37
 922              	.L164:
 923 0748 4FF40072 		mov	r2, #512
 924 074c ADE7     		b	.L37
 925              	.L165:
 926 074e 4FF40072 		mov	r2, #512
 927 0752 AAE7     		b	.L37
 928              	.L166:
 929 0754 4FF40072 		mov	r2, #512
 930 0758 A7E7     		b	.L37
 931              	.L167:
 932 075a 4FF40022 		mov	r2, #524288
 933 075e A4E7     		b	.L37
 934              	.L168:
 935 0760 4FF40022 		mov	r2, #524288
 936 0764 A1E7     		b	.L37
 937              	.L169:
 938 0766 4FF40022 		mov	r2, #524288
 939 076a 9EE7     		b	.L37
 940              	.L36:
 941 076c 594A     		ldr	r2, .L331+16
 942 076e 9342     		cmp	r3, r2
 943 0770 53D9     		bls	.L39
 944 0772 A83A     		subs	r2, r2, #168
 945 0774 9342     		cmp	r3, r2
 946 0776 31D0     		beq	.L171
 947 0778 02F58062 		add	r2, r2, #1024
 948 077c 9342     		cmp	r3, r2
 949 077e 31D0     		beq	.L172
 950 0780 A2F56872 		sub	r2, r2, #928
 951 0784 9342     		cmp	r3, r2
 952 0786 2FD0     		beq	.L173
 953 0788 02F58062 		add	r2, r2, #1024
 954 078c 9342     		cmp	r3, r2
 955 078e 2DD0     		beq	.L174
 956 0790 A2F58962 		sub	r2, r2, #1096
 957 0794 9342     		cmp	r3, r2
 958 0796 2BD0     		beq	.L175
 959 0798 02F58062 		add	r2, r2, #1024
 960 079c 9342     		cmp	r3, r2
 961 079e 2AD0     		beq	.L176
 962 07a0 A2F56872 		sub	r2, r2, #928
 963 07a4 9342     		cmp	r3, r2
 964 07a6 29D0     		beq	.L177
 965 07a8 02F58062 		add	r2, r2, #1024
 966 07ac 9342     		cmp	r3, r2
 967 07ae 28D0     		beq	.L178
 968 07b0 A2F58962 		sub	r2, r2, #1096
 969 07b4 9342     		cmp	r3, r2
 970 07b6 27D0     		beq	.L179
 971 07b8 02F58062 		add	r2, r2, #1024
 972 07bc 9342     		cmp	r3, r2
 973 07be 26D0     		beq	.L180
 974 07c0 A2F56872 		sub	r2, r2, #928
ARM GAS  C:\Users\Rick\AppData\Local\Temp\ccKiRdUA.s 			page 18


 975 07c4 9342     		cmp	r3, r2
 976 07c6 25D0     		beq	.L181
 977 07c8 02F58062 		add	r2, r2, #1024
 978 07cc 9342     		cmp	r3, r2
 979 07ce 02D0     		beq	.L316
 980 07d0 4FF00073 		mov	r3, #33554432
 981 07d4 03E0     		b	.L40
 982              	.L316:
 983 07d6 4FF40023 		mov	r3, #524288
 984 07da 00E0     		b	.L40
 985              	.L171:
 986 07dc 0823     		movs	r3, #8
 987              	.L40:
 988 07de 3B4A     		ldr	r2, .L331+8
 989 07e0 9360     		str	r3, [r2, #8]
 990 07e2 64E7     		b	.L38
 991              	.L172:
 992 07e4 0823     		movs	r3, #8
 993 07e6 FAE7     		b	.L40
 994              	.L173:
 995 07e8 0823     		movs	r3, #8
 996 07ea F8E7     		b	.L40
 997              	.L174:
 998 07ec 0823     		movs	r3, #8
 999 07ee F6E7     		b	.L40
 1000              	.L175:
 1001 07f0 4FF40073 		mov	r3, #512
 1002 07f4 F3E7     		b	.L40
 1003              	.L176:
 1004 07f6 4FF40073 		mov	r3, #512
 1005 07fa F0E7     		b	.L40
 1006              	.L177:
 1007 07fc 4FF40073 		mov	r3, #512
 1008 0800 EDE7     		b	.L40
 1009              	.L178:
 1010 0802 4FF40073 		mov	r3, #512
 1011 0806 EAE7     		b	.L40
 1012              	.L179:
 1013 0808 4FF40023 		mov	r3, #524288
 1014 080c E7E7     		b	.L40
 1015              	.L180:
 1016 080e 4FF40023 		mov	r3, #524288
 1017 0812 E4E7     		b	.L40
 1018              	.L181:
 1019 0814 4FF40023 		mov	r3, #524288
 1020 0818 E1E7     		b	.L40
 1021              	.L39:
 1022 081a 2F4A     		ldr	r2, .L331+20
 1023 081c 9342     		cmp	r3, r2
 1024 081e 60D9     		bls	.L41
 1025 0820 483A     		subs	r2, r2, #72
 1026 0822 9342     		cmp	r3, r2
 1027 0824 31D0     		beq	.L183
 1028 0826 02F58062 		add	r2, r2, #1024
 1029 082a 9342     		cmp	r3, r2
 1030 082c 31D0     		beq	.L184
 1031 082e A2F56872 		sub	r2, r2, #928
ARM GAS  C:\Users\Rick\AppData\Local\Temp\ccKiRdUA.s 			page 19


 1032 0832 9342     		cmp	r3, r2
 1033 0834 2FD0     		beq	.L185
 1034 0836 02F58062 		add	r2, r2, #1024
 1035 083a 9342     		cmp	r3, r2
 1036 083c 2DD0     		beq	.L186
 1037 083e A2F58962 		sub	r2, r2, #1096
 1038 0842 9342     		cmp	r3, r2
 1039 0844 2BD0     		beq	.L187
 1040 0846 02F58062 		add	r2, r2, #1024
 1041 084a 9342     		cmp	r3, r2
 1042 084c 2AD0     		beq	.L188
 1043 084e A2F56872 		sub	r2, r2, #928
 1044 0852 9342     		cmp	r3, r2
 1045 0854 29D0     		beq	.L189
 1046 0856 02F58062 		add	r2, r2, #1024
 1047 085a 9342     		cmp	r3, r2
 1048 085c 28D0     		beq	.L190
 1049 085e A2F58962 		sub	r2, r2, #1096
 1050 0862 9342     		cmp	r3, r2
 1051 0864 27D0     		beq	.L191
 1052 0866 02F58062 		add	r2, r2, #1024
 1053 086a 9342     		cmp	r3, r2
 1054 086c 26D0     		beq	.L192
 1055 086e A2F56872 		sub	r2, r2, #928
 1056 0872 9342     		cmp	r3, r2
 1057 0874 32D0     		beq	.L193
 1058 0876 02F58062 		add	r2, r2, #1024
 1059 087a 9342     		cmp	r3, r2
 1060 087c 02D0     		beq	.L317
 1061 087e 4FF00073 		mov	r3, #33554432
 1062 0882 03E0     		b	.L42
 1063              	.L317:
 1064 0884 4FF40023 		mov	r3, #524288
 1065 0888 00E0     		b	.L42
 1066              	.L183:
 1067 088a 0823     		movs	r3, #8
 1068              	.L42:
 1069 088c 0E4A     		ldr	r2, .L331+4
 1070 088e D360     		str	r3, [r2, #12]
 1071 0890 0DE7     		b	.L38
 1072              	.L184:
 1073 0892 0823     		movs	r3, #8
 1074 0894 FAE7     		b	.L42
 1075              	.L185:
 1076 0896 0823     		movs	r3, #8
 1077 0898 F8E7     		b	.L42
 1078              	.L186:
 1079 089a 0823     		movs	r3, #8
 1080 089c F6E7     		b	.L42
 1081              	.L187:
 1082 089e 4FF40073 		mov	r3, #512
 1083 08a2 F3E7     		b	.L42
 1084              	.L188:
 1085 08a4 4FF40073 		mov	r3, #512
 1086 08a8 F0E7     		b	.L42
 1087              	.L189:
 1088 08aa 4FF40073 		mov	r3, #512
ARM GAS  C:\Users\Rick\AppData\Local\Temp\ccKiRdUA.s 			page 20


 1089 08ae EDE7     		b	.L42
 1090              	.L190:
 1091 08b0 4FF40073 		mov	r3, #512
 1092 08b4 EAE7     		b	.L42
 1093              	.L191:
 1094 08b6 4FF40023 		mov	r3, #524288
 1095 08ba E7E7     		b	.L42
 1096              	.L192:
 1097 08bc 4FF40023 		mov	r3, #524288
 1098 08c0 E4E7     		b	.L42
 1099              	.L332:
 1100 08c2 00BF     		.align	2
 1101              	.L331:
 1102 08c4 10600240 		.word	1073897488
 1103 08c8 00600240 		.word	1073897472
 1104 08cc 00640240 		.word	1073898496
 1105 08d0 58640240 		.word	1073898584
 1106 08d4 B8600240 		.word	1073897656
 1107 08d8 58600240 		.word	1073897560
 1108              	.L193:
 1109 08dc 4FF40023 		mov	r3, #524288
 1110 08e0 D4E7     		b	.L42
 1111              	.L41:
 1112 08e2 B24A     		ldr	r2, .L333
 1113 08e4 9342     		cmp	r3, r2
 1114 08e6 31D0     		beq	.L195
 1115 08e8 02F58062 		add	r2, r2, #1024
 1116 08ec 9342     		cmp	r3, r2
 1117 08ee 31D0     		beq	.L196
 1118 08f0 A2F56872 		sub	r2, r2, #928
 1119 08f4 9342     		cmp	r3, r2
 1120 08f6 2FD0     		beq	.L197
 1121 08f8 02F58062 		add	r2, r2, #1024
 1122 08fc 9342     		cmp	r3, r2
 1123 08fe 2DD0     		beq	.L198
 1124 0900 A2F58962 		sub	r2, r2, #1096
 1125 0904 9342     		cmp	r3, r2
 1126 0906 2BD0     		beq	.L199
 1127 0908 02F58062 		add	r2, r2, #1024
 1128 090c 9342     		cmp	r3, r2
 1129 090e 2AD0     		beq	.L200
 1130 0910 A2F56872 		sub	r2, r2, #928
 1131 0914 9342     		cmp	r3, r2
 1132 0916 29D0     		beq	.L201
 1133 0918 02F58062 		add	r2, r2, #1024
 1134 091c 9342     		cmp	r3, r2
 1135 091e 28D0     		beq	.L202
 1136 0920 A2F58962 		sub	r2, r2, #1096
 1137 0924 9342     		cmp	r3, r2
 1138 0926 27D0     		beq	.L203
 1139 0928 02F58062 		add	r2, r2, #1024
 1140 092c 9342     		cmp	r3, r2
 1141 092e 26D0     		beq	.L204
 1142 0930 A2F56872 		sub	r2, r2, #928
 1143 0934 9342     		cmp	r3, r2
 1144 0936 25D0     		beq	.L205
 1145 0938 02F58062 		add	r2, r2, #1024
ARM GAS  C:\Users\Rick\AppData\Local\Temp\ccKiRdUA.s 			page 21


 1146 093c 9342     		cmp	r3, r2
 1147 093e 02D0     		beq	.L318
 1148 0940 4FF00073 		mov	r3, #33554432
 1149 0944 03E0     		b	.L43
 1150              	.L318:
 1151 0946 4FF40023 		mov	r3, #524288
 1152 094a 00E0     		b	.L43
 1153              	.L195:
 1154 094c 0823     		movs	r3, #8
 1155              	.L43:
 1156 094e 984A     		ldr	r2, .L333+4
 1157 0950 9360     		str	r3, [r2, #8]
 1158 0952 ACE6     		b	.L38
 1159              	.L196:
 1160 0954 0823     		movs	r3, #8
 1161 0956 FAE7     		b	.L43
 1162              	.L197:
 1163 0958 0823     		movs	r3, #8
 1164 095a F8E7     		b	.L43
 1165              	.L198:
 1166 095c 0823     		movs	r3, #8
 1167 095e F6E7     		b	.L43
 1168              	.L199:
 1169 0960 4FF40073 		mov	r3, #512
 1170 0964 F3E7     		b	.L43
 1171              	.L200:
 1172 0966 4FF40073 		mov	r3, #512
 1173 096a F0E7     		b	.L43
 1174              	.L201:
 1175 096c 4FF40073 		mov	r3, #512
 1176 0970 EDE7     		b	.L43
 1177              	.L202:
 1178 0972 4FF40073 		mov	r3, #512
 1179 0976 EAE7     		b	.L43
 1180              	.L203:
 1181 0978 4FF40023 		mov	r3, #524288
 1182 097c E7E7     		b	.L43
 1183              	.L204:
 1184 097e 4FF40023 		mov	r3, #524288
 1185 0982 E4E7     		b	.L43
 1186              	.L205:
 1187 0984 4FF40023 		mov	r3, #524288
 1188 0988 E1E7     		b	.L43
 1189              	.L315:
 1190 098a 4FF48022 		mov	r2, #262144
 1191 098e 00E0     		b	.L45
 1192              	.L207:
 1193 0990 0422     		movs	r2, #4
 1194              	.L45:
 1195 0992 884B     		ldr	r3, .L333+8
 1196 0994 DA60     		str	r2, [r3, #12]
 1197              	.L46:
 1198 0996 2368     		ldr	r3, [r4]
 1199 0998 874A     		ldr	r2, .L333+12
 1200 099a 9342     		cmp	r3, r2
 1201 099c 40F2A181 		bls	.L52
 1202 09a0 A2F58962 		sub	r2, r2, #1096
ARM GAS  C:\Users\Rick\AppData\Local\Temp\ccKiRdUA.s 			page 22


 1203 09a4 9342     		cmp	r3, r2
 1204 09a6 00F06781 		beq	.L255
 1205 09aa 02F58062 		add	r2, r2, #1024
 1206 09ae 9342     		cmp	r3, r2
 1207 09b0 00F08081 		beq	.L256
 1208 09b4 A2F56872 		sub	r2, r2, #928
 1209 09b8 9342     		cmp	r3, r2
 1210 09ba 00F07D81 		beq	.L257
 1211 09be 02F58062 		add	r2, r2, #1024
 1212 09c2 9342     		cmp	r3, r2
 1213 09c4 00F07A81 		beq	.L258
 1214 09c8 A2F58962 		sub	r2, r2, #1096
 1215 09cc 9342     		cmp	r3, r2
 1216 09ce 00F07781 		beq	.L259
 1217 09d2 02F58062 		add	r2, r2, #1024
 1218 09d6 9342     		cmp	r3, r2
 1219 09d8 00F07481 		beq	.L260
 1220 09dc A2F56872 		sub	r2, r2, #928
 1221 09e0 9342     		cmp	r3, r2
 1222 09e2 00F07181 		beq	.L261
 1223 09e6 02F58062 		add	r2, r2, #1024
 1224 09ea 9342     		cmp	r3, r2
 1225 09ec 00F06E81 		beq	.L262
 1226 09f0 A2F58962 		sub	r2, r2, #1096
 1227 09f4 9342     		cmp	r3, r2
 1228 09f6 00F06B81 		beq	.L263
 1229 09fa 02F58062 		add	r2, r2, #1024
 1230 09fe 9342     		cmp	r3, r2
 1231 0a00 00F06981 		beq	.L264
 1232 0a04 A2F56872 		sub	r2, r2, #928
 1233 0a08 9342     		cmp	r3, r2
 1234 0a0a 00F06781 		beq	.L265
 1235 0a0e 02F58062 		add	r2, r2, #1024
 1236 0a12 9342     		cmp	r3, r2
 1237 0a14 00F02D81 		beq	.L319
 1238 0a18 4FF48002 		mov	r2, #4194304
 1239 0a1c 2DE1     		b	.L53
 1240              	.L208:
 1241 0a1e 0422     		movs	r2, #4
 1242 0a20 B7E7     		b	.L45
 1243              	.L209:
 1244 0a22 0422     		movs	r2, #4
 1245 0a24 B5E7     		b	.L45
 1246              	.L210:
 1247 0a26 0422     		movs	r2, #4
 1248 0a28 B3E7     		b	.L45
 1249              	.L211:
 1250 0a2a 4FF48072 		mov	r2, #256
 1251 0a2e B0E7     		b	.L45
 1252              	.L212:
 1253 0a30 4FF48072 		mov	r2, #256
 1254 0a34 ADE7     		b	.L45
 1255              	.L213:
 1256 0a36 4FF48072 		mov	r2, #256
 1257 0a3a AAE7     		b	.L45
 1258              	.L214:
 1259 0a3c 4FF48072 		mov	r2, #256
ARM GAS  C:\Users\Rick\AppData\Local\Temp\ccKiRdUA.s 			page 23


 1260 0a40 A7E7     		b	.L45
 1261              	.L215:
 1262 0a42 4FF48022 		mov	r2, #262144
 1263 0a46 A4E7     		b	.L45
 1264              	.L216:
 1265 0a48 4FF48022 		mov	r2, #262144
 1266 0a4c A1E7     		b	.L45
 1267              	.L217:
 1268 0a4e 4FF48022 		mov	r2, #262144
 1269 0a52 9EE7     		b	.L45
 1270              	.L44:
 1271 0a54 594A     		ldr	r2, .L333+16
 1272 0a56 9342     		cmp	r3, r2
 1273 0a58 53D9     		bls	.L47
 1274 0a5a A83A     		subs	r2, r2, #168
 1275 0a5c 9342     		cmp	r3, r2
 1276 0a5e 31D0     		beq	.L219
 1277 0a60 02F58062 		add	r2, r2, #1024
 1278 0a64 9342     		cmp	r3, r2
 1279 0a66 31D0     		beq	.L220
 1280 0a68 A2F56872 		sub	r2, r2, #928
 1281 0a6c 9342     		cmp	r3, r2
 1282 0a6e 2FD0     		beq	.L221
 1283 0a70 02F58062 		add	r2, r2, #1024
 1284 0a74 9342     		cmp	r3, r2
 1285 0a76 2DD0     		beq	.L222
 1286 0a78 A2F58962 		sub	r2, r2, #1096
 1287 0a7c 9342     		cmp	r3, r2
 1288 0a7e 2BD0     		beq	.L223
 1289 0a80 02F58062 		add	r2, r2, #1024
 1290 0a84 9342     		cmp	r3, r2
 1291 0a86 2AD0     		beq	.L224
 1292 0a88 A2F56872 		sub	r2, r2, #928
 1293 0a8c 9342     		cmp	r3, r2
 1294 0a8e 29D0     		beq	.L225
 1295 0a90 02F58062 		add	r2, r2, #1024
 1296 0a94 9342     		cmp	r3, r2
 1297 0a96 28D0     		beq	.L226
 1298 0a98 A2F58962 		sub	r2, r2, #1096
 1299 0a9c 9342     		cmp	r3, r2
 1300 0a9e 27D0     		beq	.L227
 1301 0aa0 02F58062 		add	r2, r2, #1024
 1302 0aa4 9342     		cmp	r3, r2
 1303 0aa6 26D0     		beq	.L228
 1304 0aa8 A2F56872 		sub	r2, r2, #928
 1305 0aac 9342     		cmp	r3, r2
 1306 0aae 25D0     		beq	.L229
 1307 0ab0 02F58062 		add	r2, r2, #1024
 1308 0ab4 9342     		cmp	r3, r2
 1309 0ab6 02D0     		beq	.L320
 1310 0ab8 4FF08073 		mov	r3, #16777216
 1311 0abc 03E0     		b	.L48
 1312              	.L320:
 1313 0abe 4FF48023 		mov	r3, #262144
 1314 0ac2 00E0     		b	.L48
 1315              	.L219:
 1316 0ac4 0423     		movs	r3, #4
ARM GAS  C:\Users\Rick\AppData\Local\Temp\ccKiRdUA.s 			page 24


 1317              	.L48:
 1318 0ac6 3B4A     		ldr	r2, .L333+8
 1319 0ac8 9360     		str	r3, [r2, #8]
 1320 0aca 64E7     		b	.L46
 1321              	.L220:
 1322 0acc 0423     		movs	r3, #4
 1323 0ace FAE7     		b	.L48
 1324              	.L221:
 1325 0ad0 0423     		movs	r3, #4
 1326 0ad2 F8E7     		b	.L48
 1327              	.L222:
 1328 0ad4 0423     		movs	r3, #4
 1329 0ad6 F6E7     		b	.L48
 1330              	.L223:
 1331 0ad8 4FF48073 		mov	r3, #256
 1332 0adc F3E7     		b	.L48
 1333              	.L224:
 1334 0ade 4FF48073 		mov	r3, #256
 1335 0ae2 F0E7     		b	.L48
 1336              	.L225:
 1337 0ae4 4FF48073 		mov	r3, #256
 1338 0ae8 EDE7     		b	.L48
 1339              	.L226:
 1340 0aea 4FF48073 		mov	r3, #256
 1341 0aee EAE7     		b	.L48
 1342              	.L227:
 1343 0af0 4FF48023 		mov	r3, #262144
 1344 0af4 E7E7     		b	.L48
 1345              	.L228:
 1346 0af6 4FF48023 		mov	r3, #262144
 1347 0afa E4E7     		b	.L48
 1348              	.L229:
 1349 0afc 4FF48023 		mov	r3, #262144
 1350 0b00 E1E7     		b	.L48
 1351              	.L47:
 1352 0b02 2F4A     		ldr	r2, .L333+20
 1353 0b04 9342     		cmp	r3, r2
 1354 0b06 60D9     		bls	.L49
 1355 0b08 483A     		subs	r2, r2, #72
 1356 0b0a 9342     		cmp	r3, r2
 1357 0b0c 31D0     		beq	.L231
 1358 0b0e 02F58062 		add	r2, r2, #1024
 1359 0b12 9342     		cmp	r3, r2
 1360 0b14 31D0     		beq	.L232
 1361 0b16 A2F56872 		sub	r2, r2, #928
 1362 0b1a 9342     		cmp	r3, r2
 1363 0b1c 2FD0     		beq	.L233
 1364 0b1e 02F58062 		add	r2, r2, #1024
 1365 0b22 9342     		cmp	r3, r2
 1366 0b24 2DD0     		beq	.L234
 1367 0b26 A2F58962 		sub	r2, r2, #1096
 1368 0b2a 9342     		cmp	r3, r2
 1369 0b2c 2BD0     		beq	.L235
 1370 0b2e 02F58062 		add	r2, r2, #1024
 1371 0b32 9342     		cmp	r3, r2
 1372 0b34 2AD0     		beq	.L236
 1373 0b36 A2F56872 		sub	r2, r2, #928
ARM GAS  C:\Users\Rick\AppData\Local\Temp\ccKiRdUA.s 			page 25


 1374 0b3a 9342     		cmp	r3, r2
 1375 0b3c 29D0     		beq	.L237
 1376 0b3e 02F58062 		add	r2, r2, #1024
 1377 0b42 9342     		cmp	r3, r2
 1378 0b44 28D0     		beq	.L238
 1379 0b46 A2F58962 		sub	r2, r2, #1096
 1380 0b4a 9342     		cmp	r3, r2
 1381 0b4c 27D0     		beq	.L239
 1382 0b4e 02F58062 		add	r2, r2, #1024
 1383 0b52 9342     		cmp	r3, r2
 1384 0b54 26D0     		beq	.L240
 1385 0b56 A2F56872 		sub	r2, r2, #928
 1386 0b5a 9342     		cmp	r3, r2
 1387 0b5c 32D0     		beq	.L241
 1388 0b5e 02F58062 		add	r2, r2, #1024
 1389 0b62 9342     		cmp	r3, r2
 1390 0b64 02D0     		beq	.L321
 1391 0b66 4FF08073 		mov	r3, #16777216
 1392 0b6a 03E0     		b	.L50
 1393              	.L321:
 1394 0b6c 4FF48023 		mov	r3, #262144
 1395 0b70 00E0     		b	.L50
 1396              	.L231:
 1397 0b72 0423     		movs	r3, #4
 1398              	.L50:
 1399 0b74 0E4A     		ldr	r2, .L333+4
 1400 0b76 D360     		str	r3, [r2, #12]
 1401 0b78 0DE7     		b	.L46
 1402              	.L232:
 1403 0b7a 0423     		movs	r3, #4
 1404 0b7c FAE7     		b	.L50
 1405              	.L233:
 1406 0b7e 0423     		movs	r3, #4
 1407 0b80 F8E7     		b	.L50
 1408              	.L234:
 1409 0b82 0423     		movs	r3, #4
 1410 0b84 F6E7     		b	.L50
 1411              	.L235:
 1412 0b86 4FF48073 		mov	r3, #256
 1413 0b8a F3E7     		b	.L50
 1414              	.L236:
 1415 0b8c 4FF48073 		mov	r3, #256
 1416 0b90 F0E7     		b	.L50
 1417              	.L237:
 1418 0b92 4FF48073 		mov	r3, #256
 1419 0b96 EDE7     		b	.L50
 1420              	.L238:
 1421 0b98 4FF48073 		mov	r3, #256
 1422 0b9c EAE7     		b	.L50
 1423              	.L239:
 1424 0b9e 4FF48023 		mov	r3, #262144
 1425 0ba2 E7E7     		b	.L50
 1426              	.L240:
 1427 0ba4 4FF48023 		mov	r3, #262144
 1428 0ba8 E4E7     		b	.L50
 1429              	.L334:
 1430 0baa 00BF     		.align	2
ARM GAS  C:\Users\Rick\AppData\Local\Temp\ccKiRdUA.s 			page 26


 1431              	.L333:
 1432 0bac 10600240 		.word	1073897488
 1433 0bb0 00600240 		.word	1073897472
 1434 0bb4 00640240 		.word	1073898496
 1435 0bb8 58640240 		.word	1073898584
 1436 0bbc B8600240 		.word	1073897656
 1437 0bc0 58600240 		.word	1073897560
 1438              	.L241:
 1439 0bc4 4FF48023 		mov	r3, #262144
 1440 0bc8 D4E7     		b	.L50
 1441              	.L49:
 1442 0bca 994A     		ldr	r2, .L335
 1443 0bcc 9342     		cmp	r3, r2
 1444 0bce 31D0     		beq	.L243
 1445 0bd0 02F58062 		add	r2, r2, #1024
 1446 0bd4 9342     		cmp	r3, r2
 1447 0bd6 31D0     		beq	.L244
 1448 0bd8 A2F56872 		sub	r2, r2, #928
 1449 0bdc 9342     		cmp	r3, r2
 1450 0bde 2FD0     		beq	.L245
 1451 0be0 02F58062 		add	r2, r2, #1024
 1452 0be4 9342     		cmp	r3, r2
 1453 0be6 2DD0     		beq	.L246
 1454 0be8 A2F58962 		sub	r2, r2, #1096
 1455 0bec 9342     		cmp	r3, r2
 1456 0bee 2BD0     		beq	.L247
 1457 0bf0 02F58062 		add	r2, r2, #1024
 1458 0bf4 9342     		cmp	r3, r2
 1459 0bf6 2AD0     		beq	.L248
 1460 0bf8 A2F56872 		sub	r2, r2, #928
 1461 0bfc 9342     		cmp	r3, r2
 1462 0bfe 29D0     		beq	.L249
 1463 0c00 02F58062 		add	r2, r2, #1024
 1464 0c04 9342     		cmp	r3, r2
 1465 0c06 28D0     		beq	.L250
 1466 0c08 A2F58962 		sub	r2, r2, #1096
 1467 0c0c 9342     		cmp	r3, r2
 1468 0c0e 27D0     		beq	.L251
 1469 0c10 02F58062 		add	r2, r2, #1024
 1470 0c14 9342     		cmp	r3, r2
 1471 0c16 26D0     		beq	.L252
 1472 0c18 A2F56872 		sub	r2, r2, #928
 1473 0c1c 9342     		cmp	r3, r2
 1474 0c1e 25D0     		beq	.L253
 1475 0c20 02F58062 		add	r2, r2, #1024
 1476 0c24 9342     		cmp	r3, r2
 1477 0c26 02D0     		beq	.L322
 1478 0c28 4FF08073 		mov	r3, #16777216
 1479 0c2c 03E0     		b	.L51
 1480              	.L322:
 1481 0c2e 4FF48023 		mov	r3, #262144
 1482 0c32 00E0     		b	.L51
 1483              	.L243:
 1484 0c34 0423     		movs	r3, #4
 1485              	.L51:
 1486 0c36 7F4A     		ldr	r2, .L335+4
 1487 0c38 9360     		str	r3, [r2, #8]
ARM GAS  C:\Users\Rick\AppData\Local\Temp\ccKiRdUA.s 			page 27


 1488 0c3a ACE6     		b	.L46
 1489              	.L244:
 1490 0c3c 0423     		movs	r3, #4
 1491 0c3e FAE7     		b	.L51
 1492              	.L245:
 1493 0c40 0423     		movs	r3, #4
 1494 0c42 F8E7     		b	.L51
 1495              	.L246:
 1496 0c44 0423     		movs	r3, #4
 1497 0c46 F6E7     		b	.L51
 1498              	.L247:
 1499 0c48 4FF48073 		mov	r3, #256
 1500 0c4c F3E7     		b	.L51
 1501              	.L248:
 1502 0c4e 4FF48073 		mov	r3, #256
 1503 0c52 F0E7     		b	.L51
 1504              	.L249:
 1505 0c54 4FF48073 		mov	r3, #256
 1506 0c58 EDE7     		b	.L51
 1507              	.L250:
 1508 0c5a 4FF48073 		mov	r3, #256
 1509 0c5e EAE7     		b	.L51
 1510              	.L251:
 1511 0c60 4FF48023 		mov	r3, #262144
 1512 0c64 E7E7     		b	.L51
 1513              	.L252:
 1514 0c66 4FF48023 		mov	r3, #262144
 1515 0c6a E4E7     		b	.L51
 1516              	.L253:
 1517 0c6c 4FF48023 		mov	r3, #262144
 1518 0c70 E1E7     		b	.L51
 1519              	.L319:
 1520 0c72 4FF48032 		mov	r2, #65536
 1521 0c76 00E0     		b	.L53
 1522              	.L255:
 1523 0c78 0122     		movs	r2, #1
 1524              	.L53:
 1525 0c7a 6F4B     		ldr	r3, .L335+8
 1526 0c7c DA60     		str	r2, [r3, #12]
 1527              	.L54:
 1528 0c7e 2268     		ldr	r2, [r4]
 1529 0c80 1368     		ldr	r3, [r2]
 1530 0c82 43F01603 		orr	r3, r3, #22
 1531 0c86 1360     		str	r3, [r2]
 1532 0c88 2268     		ldr	r2, [r4]
 1533 0c8a 5369     		ldr	r3, [r2, #20]
 1534 0c8c 43F08003 		orr	r3, r3, #128
 1535 0c90 5361     		str	r3, [r2, #20]
 1536 0c92 236C     		ldr	r3, [r4, #64]
 1537 0c94 002B     		cmp	r3, #0
 1538 0c96 00F02581 		beq	.L323
 1539              	.L60:
 1540 0c9a 2268     		ldr	r2, [r4]
 1541 0c9c 1368     		ldr	r3, [r2]
 1542 0c9e 43F00803 		orr	r3, r3, #8
 1543 0ca2 1360     		str	r3, [r2]
 1544              	.L61:
ARM GAS  C:\Users\Rick\AppData\Local\Temp\ccKiRdUA.s 			page 28


 1545 0ca4 2268     		ldr	r2, [r4]
 1546 0ca6 1368     		ldr	r3, [r2]
 1547 0ca8 43F00103 		orr	r3, r3, #1
 1548 0cac 1360     		str	r3, [r2]
 1549 0cae 0020     		movs	r0, #0
 1550 0cb0 FFF7CAB9 		b	.L16
 1551              	.L256:
 1552 0cb4 0122     		movs	r2, #1
 1553 0cb6 E0E7     		b	.L53
 1554              	.L257:
 1555 0cb8 0122     		movs	r2, #1
 1556 0cba DEE7     		b	.L53
 1557              	.L258:
 1558 0cbc 0122     		movs	r2, #1
 1559 0cbe DCE7     		b	.L53
 1560              	.L259:
 1561 0cc0 4022     		movs	r2, #64
 1562 0cc2 DAE7     		b	.L53
 1563              	.L260:
 1564 0cc4 4022     		movs	r2, #64
 1565 0cc6 D8E7     		b	.L53
 1566              	.L261:
 1567 0cc8 4022     		movs	r2, #64
 1568 0cca D6E7     		b	.L53
 1569              	.L262:
 1570 0ccc 4022     		movs	r2, #64
 1571 0cce D4E7     		b	.L53
 1572              	.L263:
 1573 0cd0 4FF48032 		mov	r2, #65536
 1574 0cd4 D1E7     		b	.L53
 1575              	.L264:
 1576 0cd6 4FF48032 		mov	r2, #65536
 1577 0cda CEE7     		b	.L53
 1578              	.L265:
 1579 0cdc 4FF48032 		mov	r2, #65536
 1580 0ce0 CBE7     		b	.L53
 1581              	.L52:
 1582 0ce2 564A     		ldr	r2, .L335+12
 1583 0ce4 9342     		cmp	r3, r2
 1584 0ce6 4FD9     		bls	.L55
 1585 0ce8 A83A     		subs	r2, r2, #168
 1586 0cea 9342     		cmp	r3, r2
 1587 0cec 31D0     		beq	.L267
 1588 0cee 02F58062 		add	r2, r2, #1024
 1589 0cf2 9342     		cmp	r3, r2
 1590 0cf4 31D0     		beq	.L268
 1591 0cf6 A2F56872 		sub	r2, r2, #928
 1592 0cfa 9342     		cmp	r3, r2
 1593 0cfc 2FD0     		beq	.L269
 1594 0cfe 02F58062 		add	r2, r2, #1024
 1595 0d02 9342     		cmp	r3, r2
 1596 0d04 2DD0     		beq	.L270
 1597 0d06 A2F58962 		sub	r2, r2, #1096
 1598 0d0a 9342     		cmp	r3, r2
 1599 0d0c 2BD0     		beq	.L271
 1600 0d0e 02F58062 		add	r2, r2, #1024
 1601 0d12 9342     		cmp	r3, r2
ARM GAS  C:\Users\Rick\AppData\Local\Temp\ccKiRdUA.s 			page 29


 1602 0d14 29D0     		beq	.L272
 1603 0d16 A2F56872 		sub	r2, r2, #928
 1604 0d1a 9342     		cmp	r3, r2
 1605 0d1c 27D0     		beq	.L273
 1606 0d1e 02F58062 		add	r2, r2, #1024
 1607 0d22 9342     		cmp	r3, r2
 1608 0d24 25D0     		beq	.L274
 1609 0d26 A2F58962 		sub	r2, r2, #1096
 1610 0d2a 9342     		cmp	r3, r2
 1611 0d2c 23D0     		beq	.L275
 1612 0d2e 02F58062 		add	r2, r2, #1024
 1613 0d32 9342     		cmp	r3, r2
 1614 0d34 22D0     		beq	.L276
 1615 0d36 A2F56872 		sub	r2, r2, #928
 1616 0d3a 9342     		cmp	r3, r2
 1617 0d3c 21D0     		beq	.L277
 1618 0d3e 02F58062 		add	r2, r2, #1024
 1619 0d42 9342     		cmp	r3, r2
 1620 0d44 02D0     		beq	.L324
 1621 0d46 4FF48003 		mov	r3, #4194304
 1622 0d4a 03E0     		b	.L56
 1623              	.L324:
 1624 0d4c 4FF48033 		mov	r3, #65536
 1625 0d50 00E0     		b	.L56
 1626              	.L267:
 1627 0d52 0123     		movs	r3, #1
 1628              	.L56:
 1629 0d54 384A     		ldr	r2, .L335+8
 1630 0d56 9360     		str	r3, [r2, #8]
 1631 0d58 91E7     		b	.L54
 1632              	.L268:
 1633 0d5a 0123     		movs	r3, #1
 1634 0d5c FAE7     		b	.L56
 1635              	.L269:
 1636 0d5e 0123     		movs	r3, #1
 1637 0d60 F8E7     		b	.L56
 1638              	.L270:
 1639 0d62 0123     		movs	r3, #1
 1640 0d64 F6E7     		b	.L56
 1641              	.L271:
 1642 0d66 4023     		movs	r3, #64
 1643 0d68 F4E7     		b	.L56
 1644              	.L272:
 1645 0d6a 4023     		movs	r3, #64
 1646 0d6c F2E7     		b	.L56
 1647              	.L273:
 1648 0d6e 4023     		movs	r3, #64
 1649 0d70 F0E7     		b	.L56
 1650              	.L274:
 1651 0d72 4023     		movs	r3, #64
 1652 0d74 EEE7     		b	.L56
 1653              	.L275:
 1654 0d76 4FF48033 		mov	r3, #65536
 1655 0d7a EBE7     		b	.L56
 1656              	.L276:
 1657 0d7c 4FF48033 		mov	r3, #65536
 1658 0d80 E8E7     		b	.L56
ARM GAS  C:\Users\Rick\AppData\Local\Temp\ccKiRdUA.s 			page 30


 1659              	.L277:
 1660 0d82 4FF48033 		mov	r3, #65536
 1661 0d86 E5E7     		b	.L56
 1662              	.L55:
 1663 0d88 2D4A     		ldr	r2, .L335+16
 1664 0d8a 9342     		cmp	r3, r2
 1665 0d8c 5AD9     		bls	.L57
 1666 0d8e 483A     		subs	r2, r2, #72
 1667 0d90 9342     		cmp	r3, r2
 1668 0d92 31D0     		beq	.L279
 1669 0d94 02F58062 		add	r2, r2, #1024
 1670 0d98 9342     		cmp	r3, r2
 1671 0d9a 31D0     		beq	.L280
 1672 0d9c A2F56872 		sub	r2, r2, #928
 1673 0da0 9342     		cmp	r3, r2
 1674 0da2 2FD0     		beq	.L281
 1675 0da4 02F58062 		add	r2, r2, #1024
 1676 0da8 9342     		cmp	r3, r2
 1677 0daa 2DD0     		beq	.L282
 1678 0dac A2F58962 		sub	r2, r2, #1096
 1679 0db0 9342     		cmp	r3, r2
 1680 0db2 2BD0     		beq	.L283
 1681 0db4 02F58062 		add	r2, r2, #1024
 1682 0db8 9342     		cmp	r3, r2
 1683 0dba 29D0     		beq	.L284
 1684 0dbc A2F56872 		sub	r2, r2, #928
 1685 0dc0 9342     		cmp	r3, r2
 1686 0dc2 27D0     		beq	.L285
 1687 0dc4 02F58062 		add	r2, r2, #1024
 1688 0dc8 9342     		cmp	r3, r2
 1689 0dca 25D0     		beq	.L286
 1690 0dcc A2F58962 		sub	r2, r2, #1096
 1691 0dd0 9342     		cmp	r3, r2
 1692 0dd2 23D0     		beq	.L287
 1693 0dd4 02F58062 		add	r2, r2, #1024
 1694 0dd8 9342     		cmp	r3, r2
 1695 0dda 22D0     		beq	.L288
 1696 0ddc A2F56872 		sub	r2, r2, #928
 1697 0de0 9342     		cmp	r3, r2
 1698 0de2 21D0     		beq	.L289
 1699 0de4 02F58062 		add	r2, r2, #1024
 1700 0de8 9342     		cmp	r3, r2
 1701 0dea 02D0     		beq	.L325
 1702 0dec 4FF48003 		mov	r3, #4194304
 1703 0df0 03E0     		b	.L58
 1704              	.L325:
 1705 0df2 4FF48033 		mov	r3, #65536
 1706 0df6 00E0     		b	.L58
 1707              	.L279:
 1708 0df8 0123     		movs	r3, #1
 1709              	.L58:
 1710 0dfa 0E4A     		ldr	r2, .L335+4
 1711 0dfc D360     		str	r3, [r2, #12]
 1712 0dfe 3EE7     		b	.L54
 1713              	.L280:
 1714 0e00 0123     		movs	r3, #1
 1715 0e02 FAE7     		b	.L58
ARM GAS  C:\Users\Rick\AppData\Local\Temp\ccKiRdUA.s 			page 31


 1716              	.L281:
 1717 0e04 0123     		movs	r3, #1
 1718 0e06 F8E7     		b	.L58
 1719              	.L282:
 1720 0e08 0123     		movs	r3, #1
 1721 0e0a F6E7     		b	.L58
 1722              	.L283:
 1723 0e0c 4023     		movs	r3, #64
 1724 0e0e F4E7     		b	.L58
 1725              	.L284:
 1726 0e10 4023     		movs	r3, #64
 1727 0e12 F2E7     		b	.L58
 1728              	.L285:
 1729 0e14 4023     		movs	r3, #64
 1730 0e16 F0E7     		b	.L58
 1731              	.L286:
 1732 0e18 4023     		movs	r3, #64
 1733 0e1a EEE7     		b	.L58
 1734              	.L287:
 1735 0e1c 4FF48033 		mov	r3, #65536
 1736 0e20 EBE7     		b	.L58
 1737              	.L288:
 1738 0e22 4FF48033 		mov	r3, #65536
 1739 0e26 E8E7     		b	.L58
 1740              	.L289:
 1741 0e28 4FF48033 		mov	r3, #65536
 1742 0e2c E5E7     		b	.L58
 1743              	.L336:
 1744 0e2e 00BF     		.align	2
 1745              	.L335:
 1746 0e30 10600240 		.word	1073897488
 1747 0e34 00600240 		.word	1073897472
 1748 0e38 00640240 		.word	1073898496
 1749 0e3c B8600240 		.word	1073897656
 1750 0e40 58600240 		.word	1073897560
 1751              	.L57:
 1752 0e44 2B4A     		ldr	r2, .L337
 1753 0e46 9342     		cmp	r3, r2
 1754 0e48 31D0     		beq	.L291
 1755 0e4a 02F58062 		add	r2, r2, #1024
 1756 0e4e 9342     		cmp	r3, r2
 1757 0e50 31D0     		beq	.L292
 1758 0e52 A2F56872 		sub	r2, r2, #928
 1759 0e56 9342     		cmp	r3, r2
 1760 0e58 2FD0     		beq	.L293
 1761 0e5a 02F58062 		add	r2, r2, #1024
 1762 0e5e 9342     		cmp	r3, r2
 1763 0e60 2DD0     		beq	.L294
 1764 0e62 A2F58962 		sub	r2, r2, #1096
 1765 0e66 9342     		cmp	r3, r2
 1766 0e68 2BD0     		beq	.L295
 1767 0e6a 02F58062 		add	r2, r2, #1024
 1768 0e6e 9342     		cmp	r3, r2
 1769 0e70 29D0     		beq	.L296
 1770 0e72 A2F56872 		sub	r2, r2, #928
 1771 0e76 9342     		cmp	r3, r2
 1772 0e78 27D0     		beq	.L297
ARM GAS  C:\Users\Rick\AppData\Local\Temp\ccKiRdUA.s 			page 32


 1773 0e7a 02F58062 		add	r2, r2, #1024
 1774 0e7e 9342     		cmp	r3, r2
 1775 0e80 25D0     		beq	.L298
 1776 0e82 A2F58962 		sub	r2, r2, #1096
 1777 0e86 9342     		cmp	r3, r2
 1778 0e88 23D0     		beq	.L299
 1779 0e8a 02F58062 		add	r2, r2, #1024
 1780 0e8e 9342     		cmp	r3, r2
 1781 0e90 22D0     		beq	.L300
 1782 0e92 A2F56872 		sub	r2, r2, #928
 1783 0e96 9342     		cmp	r3, r2
 1784 0e98 21D0     		beq	.L301
 1785 0e9a 02F58062 		add	r2, r2, #1024
 1786 0e9e 9342     		cmp	r3, r2
 1787 0ea0 02D0     		beq	.L326
 1788 0ea2 4FF48003 		mov	r3, #4194304
 1789 0ea6 03E0     		b	.L59
 1790              	.L326:
 1791 0ea8 4FF48033 		mov	r3, #65536
 1792 0eac 00E0     		b	.L59
 1793              	.L291:
 1794 0eae 0123     		movs	r3, #1
 1795              	.L59:
 1796 0eb0 114A     		ldr	r2, .L337+4
 1797 0eb2 9360     		str	r3, [r2, #8]
 1798 0eb4 E3E6     		b	.L54
 1799              	.L292:
 1800 0eb6 0123     		movs	r3, #1
 1801 0eb8 FAE7     		b	.L59
 1802              	.L293:
 1803 0eba 0123     		movs	r3, #1
 1804 0ebc F8E7     		b	.L59
 1805              	.L294:
 1806 0ebe 0123     		movs	r3, #1
 1807 0ec0 F6E7     		b	.L59
 1808              	.L295:
 1809 0ec2 4023     		movs	r3, #64
 1810 0ec4 F4E7     		b	.L59
 1811              	.L296:
 1812 0ec6 4023     		movs	r3, #64
 1813 0ec8 F2E7     		b	.L59
 1814              	.L297:
 1815 0eca 4023     		movs	r3, #64
 1816 0ecc F0E7     		b	.L59
 1817              	.L298:
 1818 0ece 4023     		movs	r3, #64
 1819 0ed0 EEE7     		b	.L59
 1820              	.L299:
 1821 0ed2 4FF48033 		mov	r3, #65536
 1822 0ed6 EBE7     		b	.L59
 1823              	.L300:
 1824 0ed8 4FF48033 		mov	r3, #65536
 1825 0edc E8E7     		b	.L59
 1826              	.L301:
 1827 0ede 4FF48033 		mov	r3, #65536
 1828 0ee2 E5E7     		b	.L59
 1829              	.L323:
ARM GAS  C:\Users\Rick\AppData\Local\Temp\ccKiRdUA.s 			page 33


 1830 0ee4 A36C     		ldr	r3, [r4, #72]
 1831 0ee6 002B     		cmp	r3, #0
 1832 0ee8 7FF4D7AE 		bne	.L60
 1833 0eec DAE6     		b	.L61
 1834              	.L62:
 1835 0eee 0220     		movs	r0, #2
 1836 0ef0 FFF7AAB8 		b	.L16
 1837              	.L338:
 1838              		.align	2
 1839              	.L337:
 1840 0ef4 10600240 		.word	1073897488
 1841 0ef8 00600240 		.word	1073897472
 1843              		.section	.text.HAL_DMAEx_ChangeMemory,"ax",%progbits
 1844              		.align	1
 1845              		.global	HAL_DMAEx_ChangeMemory
 1846              		.syntax unified
 1847              		.thumb
 1848              		.thumb_func
 1850              	HAL_DMAEx_ChangeMemory:
 1851              		@ args = 0, pretend = 0, frame = 0
 1852              		@ frame_needed = 0, uses_anonymous_args = 0
 1853              		@ link register save eliminated.
 1854 0000 1AB9     		cbnz	r2, .L340
 1855 0002 0368     		ldr	r3, [r0]
 1856 0004 D960     		str	r1, [r3, #12]
 1857              	.L341:
 1858 0006 0020     		movs	r0, #0
 1859 0008 7047     		bx	lr
 1860              	.L340:
 1861 000a 0368     		ldr	r3, [r0]
 1862 000c 1961     		str	r1, [r3, #16]
 1863 000e FAE7     		b	.L341
 1865              		.ident	"GCC: (xPack GNU Arm Embedded GCC x86_64) 14.2.1 20241119"
ARM GAS  C:\Users\Rick\AppData\Local\Temp\ccKiRdUA.s 			page 34

