ARM GAS  C:\Users\Rick\AppData\Local\Temp\cciI0joI.s 			page 1


   1              		.cpu cortex-m4
   2              		.arch armv7e-m
   3              		.fpu fpv4-sp-d16
   4              		.eabi_attribute 27, 1
   5              		.eabi_attribute 28, 1
   6              		.eabi_attribute 20, 1
   7              		.eabi_attribute 21, 1
   8              		.eabi_attribute 23, 3
   9              		.eabi_attribute 24, 1
  10              		.eabi_attribute 25, 1
  11              		.eabi_attribute 26, 1
  12              		.eabi_attribute 30, 1
  13              		.eabi_attribute 34, 1
  14              		.eabi_attribute 18, 4
  15              		.file	"stm32f4xx_hal_flash.c"
  16              		.text
  17              		.section	.text.FLASH_Program_DoubleWord,"ax",%progbits
  18              		.align	1
  19              		.syntax unified
  20              		.thumb
  21              		.thumb_func
  23              	FLASH_Program_DoubleWord:
  24              		@ args = 0, pretend = 0, frame = 0
  25              		@ frame_needed = 0, uses_anonymous_args = 0
  26              		@ link register save eliminated.
  27 0000 10B4     		push	{r4}
  28 0002 0A49     		ldr	r1, .L3
  29 0004 0C69     		ldr	r4, [r1, #16]
  30 0006 24F44074 		bic	r4, r4, #768
  31 000a 0C61     		str	r4, [r1, #16]
  32 000c 0C69     		ldr	r4, [r1, #16]
  33 000e 44F44074 		orr	r4, r4, #768
  34 0012 0C61     		str	r4, [r1, #16]
  35 0014 0C69     		ldr	r4, [r1, #16]
  36 0016 44F00104 		orr	r4, r4, #1
  37 001a 0C61     		str	r4, [r1, #16]
  38 001c 0260     		str	r2, [r0]
  39              		.syntax unified
  40              	@ 260 "Drivers/CMSIS/Include/cmsis_gcc.h" 1
  41 001e BFF36F8F 		isb 0xF
  42              	@ 0 "" 2
  43              		.thumb
  44              		.syntax unified
  45 0022 4360     		str	r3, [r0, #4]
  46 0024 5DF8044B 		ldr	r4, [sp], #4
  47 0028 7047     		bx	lr
  48              	.L4:
  49 002a 00BF     		.align	2
  50              	.L3:
  51 002c 003C0240 		.word	1073888256
  53              		.section	.text.FLASH_Program_Word,"ax",%progbits
  54              		.align	1
  55              		.syntax unified
  56              		.thumb
  57              		.thumb_func
  59              	FLASH_Program_Word:
  60              		@ args = 0, pretend = 0, frame = 0
ARM GAS  C:\Users\Rick\AppData\Local\Temp\cciI0joI.s 			page 2


  61              		@ frame_needed = 0, uses_anonymous_args = 0
  62              		@ link register save eliminated.
  63 0000 074B     		ldr	r3, .L6
  64 0002 1A69     		ldr	r2, [r3, #16]
  65 0004 22F44072 		bic	r2, r2, #768
  66 0008 1A61     		str	r2, [r3, #16]
  67 000a 1A69     		ldr	r2, [r3, #16]
  68 000c 42F40072 		orr	r2, r2, #512
  69 0010 1A61     		str	r2, [r3, #16]
  70 0012 1A69     		ldr	r2, [r3, #16]
  71 0014 42F00102 		orr	r2, r2, #1
  72 0018 1A61     		str	r2, [r3, #16]
  73 001a 0160     		str	r1, [r0]
  74 001c 7047     		bx	lr
  75              	.L7:
  76 001e 00BF     		.align	2
  77              	.L6:
  78 0020 003C0240 		.word	1073888256
  80              		.section	.text.FLASH_Program_HalfWord,"ax",%progbits
  81              		.align	1
  82              		.syntax unified
  83              		.thumb
  84              		.thumb_func
  86              	FLASH_Program_HalfWord:
  87              		@ args = 0, pretend = 0, frame = 0
  88              		@ frame_needed = 0, uses_anonymous_args = 0
  89              		@ link register save eliminated.
  90 0000 074B     		ldr	r3, .L9
  91 0002 1A69     		ldr	r2, [r3, #16]
  92 0004 22F44072 		bic	r2, r2, #768
  93 0008 1A61     		str	r2, [r3, #16]
  94 000a 1A69     		ldr	r2, [r3, #16]
  95 000c 42F48072 		orr	r2, r2, #256
  96 0010 1A61     		str	r2, [r3, #16]
  97 0012 1A69     		ldr	r2, [r3, #16]
  98 0014 42F00102 		orr	r2, r2, #1
  99 0018 1A61     		str	r2, [r3, #16]
 100 001a 0180     		strh	r1, [r0]	@ movhi
 101 001c 7047     		bx	lr
 102              	.L10:
 103 001e 00BF     		.align	2
 104              	.L9:
 105 0020 003C0240 		.word	1073888256
 107              		.section	.text.FLASH_Program_Byte,"ax",%progbits
 108              		.align	1
 109              		.syntax unified
 110              		.thumb
 111              		.thumb_func
 113              	FLASH_Program_Byte:
 114              		@ args = 0, pretend = 0, frame = 0
 115              		@ frame_needed = 0, uses_anonymous_args = 0
 116              		@ link register save eliminated.
 117 0000 064B     		ldr	r3, .L12
 118 0002 1A69     		ldr	r2, [r3, #16]
 119 0004 22F44072 		bic	r2, r2, #768
 120 0008 1A61     		str	r2, [r3, #16]
 121 000a 1A69     		ldr	r2, [r3, #16]
ARM GAS  C:\Users\Rick\AppData\Local\Temp\cciI0joI.s 			page 3


 122 000c 1A61     		str	r2, [r3, #16]
 123 000e 1A69     		ldr	r2, [r3, #16]
 124 0010 42F00102 		orr	r2, r2, #1
 125 0014 1A61     		str	r2, [r3, #16]
 126 0016 0170     		strb	r1, [r0]
 127 0018 7047     		bx	lr
 128              	.L13:
 129 001a 00BF     		.align	2
 130              	.L12:
 131 001c 003C0240 		.word	1073888256
 133              		.section	.text.FLASH_SetErrorCode,"ax",%progbits
 134              		.align	1
 135              		.syntax unified
 136              		.thumb
 137              		.thumb_func
 139              	FLASH_SetErrorCode:
 140              		@ args = 0, pretend = 0, frame = 0
 141              		@ frame_needed = 0, uses_anonymous_args = 0
 142              		@ link register save eliminated.
 143 0000 274B     		ldr	r3, .L21
 144 0002 DB68     		ldr	r3, [r3, #12]
 145 0004 13F0100F 		tst	r3, #16
 146 0008 07D0     		beq	.L15
 147 000a 264A     		ldr	r2, .L21+4
 148 000c D369     		ldr	r3, [r2, #28]
 149 000e 43F01003 		orr	r3, r3, #16
 150 0012 D361     		str	r3, [r2, #28]
 151 0014 224B     		ldr	r3, .L21
 152 0016 1022     		movs	r2, #16
 153 0018 DA60     		str	r2, [r3, #12]
 154              	.L15:
 155 001a 214B     		ldr	r3, .L21
 156 001c DB68     		ldr	r3, [r3, #12]
 157 001e 13F0200F 		tst	r3, #32
 158 0022 07D0     		beq	.L16
 159 0024 1F4A     		ldr	r2, .L21+4
 160 0026 D369     		ldr	r3, [r2, #28]
 161 0028 43F00803 		orr	r3, r3, #8
 162 002c D361     		str	r3, [r2, #28]
 163 002e 1C4B     		ldr	r3, .L21
 164 0030 2022     		movs	r2, #32
 165 0032 DA60     		str	r2, [r3, #12]
 166              	.L16:
 167 0034 1A4B     		ldr	r3, .L21
 168 0036 DB68     		ldr	r3, [r3, #12]
 169 0038 13F0400F 		tst	r3, #64
 170 003c 07D0     		beq	.L17
 171 003e 194A     		ldr	r2, .L21+4
 172 0040 D369     		ldr	r3, [r2, #28]
 173 0042 43F00403 		orr	r3, r3, #4
 174 0046 D361     		str	r3, [r2, #28]
 175 0048 154B     		ldr	r3, .L21
 176 004a 4022     		movs	r2, #64
 177 004c DA60     		str	r2, [r3, #12]
 178              	.L17:
 179 004e 144B     		ldr	r3, .L21
 180 0050 DB68     		ldr	r3, [r3, #12]
ARM GAS  C:\Users\Rick\AppData\Local\Temp\cciI0joI.s 			page 4


 181 0052 13F0800F 		tst	r3, #128
 182 0056 07D0     		beq	.L18
 183 0058 124A     		ldr	r2, .L21+4
 184 005a D369     		ldr	r3, [r2, #28]
 185 005c 43F00203 		orr	r3, r3, #2
 186 0060 D361     		str	r3, [r2, #28]
 187 0062 0F4B     		ldr	r3, .L21
 188 0064 8022     		movs	r2, #128
 189 0066 DA60     		str	r2, [r3, #12]
 190              	.L18:
 191 0068 0D4B     		ldr	r3, .L21
 192 006a DB68     		ldr	r3, [r3, #12]
 193 006c 13F4807F 		tst	r3, #256
 194 0070 08D0     		beq	.L19
 195 0072 0C4A     		ldr	r2, .L21+4
 196 0074 D369     		ldr	r3, [r2, #28]
 197 0076 43F00103 		orr	r3, r3, #1
 198 007a D361     		str	r3, [r2, #28]
 199 007c 084B     		ldr	r3, .L21
 200 007e 4FF48072 		mov	r2, #256
 201 0082 DA60     		str	r2, [r3, #12]
 202              	.L19:
 203 0084 064B     		ldr	r3, .L21
 204 0086 DB68     		ldr	r3, [r3, #12]
 205 0088 13F0020F 		tst	r3, #2
 206 008c 07D0     		beq	.L14
 207 008e 054A     		ldr	r2, .L21+4
 208 0090 D369     		ldr	r3, [r2, #28]
 209 0092 43F02003 		orr	r3, r3, #32
 210 0096 D361     		str	r3, [r2, #28]
 211 0098 014B     		ldr	r3, .L21
 212 009a 0222     		movs	r2, #2
 213 009c DA60     		str	r2, [r3, #12]
 214              	.L14:
 215 009e 7047     		bx	lr
 216              	.L22:
 217              		.align	2
 218              	.L21:
 219 00a0 003C0240 		.word	1073888256
 220 00a4 00000000 		.word	pFlash
 222              		.section	.text.HAL_FLASH_Program_IT,"ax",%progbits
 223              		.align	1
 224              		.global	HAL_FLASH_Program_IT
 225              		.syntax unified
 226              		.thumb
 227              		.thumb_func
 229              	HAL_FLASH_Program_IT:
 230              		@ args = 0, pretend = 0, frame = 0
 231              		@ frame_needed = 0, uses_anonymous_args = 0
 232 0000 70B5     		push	{r4, r5, r6, lr}
 233 0002 0646     		mov	r6, r0
 234 0004 0846     		mov	r0, r1
 235 0006 114C     		ldr	r4, .L32
 236 0008 2569     		ldr	r5, [r4, #16]
 237 000a 45F08075 		orr	r5, r5, #16777216
 238 000e 2561     		str	r5, [r4, #16]
 239 0010 2569     		ldr	r5, [r4, #16]
ARM GAS  C:\Users\Rick\AppData\Local\Temp\cciI0joI.s 			page 5


 240 0012 45F00075 		orr	r5, r5, #33554432
 241 0016 2561     		str	r5, [r4, #16]
 242 0018 0D49     		ldr	r1, .L32+4
 243 001a 0324     		movs	r4, #3
 244 001c 0C70     		strb	r4, [r1]
 245 001e 4861     		str	r0, [r1, #20]
 246 0020 3EB1     		cbz	r6, .L29
 247 0022 012E     		cmp	r6, #1
 248 0024 09D0     		beq	.L30
 249 0026 022E     		cmp	r6, #2
 250 0028 0BD0     		beq	.L31
 251 002a FFF7FEFF 		bl	FLASH_Program_DoubleWord
 252              	.L25:
 253 002e 0020     		movs	r0, #0
 254 0030 70BD     		pop	{r4, r5, r6, pc}
 255              	.L29:
 256 0032 D1B2     		uxtb	r1, r2
 257 0034 FFF7FEFF 		bl	FLASH_Program_Byte
 258 0038 F9E7     		b	.L25
 259              	.L30:
 260 003a 91B2     		uxth	r1, r2
 261 003c FFF7FEFF 		bl	FLASH_Program_HalfWord
 262 0040 F5E7     		b	.L25
 263              	.L31:
 264 0042 1146     		mov	r1, r2
 265 0044 FFF7FEFF 		bl	FLASH_Program_Word
 266 0048 F1E7     		b	.L25
 267              	.L33:
 268 004a 00BF     		.align	2
 269              	.L32:
 270 004c 003C0240 		.word	1073888256
 271 0050 00000000 		.word	pFlash
 273              		.section	.text.HAL_FLASH_EndOfOperationCallback,"ax",%progbits
 274              		.align	1
 275              		.weak	HAL_FLASH_EndOfOperationCallback
 276              		.syntax unified
 277              		.thumb
 278              		.thumb_func
 280              	HAL_FLASH_EndOfOperationCallback:
 281              		@ args = 0, pretend = 0, frame = 0
 282              		@ frame_needed = 0, uses_anonymous_args = 0
 283              		@ link register save eliminated.
 284 0000 7047     		bx	lr
 286              		.section	.text.HAL_FLASH_OperationErrorCallback,"ax",%progbits
 287              		.align	1
 288              		.weak	HAL_FLASH_OperationErrorCallback
 289              		.syntax unified
 290              		.thumb
 291              		.thumb_func
 293              	HAL_FLASH_OperationErrorCallback:
 294              		@ args = 0, pretend = 0, frame = 0
 295              		@ frame_needed = 0, uses_anonymous_args = 0
 296              		@ link register save eliminated.
 297 0000 7047     		bx	lr
 299              		.section	.text.HAL_FLASH_IRQHandler,"ax",%progbits
 300              		.align	1
 301              		.global	HAL_FLASH_IRQHandler
ARM GAS  C:\Users\Rick\AppData\Local\Temp\cciI0joI.s 			page 6


 302              		.syntax unified
 303              		.thumb
 304              		.thumb_func
 306              	HAL_FLASH_IRQHandler:
 307              		@ args = 0, pretend = 0, frame = 0
 308              		@ frame_needed = 0, uses_anonymous_args = 0
 309 0000 10B5     		push	{r4, lr}
 310 0002 364B     		ldr	r3, .L52
 311 0004 DB68     		ldr	r3, [r3, #12]
 312 0006 13F4F97F 		tst	r3, #498
 313 000a 11D0     		beq	.L37
 314 000c 344B     		ldr	r3, .L52+4
 315 000e 1B78     		ldrb	r3, [r3]	@ zero_extendqisi2
 316 0010 012B     		cmp	r3, #1
 317 0012 35D0     		beq	.L48
 318 0014 324B     		ldr	r3, .L52+4
 319 0016 1B78     		ldrb	r3, [r3]	@ zero_extendqisi2
 320 0018 022B     		cmp	r3, #2
 321 001a 37D0     		beq	.L49
 322 001c 304B     		ldr	r3, .L52+4
 323 001e 5C69     		ldr	r4, [r3, #20]
 324              	.L39:
 325 0020 FFF7FEFF 		bl	FLASH_SetErrorCode
 326 0024 2046     		mov	r0, r4
 327 0026 FFF7FEFF 		bl	HAL_FLASH_OperationErrorCallback
 328 002a 2D4B     		ldr	r3, .L52+4
 329 002c 0022     		movs	r2, #0
 330 002e 1A70     		strb	r2, [r3]
 331              	.L37:
 332 0030 2A4B     		ldr	r3, .L52
 333 0032 DB68     		ldr	r3, [r3, #12]
 334 0034 13F0010F 		tst	r3, #1
 335 0038 11D0     		beq	.L41
 336 003a 284B     		ldr	r3, .L52
 337 003c 0122     		movs	r2, #1
 338 003e DA60     		str	r2, [r3, #12]
 339 0040 274B     		ldr	r3, .L52+4
 340 0042 1B78     		ldrb	r3, [r3]	@ zero_extendqisi2
 341 0044 9342     		cmp	r3, r2
 342 0046 24D0     		beq	.L50
 343 0048 254B     		ldr	r3, .L52+4
 344 004a 1B78     		ldrb	r3, [r3]	@ zero_extendqisi2
 345 004c 022B     		cmp	r3, #2
 346 004e 3ED0     		beq	.L51
 347 0050 234B     		ldr	r3, .L52+4
 348 0052 5869     		ldr	r0, [r3, #20]
 349 0054 FFF7FEFF 		bl	HAL_FLASH_EndOfOperationCallback
 350              	.L45:
 351 0058 214B     		ldr	r3, .L52+4
 352 005a 0022     		movs	r2, #0
 353 005c 1A70     		strb	r2, [r3]
 354              	.L41:
 355 005e 204B     		ldr	r3, .L52+4
 356 0060 1B78     		ldrb	r3, [r3]	@ zero_extendqisi2
 357 0062 63B9     		cbnz	r3, .L36
 358 0064 1D4B     		ldr	r3, .L52
 359 0066 1A69     		ldr	r2, [r3, #16]
ARM GAS  C:\Users\Rick\AppData\Local\Temp\cciI0joI.s 			page 7


 360 0068 22F0FF02 		bic	r2, r2, #255
 361 006c 1A61     		str	r2, [r3, #16]
 362 006e 1A69     		ldr	r2, [r3, #16]
 363 0070 22F08072 		bic	r2, r2, #16777216
 364 0074 1A61     		str	r2, [r3, #16]
 365 0076 1A69     		ldr	r2, [r3, #16]
 366 0078 22F00072 		bic	r2, r2, #33554432
 367 007c 1A61     		str	r2, [r3, #16]
 368              	.L36:
 369 007e 10BD     		pop	{r4, pc}
 370              	.L48:
 371 0080 174B     		ldr	r3, .L52+4
 372 0082 DC68     		ldr	r4, [r3, #12]
 373 0084 4FF0FF32 		mov	r2, #-1
 374 0088 DA60     		str	r2, [r3, #12]
 375 008a C9E7     		b	.L39
 376              	.L49:
 377 008c 144B     		ldr	r3, .L52+4
 378 008e 1C69     		ldr	r4, [r3, #16]
 379 0090 C6E7     		b	.L39
 380              	.L50:
 381 0092 134B     		ldr	r3, .L52+4
 382 0094 5A68     		ldr	r2, [r3, #4]
 383 0096 013A     		subs	r2, r2, #1
 384 0098 5A60     		str	r2, [r3, #4]
 385 009a 5B68     		ldr	r3, [r3, #4]
 386 009c 5BB1     		cbz	r3, .L43
 387 009e 104C     		ldr	r4, .L52+4
 388 00a0 E068     		ldr	r0, [r4, #12]
 389 00a2 FFF7FEFF 		bl	HAL_FLASH_EndOfOperationCallback
 390 00a6 E368     		ldr	r3, [r4, #12]
 391 00a8 0133     		adds	r3, r3, #1
 392 00aa E360     		str	r3, [r4, #12]
 393 00ac E068     		ldr	r0, [r4, #12]
 394 00ae 217A     		ldrb	r1, [r4, #8]	@ zero_extendqisi2
 395 00b0 FFF7FEFF 		bl	FLASH_Erase_Sector
 396 00b4 D3E7     		b	.L41
 397              	.L43:
 398 00b6 0A4B     		ldr	r3, .L52+4
 399 00b8 4FF0FF34 		mov	r4, #-1
 400 00bc DC60     		str	r4, [r3, #12]
 401 00be 0022     		movs	r2, #0
 402 00c0 1A70     		strb	r2, [r3]
 403 00c2 FFF7FEFF 		bl	FLASH_FlushCaches
 404 00c6 2046     		mov	r0, r4
 405 00c8 FFF7FEFF 		bl	HAL_FLASH_EndOfOperationCallback
 406 00cc C7E7     		b	.L41
 407              	.L51:
 408 00ce FFF7FEFF 		bl	FLASH_FlushCaches
 409 00d2 034B     		ldr	r3, .L52+4
 410 00d4 1869     		ldr	r0, [r3, #16]
 411 00d6 FFF7FEFF 		bl	HAL_FLASH_EndOfOperationCallback
 412 00da BDE7     		b	.L45
 413              	.L53:
 414              		.align	2
 415              	.L52:
 416 00dc 003C0240 		.word	1073888256
ARM GAS  C:\Users\Rick\AppData\Local\Temp\cciI0joI.s 			page 8


 417 00e0 00000000 		.word	pFlash
 419              		.section	.text.HAL_FLASH_Unlock,"ax",%progbits
 420              		.align	1
 421              		.global	HAL_FLASH_Unlock
 422              		.syntax unified
 423              		.thumb
 424              		.thumb_func
 426              	HAL_FLASH_Unlock:
 427              		@ args = 0, pretend = 0, frame = 0
 428              		@ frame_needed = 0, uses_anonymous_args = 0
 429              		@ link register save eliminated.
 430 0000 094B     		ldr	r3, .L59
 431 0002 1B69     		ldr	r3, [r3, #16]
 432 0004 002B     		cmp	r3, #0
 433 0006 01DB     		blt	.L58
 434 0008 0020     		movs	r0, #0
 435 000a 7047     		bx	lr
 436              	.L58:
 437 000c 064B     		ldr	r3, .L59
 438 000e 074A     		ldr	r2, .L59+4
 439 0010 5A60     		str	r2, [r3, #4]
 440 0012 02F18832 		add	r2, r2, #-2004318072
 441 0016 5A60     		str	r2, [r3, #4]
 442 0018 1B69     		ldr	r3, [r3, #16]
 443 001a 002B     		cmp	r3, #0
 444 001c 01DB     		blt	.L57
 445 001e 0020     		movs	r0, #0
 446 0020 7047     		bx	lr
 447              	.L57:
 448 0022 0120     		movs	r0, #1
 449 0024 7047     		bx	lr
 450              	.L60:
 451 0026 00BF     		.align	2
 452              	.L59:
 453 0028 003C0240 		.word	1073888256
 454 002c 23016745 		.word	1164378403
 456              		.section	.text.HAL_FLASH_Lock,"ax",%progbits
 457              		.align	1
 458              		.global	HAL_FLASH_Lock
 459              		.syntax unified
 460              		.thumb
 461              		.thumb_func
 463              	HAL_FLASH_Lock:
 464              		@ args = 0, pretend = 0, frame = 0
 465              		@ frame_needed = 0, uses_anonymous_args = 0
 466              		@ link register save eliminated.
 467 0000 034A     		ldr	r2, .L62
 468 0002 1369     		ldr	r3, [r2, #16]
 469 0004 43F00043 		orr	r3, r3, #-2147483648
 470 0008 1361     		str	r3, [r2, #16]
 471 000a 0020     		movs	r0, #0
 472 000c 7047     		bx	lr
 473              	.L63:
 474 000e 00BF     		.align	2
 475              	.L62:
 476 0010 003C0240 		.word	1073888256
 478              		.section	.text.HAL_FLASH_OB_Unlock,"ax",%progbits
ARM GAS  C:\Users\Rick\AppData\Local\Temp\cciI0joI.s 			page 9


 479              		.align	1
 480              		.global	HAL_FLASH_OB_Unlock
 481              		.syntax unified
 482              		.thumb
 483              		.thumb_func
 485              	HAL_FLASH_OB_Unlock:
 486              		@ args = 0, pretend = 0, frame = 0
 487              		@ frame_needed = 0, uses_anonymous_args = 0
 488              		@ link register save eliminated.
 489 0000 074B     		ldr	r3, .L67
 490 0002 5B69     		ldr	r3, [r3, #20]
 491 0004 13F0010F 		tst	r3, #1
 492 0008 07D0     		beq	.L66
 493 000a 054B     		ldr	r3, .L67
 494 000c 054A     		ldr	r2, .L67+4
 495 000e 9A60     		str	r2, [r3, #8]
 496 0010 02F14432 		add	r2, r2, #1145324612
 497 0014 9A60     		str	r2, [r3, #8]
 498 0016 0020     		movs	r0, #0
 499 0018 7047     		bx	lr
 500              	.L66:
 501 001a 0120     		movs	r0, #1
 502 001c 7047     		bx	lr
 503              	.L68:
 504 001e 00BF     		.align	2
 505              	.L67:
 506 0020 003C0240 		.word	1073888256
 507 0024 3B2A1908 		.word	135866939
 509              		.section	.text.HAL_FLASH_OB_Lock,"ax",%progbits
 510              		.align	1
 511              		.global	HAL_FLASH_OB_Lock
 512              		.syntax unified
 513              		.thumb
 514              		.thumb_func
 516              	HAL_FLASH_OB_Lock:
 517              		@ args = 0, pretend = 0, frame = 0
 518              		@ frame_needed = 0, uses_anonymous_args = 0
 519              		@ link register save eliminated.
 520 0000 034A     		ldr	r2, .L70
 521 0002 5369     		ldr	r3, [r2, #20]
 522 0004 43F00103 		orr	r3, r3, #1
 523 0008 5361     		str	r3, [r2, #20]
 524 000a 0020     		movs	r0, #0
 525 000c 7047     		bx	lr
 526              	.L71:
 527 000e 00BF     		.align	2
 528              	.L70:
 529 0010 003C0240 		.word	1073888256
 531              		.section	.text.HAL_FLASH_GetError,"ax",%progbits
 532              		.align	1
 533              		.global	HAL_FLASH_GetError
 534              		.syntax unified
 535              		.thumb
 536              		.thumb_func
 538              	HAL_FLASH_GetError:
 539              		@ args = 0, pretend = 0, frame = 0
 540              		@ frame_needed = 0, uses_anonymous_args = 0
ARM GAS  C:\Users\Rick\AppData\Local\Temp\cciI0joI.s 			page 10


 541              		@ link register save eliminated.
 542 0000 014B     		ldr	r3, .L73
 543 0002 D869     		ldr	r0, [r3, #28]
 544 0004 7047     		bx	lr
 545              	.L74:
 546 0006 00BF     		.align	2
 547              	.L73:
 548 0008 00000000 		.word	pFlash
 550              		.section	.text.FLASH_WaitForLastOperation,"ax",%progbits
 551              		.align	1
 552              		.global	FLASH_WaitForLastOperation
 553              		.syntax unified
 554              		.thumb
 555              		.thumb_func
 557              	FLASH_WaitForLastOperation:
 558              		@ args = 0, pretend = 0, frame = 0
 559              		@ frame_needed = 0, uses_anonymous_args = 0
 560 0000 38B5     		push	{r3, r4, r5, lr}
 561 0002 0446     		mov	r4, r0
 562 0004 144B     		ldr	r3, .L86
 563 0006 0022     		movs	r2, #0
 564 0008 DA61     		str	r2, [r3, #28]
 565 000a FFF7FEFF 		bl	HAL_GetTick
 566 000e 0546     		mov	r5, r0
 567              	.L77:
 568 0010 124B     		ldr	r3, .L86+4
 569 0012 DB68     		ldr	r3, [r3, #12]
 570 0014 13F4803F 		tst	r3, #65536
 571 0018 0AD0     		beq	.L84
 572 001a B4F1FF3F 		cmp	r4, #-1
 573 001e F7D0     		beq	.L77
 574 0020 24B1     		cbz	r4, .L78
 575 0022 FFF7FEFF 		bl	HAL_GetTick
 576 0026 401B     		subs	r0, r0, r5
 577 0028 A042     		cmp	r0, r4
 578 002a F1D9     		bls	.L77
 579              	.L78:
 580 002c 0320     		movs	r0, #3
 581 002e 0DE0     		b	.L79
 582              	.L84:
 583 0030 0A4B     		ldr	r3, .L86+4
 584 0032 DB68     		ldr	r3, [r3, #12]
 585 0034 13F0010F 		tst	r3, #1
 586 0038 02D0     		beq	.L81
 587 003a 084B     		ldr	r3, .L86+4
 588 003c 0122     		movs	r2, #1
 589 003e DA60     		str	r2, [r3, #12]
 590              	.L81:
 591 0040 064B     		ldr	r3, .L86+4
 592 0042 DB68     		ldr	r3, [r3, #12]
 593 0044 13F4F97F 		tst	r3, #498
 594 0048 01D1     		bne	.L85
 595 004a 0020     		movs	r0, #0
 596              	.L79:
 597 004c 38BD     		pop	{r3, r4, r5, pc}
 598              	.L85:
 599 004e FFF7FEFF 		bl	FLASH_SetErrorCode
ARM GAS  C:\Users\Rick\AppData\Local\Temp\cciI0joI.s 			page 11


 600 0052 0120     		movs	r0, #1
 601 0054 FAE7     		b	.L79
 602              	.L87:
 603 0056 00BF     		.align	2
 604              	.L86:
 605 0058 00000000 		.word	pFlash
 606 005c 003C0240 		.word	1073888256
 608              		.section	.text.HAL_FLASH_Program,"ax",%progbits
 609              		.align	1
 610              		.global	HAL_FLASH_Program
 611              		.syntax unified
 612              		.thumb
 613              		.thumb_func
 615              	HAL_FLASH_Program:
 616              		@ args = 0, pretend = 0, frame = 0
 617              		@ frame_needed = 0, uses_anonymous_args = 0
 618 0000 F8B5     		push	{r3, r4, r5, r6, r7, lr}
 619 0002 1646     		mov	r6, r2
 620 0004 1B4A     		ldr	r2, .L100
 621 0006 127E     		ldrb	r2, [r2, #24]	@ zero_extendqisi2
 622 0008 012A     		cmp	r2, #1
 623 000a 30D0     		beq	.L95
 624 000c 0446     		mov	r4, r0
 625 000e 0D46     		mov	r5, r1
 626 0010 1F46     		mov	r7, r3
 627 0012 184B     		ldr	r3, .L100
 628 0014 0122     		movs	r2, #1
 629 0016 1A76     		strb	r2, [r3, #24]
 630 0018 4CF25030 		movw	r0, #50000
 631 001c FFF7FEFF 		bl	FLASH_WaitForLastOperation
 632 0020 90B9     		cbnz	r0, .L90
 633 0022 ACB1     		cbz	r4, .L97
 634 0024 012C     		cmp	r4, #1
 635 0026 18D0     		beq	.L98
 636 0028 022C     		cmp	r4, #2
 637 002a 1BD0     		beq	.L99
 638 002c 3246     		mov	r2, r6
 639 002e 3B46     		mov	r3, r7
 640 0030 2846     		mov	r0, r5
 641 0032 FFF7FEFF 		bl	FLASH_Program_DoubleWord
 642              	.L92:
 643 0036 4CF25030 		movw	r0, #50000
 644 003a FFF7FEFF 		bl	FLASH_WaitForLastOperation
 645 003e 0E4A     		ldr	r2, .L100+4
 646 0040 1369     		ldr	r3, [r2, #16]
 647 0042 23F00103 		bic	r3, r3, #1
 648 0046 1361     		str	r3, [r2, #16]
 649              	.L90:
 650 0048 0A4B     		ldr	r3, .L100
 651 004a 0022     		movs	r2, #0
 652 004c 1A76     		strb	r2, [r3, #24]
 653              	.L89:
 654 004e F8BD     		pop	{r3, r4, r5, r6, r7, pc}
 655              	.L97:
 656 0050 F1B2     		uxtb	r1, r6
 657 0052 2846     		mov	r0, r5
 658 0054 FFF7FEFF 		bl	FLASH_Program_Byte
ARM GAS  C:\Users\Rick\AppData\Local\Temp\cciI0joI.s 			page 12


 659 0058 EDE7     		b	.L92
 660              	.L98:
 661 005a B1B2     		uxth	r1, r6
 662 005c 2846     		mov	r0, r5
 663 005e FFF7FEFF 		bl	FLASH_Program_HalfWord
 664 0062 E8E7     		b	.L92
 665              	.L99:
 666 0064 3146     		mov	r1, r6
 667 0066 2846     		mov	r0, r5
 668 0068 FFF7FEFF 		bl	FLASH_Program_Word
 669 006c E3E7     		b	.L92
 670              	.L95:
 671 006e 0220     		movs	r0, #2
 672 0070 EDE7     		b	.L89
 673              	.L101:
 674 0072 00BF     		.align	2
 675              	.L100:
 676 0074 00000000 		.word	pFlash
 677 0078 003C0240 		.word	1073888256
 679              		.section	.text.HAL_FLASH_OB_Launch,"ax",%progbits
 680              		.align	1
 681              		.global	HAL_FLASH_OB_Launch
 682              		.syntax unified
 683              		.thumb
 684              		.thumb_func
 686              	HAL_FLASH_OB_Launch:
 687              		@ args = 0, pretend = 0, frame = 0
 688              		@ frame_needed = 0, uses_anonymous_args = 0
 689 0000 08B5     		push	{r3, lr}
 690 0002 054A     		ldr	r2, .L104
 691 0004 137D     		ldrb	r3, [r2, #20]	@ zero_extendqisi2
 692 0006 43F00203 		orr	r3, r3, #2
 693 000a 1375     		strb	r3, [r2, #20]
 694 000c 4CF25030 		movw	r0, #50000
 695 0010 FFF7FEFF 		bl	FLASH_WaitForLastOperation
 696 0014 08BD     		pop	{r3, pc}
 697              	.L105:
 698 0016 00BF     		.align	2
 699              	.L104:
 700 0018 003C0240 		.word	1073888256
 702              		.global	pFlash
 703              		.section	.bss.pFlash,"aw",%nobits
 704              		.align	2
 707              	pFlash:
 708 0000 00000000 		.space	32
 708      00000000 
 708      00000000 
 708      00000000 
 708      00000000 
 709              		.ident	"GCC: (xPack GNU Arm Embedded GCC x86_64) 14.2.1 20241119"
ARM GAS  C:\Users\Rick\AppData\Local\Temp\cciI0joI.s 			page 13

