ARM GAS  C:\Users\Rick\AppData\Local\Temp\ccng1GKw.s 			page 1


   1              		.cpu cortex-m4
   2              		.arch armv7e-m
   3              		.fpu fpv4-sp-d16
   4              		.eabi_attribute 27, 1
   5              		.eabi_attribute 28, 1
   6              		.eabi_attribute 20, 1
   7              		.eabi_attribute 21, 1
   8              		.eabi_attribute 23, 3
   9              		.eabi_attribute 24, 1
  10              		.eabi_attribute 25, 1
  11              		.eabi_attribute 26, 1
  12              		.eabi_attribute 30, 1
  13              		.eabi_attribute 34, 1
  14              		.eabi_attribute 18, 4
  15              		.file	"stream_buffer.c"
  16              		.text
  17              		.section	.text.prvBytesInBuffer,"ax",%progbits
  18              		.align	1
  19              		.syntax unified
  20              		.thumb
  21              		.thumb_func
  23              	prvBytesInBuffer:
  24              		@ args = 0, pretend = 0, frame = 0
  25              		@ frame_needed = 0, uses_anonymous_args = 0
  26              		@ link register save eliminated.
  27 0000 8268     		ldr	r2, [r0, #8]
  28 0002 4368     		ldr	r3, [r0, #4]
  29 0004 1344     		add	r3, r3, r2
  30 0006 0068     		ldr	r0, [r0]
  31 0008 181A     		subs	r0, r3, r0
  32 000a 8242     		cmp	r2, r0
  33 000c 00D8     		bhi	.L1
  34 000e 801A     		subs	r0, r0, r2
  35              	.L1:
  36 0010 7047     		bx	lr
  38              		.section	.text.prvInitialiseNewStreamBuffer,"ax",%progbits
  39              		.align	1
  40              		.syntax unified
  41              		.thumb
  42              		.thumb_func
  44              	prvInitialiseNewStreamBuffer:
  45              		@ args = 4, pretend = 0, frame = 0
  46              		@ frame_needed = 0, uses_anonymous_args = 0
  47 0000 F8B5     		push	{r3, r4, r5, r6, r7, lr}
  48 0002 0746     		mov	r7, r0
  49 0004 0C46     		mov	r4, r1
  50 0006 1646     		mov	r6, r2
  51 0008 1D46     		mov	r5, r3
  52 000a 5521     		movs	r1, #85
  53 000c 2046     		mov	r0, r4
  54 000e FFF7FEFF 		bl	memset
  55 0012 8442     		cmp	r4, r0
  56 0014 08D0     		beq	.L4
  57              		.syntax unified
  58              	@ 195 "Middlewares/Third_Party/FreeRTOS/Source/portable/GCC/ARM_CM4F/portmacro.h" 1
  59 0016 4FF05003 			mov r3, #80												
  60 001a 83F31188 		msr basepri, r3											
ARM GAS  C:\Users\Rick\AppData\Local\Temp\ccng1GKw.s 			page 2


  61 001e BFF36F8F 		isb														
  62 0022 BFF34F8F 		dsb														
  63              	
  64              	@ 0 "" 2
  65              		.thumb
  66              		.syntax unified
  67              	.L5:
  68 0026 FEE7     		b	.L5
  69              	.L4:
  70 0028 2022     		movs	r2, #32
  71 002a 0021     		movs	r1, #0
  72 002c 3846     		mov	r0, r7
  73 002e FFF7FEFF 		bl	memset
  74 0032 BC61     		str	r4, [r7, #24]
  75 0034 BE60     		str	r6, [r7, #8]
  76 0036 FD60     		str	r5, [r7, #12]
  77 0038 9DF81830 		ldrb	r3, [sp, #24]	@ zero_extendqisi2
  78 003c 3B77     		strb	r3, [r7, #28]
  79 003e F8BD     		pop	{r3, r4, r5, r6, r7, pc}
  81              		.section	.text.prvWriteBytesToBuffer,"ax",%progbits
  82              		.align	1
  83              		.syntax unified
  84              		.thumb
  85              		.thumb_func
  87              	prvWriteBytesToBuffer:
  88              		@ args = 0, pretend = 0, frame = 0
  89              		@ frame_needed = 0, uses_anonymous_args = 0
  90 0000 2DE9F843 		push	{r3, r4, r5, r6, r7, r8, r9, lr}
  91 0004 42B9     		cbnz	r2, .L8
  92              		.syntax unified
  93              	@ 195 "Middlewares/Third_Party/FreeRTOS/Source/portable/GCC/ARM_CM4F/portmacro.h" 1
  94 0006 4FF05003 			mov r3, #80												
  95 000a 83F31188 		msr basepri, r3											
  96 000e BFF36F8F 		isb														
  97 0012 BFF34F8F 		dsb														
  98              	
  99              	@ 0 "" 2
 100              		.thumb
 101              		.syntax unified
 102              	.L9:
 103 0016 FEE7     		b	.L9
 104              	.L8:
 105 0018 0446     		mov	r4, r0
 106 001a 0E46     		mov	r6, r1
 107 001c 1746     		mov	r7, r2
 108 001e 4568     		ldr	r5, [r0, #4]
 109 0020 8368     		ldr	r3, [r0, #8]
 110 0022 A3EB0509 		sub	r9, r3, r5
 111 0026 C846     		mov	r8, r9
 112 0028 9145     		cmp	r9, r2
 113 002a 28BF     		it	cs
 114 002c 9046     		movcs	r8, r2
 115 002e 05EB0802 		add	r2, r5, r8
 116 0032 9342     		cmp	r3, r2
 117 0034 08D2     		bcs	.L10
 118              		.syntax unified
 119              	@ 195 "Middlewares/Third_Party/FreeRTOS/Source/portable/GCC/ARM_CM4F/portmacro.h" 1
ARM GAS  C:\Users\Rick\AppData\Local\Temp\ccng1GKw.s 			page 3


 120 0036 4FF05003 			mov r3, #80												
 121 003a 83F31188 		msr basepri, r3											
 122 003e BFF36F8F 		isb														
 123 0042 BFF34F8F 		dsb														
 124              	
 125              	@ 0 "" 2
 126              		.thumb
 127              		.syntax unified
 128              	.L11:
 129 0046 FEE7     		b	.L11
 130              	.L10:
 131 0048 8069     		ldr	r0, [r0, #24]
 132 004a 4246     		mov	r2, r8
 133 004c 2844     		add	r0, r0, r5
 134 004e FFF7FEFF 		bl	memcpy
 135 0052 B945     		cmp	r9, r7
 136 0054 12D2     		bcs	.L12
 137 0056 A7EB0802 		sub	r2, r7, r8
 138 005a A368     		ldr	r3, [r4, #8]
 139 005c 9A42     		cmp	r2, r3
 140 005e 08D9     		bls	.L13
 141              		.syntax unified
 142              	@ 195 "Middlewares/Third_Party/FreeRTOS/Source/portable/GCC/ARM_CM4F/portmacro.h" 1
 143 0060 4FF05003 			mov r3, #80												
 144 0064 83F31188 		msr basepri, r3											
 145 0068 BFF36F8F 		isb														
 146 006c BFF34F8F 		dsb														
 147              	
 148              	@ 0 "" 2
 149              		.thumb
 150              		.syntax unified
 151              	.L14:
 152 0070 FEE7     		b	.L14
 153              	.L13:
 154 0072 06EB0801 		add	r1, r6, r8
 155 0076 A069     		ldr	r0, [r4, #24]
 156 0078 FFF7FEFF 		bl	memcpy
 157              	.L12:
 158 007c 3D44     		add	r5, r5, r7
 159 007e A368     		ldr	r3, [r4, #8]
 160 0080 AB42     		cmp	r3, r5
 161 0082 00D8     		bhi	.L15
 162 0084 ED1A     		subs	r5, r5, r3
 163              	.L15:
 164 0086 6560     		str	r5, [r4, #4]
 165 0088 3846     		mov	r0, r7
 166 008a BDE8F883 		pop	{r3, r4, r5, r6, r7, r8, r9, pc}
 168              		.section	.text.prvWriteMessageToBuffer,"ax",%progbits
 169              		.align	1
 170              		.syntax unified
 171              		.thumb
 172              		.thumb_func
 174              	prvWriteMessageToBuffer:
 175              		@ args = 4, pretend = 0, frame = 8
 176              		@ frame_needed = 0, uses_anonymous_args = 0
 177 0000 30B5     		push	{r4, r5, lr}
 178 0002 83B0     		sub	sp, sp, #12
ARM GAS  C:\Users\Rick\AppData\Local\Temp\ccng1GKw.s 			page 4


 179 0004 0546     		mov	r5, r0
 180 0006 0192     		str	r2, [sp, #4]
 181 0008 1846     		mov	r0, r3
 182 000a 6BB1     		cbz	r3, .L18
 183 000c 0C46     		mov	r4, r1
 184 000e 2B7F     		ldrb	r3, [r5, #28]	@ zero_extendqisi2
 185 0010 13F0010F 		tst	r3, #1
 186 0014 0AD1     		bne	.L19
 187 0016 9042     		cmp	r0, r2
 188 0018 28BF     		it	cs
 189 001a 1046     		movcs	r0, r2
 190 001c 0190     		str	r0, [sp, #4]
 191              	.L20:
 192 001e 019A     		ldr	r2, [sp, #4]
 193 0020 2146     		mov	r1, r4
 194 0022 2846     		mov	r0, r5
 195 0024 FFF7FEFF 		bl	prvWriteBytesToBuffer
 196              	.L18:
 197 0028 03B0     		add	sp, sp, #12
 198              		@ sp needed
 199 002a 30BD     		pop	{r4, r5, pc}
 200              	.L19:
 201 002c 069B     		ldr	r3, [sp, #24]
 202 002e 9842     		cmp	r0, r3
 203 0030 01D2     		bcs	.L23
 204 0032 0020     		movs	r0, #0
 205 0034 F8E7     		b	.L18
 206              	.L23:
 207 0036 0422     		movs	r2, #4
 208 0038 0DEB0201 		add	r1, sp, r2
 209 003c 2846     		mov	r0, r5
 210 003e FFF7FEFF 		bl	prvWriteBytesToBuffer
 211 0042 ECE7     		b	.L20
 213              		.section	.text.prvReadBytesFromBuffer,"ax",%progbits
 214              		.align	1
 215              		.syntax unified
 216              		.thumb
 217              		.thumb_func
 219              	prvReadBytesFromBuffer:
 220              		@ args = 0, pretend = 0, frame = 0
 221              		@ frame_needed = 0, uses_anonymous_args = 0
 222 0000 2DE9F843 		push	{r3, r4, r5, r6, r7, r8, r9, lr}
 223 0004 9342     		cmp	r3, r2
 224 0006 28BF     		it	cs
 225 0008 1346     		movcs	r3, r2
 226 000a 1C46     		mov	r4, r3
 227 000c 7BB3     		cbz	r3, .L24
 228 000e 0546     		mov	r5, r0
 229 0010 0E46     		mov	r6, r1
 230 0012 0768     		ldr	r7, [r0]
 231 0014 8368     		ldr	r3, [r0, #8]
 232 0016 A3EB0709 		sub	r9, r3, r7
 233 001a C846     		mov	r8, r9
 234 001c A145     		cmp	r9, r4
 235 001e 28BF     		it	cs
 236 0020 A046     		movcs	r8, r4
 237 0022 4245     		cmp	r2, r8
ARM GAS  C:\Users\Rick\AppData\Local\Temp\ccng1GKw.s 			page 5


 238 0024 08D2     		bcs	.L26
 239              		.syntax unified
 240              	@ 195 "Middlewares/Third_Party/FreeRTOS/Source/portable/GCC/ARM_CM4F/portmacro.h" 1
 241 0026 4FF05003 			mov r3, #80												
 242 002a 83F31188 		msr basepri, r3											
 243 002e BFF36F8F 		isb														
 244 0032 BFF34F8F 		dsb														
 245              	
 246              	@ 0 "" 2
 247              		.thumb
 248              		.syntax unified
 249              	.L27:
 250 0036 FEE7     		b	.L27
 251              	.L26:
 252 0038 07EB0802 		add	r2, r7, r8
 253 003c 9342     		cmp	r3, r2
 254 003e 08D2     		bcs	.L28
 255              		.syntax unified
 256              	@ 195 "Middlewares/Third_Party/FreeRTOS/Source/portable/GCC/ARM_CM4F/portmacro.h" 1
 257 0040 4FF05003 			mov r3, #80												
 258 0044 83F31188 		msr basepri, r3											
 259 0048 BFF36F8F 		isb														
 260 004c BFF34F8F 		dsb														
 261              	
 262              	@ 0 "" 2
 263              		.thumb
 264              		.syntax unified
 265              	.L29:
 266 0050 FEE7     		b	.L29
 267              	.L28:
 268 0052 8169     		ldr	r1, [r0, #24]
 269 0054 4246     		mov	r2, r8
 270 0056 3944     		add	r1, r1, r7
 271 0058 3046     		mov	r0, r6
 272 005a FFF7FEFF 		bl	memcpy
 273 005e A145     		cmp	r9, r4
 274 0060 08D3     		bcc	.L33
 275              	.L30:
 276 0062 2744     		add	r7, r7, r4
 277 0064 AB68     		ldr	r3, [r5, #8]
 278 0066 BB42     		cmp	r3, r7
 279 0068 00D8     		bhi	.L31
 280 006a FF1A     		subs	r7, r7, r3
 281              	.L31:
 282 006c 2F60     		str	r7, [r5]
 283              	.L24:
 284 006e 2046     		mov	r0, r4
 285 0070 BDE8F883 		pop	{r3, r4, r5, r6, r7, r8, r9, pc}
 286              	.L33:
 287 0074 A4EB0802 		sub	r2, r4, r8
 288 0078 A969     		ldr	r1, [r5, #24]
 289 007a 06EB0800 		add	r0, r6, r8
 290 007e FFF7FEFF 		bl	memcpy
 291 0082 EEE7     		b	.L30
 293              		.section	.text.prvReadMessageFromBuffer,"ax",%progbits
 294              		.align	1
 295              		.syntax unified
ARM GAS  C:\Users\Rick\AppData\Local\Temp\ccng1GKw.s 			page 6


 296              		.thumb
 297              		.thumb_func
 299              	prvReadMessageFromBuffer:
 300              		@ args = 4, pretend = 0, frame = 8
 301              		@ frame_needed = 0, uses_anonymous_args = 0
 302 0000 2DE9F043 		push	{r4, r5, r6, r7, r8, r9, lr}
 303 0004 83B0     		sub	sp, sp, #12
 304 0006 0546     		mov	r5, r0
 305 0008 0F46     		mov	r7, r1
 306 000a 1646     		mov	r6, r2
 307 000c 1C46     		mov	r4, r3
 308 000e DDF82880 		ldr	r8, [sp, #40]
 309 0012 B8F1000F 		cmp	r8, #0
 310 0016 08D1     		bne	.L38
 311              	.L35:
 312 0018 2346     		mov	r3, r4
 313 001a 3246     		mov	r2, r6
 314 001c 3946     		mov	r1, r7
 315 001e 2846     		mov	r0, r5
 316 0020 FFF7FEFF 		bl	prvReadBytesFromBuffer
 317 0024 03B0     		add	sp, sp, #12
 318              		@ sp needed
 319 0026 BDE8F083 		pop	{r4, r5, r6, r7, r8, r9, pc}
 320              	.L38:
 321 002a D0F80090 		ldr	r9, [r0]
 322 002e 4246     		mov	r2, r8
 323 0030 01A9     		add	r1, sp, #4
 324 0032 FFF7FEFF 		bl	prvReadBytesFromBuffer
 325 0036 019B     		ldr	r3, [sp, #4]
 326 0038 A4EB0804 		sub	r4, r4, r8
 327 003c 9E42     		cmp	r6, r3
 328 003e 03D2     		bcs	.L36
 329 0040 C5F80090 		str	r9, [r5]
 330 0044 0026     		movs	r6, #0
 331 0046 E7E7     		b	.L35
 332              	.L36:
 333 0048 1E46     		mov	r6, r3
 334 004a E5E7     		b	.L35
 336              		.section	.text.xStreamBufferGenericCreate,"ax",%progbits
 337              		.align	1
 338              		.global	xStreamBufferGenericCreate
 339              		.syntax unified
 340              		.thumb
 341              		.thumb_func
 343              	xStreamBufferGenericCreate:
 344              		@ args = 0, pretend = 0, frame = 0
 345              		@ frame_needed = 0, uses_anonymous_args = 0
 346 0000 F0B5     		push	{r4, r5, r6, r7, lr}
 347 0002 83B0     		sub	sp, sp, #12
 348 0004 0C46     		mov	r4, r1
 349 0006 012A     		cmp	r2, #1
 350 0008 09D0     		beq	.L52
 351 000a A8B9     		cbnz	r0, .L49
 352              		.syntax unified
 353              	@ 195 "Middlewares/Third_Party/FreeRTOS/Source/portable/GCC/ARM_CM4F/portmacro.h" 1
 354 000c 4FF05003 			mov r3, #80												
 355 0010 83F31188 		msr basepri, r3											
ARM GAS  C:\Users\Rick\AppData\Local\Temp\ccng1GKw.s 			page 7


 356 0014 BFF36F8F 		isb														
 357 0018 BFF34F8F 		dsb														
 358              	
 359              	@ 0 "" 2
 360              		.thumb
 361              		.syntax unified
 362              	.L43:
 363 001c FEE7     		b	.L43
 364              	.L52:
 365 001e 0428     		cmp	r0, #4
 366 0020 08D8     		bhi	.L48
 367              		.syntax unified
 368              	@ 195 "Middlewares/Third_Party/FreeRTOS/Source/portable/GCC/ARM_CM4F/portmacro.h" 1
 369 0022 4FF05003 			mov r3, #80												
 370 0026 83F31188 		msr basepri, r3											
 371 002a BFF36F8F 		isb														
 372 002e BFF34F8F 		dsb														
 373              	
 374              	@ 0 "" 2
 375              		.thumb
 376              		.syntax unified
 377              	.L42:
 378 0032 FEE7     		b	.L42
 379              	.L48:
 380 0034 0126     		movs	r6, #1
 381 0036 00E0     		b	.L41
 382              	.L49:
 383 0038 0026     		movs	r6, #0
 384              	.L41:
 385 003a A042     		cmp	r0, r4
 386 003c 08D2     		bcs	.L44
 387              		.syntax unified
 388              	@ 195 "Middlewares/Third_Party/FreeRTOS/Source/portable/GCC/ARM_CM4F/portmacro.h" 1
 389 003e 4FF05003 			mov r3, #80												
 390 0042 83F31188 		msr basepri, r3											
 391 0046 BFF36F8F 		isb														
 392 004a BFF34F8F 		dsb														
 393              	
 394              	@ 0 "" 2
 395              		.thumb
 396              		.syntax unified
 397              	.L45:
 398 004e FEE7     		b	.L45
 399              	.L44:
 400 0050 04B9     		cbnz	r4, .L46
 401 0052 0124     		movs	r4, #1
 402              	.L46:
 403 0054 471C     		adds	r7, r0, #1
 404 0056 2130     		adds	r0, r0, #33
 405 0058 FFF7FEFF 		bl	pvPortMalloc
 406 005c 0546     		mov	r5, r0
 407 005e 30B1     		cbz	r0, .L39
 408 0060 0096     		str	r6, [sp]
 409 0062 2346     		mov	r3, r4
 410 0064 3A46     		mov	r2, r7
 411 0066 00F12001 		add	r1, r0, #32
 412 006a FFF7FEFF 		bl	prvInitialiseNewStreamBuffer
ARM GAS  C:\Users\Rick\AppData\Local\Temp\ccng1GKw.s 			page 8


 413              	.L39:
 414 006e 2846     		mov	r0, r5
 415 0070 03B0     		add	sp, sp, #12
 416              		@ sp needed
 417 0072 F0BD     		pop	{r4, r5, r6, r7, pc}
 419              		.section	.text.xStreamBufferGenericCreateStatic,"ax",%progbits
 420              		.align	1
 421              		.global	xStreamBufferGenericCreateStatic
 422              		.syntax unified
 423              		.thumb
 424              		.thumb_func
 426              	xStreamBufferGenericCreateStatic:
 427              		@ args = 4, pretend = 0, frame = 8
 428              		@ frame_needed = 0, uses_anonymous_args = 0
 429 0000 7BB1     		cbz	r3, .L70
 430 0002 00B5     		push	{lr}
 431 0004 85B0     		sub	sp, sp, #20
 432 0006 9C46     		mov	ip, r3
 433 0008 069B     		ldr	r3, [sp, #24]
 434 000a 9BB1     		cbz	r3, .L71
 435 000c 8142     		cmp	r1, r0
 436 000e 1AD9     		bls	.L58
 437              		.syntax unified
 438              	@ 195 "Middlewares/Third_Party/FreeRTOS/Source/portable/GCC/ARM_CM4F/portmacro.h" 1
 439 0010 4FF05003 			mov r3, #80												
 440 0014 83F31188 		msr basepri, r3											
 441 0018 BFF36F8F 		isb														
 442 001c BFF34F8F 		dsb														
 443              	
 444              	@ 0 "" 2
 445              		.thumb
 446              		.syntax unified
 447              	.L59:
 448 0020 FEE7     		b	.L59
 449              	.L70:
 450              		.syntax unified
 451              	@ 195 "Middlewares/Third_Party/FreeRTOS/Source/portable/GCC/ARM_CM4F/portmacro.h" 1
 452 0022 4FF05003 			mov r3, #80												
 453 0026 83F31188 		msr basepri, r3											
 454 002a BFF36F8F 		isb														
 455 002e BFF34F8F 		dsb														
 456              	
 457              	@ 0 "" 2
 458              		.thumb
 459              		.syntax unified
 460              	.L55:
 461 0032 FEE7     		b	.L55
 462              	.L71:
 463              		.syntax unified
 464              	@ 195 "Middlewares/Third_Party/FreeRTOS/Source/portable/GCC/ARM_CM4F/portmacro.h" 1
 465 0034 4FF05003 			mov r3, #80												
 466 0038 83F31188 		msr basepri, r3											
 467 003c BFF36F8F 		isb														
 468 0040 BFF34F8F 		dsb														
 469              	
 470              	@ 0 "" 2
 471              		.thumb
ARM GAS  C:\Users\Rick\AppData\Local\Temp\ccng1GKw.s 			page 9


 472              		.syntax unified
 473              	.L57:
 474 0044 FEE7     		b	.L57
 475              	.L58:
 476 0046 01B9     		cbnz	r1, .L60
 477 0048 0121     		movs	r1, #1
 478              	.L60:
 479 004a 5AB1     		cbz	r2, .L67
 480 004c 0323     		movs	r3, #3
 481              	.L61:
 482 004e 0428     		cmp	r0, #4
 483 0050 0AD8     		bhi	.L62
 484              		.syntax unified
 485              	@ 195 "Middlewares/Third_Party/FreeRTOS/Source/portable/GCC/ARM_CM4F/portmacro.h" 1
 486 0052 4FF05003 			mov r3, #80												
 487 0056 83F31188 		msr basepri, r3											
 488 005a BFF36F8F 		isb														
 489 005e BFF34F8F 		dsb														
 490              	
 491              	@ 0 "" 2
 492              		.thumb
 493              		.syntax unified
 494              	.L63:
 495 0062 FEE7     		b	.L63
 496              	.L67:
 497 0064 0223     		movs	r3, #2
 498 0066 F2E7     		b	.L61
 499              	.L62:
 500 0068 2022     		movs	r2, #32
 501 006a 0392     		str	r2, [sp, #12]
 502 006c 039A     		ldr	r2, [sp, #12]
 503 006e 202A     		cmp	r2, #32
 504 0070 08D0     		beq	.L64
 505              		.syntax unified
 506              	@ 195 "Middlewares/Third_Party/FreeRTOS/Source/portable/GCC/ARM_CM4F/portmacro.h" 1
 507 0072 4FF05003 			mov r3, #80												
 508 0076 83F31188 		msr basepri, r3											
 509 007a BFF36F8F 		isb														
 510 007e BFF34F8F 		dsb														
 511              	
 512              	@ 0 "" 2
 513              		.thumb
 514              		.syntax unified
 515              	.L65:
 516 0082 FEE7     		b	.L65
 517              	.L64:
 518 0084 0093     		str	r3, [sp]
 519 0086 0B46     		mov	r3, r1
 520 0088 0246     		mov	r2, r0
 521 008a 6146     		mov	r1, ip
 522 008c 0698     		ldr	r0, [sp, #24]
 523 008e FFF7FEFF 		bl	prvInitialiseNewStreamBuffer
 524 0092 069B     		ldr	r3, [sp, #24]
 525 0094 1B7F     		ldrb	r3, [r3, #28]	@ zero_extendqisi2
 526 0096 43F00203 		orr	r3, r3, #2
 527 009a 069A     		ldr	r2, [sp, #24]
 528 009c 1377     		strb	r3, [r2, #28]
ARM GAS  C:\Users\Rick\AppData\Local\Temp\ccng1GKw.s 			page 10


 529 009e 1046     		mov	r0, r2
 530 00a0 05B0     		add	sp, sp, #20
 531              		@ sp needed
 532 00a2 5DF804FB 		ldr	pc, [sp], #4
 534              		.section	.text.vStreamBufferDelete,"ax",%progbits
 535              		.align	1
 536              		.global	vStreamBufferDelete
 537              		.syntax unified
 538              		.thumb
 539              		.thumb_func
 541              	vStreamBufferDelete:
 542              		@ args = 0, pretend = 0, frame = 0
 543              		@ frame_needed = 0, uses_anonymous_args = 0
 544 0000 08B5     		push	{r3, lr}
 545 0002 30B1     		cbz	r0, .L78
 546 0004 027F     		ldrb	r2, [r0, #28]	@ zero_extendqisi2
 547 0006 12F0020F 		tst	r2, #2
 548 000a 0BD1     		bne	.L75
 549 000c FFF7FEFF 		bl	vPortFree
 550              	.L72:
 551 0010 08BD     		pop	{r3, pc}
 552              	.L78:
 553              		.syntax unified
 554              	@ 195 "Middlewares/Third_Party/FreeRTOS/Source/portable/GCC/ARM_CM4F/portmacro.h" 1
 555 0012 4FF05003 			mov r3, #80												
 556 0016 83F31188 		msr basepri, r3											
 557 001a BFF36F8F 		isb														
 558 001e BFF34F8F 		dsb														
 559              	
 560              	@ 0 "" 2
 561              		.thumb
 562              		.syntax unified
 563              	.L74:
 564 0022 FEE7     		b	.L74
 565              	.L75:
 566 0024 2022     		movs	r2, #32
 567 0026 0021     		movs	r1, #0
 568 0028 FFF7FEFF 		bl	memset
 569 002c F0E7     		b	.L72
 571              		.section	.text.xStreamBufferReset,"ax",%progbits
 572              		.align	1
 573              		.global	xStreamBufferReset
 574              		.syntax unified
 575              		.thumb
 576              		.thumb_func
 578              	xStreamBufferReset:
 579              		@ args = 0, pretend = 0, frame = 0
 580              		@ frame_needed = 0, uses_anonymous_args = 0
 581 0000 60B1     		cbz	r0, .L87
 582 0002 10B5     		push	{r4, lr}
 583 0004 82B0     		sub	sp, sp, #8
 584 0006 0446     		mov	r4, r0
 585 0008 FFF7FEFF 		bl	vPortEnterCritical
 586 000c 2369     		ldr	r3, [r4, #16]
 587 000e 73B1     		cbz	r3, .L88
 588 0010 0024     		movs	r4, #0
 589              	.L82:
ARM GAS  C:\Users\Rick\AppData\Local\Temp\ccng1GKw.s 			page 11


 590 0012 FFF7FEFF 		bl	vPortExitCritical
 591 0016 2046     		mov	r0, r4
 592 0018 02B0     		add	sp, sp, #8
 593              		@ sp needed
 594 001a 10BD     		pop	{r4, pc}
 595              	.L87:
 596              		.syntax unified
 597              	@ 195 "Middlewares/Third_Party/FreeRTOS/Source/portable/GCC/ARM_CM4F/portmacro.h" 1
 598 001c 4FF05003 			mov r3, #80												
 599 0020 83F31188 		msr basepri, r3											
 600 0024 BFF36F8F 		isb														
 601 0028 BFF34F8F 		dsb														
 602              	
 603              	@ 0 "" 2
 604              		.thumb
 605              		.syntax unified
 606              	.L81:
 607 002c FEE7     		b	.L81
 608              	.L88:
 609 002e 6369     		ldr	r3, [r4, #20]
 610 0030 0BB1     		cbz	r3, .L89
 611 0032 0024     		movs	r4, #0
 612 0034 EDE7     		b	.L82
 613              	.L89:
 614 0036 237F     		ldrb	r3, [r4, #28]	@ zero_extendqisi2
 615 0038 0093     		str	r3, [sp]
 616 003a E368     		ldr	r3, [r4, #12]
 617 003c A268     		ldr	r2, [r4, #8]
 618 003e A169     		ldr	r1, [r4, #24]
 619 0040 2046     		mov	r0, r4
 620 0042 FFF7FEFF 		bl	prvInitialiseNewStreamBuffer
 621 0046 0124     		movs	r4, #1
 622 0048 E3E7     		b	.L82
 624              		.section	.text.xStreamBufferSetTriggerLevel,"ax",%progbits
 625              		.align	1
 626              		.global	xStreamBufferSetTriggerLevel
 627              		.syntax unified
 628              		.thumb
 629              		.thumb_func
 631              	xStreamBufferSetTriggerLevel:
 632              		@ args = 0, pretend = 0, frame = 0
 633              		@ frame_needed = 0, uses_anonymous_args = 0
 634              		@ link register save eliminated.
 635 0000 0346     		mov	r3, r0
 636 0002 38B1     		cbz	r0, .L97
 637 0004 01B9     		cbnz	r1, .L93
 638 0006 0121     		movs	r1, #1
 639              	.L93:
 640 0008 9A68     		ldr	r2, [r3, #8]
 641 000a 8A42     		cmp	r2, r1
 642 000c 0BD3     		bcc	.L96
 643 000e D960     		str	r1, [r3, #12]
 644 0010 0120     		movs	r0, #1
 645 0012 7047     		bx	lr
 646              	.L97:
 647              		.syntax unified
 648              	@ 195 "Middlewares/Third_Party/FreeRTOS/Source/portable/GCC/ARM_CM4F/portmacro.h" 1
ARM GAS  C:\Users\Rick\AppData\Local\Temp\ccng1GKw.s 			page 12


 649 0014 4FF05003 			mov r3, #80												
 650 0018 83F31188 		msr basepri, r3											
 651 001c BFF36F8F 		isb														
 652 0020 BFF34F8F 		dsb														
 653              	
 654              	@ 0 "" 2
 655              		.thumb
 656              		.syntax unified
 657              	.L92:
 658 0024 FEE7     		b	.L92
 659              	.L96:
 660 0026 0020     		movs	r0, #0
 661 0028 7047     		bx	lr
 663              		.section	.text.xStreamBufferSpacesAvailable,"ax",%progbits
 664              		.align	1
 665              		.global	xStreamBufferSpacesAvailable
 666              		.syntax unified
 667              		.thumb
 668              		.thumb_func
 670              	xStreamBufferSpacesAvailable:
 671              		@ args = 0, pretend = 0, frame = 0
 672              		@ frame_needed = 0, uses_anonymous_args = 0
 673              		@ link register save eliminated.
 674 0000 0346     		mov	r3, r0
 675 0002 48B1     		cbz	r0, .L102
 676 0004 8268     		ldr	r2, [r0, #8]
 677 0006 0068     		ldr	r0, [r0]
 678 0008 1044     		add	r0, r0, r2
 679 000a 5B68     		ldr	r3, [r3, #4]
 680 000c C01A     		subs	r0, r0, r3
 681 000e 0138     		subs	r0, r0, #1
 682 0010 8242     		cmp	r2, r0
 683 0012 00D8     		bhi	.L98
 684 0014 801A     		subs	r0, r0, r2
 685              	.L98:
 686 0016 7047     		bx	lr
 687              	.L102:
 688              		.syntax unified
 689              	@ 195 "Middlewares/Third_Party/FreeRTOS/Source/portable/GCC/ARM_CM4F/portmacro.h" 1
 690 0018 4FF05003 			mov r3, #80												
 691 001c 83F31188 		msr basepri, r3											
 692 0020 BFF36F8F 		isb														
 693 0024 BFF34F8F 		dsb														
 694              	
 695              	@ 0 "" 2
 696              		.thumb
 697              		.syntax unified
 698              	.L100:
 699 0028 FEE7     		b	.L100
 701              		.section	.text.xStreamBufferBytesAvailable,"ax",%progbits
 702              		.align	1
 703              		.global	xStreamBufferBytesAvailable
 704              		.syntax unified
 705              		.thumb
 706              		.thumb_func
 708              	xStreamBufferBytesAvailable:
 709              		@ args = 0, pretend = 0, frame = 0
ARM GAS  C:\Users\Rick\AppData\Local\Temp\ccng1GKw.s 			page 13


 710              		@ frame_needed = 0, uses_anonymous_args = 0
 711 0000 08B5     		push	{r3, lr}
 712 0002 10B1     		cbz	r0, .L107
 713 0004 FFF7FEFF 		bl	prvBytesInBuffer
 714 0008 08BD     		pop	{r3, pc}
 715              	.L107:
 716              		.syntax unified
 717              	@ 195 "Middlewares/Third_Party/FreeRTOS/Source/portable/GCC/ARM_CM4F/portmacro.h" 1
 718 000a 4FF05003 			mov r3, #80												
 719 000e 83F31188 		msr basepri, r3											
 720 0012 BFF36F8F 		isb														
 721 0016 BFF34F8F 		dsb														
 722              	
 723              	@ 0 "" 2
 724              		.thumb
 725              		.syntax unified
 726              	.L105:
 727 001a FEE7     		b	.L105
 729              		.section	.text.xStreamBufferSend,"ax",%progbits
 730              		.align	1
 731              		.global	xStreamBufferSend
 732              		.syntax unified
 733              		.thumb
 734              		.thumb_func
 736              	xStreamBufferSend:
 737              		@ args = 0, pretend = 0, frame = 16
 738              		@ frame_needed = 0, uses_anonymous_args = 0
 739 0000 2DE9F041 		push	{r4, r5, r6, r7, r8, lr}
 740 0004 86B0     		sub	sp, sp, #24
 741 0006 0393     		str	r3, [sp, #12]
 742 0008 99B1     		cbz	r1, .L126
 743 000a 0446     		mov	r4, r0
 744 000c 1646     		mov	r6, r2
 745 000e 8846     		mov	r8, r1
 746 0010 C0B1     		cbz	r0, .L127
 747 0012 037F     		ldrb	r3, [r0, #28]	@ zero_extendqisi2
 748 0014 13F0010F 		tst	r3, #1
 749 0018 1DD0     		beq	.L124
 750 001a 171D     		adds	r7, r2, #4
 751 001c BA42     		cmp	r2, r7
 752 001e 1BD3     		bcc	.L113
 753              		.syntax unified
 754              	@ 195 "Middlewares/Third_Party/FreeRTOS/Source/portable/GCC/ARM_CM4F/portmacro.h" 1
 755 0020 4FF05003 			mov r3, #80												
 756 0024 83F31188 		msr basepri, r3											
 757 0028 BFF36F8F 		isb														
 758 002c BFF34F8F 		dsb														
 759              	
 760              	@ 0 "" 2
 761              		.thumb
 762              		.syntax unified
 763              	.L114:
 764 0030 FEE7     		b	.L114
 765              	.L126:
 766              		.syntax unified
 767              	@ 195 "Middlewares/Third_Party/FreeRTOS/Source/portable/GCC/ARM_CM4F/portmacro.h" 1
 768 0032 4FF05003 			mov r3, #80												
ARM GAS  C:\Users\Rick\AppData\Local\Temp\ccng1GKw.s 			page 14


 769 0036 83F31188 		msr basepri, r3											
 770 003a BFF36F8F 		isb														
 771 003e BFF34F8F 		dsb														
 772              	
 773              	@ 0 "" 2
 774              		.thumb
 775              		.syntax unified
 776              	.L110:
 777 0042 FEE7     		b	.L110
 778              	.L127:
 779              		.syntax unified
 780              	@ 195 "Middlewares/Third_Party/FreeRTOS/Source/portable/GCC/ARM_CM4F/portmacro.h" 1
 781 0044 4FF05003 			mov r3, #80												
 782 0048 83F31188 		msr basepri, r3											
 783 004c BFF36F8F 		isb														
 784 0050 BFF34F8F 		dsb														
 785              	
 786              	@ 0 "" 2
 787              		.thumb
 788              		.syntax unified
 789              	.L112:
 790 0054 FEE7     		b	.L112
 791              	.L124:
 792 0056 1746     		mov	r7, r2
 793              	.L113:
 794 0058 039B     		ldr	r3, [sp, #12]
 795 005a 7BB3     		cbz	r3, .L115
 796 005c 04A8     		add	r0, sp, #16
 797 005e FFF7FEFF 		bl	vTaskSetTimeOutState
 798              	.L119:
 799 0062 FFF7FEFF 		bl	vPortEnterCritical
 800 0066 2046     		mov	r0, r4
 801 0068 FFF7FEFF 		bl	xStreamBufferSpacesAvailable
 802 006c 0546     		mov	r5, r0
 803 006e 8742     		cmp	r7, r0
 804 0070 21D9     		bls	.L116
 805 0072 0020     		movs	r0, #0
 806 0074 FFF7FEFF 		bl	xTaskNotifyStateClear
 807 0078 6369     		ldr	r3, [r4, #20]
 808 007a 9BB9     		cbnz	r3, .L128
 809 007c FFF7FEFF 		bl	xTaskGetCurrentTaskHandle
 810 0080 6061     		str	r0, [r4, #20]
 811 0082 FFF7FEFF 		bl	vPortExitCritical
 812 0086 039B     		ldr	r3, [sp, #12]
 813 0088 0022     		movs	r2, #0
 814 008a 1146     		mov	r1, r2
 815 008c 1046     		mov	r0, r2
 816 008e FFF7FEFF 		bl	xTaskNotifyWait
 817 0092 0023     		movs	r3, #0
 818 0094 6361     		str	r3, [r4, #20]
 819 0096 03A9     		add	r1, sp, #12
 820 0098 04A8     		add	r0, sp, #16
 821 009a FFF7FEFF 		bl	xTaskCheckForTimeOut
 822 009e 0028     		cmp	r0, #0
 823 00a0 DFD0     		beq	.L119
 824 00a2 0AE0     		b	.L120
 825              	.L128:
ARM GAS  C:\Users\Rick\AppData\Local\Temp\ccng1GKw.s 			page 15


 826              		.syntax unified
 827              	@ 195 "Middlewares/Third_Party/FreeRTOS/Source/portable/GCC/ARM_CM4F/portmacro.h" 1
 828 00a4 4FF05003 			mov r3, #80												
 829 00a8 83F31188 		msr basepri, r3											
 830 00ac BFF36F8F 		isb														
 831 00b0 BFF34F8F 		dsb														
 832              	
 833              	@ 0 "" 2
 834              		.thumb
 835              		.syntax unified
 836              	.L118:
 837 00b4 FEE7     		b	.L118
 838              	.L116:
 839 00b6 FFF7FEFF 		bl	vPortExitCritical
 840              	.L120:
 841 00ba 1DB9     		cbnz	r5, .L121
 842              	.L115:
 843 00bc 2046     		mov	r0, r4
 844 00be FFF7FEFF 		bl	xStreamBufferSpacesAvailable
 845 00c2 0546     		mov	r5, r0
 846              	.L121:
 847 00c4 0097     		str	r7, [sp]
 848 00c6 2B46     		mov	r3, r5
 849 00c8 3246     		mov	r2, r6
 850 00ca 4146     		mov	r1, r8
 851 00cc 2046     		mov	r0, r4
 852 00ce FFF7FEFF 		bl	prvWriteMessageToBuffer
 853 00d2 0546     		mov	r5, r0
 854 00d4 18B9     		cbnz	r0, .L129
 855              	.L108:
 856 00d6 2846     		mov	r0, r5
 857 00d8 06B0     		add	sp, sp, #24
 858              		@ sp needed
 859 00da BDE8F081 		pop	{r4, r5, r6, r7, r8, pc}
 860              	.L129:
 861 00de 2046     		mov	r0, r4
 862 00e0 FFF7FEFF 		bl	prvBytesInBuffer
 863 00e4 E368     		ldr	r3, [r4, #12]
 864 00e6 9842     		cmp	r0, r3
 865 00e8 F5D3     		bcc	.L108
 866 00ea FFF7FEFF 		bl	vTaskSuspendAll
 867 00ee 2369     		ldr	r3, [r4, #16]
 868 00f0 3BB1     		cbz	r3, .L123
 869 00f2 2069     		ldr	r0, [r4, #16]
 870 00f4 0023     		movs	r3, #0
 871 00f6 1A46     		mov	r2, r3
 872 00f8 1946     		mov	r1, r3
 873 00fa FFF7FEFF 		bl	xTaskGenericNotify
 874 00fe 0023     		movs	r3, #0
 875 0100 2361     		str	r3, [r4, #16]
 876              	.L123:
 877 0102 FFF7FEFF 		bl	xTaskResumeAll
 878 0106 E6E7     		b	.L108
 880              		.section	.text.xStreamBufferSendFromISR,"ax",%progbits
 881              		.align	1
 882              		.global	xStreamBufferSendFromISR
 883              		.syntax unified
ARM GAS  C:\Users\Rick\AppData\Local\Temp\ccng1GKw.s 			page 16


 884              		.thumb
 885              		.thumb_func
 887              	xStreamBufferSendFromISR:
 888              		@ args = 0, pretend = 0, frame = 0
 889              		@ frame_needed = 0, uses_anonymous_args = 0
 890 0000 F1B1     		cbz	r1, .L141
 891 0002 2DE9F041 		push	{r4, r5, r6, r7, r8, lr}
 892 0006 82B0     		sub	sp, sp, #8
 893 0008 0446     		mov	r4, r0
 894 000a 1546     		mov	r5, r2
 895 000c 1E46     		mov	r6, r3
 896 000e 0F46     		mov	r7, r1
 897 0010 F8B1     		cbz	r0, .L142
 898 0012 037F     		ldrb	r3, [r0, #28]	@ zero_extendqisi2
 899 0014 13F0010F 		tst	r3, #1
 900 0018 24D0     		beq	.L138
 901 001a 02F10408 		add	r8, r2, #4
 902              	.L135:
 903 001e 2046     		mov	r0, r4
 904 0020 FFF7FEFF 		bl	xStreamBufferSpacesAvailable
 905 0024 0346     		mov	r3, r0
 906 0026 CDF80080 		str	r8, [sp]
 907 002a 2A46     		mov	r2, r5
 908 002c 3946     		mov	r1, r7
 909 002e 2046     		mov	r0, r4
 910 0030 FFF7FEFF 		bl	prvWriteMessageToBuffer
 911 0034 0546     		mov	r5, r0
 912 0036 B8B9     		cbnz	r0, .L143
 913              	.L130:
 914 0038 2846     		mov	r0, r5
 915 003a 02B0     		add	sp, sp, #8
 916              		@ sp needed
 917 003c BDE8F081 		pop	{r4, r5, r6, r7, r8, pc}
 918              	.L141:
 919              		.syntax unified
 920              	@ 195 "Middlewares/Third_Party/FreeRTOS/Source/portable/GCC/ARM_CM4F/portmacro.h" 1
 921 0040 4FF05003 			mov r3, #80												
 922 0044 83F31188 		msr basepri, r3											
 923 0048 BFF36F8F 		isb														
 924 004c BFF34F8F 		dsb														
 925              	
 926              	@ 0 "" 2
 927              		.thumb
 928              		.syntax unified
 929              	.L132:
 930 0050 FEE7     		b	.L132
 931              	.L142:
 932              		.syntax unified
 933              	@ 195 "Middlewares/Third_Party/FreeRTOS/Source/portable/GCC/ARM_CM4F/portmacro.h" 1
 934 0052 4FF05003 			mov r3, #80												
 935 0056 83F31188 		msr basepri, r3											
 936 005a BFF36F8F 		isb														
 937 005e BFF34F8F 		dsb														
 938              	
 939              	@ 0 "" 2
 940              		.thumb
 941              		.syntax unified
ARM GAS  C:\Users\Rick\AppData\Local\Temp\ccng1GKw.s 			page 17


 942              	.L134:
 943 0062 FEE7     		b	.L134
 944              	.L138:
 945 0064 9046     		mov	r8, r2
 946 0066 DAE7     		b	.L135
 947              	.L143:
 948 0068 2046     		mov	r0, r4
 949 006a FFF7FEFF 		bl	prvBytesInBuffer
 950 006e E368     		ldr	r3, [r4, #12]
 951 0070 9842     		cmp	r0, r3
 952 0072 E1D3     		bcc	.L130
 953              		.syntax unified
 954              	@ 211 "Middlewares/Third_Party/FreeRTOS/Source/portable/GCC/ARM_CM4F/portmacro.h" 1
 955 0074 EFF31187 			mrs r7, basepri											
 956 0078 4FF05003 		mov r3, #80												
 957 007c 83F31188 		msr basepri, r3											
 958 0080 BFF36F8F 		isb														
 959 0084 BFF34F8F 		dsb														
 960              	
 961              	@ 0 "" 2
 962              		.thumb
 963              		.syntax unified
 964 0088 2369     		ldr	r3, [r4, #16]
 965 008a 43B1     		cbz	r3, .L137
 966 008c 2069     		ldr	r0, [r4, #16]
 967 008e 0096     		str	r6, [sp]
 968 0090 0023     		movs	r3, #0
 969 0092 1A46     		mov	r2, r3
 970 0094 1946     		mov	r1, r3
 971 0096 FFF7FEFF 		bl	xTaskGenericNotifyFromISR
 972 009a 0023     		movs	r3, #0
 973 009c 2361     		str	r3, [r4, #16]
 974              	.L137:
 975              		.syntax unified
 976              	@ 229 "Middlewares/Third_Party/FreeRTOS/Source/portable/GCC/ARM_CM4F/portmacro.h" 1
 977 009e 87F31188 			msr basepri, r7	
 978              	@ 0 "" 2
 979              		.thumb
 980              		.syntax unified
 981 00a2 C9E7     		b	.L130
 983              		.section	.text.xStreamBufferReceive,"ax",%progbits
 984              		.align	1
 985              		.global	xStreamBufferReceive
 986              		.syntax unified
 987              		.thumb
 988              		.thumb_func
 990              	xStreamBufferReceive:
 991              		@ args = 0, pretend = 0, frame = 0
 992              		@ frame_needed = 0, uses_anonymous_args = 0
 993 0000 29B3     		cbz	r1, .L161
 994 0002 2DE9F043 		push	{r4, r5, r6, r7, r8, r9, lr}
 995 0006 83B0     		sub	sp, sp, #12
 996 0008 0446     		mov	r4, r0
 997 000a 1746     		mov	r7, r2
 998 000c 1E46     		mov	r6, r3
 999 000e 8846     		mov	r8, r1
 1000 0010 30B3     		cbz	r0, .L162
ARM GAS  C:\Users\Rick\AppData\Local\Temp\ccng1GKw.s 			page 18


 1001 0012 037F     		ldrb	r3, [r0, #28]	@ zero_extendqisi2
 1002 0014 13F0010F 		tst	r3, #1
 1003 0018 2BD0     		beq	.L157
 1004 001a 4FF00409 		mov	r9, #4
 1005              	.L149:
 1006 001e 002E     		cmp	r6, #0
 1007 0020 3ED0     		beq	.L150
 1008 0022 FFF7FEFF 		bl	vPortEnterCritical
 1009 0026 2046     		mov	r0, r4
 1010 0028 FFF7FEFF 		bl	prvBytesInBuffer
 1011 002c 0546     		mov	r5, r0
 1012 002e 8145     		cmp	r9, r0
 1013 0030 25D3     		bcc	.L151
 1014 0032 0020     		movs	r0, #0
 1015 0034 FFF7FEFF 		bl	xTaskNotifyStateClear
 1016 0038 2369     		ldr	r3, [r4, #16]
 1017 003a EBB1     		cbz	r3, .L152
 1018              		.syntax unified
 1019              	@ 195 "Middlewares/Third_Party/FreeRTOS/Source/portable/GCC/ARM_CM4F/portmacro.h" 1
 1020 003c 4FF05003 			mov r3, #80												
 1021 0040 83F31188 		msr basepri, r3											
 1022 0044 BFF36F8F 		isb														
 1023 0048 BFF34F8F 		dsb														
 1024              	
 1025              	@ 0 "" 2
 1026              		.thumb
 1027              		.syntax unified
 1028              	.L153:
 1029 004c FEE7     		b	.L153
 1030              	.L161:
 1031              		.syntax unified
 1032              	@ 195 "Middlewares/Third_Party/FreeRTOS/Source/portable/GCC/ARM_CM4F/portmacro.h" 1
 1033 004e 4FF05003 			mov r3, #80												
 1034 0052 83F31188 		msr basepri, r3											
 1035 0056 BFF36F8F 		isb														
 1036 005a BFF34F8F 		dsb														
 1037              	
 1038              	@ 0 "" 2
 1039              		.thumb
 1040              		.syntax unified
 1041              	.L146:
 1042 005e FEE7     		b	.L146
 1043              	.L162:
 1044              		.syntax unified
 1045              	@ 195 "Middlewares/Third_Party/FreeRTOS/Source/portable/GCC/ARM_CM4F/portmacro.h" 1
 1046 0060 4FF05003 			mov r3, #80												
 1047 0064 83F31188 		msr basepri, r3											
 1048 0068 BFF36F8F 		isb														
 1049 006c BFF34F8F 		dsb														
 1050              	
 1051              	@ 0 "" 2
 1052              		.thumb
 1053              		.syntax unified
 1054              	.L148:
 1055 0070 FEE7     		b	.L148
 1056              	.L157:
 1057 0072 4FF00009 		mov	r9, #0
ARM GAS  C:\Users\Rick\AppData\Local\Temp\ccng1GKw.s 			page 19


 1058 0076 D2E7     		b	.L149
 1059              	.L152:
 1060 0078 FFF7FEFF 		bl	xTaskGetCurrentTaskHandle
 1061 007c 2061     		str	r0, [r4, #16]
 1062              	.L151:
 1063 007e FFF7FEFF 		bl	vPortExitCritical
 1064 0082 A945     		cmp	r9, r5
 1065 0084 10D3     		bcc	.L154
 1066 0086 3346     		mov	r3, r6
 1067 0088 0022     		movs	r2, #0
 1068 008a 1146     		mov	r1, r2
 1069 008c 1046     		mov	r0, r2
 1070 008e FFF7FEFF 		bl	xTaskNotifyWait
 1071 0092 0023     		movs	r3, #0
 1072 0094 2361     		str	r3, [r4, #16]
 1073 0096 2046     		mov	r0, r4
 1074 0098 FFF7FEFF 		bl	prvBytesInBuffer
 1075 009c 0546     		mov	r5, r0
 1076 009e 03E0     		b	.L154
 1077              	.L150:
 1078 00a0 2046     		mov	r0, r4
 1079 00a2 FFF7FEFF 		bl	prvBytesInBuffer
 1080 00a6 0546     		mov	r5, r0
 1081              	.L154:
 1082 00a8 4D45     		cmp	r5, r9
 1083 00aa 04D8     		bhi	.L163
 1084 00ac 0025     		movs	r5, #0
 1085              	.L144:
 1086 00ae 2846     		mov	r0, r5
 1087 00b0 03B0     		add	sp, sp, #12
 1088              		@ sp needed
 1089 00b2 BDE8F083 		pop	{r4, r5, r6, r7, r8, r9, pc}
 1090              	.L163:
 1091 00b6 CDF80090 		str	r9, [sp]
 1092 00ba 2B46     		mov	r3, r5
 1093 00bc 3A46     		mov	r2, r7
 1094 00be 4146     		mov	r1, r8
 1095 00c0 2046     		mov	r0, r4
 1096 00c2 FFF7FEFF 		bl	prvReadMessageFromBuffer
 1097 00c6 0546     		mov	r5, r0
 1098 00c8 0028     		cmp	r0, #0
 1099 00ca F0D0     		beq	.L144
 1100 00cc FFF7FEFF 		bl	vTaskSuspendAll
 1101 00d0 6369     		ldr	r3, [r4, #20]
 1102 00d2 3BB1     		cbz	r3, .L156
 1103 00d4 6069     		ldr	r0, [r4, #20]
 1104 00d6 0023     		movs	r3, #0
 1105 00d8 1A46     		mov	r2, r3
 1106 00da 1946     		mov	r1, r3
 1107 00dc FFF7FEFF 		bl	xTaskGenericNotify
 1108 00e0 0023     		movs	r3, #0
 1109 00e2 6361     		str	r3, [r4, #20]
 1110              	.L156:
 1111 00e4 FFF7FEFF 		bl	xTaskResumeAll
 1112 00e8 E1E7     		b	.L144
 1114              		.section	.text.xStreamBufferNextMessageLengthBytes,"ax",%progbits
 1115              		.align	1
ARM GAS  C:\Users\Rick\AppData\Local\Temp\ccng1GKw.s 			page 20


 1116              		.global	xStreamBufferNextMessageLengthBytes
 1117              		.syntax unified
 1118              		.thumb
 1119              		.thumb_func
 1121              	xStreamBufferNextMessageLengthBytes:
 1122              		@ args = 0, pretend = 0, frame = 8
 1123              		@ frame_needed = 0, uses_anonymous_args = 0
 1124 0000 48B1     		cbz	r0, .L173
 1125 0002 30B5     		push	{r4, r5, lr}
 1126 0004 83B0     		sub	sp, sp, #12
 1127 0006 0446     		mov	r4, r0
 1128 0008 037F     		ldrb	r3, [r0, #28]	@ zero_extendqisi2
 1129 000a 13F0010F 		tst	r3, #1
 1130 000e 0BD1     		bne	.L174
 1131 0010 0020     		movs	r0, #0
 1132              	.L164:
 1133 0012 03B0     		add	sp, sp, #12
 1134              		@ sp needed
 1135 0014 30BD     		pop	{r4, r5, pc}
 1136              	.L173:
 1137              		.syntax unified
 1138              	@ 195 "Middlewares/Third_Party/FreeRTOS/Source/portable/GCC/ARM_CM4F/portmacro.h" 1
 1139 0016 4FF05003 			mov r3, #80												
 1140 001a 83F31188 		msr basepri, r3											
 1141 001e BFF36F8F 		isb														
 1142 0022 BFF34F8F 		dsb														
 1143              	
 1144              	@ 0 "" 2
 1145              		.thumb
 1146              		.syntax unified
 1147              	.L166:
 1148 0026 FEE7     		b	.L166
 1149              	.L174:
 1150 0028 FFF7FEFF 		bl	prvBytesInBuffer
 1151 002c 0428     		cmp	r0, #4
 1152 002e 0AD8     		bhi	.L175
 1153 0030 0028     		cmp	r0, #0
 1154 0032 EED0     		beq	.L164
 1155              		.syntax unified
 1156              	@ 195 "Middlewares/Third_Party/FreeRTOS/Source/portable/GCC/ARM_CM4F/portmacro.h" 1
 1157 0034 4FF05003 			mov r3, #80												
 1158 0038 83F31188 		msr basepri, r3											
 1159 003c BFF36F8F 		isb														
 1160 0040 BFF34F8F 		dsb														
 1161              	
 1162              	@ 0 "" 2
 1163              		.thumb
 1164              		.syntax unified
 1165              	.L169:
 1166 0044 FEE7     		b	.L169
 1167              	.L175:
 1168 0046 2568     		ldr	r5, [r4]
 1169 0048 0346     		mov	r3, r0
 1170 004a 0422     		movs	r2, #4
 1171 004c 0DEB0201 		add	r1, sp, r2
 1172 0050 2046     		mov	r0, r4
 1173 0052 FFF7FEFF 		bl	prvReadBytesFromBuffer
ARM GAS  C:\Users\Rick\AppData\Local\Temp\ccng1GKw.s 			page 21


 1174 0056 0198     		ldr	r0, [sp, #4]
 1175 0058 2560     		str	r5, [r4]
 1176 005a DAE7     		b	.L164
 1178              		.section	.text.xStreamBufferReceiveFromISR,"ax",%progbits
 1179              		.align	1
 1180              		.global	xStreamBufferReceiveFromISR
 1181              		.syntax unified
 1182              		.thumb
 1183              		.thumb_func
 1185              	xStreamBufferReceiveFromISR:
 1186              		@ args = 0, pretend = 0, frame = 0
 1187              		@ frame_needed = 0, uses_anonymous_args = 0
 1188 0000 B9B1     		cbz	r1, .L188
 1189 0002 2DE9F041 		push	{r4, r5, r6, r7, r8, lr}
 1190 0006 82B0     		sub	sp, sp, #8
 1191 0008 0446     		mov	r4, r0
 1192 000a 1646     		mov	r6, r2
 1193 000c 1D46     		mov	r5, r3
 1194 000e 0F46     		mov	r7, r1
 1195 0010 C0B1     		cbz	r0, .L189
 1196 0012 037F     		ldrb	r3, [r0, #28]	@ zero_extendqisi2
 1197 0014 13F0010F 		tst	r3, #1
 1198 0018 1DD0     		beq	.L184
 1199 001a 4FF00408 		mov	r8, #4
 1200              	.L181:
 1201 001e 2046     		mov	r0, r4
 1202 0020 FFF7FEFF 		bl	prvBytesInBuffer
 1203 0024 8045     		cmp	r8, r0
 1204 0026 19D3     		bcc	.L190
 1205 0028 0026     		movs	r6, #0
 1206              	.L176:
 1207 002a 3046     		mov	r0, r6
 1208 002c 02B0     		add	sp, sp, #8
 1209              		@ sp needed
 1210 002e BDE8F081 		pop	{r4, r5, r6, r7, r8, pc}
 1211              	.L188:
 1212              		.syntax unified
 1213              	@ 195 "Middlewares/Third_Party/FreeRTOS/Source/portable/GCC/ARM_CM4F/portmacro.h" 1
 1214 0032 4FF05003 			mov r3, #80												
 1215 0036 83F31188 		msr basepri, r3											
 1216 003a BFF36F8F 		isb														
 1217 003e BFF34F8F 		dsb														
 1218              	
 1219              	@ 0 "" 2
 1220              		.thumb
 1221              		.syntax unified
 1222              	.L178:
 1223 0042 FEE7     		b	.L178
 1224              	.L189:
 1225              		.syntax unified
 1226              	@ 195 "Middlewares/Third_Party/FreeRTOS/Source/portable/GCC/ARM_CM4F/portmacro.h" 1
 1227 0044 4FF05003 			mov r3, #80												
 1228 0048 83F31188 		msr basepri, r3											
 1229 004c BFF36F8F 		isb														
 1230 0050 BFF34F8F 		dsb														
 1231              	
 1232              	@ 0 "" 2
ARM GAS  C:\Users\Rick\AppData\Local\Temp\ccng1GKw.s 			page 22


 1233              		.thumb
 1234              		.syntax unified
 1235              	.L180:
 1236 0054 FEE7     		b	.L180
 1237              	.L184:
 1238 0056 4FF00008 		mov	r8, #0
 1239 005a E0E7     		b	.L181
 1240              	.L190:
 1241 005c CDF80080 		str	r8, [sp]
 1242 0060 0346     		mov	r3, r0
 1243 0062 3246     		mov	r2, r6
 1244 0064 3946     		mov	r1, r7
 1245 0066 2046     		mov	r0, r4
 1246 0068 FFF7FEFF 		bl	prvReadMessageFromBuffer
 1247 006c 0646     		mov	r6, r0
 1248 006e 0028     		cmp	r0, #0
 1249 0070 DBD0     		beq	.L176
 1250              		.syntax unified
 1251              	@ 211 "Middlewares/Third_Party/FreeRTOS/Source/portable/GCC/ARM_CM4F/portmacro.h" 1
 1252 0072 EFF31187 			mrs r7, basepri											
 1253 0076 4FF05003 		mov r3, #80												
 1254 007a 83F31188 		msr basepri, r3											
 1255 007e BFF36F8F 		isb														
 1256 0082 BFF34F8F 		dsb														
 1257              	
 1258              	@ 0 "" 2
 1259              		.thumb
 1260              		.syntax unified
 1261 0086 6369     		ldr	r3, [r4, #20]
 1262 0088 43B1     		cbz	r3, .L183
 1263 008a 6069     		ldr	r0, [r4, #20]
 1264 008c 0095     		str	r5, [sp]
 1265 008e 0023     		movs	r3, #0
 1266 0090 1A46     		mov	r2, r3
 1267 0092 1946     		mov	r1, r3
 1268 0094 FFF7FEFF 		bl	xTaskGenericNotifyFromISR
 1269 0098 0023     		movs	r3, #0
 1270 009a 6361     		str	r3, [r4, #20]
 1271              	.L183:
 1272              		.syntax unified
 1273              	@ 229 "Middlewares/Third_Party/FreeRTOS/Source/portable/GCC/ARM_CM4F/portmacro.h" 1
 1274 009c 87F31188 			msr basepri, r7	
 1275              	@ 0 "" 2
 1276              		.thumb
 1277              		.syntax unified
 1278 00a0 C3E7     		b	.L176
 1280              		.section	.text.xStreamBufferIsEmpty,"ax",%progbits
 1281              		.align	1
 1282              		.global	xStreamBufferIsEmpty
 1283              		.syntax unified
 1284              		.thumb
 1285              		.thumb_func
 1287              	xStreamBufferIsEmpty:
 1288              		@ args = 0, pretend = 0, frame = 0
 1289              		@ frame_needed = 0, uses_anonymous_args = 0
 1290              		@ link register save eliminated.
 1291 0000 28B1     		cbz	r0, .L196
ARM GAS  C:\Users\Rick\AppData\Local\Temp\ccng1GKw.s 			page 23


 1292 0002 0268     		ldr	r2, [r0]
 1293 0004 4368     		ldr	r3, [r0, #4]
 1294 0006 9342     		cmp	r3, r2
 1295 0008 0AD0     		beq	.L197
 1296 000a 0020     		movs	r0, #0
 1297 000c 7047     		bx	lr
 1298              	.L196:
 1299              		.syntax unified
 1300              	@ 195 "Middlewares/Third_Party/FreeRTOS/Source/portable/GCC/ARM_CM4F/portmacro.h" 1
 1301 000e 4FF05003 			mov r3, #80												
 1302 0012 83F31188 		msr basepri, r3											
 1303 0016 BFF36F8F 		isb														
 1304 001a BFF34F8F 		dsb														
 1305              	
 1306              	@ 0 "" 2
 1307              		.thumb
 1308              		.syntax unified
 1309              	.L193:
 1310 001e FEE7     		b	.L193
 1311              	.L197:
 1312 0020 0120     		movs	r0, #1
 1313 0022 7047     		bx	lr
 1315              		.section	.text.xStreamBufferIsFull,"ax",%progbits
 1316              		.align	1
 1317              		.global	xStreamBufferIsFull
 1318              		.syntax unified
 1319              		.thumb
 1320              		.thumb_func
 1322              	xStreamBufferIsFull:
 1323              		@ args = 0, pretend = 0, frame = 0
 1324              		@ frame_needed = 0, uses_anonymous_args = 0
 1325 0000 68B1     		cbz	r0, .L207
 1326 0002 10B5     		push	{r4, lr}
 1327 0004 0346     		mov	r3, r0
 1328 0006 027F     		ldrb	r2, [r0, #28]	@ zero_extendqisi2
 1329 0008 12F0010F 		tst	r2, #1
 1330 000c 10D0     		beq	.L203
 1331 000e 0424     		movs	r4, #4
 1332              	.L201:
 1333 0010 1846     		mov	r0, r3
 1334 0012 FFF7FEFF 		bl	xStreamBufferSpacesAvailable
 1335 0016 A042     		cmp	r0, r4
 1336 0018 0CD8     		bhi	.L204
 1337 001a 0120     		movs	r0, #1
 1338              	.L198:
 1339 001c 10BD     		pop	{r4, pc}
 1340              	.L207:
 1341              		.syntax unified
 1342              	@ 195 "Middlewares/Third_Party/FreeRTOS/Source/portable/GCC/ARM_CM4F/portmacro.h" 1
 1343 001e 4FF05003 			mov r3, #80												
 1344 0022 83F31188 		msr basepri, r3											
 1345 0026 BFF36F8F 		isb														
 1346 002a BFF34F8F 		dsb														
 1347              	
 1348              	@ 0 "" 2
 1349              		.thumb
 1350              		.syntax unified
ARM GAS  C:\Users\Rick\AppData\Local\Temp\ccng1GKw.s 			page 24


 1351              	.L200:
 1352 002e FEE7     		b	.L200
 1353              	.L203:
 1354 0030 0024     		movs	r4, #0
 1355 0032 EDE7     		b	.L201
 1356              	.L204:
 1357 0034 0020     		movs	r0, #0
 1358 0036 F1E7     		b	.L198
 1360              		.section	.text.xStreamBufferSendCompletedFromISR,"ax",%progbits
 1361              		.align	1
 1362              		.global	xStreamBufferSendCompletedFromISR
 1363              		.syntax unified
 1364              		.thumb
 1365              		.thumb_func
 1367              	xStreamBufferSendCompletedFromISR:
 1368              		@ args = 0, pretend = 0, frame = 0
 1369              		@ frame_needed = 0, uses_anonymous_args = 0
 1370 0000 E0B1     		cbz	r0, .L215
 1371 0002 30B5     		push	{r4, r5, lr}
 1372 0004 83B0     		sub	sp, sp, #12
 1373 0006 0546     		mov	r5, r0
 1374              		.syntax unified
 1375              	@ 211 "Middlewares/Third_Party/FreeRTOS/Source/portable/GCC/ARM_CM4F/portmacro.h" 1
 1376 0008 EFF31184 			mrs r4, basepri											
 1377 000c 4FF05003 		mov r3, #80												
 1378 0010 83F31188 		msr basepri, r3											
 1379 0014 BFF36F8F 		isb														
 1380 0018 BFF34F8F 		dsb														
 1381              	
 1382              	@ 0 "" 2
 1383              		.thumb
 1384              		.syntax unified
 1385 001c 0369     		ldr	r3, [r0, #16]
 1386 001e B3B1     		cbz	r3, .L212
 1387 0020 0069     		ldr	r0, [r0, #16]
 1388 0022 0091     		str	r1, [sp]
 1389 0024 0023     		movs	r3, #0
 1390 0026 1A46     		mov	r2, r3
 1391 0028 1946     		mov	r1, r3
 1392 002a FFF7FEFF 		bl	xTaskGenericNotifyFromISR
 1393 002e 0023     		movs	r3, #0
 1394 0030 2B61     		str	r3, [r5, #16]
 1395 0032 0120     		movs	r0, #1
 1396              	.L211:
 1397              		.syntax unified
 1398              	@ 229 "Middlewares/Third_Party/FreeRTOS/Source/portable/GCC/ARM_CM4F/portmacro.h" 1
 1399 0034 84F31188 			msr basepri, r4	
 1400              	@ 0 "" 2
 1401              		.thumb
 1402              		.syntax unified
 1403 0038 03B0     		add	sp, sp, #12
 1404              		@ sp needed
 1405 003a 30BD     		pop	{r4, r5, pc}
 1406              	.L215:
 1407              		.syntax unified
 1408              	@ 195 "Middlewares/Third_Party/FreeRTOS/Source/portable/GCC/ARM_CM4F/portmacro.h" 1
 1409 003c 4FF05003 			mov r3, #80												
ARM GAS  C:\Users\Rick\AppData\Local\Temp\ccng1GKw.s 			page 25


 1410 0040 83F31188 		msr basepri, r3											
 1411 0044 BFF36F8F 		isb														
 1412 0048 BFF34F8F 		dsb														
 1413              	
 1414              	@ 0 "" 2
 1415              		.thumb
 1416              		.syntax unified
 1417              	.L210:
 1418 004c FEE7     		b	.L210
 1419              	.L212:
 1420 004e 0020     		movs	r0, #0
 1421 0050 F0E7     		b	.L211
 1423              		.section	.text.xStreamBufferReceiveCompletedFromISR,"ax",%progbits
 1424              		.align	1
 1425              		.global	xStreamBufferReceiveCompletedFromISR
 1426              		.syntax unified
 1427              		.thumb
 1428              		.thumb_func
 1430              	xStreamBufferReceiveCompletedFromISR:
 1431              		@ args = 0, pretend = 0, frame = 0
 1432              		@ frame_needed = 0, uses_anonymous_args = 0
 1433 0000 E0B1     		cbz	r0, .L223
 1434 0002 30B5     		push	{r4, r5, lr}
 1435 0004 83B0     		sub	sp, sp, #12
 1436 0006 0546     		mov	r5, r0
 1437              		.syntax unified
 1438              	@ 211 "Middlewares/Third_Party/FreeRTOS/Source/portable/GCC/ARM_CM4F/portmacro.h" 1
 1439 0008 EFF31184 			mrs r4, basepri											
 1440 000c 4FF05003 		mov r3, #80												
 1441 0010 83F31188 		msr basepri, r3											
 1442 0014 BFF36F8F 		isb														
 1443 0018 BFF34F8F 		dsb														
 1444              	
 1445              	@ 0 "" 2
 1446              		.thumb
 1447              		.syntax unified
 1448 001c 4369     		ldr	r3, [r0, #20]
 1449 001e B3B1     		cbz	r3, .L220
 1450 0020 4069     		ldr	r0, [r0, #20]
 1451 0022 0091     		str	r1, [sp]
 1452 0024 0023     		movs	r3, #0
 1453 0026 1A46     		mov	r2, r3
 1454 0028 1946     		mov	r1, r3
 1455 002a FFF7FEFF 		bl	xTaskGenericNotifyFromISR
 1456 002e 0023     		movs	r3, #0
 1457 0030 6B61     		str	r3, [r5, #20]
 1458 0032 0120     		movs	r0, #1
 1459              	.L219:
 1460              		.syntax unified
 1461              	@ 229 "Middlewares/Third_Party/FreeRTOS/Source/portable/GCC/ARM_CM4F/portmacro.h" 1
 1462 0034 84F31188 			msr basepri, r4	
 1463              	@ 0 "" 2
 1464              		.thumb
 1465              		.syntax unified
 1466 0038 03B0     		add	sp, sp, #12
 1467              		@ sp needed
 1468 003a 30BD     		pop	{r4, r5, pc}
ARM GAS  C:\Users\Rick\AppData\Local\Temp\ccng1GKw.s 			page 26


 1469              	.L223:
 1470              		.syntax unified
 1471              	@ 195 "Middlewares/Third_Party/FreeRTOS/Source/portable/GCC/ARM_CM4F/portmacro.h" 1
 1472 003c 4FF05003 			mov r3, #80												
 1473 0040 83F31188 		msr basepri, r3											
 1474 0044 BFF36F8F 		isb														
 1475 0048 BFF34F8F 		dsb														
 1476              	
 1477              	@ 0 "" 2
 1478              		.thumb
 1479              		.syntax unified
 1480              	.L218:
 1481 004c FEE7     		b	.L218
 1482              	.L220:
 1483 004e 0020     		movs	r0, #0
 1484 0050 F0E7     		b	.L219
 1486              		.ident	"GCC: (xPack GNU Arm Embedded GCC x86_64) 14.2.1 20241119"
ARM GAS  C:\Users\Rick\AppData\Local\Temp\ccng1GKw.s 			page 27

