ARM GAS  C:\Users\Rick\AppData\Local\Temp\ccHiTWuI.s 			page 1


   1              		.cpu cortex-m4
   2              		.arch armv7e-m
   3              		.fpu fpv4-sp-d16
   4              		.eabi_attribute 27, 1
   5              		.eabi_attribute 28, 1
   6              		.eabi_attribute 20, 1
   7              		.eabi_attribute 21, 1
   8              		.eabi_attribute 23, 3
   9              		.eabi_attribute 24, 1
  10              		.eabi_attribute 25, 1
  11              		.eabi_attribute 26, 1
  12              		.eabi_attribute 30, 1
  13              		.eabi_attribute 34, 1
  14              		.eabi_attribute 18, 4
  15              		.file	"tasks.c"
  16              		.text
  17              		.section	.text.prvTaskIsTaskSuspended,"ax",%progbits
  18              		.align	1
  19              		.syntax unified
  20              		.thumb
  21              		.thumb_func
  23              	prvTaskIsTaskSuspended:
  24              		@ args = 0, pretend = 0, frame = 0
  25              		@ frame_needed = 0, uses_anonymous_args = 0
  26              		@ link register save eliminated.
  27 0000 28B1     		cbz	r0, .L8
  28 0002 4169     		ldr	r1, [r0, #20]
  29 0004 0C4A     		ldr	r2, .L10
  30 0006 9142     		cmp	r1, r2
  31 0008 0AD0     		beq	.L9
  32 000a 0020     		movs	r0, #0
  33 000c 7047     		bx	lr
  34              	.L8:
  35              		.syntax unified
  36              	@ 195 "Middlewares/Third_Party/FreeRTOS/Source/portable/GCC/ARM_CM4F/portmacro.h" 1
  37 000e 4FF05003 			mov r3, #80												
  38 0012 83F31188 		msr basepri, r3											
  39 0016 BFF36F8F 		isb														
  40 001a BFF34F8F 		dsb														
  41              	
  42              	@ 0 "" 2
  43              		.thumb
  44              		.syntax unified
  45              	.L3:
  46 001e FEE7     		b	.L3
  47              	.L9:
  48 0020 836A     		ldr	r3, [r0, #40]
  49 0022 064A     		ldr	r2, .L10+4
  50 0024 9342     		cmp	r3, r2
  51 0026 02D0     		beq	.L6
  52 0028 1BB1     		cbz	r3, .L7
  53 002a 0020     		movs	r0, #0
  54 002c 7047     		bx	lr
  55              	.L6:
  56 002e 0020     		movs	r0, #0
  57 0030 7047     		bx	lr
  58              	.L7:
ARM GAS  C:\Users\Rick\AppData\Local\Temp\ccHiTWuI.s 			page 2


  59 0032 0120     		movs	r0, #1
  60 0034 7047     		bx	lr
  61              	.L11:
  62 0036 00BF     		.align	2
  63              	.L10:
  64 0038 00000000 		.word	xSuspendedTaskList
  65 003c 00000000 		.word	xPendingReadyList
  67              		.section	.text.prvResetNextTaskUnblockTime,"ax",%progbits
  68              		.align	1
  69              		.syntax unified
  70              		.thumb
  71              		.thumb_func
  73              	prvResetNextTaskUnblockTime:
  74              		@ args = 0, pretend = 0, frame = 0
  75              		@ frame_needed = 0, uses_anonymous_args = 0
  76              		@ link register save eliminated.
  77 0000 084B     		ldr	r3, .L15
  78 0002 1B68     		ldr	r3, [r3]
  79 0004 1B68     		ldr	r3, [r3]
  80 0006 23B9     		cbnz	r3, .L13
  81 0008 074B     		ldr	r3, .L15+4
  82 000a 4FF0FF32 		mov	r2, #-1
  83 000e 1A60     		str	r2, [r3]
  84 0010 7047     		bx	lr
  85              	.L13:
  86 0012 044B     		ldr	r3, .L15
  87 0014 1B68     		ldr	r3, [r3]
  88 0016 DB68     		ldr	r3, [r3, #12]
  89 0018 DB68     		ldr	r3, [r3, #12]
  90 001a 5A68     		ldr	r2, [r3, #4]
  91 001c 024B     		ldr	r3, .L15+4
  92 001e 1A60     		str	r2, [r3]
  93 0020 7047     		bx	lr
  94              	.L16:
  95 0022 00BF     		.align	2
  96              	.L15:
  97 0024 00000000 		.word	pxDelayedTaskList
  98 0028 00000000 		.word	xNextTaskUnblockTime
 100              		.section	.text.prvInitialiseNewTask,"ax",%progbits
 101              		.align	1
 102              		.syntax unified
 103              		.thumb
 104              		.thumb_func
 106              	prvInitialiseNewTask:
 107              		@ args = 16, pretend = 0, frame = 0
 108              		@ frame_needed = 0, uses_anonymous_args = 0
 109 0000 2DE9F047 		push	{r4, r5, r6, r7, r8, r9, r10, lr}
 110 0004 0746     		mov	r7, r0
 111 0006 9846     		mov	r8, r3
 112 0008 089D     		ldr	r5, [sp, #32]
 113 000a DDF82490 		ldr	r9, [sp, #36]
 114 000e 0A9C     		ldr	r4, [sp, #40]
 115 0010 266B     		ldr	r6, [r4, #48]
 116 0012 02F18042 		add	r2, r2, #1073741824
 117 0016 013A     		subs	r2, r2, #1
 118 0018 06EB8206 		add	r6, r6, r2, lsl #2
 119 001c 26F00706 		bic	r6, r6, #7
ARM GAS  C:\Users\Rick\AppData\Local\Temp\ccHiTWuI.s 			page 3


 120 0020 C1B3     		cbz	r1, .L29
 121 0022 0846     		mov	r0, r1
 122 0024 4FF0000C 		mov	ip, #0
 123              	.L18:
 124 0028 BCF10F0F 		cmp	ip, #15
 125 002c 09D8     		bhi	.L20
 126 002e 10F80C20 		ldrb	r2, [r0, ip]	@ zero_extendqisi2
 127 0032 04EB0C03 		add	r3, r4, ip
 128 0036 83F83420 		strb	r2, [r3, #52]
 129 003a 12B1     		cbz	r2, .L20
 130 003c 0CF1010C 		add	ip, ip, #1
 131 0040 F2E7     		b	.L18
 132              	.L20:
 133 0042 0023     		movs	r3, #0
 134 0044 84F84330 		strb	r3, [r4, #67]
 135              	.L22:
 136 0048 062D     		cmp	r5, #6
 137 004a 00D9     		bls	.L23
 138 004c 0625     		movs	r5, #6
 139              	.L23:
 140 004e E562     		str	r5, [r4, #44]
 141 0050 6564     		str	r5, [r4, #68]
 142 0052 4FF0000A 		mov	r10, #0
 143 0056 C4F848A0 		str	r10, [r4, #72]
 144 005a 201D     		adds	r0, r4, #4
 145 005c FFF7FEFF 		bl	vListInitialiseItem
 146 0060 04F11800 		add	r0, r4, #24
 147 0064 FFF7FEFF 		bl	vListInitialiseItem
 148 0068 2461     		str	r4, [r4, #16]
 149 006a C5F10705 		rsb	r5, r5, #7
 150 006e A561     		str	r5, [r4, #24]
 151 0070 6462     		str	r4, [r4, #36]
 152 0072 C4F84CA0 		str	r10, [r4, #76]
 153 0076 84F850A0 		strb	r10, [r4, #80]
 154 007a 4246     		mov	r2, r8
 155 007c 3946     		mov	r1, r7
 156 007e 3046     		mov	r0, r6
 157 0080 FFF7FEFF 		bl	pxPortInitialiseStack
 158 0084 2060     		str	r0, [r4]
 159 0086 B9F1000F 		cmp	r9, #0
 160 008a 01D0     		beq	.L17
 161 008c C9F80040 		str	r4, [r9]
 162              	.L17:
 163 0090 BDE8F087 		pop	{r4, r5, r6, r7, r8, r9, r10, pc}
 164              	.L29:
 165 0094 0023     		movs	r3, #0
 166 0096 84F83430 		strb	r3, [r4, #52]
 167 009a D5E7     		b	.L22
 169              		.section	.text.prvInitialiseTaskLists,"ax",%progbits
 170              		.align	1
 171              		.syntax unified
 172              		.thumb
 173              		.thumb_func
 175              	prvInitialiseTaskLists:
 176              		@ args = 0, pretend = 0, frame = 0
 177              		@ frame_needed = 0, uses_anonymous_args = 0
 178 0000 38B5     		push	{r3, r4, r5, lr}
ARM GAS  C:\Users\Rick\AppData\Local\Temp\ccHiTWuI.s 			page 4


 179 0002 0024     		movs	r4, #0
 180 0004 07E0     		b	.L31
 181              	.L32:
 182 0006 04EB8402 		add	r2, r4, r4, lsl #2
 183 000a 9300     		lsls	r3, r2, #2
 184 000c 0E48     		ldr	r0, .L34
 185 000e 1844     		add	r0, r0, r3
 186 0010 FFF7FEFF 		bl	vListInitialise
 187 0014 0134     		adds	r4, r4, #1
 188              	.L31:
 189 0016 062C     		cmp	r4, #6
 190 0018 F5D9     		bls	.L32
 191 001a 0C4D     		ldr	r5, .L34+4
 192 001c 2846     		mov	r0, r5
 193 001e FFF7FEFF 		bl	vListInitialise
 194 0022 0B4C     		ldr	r4, .L34+8
 195 0024 2046     		mov	r0, r4
 196 0026 FFF7FEFF 		bl	vListInitialise
 197 002a 0A48     		ldr	r0, .L34+12
 198 002c FFF7FEFF 		bl	vListInitialise
 199 0030 0948     		ldr	r0, .L34+16
 200 0032 FFF7FEFF 		bl	vListInitialise
 201 0036 0948     		ldr	r0, .L34+20
 202 0038 FFF7FEFF 		bl	vListInitialise
 203 003c 084B     		ldr	r3, .L34+24
 204 003e 1D60     		str	r5, [r3]
 205 0040 084B     		ldr	r3, .L34+28
 206 0042 1C60     		str	r4, [r3]
 207 0044 38BD     		pop	{r3, r4, r5, pc}
 208              	.L35:
 209 0046 00BF     		.align	2
 210              	.L34:
 211 0048 00000000 		.word	pxReadyTasksLists
 212 004c 00000000 		.word	xDelayedTaskList1
 213 0050 00000000 		.word	xDelayedTaskList2
 214 0054 00000000 		.word	xPendingReadyList
 215 0058 00000000 		.word	xTasksWaitingTermination
 216 005c 00000000 		.word	xSuspendedTaskList
 217 0060 00000000 		.word	pxDelayedTaskList
 218 0064 00000000 		.word	pxOverflowDelayedTaskList
 220              		.section	.text.prvAddNewTaskToReadyList,"ax",%progbits
 221              		.align	1
 222              		.syntax unified
 223              		.thumb
 224              		.thumb_func
 226              	prvAddNewTaskToReadyList:
 227              		@ args = 0, pretend = 0, frame = 0
 228              		@ frame_needed = 0, uses_anonymous_args = 0
 229 0000 10B5     		push	{r4, lr}
 230 0002 0446     		mov	r4, r0
 231 0004 FFF7FEFF 		bl	vPortEnterCritical
 232 0008 214A     		ldr	r2, .L43
 233 000a 1368     		ldr	r3, [r2]
 234 000c 0133     		adds	r3, r3, #1
 235 000e 1360     		str	r3, [r2]
 236 0010 204B     		ldr	r3, .L43+4
 237 0012 1B68     		ldr	r3, [r3]
ARM GAS  C:\Users\Rick\AppData\Local\Temp\ccHiTWuI.s 			page 5


 238 0014 5BB1     		cbz	r3, .L41
 239 0016 204B     		ldr	r3, .L43+8
 240 0018 1B68     		ldr	r3, [r3]
 241 001a 6BB9     		cbnz	r3, .L38
 242 001c 1D4B     		ldr	r3, .L43+4
 243 001e 1B68     		ldr	r3, [r3]
 244 0020 DA6A     		ldr	r2, [r3, #44]
 245 0022 E36A     		ldr	r3, [r4, #44]
 246 0024 9A42     		cmp	r2, r3
 247 0026 07D8     		bhi	.L38
 248 0028 1A4B     		ldr	r3, .L43+4
 249 002a 1C60     		str	r4, [r3]
 250 002c 04E0     		b	.L38
 251              	.L41:
 252 002e 194B     		ldr	r3, .L43+4
 253 0030 1C60     		str	r4, [r3]
 254 0032 1368     		ldr	r3, [r2]
 255 0034 012B     		cmp	r3, #1
 256 0036 28D0     		beq	.L42
 257              	.L38:
 258 0038 184A     		ldr	r2, .L43+12
 259 003a 1368     		ldr	r3, [r2]
 260 003c 0133     		adds	r3, r3, #1
 261 003e 1360     		str	r3, [r2]
 262 0040 E06A     		ldr	r0, [r4, #44]
 263 0042 0123     		movs	r3, #1
 264 0044 8340     		lsls	r3, r3, r0
 265 0046 164A     		ldr	r2, .L43+16
 266 0048 1168     		ldr	r1, [r2]
 267 004a 0B43     		orrs	r3, r3, r1
 268 004c 1360     		str	r3, [r2]
 269 004e 00EB8000 		add	r0, r0, r0, lsl #2
 270 0052 211D     		adds	r1, r4, #4
 271 0054 134B     		ldr	r3, .L43+20
 272 0056 03EB8000 		add	r0, r3, r0, lsl #2
 273 005a FFF7FEFF 		bl	vListInsertEnd
 274 005e FFF7FEFF 		bl	vPortExitCritical
 275 0062 0D4B     		ldr	r3, .L43+8
 276 0064 1B68     		ldr	r3, [r3]
 277 0066 7BB1     		cbz	r3, .L36
 278 0068 0A4B     		ldr	r3, .L43+4
 279 006a 1B68     		ldr	r3, [r3]
 280 006c DA6A     		ldr	r2, [r3, #44]
 281 006e E36A     		ldr	r3, [r4, #44]
 282 0070 9A42     		cmp	r2, r3
 283 0072 09D2     		bcs	.L36
 284 0074 4FF0E023 		mov	r3, #-536813568
 285 0078 4FF08052 		mov	r2, #268435456
 286 007c C3F8042D 		str	r2, [r3, #3332]
 287              		.syntax unified
 288              	@ 1146 "Middlewares/Third_Party/FreeRTOS/Source/tasks.c" 1
 289 0080 BFF34F8F 		dsb
 290              	@ 0 "" 2
 291              	@ 1146 "Middlewares/Third_Party/FreeRTOS/Source/tasks.c" 1
 292 0084 BFF36F8F 		isb
 293              	@ 0 "" 2
 294              		.thumb
ARM GAS  C:\Users\Rick\AppData\Local\Temp\ccHiTWuI.s 			page 6


 295              		.syntax unified
 296              	.L36:
 297 0088 10BD     		pop	{r4, pc}
 298              	.L42:
 299 008a FFF7FEFF 		bl	prvInitialiseTaskLists
 300 008e D3E7     		b	.L38
 301              	.L44:
 302              		.align	2
 303              	.L43:
 304 0090 00000000 		.word	uxCurrentNumberOfTasks
 305 0094 00000000 		.word	pxCurrentTCB
 306 0098 00000000 		.word	xSchedulerRunning
 307 009c 00000000 		.word	uxTaskNumber
 308 00a0 00000000 		.word	uxTopReadyPriority
 309 00a4 00000000 		.word	pxReadyTasksLists
 311              		.section	.text.prvDeleteTCB,"ax",%progbits
 312              		.align	1
 313              		.syntax unified
 314              		.thumb
 315              		.thumb_func
 317              	prvDeleteTCB:
 318              		@ args = 0, pretend = 0, frame = 0
 319              		@ frame_needed = 0, uses_anonymous_args = 0
 320 0000 10B5     		push	{r4, lr}
 321 0002 0446     		mov	r4, r0
 322 0004 90F85130 		ldrb	r3, [r0, #81]	@ zero_extendqisi2
 323 0008 63B1     		cbz	r3, .L51
 324 000a 012B     		cmp	r3, #1
 325 000c 11D0     		beq	.L52
 326 000e 022B     		cmp	r3, #2
 327 0010 0ED0     		beq	.L45
 328              		.syntax unified
 329              	@ 195 "Middlewares/Third_Party/FreeRTOS/Source/portable/GCC/ARM_CM4F/portmacro.h" 1
 330 0012 4FF05003 			mov r3, #80												
 331 0016 83F31188 		msr basepri, r3											
 332 001a BFF36F8F 		isb														
 333 001e BFF34F8F 		dsb														
 334              	
 335              	@ 0 "" 2
 336              		.thumb
 337              		.syntax unified
 338              	.L49:
 339 0022 FEE7     		b	.L49
 340              	.L51:
 341 0024 006B     		ldr	r0, [r0, #48]
 342 0026 FFF7FEFF 		bl	vPortFree
 343 002a 2046     		mov	r0, r4
 344 002c FFF7FEFF 		bl	vPortFree
 345              	.L45:
 346 0030 10BD     		pop	{r4, pc}
 347              	.L52:
 348 0032 FFF7FEFF 		bl	vPortFree
 349 0036 FBE7     		b	.L45
 351              		.section	.text.prvCheckTasksWaitingTermination,"ax",%progbits
 352              		.align	1
 353              		.syntax unified
 354              		.thumb
ARM GAS  C:\Users\Rick\AppData\Local\Temp\ccHiTWuI.s 			page 7


 355              		.thumb_func
 357              	prvCheckTasksWaitingTermination:
 358              		@ args = 0, pretend = 0, frame = 0
 359              		@ frame_needed = 0, uses_anonymous_args = 0
 360 0000 0F4B     		ldr	r3, .L60
 361 0002 1B68     		ldr	r3, [r3]
 362 0004 D3B1     		cbz	r3, .L59
 363 0006 10B5     		push	{r4, lr}
 364              	.L55:
 365 0008 FFF7FEFF 		bl	vPortEnterCritical
 366 000c 0D4B     		ldr	r3, .L60+4
 367 000e DB68     		ldr	r3, [r3, #12]
 368 0010 DC68     		ldr	r4, [r3, #12]
 369 0012 201D     		adds	r0, r4, #4
 370 0014 FFF7FEFF 		bl	uxListRemove
 371 0018 0B4A     		ldr	r2, .L60+8
 372 001a 1368     		ldr	r3, [r2]
 373 001c 013B     		subs	r3, r3, #1
 374 001e 1360     		str	r3, [r2]
 375 0020 074A     		ldr	r2, .L60
 376 0022 1368     		ldr	r3, [r2]
 377 0024 013B     		subs	r3, r3, #1
 378 0026 1360     		str	r3, [r2]
 379 0028 FFF7FEFF 		bl	vPortExitCritical
 380 002c 2046     		mov	r0, r4
 381 002e FFF7FEFF 		bl	prvDeleteTCB
 382 0032 034B     		ldr	r3, .L60
 383 0034 1B68     		ldr	r3, [r3]
 384 0036 002B     		cmp	r3, #0
 385 0038 E6D1     		bne	.L55
 386 003a 10BD     		pop	{r4, pc}
 387              	.L59:
 388 003c 7047     		bx	lr
 389              	.L61:
 390 003e 00BF     		.align	2
 391              	.L60:
 392 0040 00000000 		.word	uxDeletedTasksWaitingCleanUp
 393 0044 00000000 		.word	xTasksWaitingTermination
 394 0048 00000000 		.word	uxCurrentNumberOfTasks
 396              		.section	.text.prvIdleTask,"ax",%progbits
 397              		.align	1
 398              		.syntax unified
 399              		.thumb
 400              		.thumb_func
 402              	prvIdleTask:
 403              		@ Volatile: function does not return.
 404              		@ args = 0, pretend = 0, frame = 0
 405              		@ frame_needed = 0, uses_anonymous_args = 0
 406 0000 08B5     		push	{r3, lr}
 407              	.L63:
 408 0002 FFF7FEFF 		bl	prvCheckTasksWaitingTermination
 409 0006 074B     		ldr	r3, .L66
 410 0008 1B68     		ldr	r3, [r3]
 411 000a 012B     		cmp	r3, #1
 412 000c F9D9     		bls	.L63
 413 000e 4FF0E023 		mov	r3, #-536813568
 414 0012 4FF08052 		mov	r2, #268435456
ARM GAS  C:\Users\Rick\AppData\Local\Temp\ccHiTWuI.s 			page 8


 415 0016 C3F8042D 		str	r2, [r3, #3332]
 416              		.syntax unified
 417              	@ 3434 "Middlewares/Third_Party/FreeRTOS/Source/tasks.c" 1
 418 001a BFF34F8F 		dsb
 419              	@ 0 "" 2
 420              	@ 3434 "Middlewares/Third_Party/FreeRTOS/Source/tasks.c" 1
 421 001e BFF36F8F 		isb
 422              	@ 0 "" 2
 423              		.thumb
 424              		.syntax unified
 425 0022 EEE7     		b	.L63
 426              	.L67:
 427              		.align	2
 428              	.L66:
 429 0024 00000000 		.word	pxReadyTasksLists
 431              		.section	.text.prvAddCurrentTaskToDelayedList,"ax",%progbits
 432              		.align	1
 433              		.syntax unified
 434              		.thumb
 435              		.thumb_func
 437              	prvAddCurrentTaskToDelayedList:
 438              		@ args = 0, pretend = 0, frame = 0
 439              		@ frame_needed = 0, uses_anonymous_args = 0
 440 0000 70B5     		push	{r4, r5, r6, lr}
 441 0002 0446     		mov	r4, r0
 442 0004 0D46     		mov	r5, r1
 443 0006 1D4B     		ldr	r3, .L75
 444 0008 1E68     		ldr	r6, [r3]
 445 000a 1D4B     		ldr	r3, .L75+4
 446 000c 1868     		ldr	r0, [r3]
 447 000e 0430     		adds	r0, r0, #4
 448 0010 FFF7FEFF 		bl	uxListRemove
 449 0014 48B9     		cbnz	r0, .L69
 450 0016 1A4B     		ldr	r3, .L75+4
 451 0018 1B68     		ldr	r3, [r3]
 452 001a DB6A     		ldr	r3, [r3, #44]
 453 001c 0122     		movs	r2, #1
 454 001e 9A40     		lsls	r2, r2, r3
 455 0020 1849     		ldr	r1, .L75+8
 456 0022 0B68     		ldr	r3, [r1]
 457 0024 23EA0203 		bic	r3, r3, r2
 458 0028 0B60     		str	r3, [r1]
 459              	.L69:
 460 002a B4F1FF3F 		cmp	r4, #-1
 461 002e 0DD0     		beq	.L74
 462              	.L70:
 463 0030 3444     		add	r4, r4, r6
 464 0032 134B     		ldr	r3, .L75+4
 465 0034 1B68     		ldr	r3, [r3]
 466 0036 5C60     		str	r4, [r3, #4]
 467 0038 A642     		cmp	r6, r4
 468 003a 10D9     		bls	.L72
 469 003c 124B     		ldr	r3, .L75+12
 470 003e 1868     		ldr	r0, [r3]
 471 0040 0F4B     		ldr	r3, .L75+4
 472 0042 1968     		ldr	r1, [r3]
 473 0044 0431     		adds	r1, r1, #4
ARM GAS  C:\Users\Rick\AppData\Local\Temp\ccHiTWuI.s 			page 9


 474 0046 FFF7FEFF 		bl	vListInsert
 475              	.L68:
 476 004a 70BD     		pop	{r4, r5, r6, pc}
 477              	.L74:
 478 004c 002D     		cmp	r5, #0
 479 004e EFD0     		beq	.L70
 480 0050 0B4B     		ldr	r3, .L75+4
 481 0052 1968     		ldr	r1, [r3]
 482 0054 0431     		adds	r1, r1, #4
 483 0056 0D48     		ldr	r0, .L75+16
 484 0058 FFF7FEFF 		bl	vListInsertEnd
 485 005c F5E7     		b	.L68
 486              	.L72:
 487 005e 0C4B     		ldr	r3, .L75+20
 488 0060 1868     		ldr	r0, [r3]
 489 0062 074B     		ldr	r3, .L75+4
 490 0064 1968     		ldr	r1, [r3]
 491 0066 0431     		adds	r1, r1, #4
 492 0068 FFF7FEFF 		bl	vListInsert
 493 006c 094B     		ldr	r3, .L75+24
 494 006e 1B68     		ldr	r3, [r3]
 495 0070 A342     		cmp	r3, r4
 496 0072 EAD9     		bls	.L68
 497 0074 074B     		ldr	r3, .L75+24
 498 0076 1C60     		str	r4, [r3]
 499 0078 E7E7     		b	.L68
 500              	.L76:
 501 007a 00BF     		.align	2
 502              	.L75:
 503 007c 00000000 		.word	xTickCount
 504 0080 00000000 		.word	pxCurrentTCB
 505 0084 00000000 		.word	uxTopReadyPriority
 506 0088 00000000 		.word	pxOverflowDelayedTaskList
 507 008c 00000000 		.word	xSuspendedTaskList
 508 0090 00000000 		.word	pxDelayedTaskList
 509 0094 00000000 		.word	xNextTaskUnblockTime
 511              		.section	.text.xTaskCreateStatic,"ax",%progbits
 512              		.align	1
 513              		.global	xTaskCreateStatic
 514              		.syntax unified
 515              		.thumb
 516              		.thumb_func
 518              	xTaskCreateStatic:
 519              		@ args = 12, pretend = 0, frame = 8
 520              		@ frame_needed = 0, uses_anonymous_args = 0
 521 0000 30B5     		push	{r4, r5, lr}
 522 0002 87B0     		sub	sp, sp, #28
 523 0004 0B9C     		ldr	r4, [sp, #44]
 524 0006 7CB1     		cbz	r4, .L85
 525 0008 0C9D     		ldr	r5, [sp, #48]
 526 000a B5B1     		cbz	r5, .L86
 527 000c 5425     		movs	r5, #84
 528 000e 0495     		str	r5, [sp, #16]
 529 0010 049D     		ldr	r5, [sp, #16]
 530 0012 542D     		cmp	r5, #84
 531 0014 1AD0     		beq	.L82
 532              		.syntax unified
ARM GAS  C:\Users\Rick\AppData\Local\Temp\ccHiTWuI.s 			page 10


 533              	@ 195 "Middlewares/Third_Party/FreeRTOS/Source/portable/GCC/ARM_CM4F/portmacro.h" 1
 534 0016 4FF05003 			mov r3, #80												
 535 001a 83F31188 		msr basepri, r3											
 536 001e BFF36F8F 		isb														
 537 0022 BFF34F8F 		dsb														
 538              	
 539              	@ 0 "" 2
 540              		.thumb
 541              		.syntax unified
 542              	.L83:
 543 0026 FEE7     		b	.L83
 544              	.L85:
 545              		.syntax unified
 546              	@ 195 "Middlewares/Third_Party/FreeRTOS/Source/portable/GCC/ARM_CM4F/portmacro.h" 1
 547 0028 4FF05003 			mov r3, #80												
 548 002c 83F31188 		msr basepri, r3											
 549 0030 BFF36F8F 		isb														
 550 0034 BFF34F8F 		dsb														
 551              	
 552              	@ 0 "" 2
 553              		.thumb
 554              		.syntax unified
 555              	.L79:
 556 0038 FEE7     		b	.L79
 557              	.L86:
 558              		.syntax unified
 559              	@ 195 "Middlewares/Third_Party/FreeRTOS/Source/portable/GCC/ARM_CM4F/portmacro.h" 1
 560 003a 4FF05003 			mov r3, #80												
 561 003e 83F31188 		msr basepri, r3											
 562 0042 BFF36F8F 		isb														
 563 0046 BFF34F8F 		dsb														
 564              	
 565              	@ 0 "" 2
 566              		.thumb
 567              		.syntax unified
 568              	.L81:
 569 004a FEE7     		b	.L81
 570              	.L82:
 571 004c 049D     		ldr	r5, [sp, #16]
 572 004e 0C9D     		ldr	r5, [sp, #48]
 573 0050 2C63     		str	r4, [r5, #48]
 574 0052 0224     		movs	r4, #2
 575 0054 85F85140 		strb	r4, [r5, #81]
 576 0058 0024     		movs	r4, #0
 577 005a 0394     		str	r4, [sp, #12]
 578 005c 0295     		str	r5, [sp, #8]
 579 005e 05AC     		add	r4, sp, #20
 580 0060 0194     		str	r4, [sp, #4]
 581 0062 0A9C     		ldr	r4, [sp, #40]
 582 0064 0094     		str	r4, [sp]
 583 0066 FFF7FEFF 		bl	prvInitialiseNewTask
 584 006a 0C98     		ldr	r0, [sp, #48]
 585 006c FFF7FEFF 		bl	prvAddNewTaskToReadyList
 586 0070 0598     		ldr	r0, [sp, #20]
 587 0072 07B0     		add	sp, sp, #28
 588              		@ sp needed
 589 0074 30BD     		pop	{r4, r5, pc}
ARM GAS  C:\Users\Rick\AppData\Local\Temp\ccHiTWuI.s 			page 11


 591              		.section	.text.xTaskCreate,"ax",%progbits
 592              		.align	1
 593              		.global	xTaskCreate
 594              		.syntax unified
 595              		.thumb
 596              		.thumb_func
 598              	xTaskCreate:
 599              		@ args = 8, pretend = 0, frame = 0
 600              		@ frame_needed = 0, uses_anonymous_args = 0
 601 0000 2DE9F043 		push	{r4, r5, r6, r7, r8, r9, lr}
 602 0004 85B0     		sub	sp, sp, #20
 603 0006 0746     		mov	r7, r0
 604 0008 8846     		mov	r8, r1
 605 000a 1446     		mov	r4, r2
 606 000c 1E46     		mov	r6, r3
 607 000e 9000     		lsls	r0, r2, #2
 608 0010 FFF7FEFF 		bl	pvPortMalloc
 609 0014 08B3     		cbz	r0, .L90
 610 0016 8146     		mov	r9, r0
 611 0018 5420     		movs	r0, #84
 612 001a FFF7FEFF 		bl	pvPortMalloc
 613 001e 0546     		mov	r5, r0
 614 0020 A8B1     		cbz	r0, .L89
 615 0022 C0F83090 		str	r9, [r0, #48]
 616 0026 0023     		movs	r3, #0
 617 0028 80F85130 		strb	r3, [r0, #81]
 618 002c 0393     		str	r3, [sp, #12]
 619 002e 0290     		str	r0, [sp, #8]
 620 0030 0D9B     		ldr	r3, [sp, #52]
 621 0032 0193     		str	r3, [sp, #4]
 622 0034 0C9B     		ldr	r3, [sp, #48]
 623 0036 0093     		str	r3, [sp]
 624 0038 3346     		mov	r3, r6
 625 003a 2246     		mov	r2, r4
 626 003c 4146     		mov	r1, r8
 627 003e 3846     		mov	r0, r7
 628 0040 FFF7FEFF 		bl	prvInitialiseNewTask
 629 0044 2846     		mov	r0, r5
 630 0046 FFF7FEFF 		bl	prvAddNewTaskToReadyList
 631 004a 0120     		movs	r0, #1
 632 004c 07E0     		b	.L87
 633              	.L89:
 634 004e 4846     		mov	r0, r9
 635 0050 FFF7FEFF 		bl	vPortFree
 636 0054 4FF0FF30 		mov	r0, #-1
 637 0058 01E0     		b	.L87
 638              	.L90:
 639 005a 4FF0FF30 		mov	r0, #-1
 640              	.L87:
 641 005e 05B0     		add	sp, sp, #20
 642              		@ sp needed
 643 0060 BDE8F083 		pop	{r4, r5, r6, r7, r8, r9, pc}
 645              		.section	.text.vTaskDelete,"ax",%progbits
 646              		.align	1
 647              		.global	vTaskDelete
 648              		.syntax unified
 649              		.thumb
ARM GAS  C:\Users\Rick\AppData\Local\Temp\ccHiTWuI.s 			page 12


 650              		.thumb_func
 652              	vTaskDelete:
 653              		@ args = 0, pretend = 0, frame = 0
 654              		@ frame_needed = 0, uses_anonymous_args = 0
 655 0000 38B5     		push	{r3, r4, r5, lr}
 656 0002 0446     		mov	r4, r0
 657 0004 FFF7FEFF 		bl	vPortEnterCritical
 658 0008 002C     		cmp	r4, #0
 659 000a 34D0     		beq	.L102
 660              	.L93:
 661 000c 251D     		adds	r5, r4, #4
 662 000e 2846     		mov	r0, r5
 663 0010 FFF7FEFF 		bl	uxListRemove
 664 0014 70B9     		cbnz	r0, .L94
 665 0016 E26A     		ldr	r2, [r4, #44]
 666 0018 02EB8203 		add	r3, r2, r2, lsl #2
 667 001c 9B00     		lsls	r3, r3, #2
 668 001e 2749     		ldr	r1, .L105
 669 0020 CB58     		ldr	r3, [r1, r3]
 670 0022 3BB9     		cbnz	r3, .L94
 671 0024 0123     		movs	r3, #1
 672 0026 03FA02F2 		lsl	r2, r3, r2
 673 002a 2549     		ldr	r1, .L105+4
 674 002c 0B68     		ldr	r3, [r1]
 675 002e 23EA0203 		bic	r3, r3, r2
 676 0032 0B60     		str	r3, [r1]
 677              	.L94:
 678 0034 A36A     		ldr	r3, [r4, #40]
 679 0036 1BB1     		cbz	r3, .L95
 680 0038 04F11800 		add	r0, r4, #24
 681 003c FFF7FEFF 		bl	uxListRemove
 682              	.L95:
 683 0040 204A     		ldr	r2, .L105+8
 684 0042 1368     		ldr	r3, [r2]
 685 0044 0133     		adds	r3, r3, #1
 686 0046 1360     		str	r3, [r2]
 687 0048 1F4B     		ldr	r3, .L105+12
 688 004a 1B68     		ldr	r3, [r3]
 689 004c A342     		cmp	r3, r4
 690 004e 15D0     		beq	.L103
 691 0050 1E4A     		ldr	r2, .L105+16
 692 0052 1368     		ldr	r3, [r2]
 693 0054 013B     		subs	r3, r3, #1
 694 0056 1360     		str	r3, [r2]
 695 0058 2046     		mov	r0, r4
 696 005a FFF7FEFF 		bl	prvDeleteTCB
 697 005e FFF7FEFF 		bl	prvResetNextTaskUnblockTime
 698              	.L97:
 699 0062 FFF7FEFF 		bl	vPortExitCritical
 700 0066 1A4B     		ldr	r3, .L105+20
 701 0068 1B68     		ldr	r3, [r3]
 702 006a 1BB1     		cbz	r3, .L92
 703 006c 164B     		ldr	r3, .L105+12
 704 006e 1B68     		ldr	r3, [r3]
 705 0070 A342     		cmp	r3, r4
 706 0072 0CD0     		beq	.L104
 707              	.L92:
ARM GAS  C:\Users\Rick\AppData\Local\Temp\ccHiTWuI.s 			page 13


 708 0074 38BD     		pop	{r3, r4, r5, pc}
 709              	.L102:
 710 0076 144B     		ldr	r3, .L105+12
 711 0078 1C68     		ldr	r4, [r3]
 712 007a C7E7     		b	.L93
 713              	.L103:
 714 007c 2946     		mov	r1, r5
 715 007e 1548     		ldr	r0, .L105+24
 716 0080 FFF7FEFF 		bl	vListInsertEnd
 717 0084 144A     		ldr	r2, .L105+28
 718 0086 1368     		ldr	r3, [r2]
 719 0088 0133     		adds	r3, r3, #1
 720 008a 1360     		str	r3, [r2]
 721 008c E9E7     		b	.L97
 722              	.L104:
 723 008e 134B     		ldr	r3, .L105+32
 724 0090 1B68     		ldr	r3, [r3]
 725 0092 43B1     		cbz	r3, .L99
 726              		.syntax unified
 727              	@ 195 "Middlewares/Third_Party/FreeRTOS/Source/portable/GCC/ARM_CM4F/portmacro.h" 1
 728 0094 4FF05003 			mov r3, #80												
 729 0098 83F31188 		msr basepri, r3											
 730 009c BFF36F8F 		isb														
 731 00a0 BFF34F8F 		dsb														
 732              	
 733              	@ 0 "" 2
 734              		.thumb
 735              		.syntax unified
 736              	.L100:
 737 00a4 FEE7     		b	.L100
 738              	.L99:
 739 00a6 4FF0E023 		mov	r3, #-536813568
 740 00aa 4FF08052 		mov	r2, #268435456
 741 00ae C3F8042D 		str	r2, [r3, #3332]
 742              		.syntax unified
 743              	@ 1243 "Middlewares/Third_Party/FreeRTOS/Source/tasks.c" 1
 744 00b2 BFF34F8F 		dsb
 745              	@ 0 "" 2
 746              	@ 1243 "Middlewares/Third_Party/FreeRTOS/Source/tasks.c" 1
 747 00b6 BFF36F8F 		isb
 748              	@ 0 "" 2
 749              		.thumb
 750              		.syntax unified
 751 00ba DBE7     		b	.L92
 752              	.L106:
 753              		.align	2
 754              	.L105:
 755 00bc 00000000 		.word	pxReadyTasksLists
 756 00c0 00000000 		.word	uxTopReadyPriority
 757 00c4 00000000 		.word	uxTaskNumber
 758 00c8 00000000 		.word	pxCurrentTCB
 759 00cc 00000000 		.word	uxCurrentNumberOfTasks
 760 00d0 00000000 		.word	xSchedulerRunning
 761 00d4 00000000 		.word	xTasksWaitingTermination
 762 00d8 00000000 		.word	uxDeletedTasksWaitingCleanUp
 763 00dc 00000000 		.word	uxSchedulerSuspended
 765              		.section	.text.uxTaskPriorityGet,"ax",%progbits
ARM GAS  C:\Users\Rick\AppData\Local\Temp\ccHiTWuI.s 			page 14


 766              		.align	1
 767              		.global	uxTaskPriorityGet
 768              		.syntax unified
 769              		.thumb
 770              		.thumb_func
 772              	uxTaskPriorityGet:
 773              		@ args = 0, pretend = 0, frame = 0
 774              		@ frame_needed = 0, uses_anonymous_args = 0
 775 0000 10B5     		push	{r4, lr}
 776 0002 0446     		mov	r4, r0
 777 0004 FFF7FEFF 		bl	vPortEnterCritical
 778 0008 24B1     		cbz	r4, .L110
 779              	.L108:
 780 000a E46A     		ldr	r4, [r4, #44]
 781 000c FFF7FEFF 		bl	vPortExitCritical
 782 0010 2046     		mov	r0, r4
 783 0012 10BD     		pop	{r4, pc}
 784              	.L110:
 785 0014 014B     		ldr	r3, .L111
 786 0016 1C68     		ldr	r4, [r3]
 787 0018 F7E7     		b	.L108
 788              	.L112:
 789 001a 00BF     		.align	2
 790              	.L111:
 791 001c 00000000 		.word	pxCurrentTCB
 793              		.section	.text.uxTaskPriorityGetFromISR,"ax",%progbits
 794              		.align	1
 795              		.global	uxTaskPriorityGetFromISR
 796              		.syntax unified
 797              		.thumb
 798              		.thumb_func
 800              	uxTaskPriorityGetFromISR:
 801              		@ args = 0, pretend = 0, frame = 0
 802              		@ frame_needed = 0, uses_anonymous_args = 0
 803 0000 10B5     		push	{r4, lr}
 804 0002 0446     		mov	r4, r0
 805 0004 FFF7FEFF 		bl	vPortValidateInterruptPriority
 806              		.syntax unified
 807              	@ 211 "Middlewares/Third_Party/FreeRTOS/Source/portable/GCC/ARM_CM4F/portmacro.h" 1
 808 0008 EFF31183 			mrs r3, basepri											
 809 000c 4FF05002 		mov r2, #80												
 810 0010 82F31188 		msr basepri, r2											
 811 0014 BFF36F8F 		isb														
 812 0018 BFF34F8F 		dsb														
 813              	
 814              	@ 0 "" 2
 815              		.thumb
 816              		.syntax unified
 817 001c 1CB1     		cbz	r4, .L116
 818              	.L114:
 819 001e E06A     		ldr	r0, [r4, #44]
 820              		.syntax unified
 821              	@ 229 "Middlewares/Third_Party/FreeRTOS/Source/portable/GCC/ARM_CM4F/portmacro.h" 1
 822 0020 83F31188 			msr basepri, r3	
 823              	@ 0 "" 2
 824              		.thumb
 825              		.syntax unified
ARM GAS  C:\Users\Rick\AppData\Local\Temp\ccHiTWuI.s 			page 15


 826 0024 10BD     		pop	{r4, pc}
 827              	.L116:
 828 0026 014A     		ldr	r2, .L117
 829 0028 1468     		ldr	r4, [r2]
 830 002a F8E7     		b	.L114
 831              	.L118:
 832              		.align	2
 833              	.L117:
 834 002c 00000000 		.word	pxCurrentTCB
 836              		.section	.text.vTaskPrioritySet,"ax",%progbits
 837              		.align	1
 838              		.global	vTaskPrioritySet
 839              		.syntax unified
 840              		.thumb
 841              		.thumb_func
 843              	vTaskPrioritySet:
 844              		@ args = 0, pretend = 0, frame = 0
 845              		@ frame_needed = 0, uses_anonymous_args = 0
 846 0000 F8B5     		push	{r3, r4, r5, r6, r7, lr}
 847 0002 0629     		cmp	r1, #6
 848 0004 08D9     		bls	.L120
 849              		.syntax unified
 850              	@ 195 "Middlewares/Third_Party/FreeRTOS/Source/portable/GCC/ARM_CM4F/portmacro.h" 1
 851 0006 4FF05003 			mov r3, #80												
 852 000a 83F31188 		msr basepri, r3											
 853 000e BFF36F8F 		isb														
 854 0012 BFF34F8F 		dsb														
 855              	
 856              	@ 0 "" 2
 857              		.thumb
 858              		.syntax unified
 859              	.L121:
 860 0016 FEE7     		b	.L121
 861              	.L120:
 862 0018 0546     		mov	r5, r0
 863 001a 0C46     		mov	r4, r1
 864 001c FFF7FEFF 		bl	vPortEnterCritical
 865 0020 75B1     		cbz	r5, .L134
 866              	.L122:
 867 0022 6B6C     		ldr	r3, [r5, #68]
 868 0024 9C42     		cmp	r4, r3
 869 0026 30D0     		beq	.L123
 870 0028 0DD9     		bls	.L124
 871 002a 2B4A     		ldr	r2, .L137
 872 002c 1268     		ldr	r2, [r2]
 873 002e AA42     		cmp	r2, r5
 874 0030 2ED0     		beq	.L130
 875 0032 294A     		ldr	r2, .L137
 876 0034 1268     		ldr	r2, [r2]
 877 0036 D26A     		ldr	r2, [r2, #44]
 878 0038 A242     		cmp	r2, r4
 879 003a 2BD9     		bls	.L131
 880 003c 0027     		movs	r7, #0
 881 003e 07E0     		b	.L125
 882              	.L134:
 883 0040 254B     		ldr	r3, .L137
 884 0042 1D68     		ldr	r5, [r3]
ARM GAS  C:\Users\Rick\AppData\Local\Temp\ccHiTWuI.s 			page 16


 885 0044 EDE7     		b	.L122
 886              	.L124:
 887 0046 244A     		ldr	r2, .L137
 888 0048 1268     		ldr	r2, [r2]
 889 004a AA42     		cmp	r2, r5
 890 004c 24D0     		beq	.L132
 891 004e 0027     		movs	r7, #0
 892              	.L125:
 893 0050 EE6A     		ldr	r6, [r5, #44]
 894 0052 B342     		cmp	r3, r6
 895 0054 22D0     		beq	.L135
 896              	.L126:
 897 0056 6C64     		str	r4, [r5, #68]
 898 0058 AB69     		ldr	r3, [r5, #24]
 899 005a 002B     		cmp	r3, #0
 900 005c 02DB     		blt	.L127
 901 005e C4F10704 		rsb	r4, r4, #7
 902 0062 AC61     		str	r4, [r5, #24]
 903              	.L127:
 904 0064 6969     		ldr	r1, [r5, #20]
 905 0066 06EB8602 		add	r2, r6, r6, lsl #2
 906 006a 1C4B     		ldr	r3, .L137+4
 907 006c 03EB8203 		add	r3, r3, r2, lsl #2
 908 0070 9942     		cmp	r1, r3
 909 0072 15D0     		beq	.L136
 910              	.L128:
 911 0074 4FB1     		cbz	r7, .L123
 912 0076 4FF0E023 		mov	r3, #-536813568
 913 007a 4FF08052 		mov	r2, #268435456
 914 007e C3F8042D 		str	r2, [r3, #3332]
 915              		.syntax unified
 916              	@ 1684 "Middlewares/Third_Party/FreeRTOS/Source/tasks.c" 1
 917 0082 BFF34F8F 		dsb
 918              	@ 0 "" 2
 919              	@ 1684 "Middlewares/Third_Party/FreeRTOS/Source/tasks.c" 1
 920 0086 BFF36F8F 		isb
 921              	@ 0 "" 2
 922              		.thumb
 923              		.syntax unified
 924              	.L123:
 925 008a FFF7FEFF 		bl	vPortExitCritical
 926 008e F8BD     		pop	{r3, r4, r5, r6, r7, pc}
 927              	.L130:
 928 0090 0027     		movs	r7, #0
 929 0092 DDE7     		b	.L125
 930              	.L131:
 931 0094 0127     		movs	r7, #1
 932 0096 DBE7     		b	.L125
 933              	.L132:
 934 0098 0127     		movs	r7, #1
 935 009a D9E7     		b	.L125
 936              	.L135:
 937 009c EC62     		str	r4, [r5, #44]
 938 009e DAE7     		b	.L126
 939              	.L136:
 940 00a0 2C1D     		adds	r4, r5, #4
 941 00a2 2046     		mov	r0, r4
ARM GAS  C:\Users\Rick\AppData\Local\Temp\ccHiTWuI.s 			page 17


 942 00a4 FFF7FEFF 		bl	uxListRemove
 943 00a8 30B9     		cbnz	r0, .L129
 944 00aa 0122     		movs	r2, #1
 945 00ac B240     		lsls	r2, r2, r6
 946 00ae 0C49     		ldr	r1, .L137+8
 947 00b0 0B68     		ldr	r3, [r1]
 948 00b2 23EA0203 		bic	r3, r3, r2
 949 00b6 0B60     		str	r3, [r1]
 950              	.L129:
 951 00b8 E86A     		ldr	r0, [r5, #44]
 952 00ba 0123     		movs	r3, #1
 953 00bc 8340     		lsls	r3, r3, r0
 954 00be 084A     		ldr	r2, .L137+8
 955 00c0 1168     		ldr	r1, [r2]
 956 00c2 0B43     		orrs	r3, r3, r1
 957 00c4 1360     		str	r3, [r2]
 958 00c6 00EB8000 		add	r0, r0, r0, lsl #2
 959 00ca 2146     		mov	r1, r4
 960 00cc 034B     		ldr	r3, .L137+4
 961 00ce 03EB8000 		add	r0, r3, r0, lsl #2
 962 00d2 FFF7FEFF 		bl	vListInsertEnd
 963 00d6 CDE7     		b	.L128
 964              	.L138:
 965              		.align	2
 966              	.L137:
 967 00d8 00000000 		.word	pxCurrentTCB
 968 00dc 00000000 		.word	pxReadyTasksLists
 969 00e0 00000000 		.word	uxTopReadyPriority
 971              		.section	.text.vTaskResume,"ax",%progbits
 972              		.align	1
 973              		.global	vTaskResume
 974              		.syntax unified
 975              		.thumb
 976              		.thumb_func
 978              	vTaskResume:
 979              		@ args = 0, pretend = 0, frame = 0
 980              		@ frame_needed = 0, uses_anonymous_args = 0
 981 0000 38B5     		push	{r3, r4, r5, lr}
 982 0002 68B1     		cbz	r0, .L145
 983 0004 0446     		mov	r4, r0
 984 0006 1D4B     		ldr	r3, .L147
 985 0008 1B68     		ldr	r3, [r3]
 986 000a 8342     		cmp	r3, r0
 987 000c 07D0     		beq	.L139
 988 000e FFF7FEFF 		bl	vPortEnterCritical
 989 0012 2046     		mov	r0, r4
 990 0014 FFF7FEFF 		bl	prvTaskIsTaskSuspended
 991 0018 58B9     		cbnz	r0, .L146
 992              	.L143:
 993 001a FFF7FEFF 		bl	vPortExitCritical
 994              	.L139:
 995 001e 38BD     		pop	{r3, r4, r5, pc}
 996              	.L145:
 997              		.syntax unified
 998              	@ 195 "Middlewares/Third_Party/FreeRTOS/Source/portable/GCC/ARM_CM4F/portmacro.h" 1
 999 0020 4FF05003 			mov r3, #80												
 1000 0024 83F31188 		msr basepri, r3											
ARM GAS  C:\Users\Rick\AppData\Local\Temp\ccHiTWuI.s 			page 18


 1001 0028 BFF36F8F 		isb														
 1002 002c BFF34F8F 		dsb														
 1003              	
 1004              	@ 0 "" 2
 1005              		.thumb
 1006              		.syntax unified
 1007              	.L141:
 1008 0030 FEE7     		b	.L141
 1009              	.L146:
 1010 0032 251D     		adds	r5, r4, #4
 1011 0034 2846     		mov	r0, r5
 1012 0036 FFF7FEFF 		bl	uxListRemove
 1013 003a E06A     		ldr	r0, [r4, #44]
 1014 003c 0123     		movs	r3, #1
 1015 003e 8340     		lsls	r3, r3, r0
 1016 0040 0F4A     		ldr	r2, .L147+4
 1017 0042 1168     		ldr	r1, [r2]
 1018 0044 0B43     		orrs	r3, r3, r1
 1019 0046 1360     		str	r3, [r2]
 1020 0048 00EB8000 		add	r0, r0, r0, lsl #2
 1021 004c 2946     		mov	r1, r5
 1022 004e 0D4B     		ldr	r3, .L147+8
 1023 0050 03EB8000 		add	r0, r3, r0, lsl #2
 1024 0054 FFF7FEFF 		bl	vListInsertEnd
 1025 0058 E26A     		ldr	r2, [r4, #44]
 1026 005a 084B     		ldr	r3, .L147
 1027 005c 1B68     		ldr	r3, [r3]
 1028 005e DB6A     		ldr	r3, [r3, #44]
 1029 0060 9A42     		cmp	r2, r3
 1030 0062 DAD3     		bcc	.L143
 1031 0064 4FF0E023 		mov	r3, #-536813568
 1032 0068 4FF08052 		mov	r2, #268435456
 1033 006c C3F8042D 		str	r2, [r3, #3332]
 1034              		.syntax unified
 1035              	@ 1879 "Middlewares/Third_Party/FreeRTOS/Source/tasks.c" 1
 1036 0070 BFF34F8F 		dsb
 1037              	@ 0 "" 2
 1038              	@ 1879 "Middlewares/Third_Party/FreeRTOS/Source/tasks.c" 1
 1039 0074 BFF36F8F 		isb
 1040              	@ 0 "" 2
 1041              		.thumb
 1042              		.syntax unified
 1043 0078 CFE7     		b	.L143
 1044              	.L148:
 1045 007a 00BF     		.align	2
 1046              	.L147:
 1047 007c 00000000 		.word	pxCurrentTCB
 1048 0080 00000000 		.word	uxTopReadyPriority
 1049 0084 00000000 		.word	pxReadyTasksLists
 1051              		.section	.text.xTaskResumeFromISR,"ax",%progbits
 1052              		.align	1
 1053              		.global	xTaskResumeFromISR
 1054              		.syntax unified
 1055              		.thumb
 1056              		.thumb_func
 1058              	xTaskResumeFromISR:
 1059              		@ args = 0, pretend = 0, frame = 0
ARM GAS  C:\Users\Rick\AppData\Local\Temp\ccHiTWuI.s 			page 19


 1060              		@ frame_needed = 0, uses_anonymous_args = 0
 1061 0000 F8B5     		push	{r3, r4, r5, r6, r7, lr}
 1062 0002 90B3     		cbz	r0, .L157
 1063 0004 0546     		mov	r5, r0
 1064 0006 FFF7FEFF 		bl	vPortValidateInterruptPriority
 1065              		.syntax unified
 1066              	@ 211 "Middlewares/Third_Party/FreeRTOS/Source/portable/GCC/ARM_CM4F/portmacro.h" 1
 1067 000a EFF31184 			mrs r4, basepri											
 1068 000e 4FF05003 		mov r3, #80												
 1069 0012 83F31188 		msr basepri, r3											
 1070 0016 BFF36F8F 		isb														
 1071 001a BFF34F8F 		dsb														
 1072              	
 1073              	@ 0 "" 2
 1074              		.thumb
 1075              		.syntax unified
 1076 001e 2846     		mov	r0, r5
 1077 0020 FFF7FEFF 		bl	prvTaskIsTaskSuspended
 1078 0024 0646     		mov	r6, r0
 1079 0026 E0B1     		cbz	r0, .L152
 1080 0028 194B     		ldr	r3, .L158
 1081 002a 1B68     		ldr	r3, [r3]
 1082 002c 43BB     		cbnz	r3, .L153
 1083 002e EA6A     		ldr	r2, [r5, #44]
 1084 0030 184B     		ldr	r3, .L158+4
 1085 0032 1B68     		ldr	r3, [r3]
 1086 0034 DB6A     		ldr	r3, [r3, #44]
 1087 0036 9A42     		cmp	r2, r3
 1088 0038 20D2     		bcs	.L155
 1089 003a 0026     		movs	r6, #0
 1090              	.L154:
 1091 003c 2F1D     		adds	r7, r5, #4
 1092 003e 3846     		mov	r0, r7
 1093 0040 FFF7FEFF 		bl	uxListRemove
 1094 0044 E86A     		ldr	r0, [r5, #44]
 1095 0046 0123     		movs	r3, #1
 1096 0048 8340     		lsls	r3, r3, r0
 1097 004a 134A     		ldr	r2, .L158+8
 1098 004c 1168     		ldr	r1, [r2]
 1099 004e 0B43     		orrs	r3, r3, r1
 1100 0050 1360     		str	r3, [r2]
 1101 0052 00EB8000 		add	r0, r0, r0, lsl #2
 1102 0056 3946     		mov	r1, r7
 1103 0058 104B     		ldr	r3, .L158+12
 1104 005a 03EB8000 		add	r0, r3, r0, lsl #2
 1105 005e FFF7FEFF 		bl	vListInsertEnd
 1106              	.L152:
 1107              		.syntax unified
 1108              	@ 229 "Middlewares/Third_Party/FreeRTOS/Source/portable/GCC/ARM_CM4F/portmacro.h" 1
 1109 0062 84F31188 			msr basepri, r4	
 1110              	@ 0 "" 2
 1111              		.thumb
 1112              		.syntax unified
 1113 0066 3046     		mov	r0, r6
 1114 0068 F8BD     		pop	{r3, r4, r5, r6, r7, pc}
 1115              	.L157:
 1116              		.syntax unified
ARM GAS  C:\Users\Rick\AppData\Local\Temp\ccHiTWuI.s 			page 20


 1117              	@ 195 "Middlewares/Third_Party/FreeRTOS/Source/portable/GCC/ARM_CM4F/portmacro.h" 1
 1118 006a 4FF05003 			mov r3, #80												
 1119 006e 83F31188 		msr basepri, r3											
 1120 0072 BFF36F8F 		isb														
 1121 0076 BFF34F8F 		dsb														
 1122              	
 1123              	@ 0 "" 2
 1124              		.thumb
 1125              		.syntax unified
 1126              	.L151:
 1127 007a FEE7     		b	.L151
 1128              	.L155:
 1129 007c 0126     		movs	r6, #1
 1130 007e DDE7     		b	.L154
 1131              	.L153:
 1132 0080 05F11801 		add	r1, r5, #24
 1133 0084 0648     		ldr	r0, .L158+16
 1134 0086 FFF7FEFF 		bl	vListInsertEnd
 1135 008a 0026     		movs	r6, #0
 1136 008c E9E7     		b	.L152
 1137              	.L159:
 1138 008e 00BF     		.align	2
 1139              	.L158:
 1140 0090 00000000 		.word	uxSchedulerSuspended
 1141 0094 00000000 		.word	pxCurrentTCB
 1142 0098 00000000 		.word	uxTopReadyPriority
 1143 009c 00000000 		.word	pxReadyTasksLists
 1144 00a0 00000000 		.word	xPendingReadyList
 1146              		.section	.rodata.vTaskStartScheduler.str1.4,"aMS",%progbits,1
 1147              		.align	2
 1148              	.LC0:
 1149 0000 49444C45 		.ascii	"IDLE\000"
 1149      00
 1150              		.section	.text.vTaskStartScheduler,"ax",%progbits
 1151              		.align	1
 1152              		.global	vTaskStartScheduler
 1153              		.syntax unified
 1154              		.thumb
 1155              		.thumb_func
 1157              	vTaskStartScheduler:
 1158              		@ args = 0, pretend = 0, frame = 16
 1159              		@ frame_needed = 0, uses_anonymous_args = 0
 1160 0000 10B5     		push	{r4, lr}
 1161 0002 88B0     		sub	sp, sp, #32
 1162 0004 0024     		movs	r4, #0
 1163 0006 0594     		str	r4, [sp, #20]
 1164 0008 0694     		str	r4, [sp, #24]
 1165 000a 07AA     		add	r2, sp, #28
 1166 000c 06A9     		add	r1, sp, #24
 1167 000e 05A8     		add	r0, sp, #20
 1168 0010 FFF7FEFF 		bl	vApplicationGetIdleTaskMemory
 1169 0014 059B     		ldr	r3, [sp, #20]
 1170 0016 0293     		str	r3, [sp, #8]
 1171 0018 069B     		ldr	r3, [sp, #24]
 1172 001a 0193     		str	r3, [sp, #4]
 1173 001c 0094     		str	r4, [sp]
 1174 001e 2346     		mov	r3, r4
ARM GAS  C:\Users\Rick\AppData\Local\Temp\ccHiTWuI.s 			page 21


 1175 0020 079A     		ldr	r2, [sp, #28]
 1176 0022 0E49     		ldr	r1, .L164
 1177 0024 0E48     		ldr	r0, .L164+4
 1178 0026 FFF7FEFF 		bl	xTaskCreateStatic
 1179 002a 0E4B     		ldr	r3, .L164+8
 1180 002c 1860     		str	r0, [r3]
 1181 002e 90B1     		cbz	r0, .L160
 1182              		.syntax unified
 1183              	@ 195 "Middlewares/Third_Party/FreeRTOS/Source/portable/GCC/ARM_CM4F/portmacro.h" 1
 1184 0030 4FF05003 			mov r3, #80												
 1185 0034 83F31188 		msr basepri, r3											
 1186 0038 BFF36F8F 		isb														
 1187 003c BFF34F8F 		dsb														
 1188              	
 1189              	@ 0 "" 2
 1190              		.thumb
 1191              		.syntax unified
 1192 0040 094B     		ldr	r3, .L164+12
 1193 0042 4FF0FF32 		mov	r2, #-1
 1194 0046 1A60     		str	r2, [r3]
 1195 0048 084B     		ldr	r3, .L164+16
 1196 004a 0122     		movs	r2, #1
 1197 004c 1A60     		str	r2, [r3]
 1198 004e 084B     		ldr	r3, .L164+20
 1199 0050 1C60     		str	r4, [r3]
 1200 0052 FFF7FEFF 		bl	xPortStartScheduler
 1201              	.L160:
 1202 0056 08B0     		add	sp, sp, #32
 1203              		@ sp needed
 1204 0058 10BD     		pop	{r4, pc}
 1205              	.L165:
 1206 005a 00BF     		.align	2
 1207              	.L164:
 1208 005c 00000000 		.word	.LC0
 1209 0060 00000000 		.word	prvIdleTask
 1210 0064 00000000 		.word	xIdleTaskHandle
 1211 0068 00000000 		.word	xNextTaskUnblockTime
 1212 006c 00000000 		.word	xSchedulerRunning
 1213 0070 00000000 		.word	xTickCount
 1215              		.section	.text.vTaskEndScheduler,"ax",%progbits
 1216              		.align	1
 1217              		.global	vTaskEndScheduler
 1218              		.syntax unified
 1219              		.thumb
 1220              		.thumb_func
 1222              	vTaskEndScheduler:
 1223              		@ args = 0, pretend = 0, frame = 0
 1224              		@ frame_needed = 0, uses_anonymous_args = 0
 1225 0000 08B5     		push	{r3, lr}
 1226              		.syntax unified
 1227              	@ 195 "Middlewares/Third_Party/FreeRTOS/Source/portable/GCC/ARM_CM4F/portmacro.h" 1
 1228 0002 4FF05003 			mov r3, #80												
 1229 0006 83F31188 		msr basepri, r3											
 1230 000a BFF36F8F 		isb														
 1231 000e BFF34F8F 		dsb														
 1232              	
 1233              	@ 0 "" 2
ARM GAS  C:\Users\Rick\AppData\Local\Temp\ccHiTWuI.s 			page 22


 1234              		.thumb
 1235              		.syntax unified
 1236 0012 034B     		ldr	r3, .L168
 1237 0014 0022     		movs	r2, #0
 1238 0016 1A60     		str	r2, [r3]
 1239 0018 FFF7FEFF 		bl	vPortEndScheduler
 1240 001c 08BD     		pop	{r3, pc}
 1241              	.L169:
 1242 001e 00BF     		.align	2
 1243              	.L168:
 1244 0020 00000000 		.word	xSchedulerRunning
 1246              		.section	.text.vTaskSuspendAll,"ax",%progbits
 1247              		.align	1
 1248              		.global	vTaskSuspendAll
 1249              		.syntax unified
 1250              		.thumb
 1251              		.thumb_func
 1253              	vTaskSuspendAll:
 1254              		@ args = 0, pretend = 0, frame = 0
 1255              		@ frame_needed = 0, uses_anonymous_args = 0
 1256              		@ link register save eliminated.
 1257 0000 024A     		ldr	r2, .L171
 1258 0002 1368     		ldr	r3, [r2]
 1259 0004 0133     		adds	r3, r3, #1
 1260 0006 1360     		str	r3, [r2]
 1261 0008 7047     		bx	lr
 1262              	.L172:
 1263 000a 00BF     		.align	2
 1264              	.L171:
 1265 000c 00000000 		.word	uxSchedulerSuspended
 1267              		.section	.text.xTaskGetTickCount,"ax",%progbits
 1268              		.align	1
 1269              		.global	xTaskGetTickCount
 1270              		.syntax unified
 1271              		.thumb
 1272              		.thumb_func
 1274              	xTaskGetTickCount:
 1275              		@ args = 0, pretend = 0, frame = 0
 1276              		@ frame_needed = 0, uses_anonymous_args = 0
 1277              		@ link register save eliminated.
 1278 0000 014B     		ldr	r3, .L174
 1279 0002 1868     		ldr	r0, [r3]
 1280 0004 7047     		bx	lr
 1281              	.L175:
 1282 0006 00BF     		.align	2
 1283              	.L174:
 1284 0008 00000000 		.word	xTickCount
 1286              		.section	.text.xTaskGetTickCountFromISR,"ax",%progbits
 1287              		.align	1
 1288              		.global	xTaskGetTickCountFromISR
 1289              		.syntax unified
 1290              		.thumb
 1291              		.thumb_func
 1293              	xTaskGetTickCountFromISR:
 1294              		@ args = 0, pretend = 0, frame = 0
 1295              		@ frame_needed = 0, uses_anonymous_args = 0
 1296 0000 08B5     		push	{r3, lr}
ARM GAS  C:\Users\Rick\AppData\Local\Temp\ccHiTWuI.s 			page 23


 1297 0002 FFF7FEFF 		bl	vPortValidateInterruptPriority
 1298 0006 014B     		ldr	r3, .L178
 1299 0008 1868     		ldr	r0, [r3]
 1300 000a 08BD     		pop	{r3, pc}
 1301              	.L179:
 1302              		.align	2
 1303              	.L178:
 1304 000c 00000000 		.word	xTickCount
 1306              		.section	.text.uxTaskGetNumberOfTasks,"ax",%progbits
 1307              		.align	1
 1308              		.global	uxTaskGetNumberOfTasks
 1309              		.syntax unified
 1310              		.thumb
 1311              		.thumb_func
 1313              	uxTaskGetNumberOfTasks:
 1314              		@ args = 0, pretend = 0, frame = 0
 1315              		@ frame_needed = 0, uses_anonymous_args = 0
 1316              		@ link register save eliminated.
 1317 0000 014B     		ldr	r3, .L181
 1318 0002 1868     		ldr	r0, [r3]
 1319 0004 7047     		bx	lr
 1320              	.L182:
 1321 0006 00BF     		.align	2
 1322              	.L181:
 1323 0008 00000000 		.word	uxCurrentNumberOfTasks
 1325              		.section	.text.pcTaskGetName,"ax",%progbits
 1326              		.align	1
 1327              		.global	pcTaskGetName
 1328              		.syntax unified
 1329              		.thumb
 1330              		.thumb_func
 1332              	pcTaskGetName:
 1333              		@ args = 0, pretend = 0, frame = 0
 1334              		@ frame_needed = 0, uses_anonymous_args = 0
 1335              		@ link register save eliminated.
 1336 0000 0346     		mov	r3, r0
 1337 0002 10B1     		cbz	r0, .L186
 1338              	.L184:
 1339 0004 03F13400 		add	r0, r3, #52
 1340 0008 7047     		bx	lr
 1341              	.L186:
 1342 000a 064B     		ldr	r3, .L187
 1343 000c 1B68     		ldr	r3, [r3]
 1344 000e 002B     		cmp	r3, #0
 1345 0010 F8D1     		bne	.L184
 1346              		.syntax unified
 1347              	@ 195 "Middlewares/Third_Party/FreeRTOS/Source/portable/GCC/ARM_CM4F/portmacro.h" 1
 1348 0012 4FF05003 			mov r3, #80												
 1349 0016 83F31188 		msr basepri, r3											
 1350 001a BFF36F8F 		isb														
 1351 001e BFF34F8F 		dsb														
 1352              	
 1353              	@ 0 "" 2
 1354              		.thumb
 1355              		.syntax unified
 1356              	.L185:
 1357 0022 FEE7     		b	.L185
ARM GAS  C:\Users\Rick\AppData\Local\Temp\ccHiTWuI.s 			page 24


 1358              	.L188:
 1359              		.align	2
 1360              	.L187:
 1361 0024 00000000 		.word	pxCurrentTCB
 1363              		.section	.text.xTaskIncrementTick,"ax",%progbits
 1364              		.align	1
 1365              		.global	xTaskIncrementTick
 1366              		.syntax unified
 1367              		.thumb
 1368              		.thumb_func
 1370              	xTaskIncrementTick:
 1371              		@ args = 0, pretend = 0, frame = 0
 1372              		@ frame_needed = 0, uses_anonymous_args = 0
 1373 0000 F8B5     		push	{r3, r4, r5, r6, r7, lr}
 1374 0002 3A4B     		ldr	r3, .L210
 1375 0004 1B68     		ldr	r3, [r3]
 1376 0006 002B     		cmp	r3, #0
 1377 0008 69D1     		bne	.L190
 1378 000a 394B     		ldr	r3, .L210+4
 1379 000c 1D68     		ldr	r5, [r3]
 1380 000e 0135     		adds	r5, r5, #1
 1381 0010 1D60     		str	r5, [r3]
 1382 0012 C5B9     		cbnz	r5, .L191
 1383 0014 374B     		ldr	r3, .L210+8
 1384 0016 1B68     		ldr	r3, [r3]
 1385 0018 1B68     		ldr	r3, [r3]
 1386 001a 43B1     		cbz	r3, .L192
 1387              		.syntax unified
 1388              	@ 195 "Middlewares/Third_Party/FreeRTOS/Source/portable/GCC/ARM_CM4F/portmacro.h" 1
 1389 001c 4FF05003 			mov r3, #80												
 1390 0020 83F31188 		msr basepri, r3											
 1391 0024 BFF36F8F 		isb														
 1392 0028 BFF34F8F 		dsb														
 1393              	
 1394              	@ 0 "" 2
 1395              		.thumb
 1396              		.syntax unified
 1397              	.L193:
 1398 002c FEE7     		b	.L193
 1399              	.L192:
 1400 002e 314A     		ldr	r2, .L210+8
 1401 0030 1168     		ldr	r1, [r2]
 1402 0032 314B     		ldr	r3, .L210+12
 1403 0034 1868     		ldr	r0, [r3]
 1404 0036 1060     		str	r0, [r2]
 1405 0038 1960     		str	r1, [r3]
 1406 003a 304A     		ldr	r2, .L210+16
 1407 003c 1368     		ldr	r3, [r2]
 1408 003e 0133     		adds	r3, r3, #1
 1409 0040 1360     		str	r3, [r2]
 1410 0042 FFF7FEFF 		bl	prvResetNextTaskUnblockTime
 1411              	.L191:
 1412 0046 2E4B     		ldr	r3, .L210+20
 1413 0048 1B68     		ldr	r3, [r3]
 1414 004a AB42     		cmp	r3, r5
 1415 004c 3DD9     		bls	.L203
 1416 004e 0027     		movs	r7, #0
ARM GAS  C:\Users\Rick\AppData\Local\Temp\ccHiTWuI.s 			page 25


 1417              	.L195:
 1418 0050 2C4B     		ldr	r3, .L210+24
 1419 0052 1B68     		ldr	r3, [r3]
 1420 0054 DB6A     		ldr	r3, [r3, #44]
 1421 0056 03EB8303 		add	r3, r3, r3, lsl #2
 1422 005a 9A00     		lsls	r2, r3, #2
 1423 005c 2A4B     		ldr	r3, .L210+28
 1424 005e 9B58     		ldr	r3, [r3, r2]
 1425 0060 012B     		cmp	r3, #1
 1426 0062 00D9     		bls	.L201
 1427 0064 0127     		movs	r7, #1
 1428              	.L201:
 1429 0066 294B     		ldr	r3, .L210+32
 1430 0068 1B68     		ldr	r3, [r3]
 1431 006a 002B     		cmp	r3, #0
 1432 006c 3CD0     		beq	.L189
 1433 006e 0127     		movs	r7, #1
 1434 0070 3AE0     		b	.L189
 1435              	.L204:
 1436 0072 0127     		movs	r7, #1
 1437              	.L194:
 1438 0074 1F4B     		ldr	r3, .L210+8
 1439 0076 1B68     		ldr	r3, [r3]
 1440 0078 1B68     		ldr	r3, [r3]
 1441 007a 43B3     		cbz	r3, .L208
 1442 007c 1D4B     		ldr	r3, .L210+8
 1443 007e 1B68     		ldr	r3, [r3]
 1444 0080 DB68     		ldr	r3, [r3, #12]
 1445 0082 DC68     		ldr	r4, [r3, #12]
 1446 0084 6368     		ldr	r3, [r4, #4]
 1447 0086 9D42     		cmp	r5, r3
 1448 0088 26D3     		bcc	.L209
 1449 008a 261D     		adds	r6, r4, #4
 1450 008c 3046     		mov	r0, r6
 1451 008e FFF7FEFF 		bl	uxListRemove
 1452 0092 A36A     		ldr	r3, [r4, #40]
 1453 0094 1BB1     		cbz	r3, .L198
 1454 0096 04F11800 		add	r0, r4, #24
 1455 009a FFF7FEFF 		bl	uxListRemove
 1456              	.L198:
 1457 009e E36A     		ldr	r3, [r4, #44]
 1458 00a0 0122     		movs	r2, #1
 1459 00a2 9A40     		lsls	r2, r2, r3
 1460 00a4 1A49     		ldr	r1, .L210+36
 1461 00a6 0868     		ldr	r0, [r1]
 1462 00a8 0243     		orrs	r2, r2, r0
 1463 00aa 0A60     		str	r2, [r1]
 1464 00ac 03EB8303 		add	r3, r3, r3, lsl #2
 1465 00b0 9A00     		lsls	r2, r3, #2
 1466 00b2 3146     		mov	r1, r6
 1467 00b4 1448     		ldr	r0, .L210+28
 1468 00b6 1044     		add	r0, r0, r2
 1469 00b8 FFF7FEFF 		bl	vListInsertEnd
 1470 00bc E26A     		ldr	r2, [r4, #44]
 1471 00be 114B     		ldr	r3, .L210+24
 1472 00c0 1B68     		ldr	r3, [r3]
 1473 00c2 DB6A     		ldr	r3, [r3, #44]
ARM GAS  C:\Users\Rick\AppData\Local\Temp\ccHiTWuI.s 			page 26


 1474 00c4 9A42     		cmp	r2, r3
 1475 00c6 D4D2     		bcs	.L204
 1476 00c8 D4E7     		b	.L194
 1477              	.L203:
 1478 00ca 0027     		movs	r7, #0
 1479 00cc D2E7     		b	.L194
 1480              	.L208:
 1481 00ce 0C4B     		ldr	r3, .L210+20
 1482 00d0 4FF0FF32 		mov	r2, #-1
 1483 00d4 1A60     		str	r2, [r3]
 1484 00d6 BBE7     		b	.L195
 1485              	.L209:
 1486 00d8 094A     		ldr	r2, .L210+20
 1487 00da 1360     		str	r3, [r2]
 1488 00dc B8E7     		b	.L195
 1489              	.L190:
 1490 00de 0D4A     		ldr	r2, .L210+40
 1491 00e0 1368     		ldr	r3, [r2]
 1492 00e2 0133     		adds	r3, r3, #1
 1493 00e4 1360     		str	r3, [r2]
 1494 00e6 0027     		movs	r7, #0
 1495              	.L189:
 1496 00e8 3846     		mov	r0, r7
 1497 00ea F8BD     		pop	{r3, r4, r5, r6, r7, pc}
 1498              	.L211:
 1499              		.align	2
 1500              	.L210:
 1501 00ec 00000000 		.word	uxSchedulerSuspended
 1502 00f0 00000000 		.word	xTickCount
 1503 00f4 00000000 		.word	pxDelayedTaskList
 1504 00f8 00000000 		.word	pxOverflowDelayedTaskList
 1505 00fc 00000000 		.word	xNumOfOverflows
 1506 0100 00000000 		.word	xNextTaskUnblockTime
 1507 0104 00000000 		.word	pxCurrentTCB
 1508 0108 00000000 		.word	pxReadyTasksLists
 1509 010c 00000000 		.word	xYieldPending
 1510 0110 00000000 		.word	uxTopReadyPriority
 1511 0114 00000000 		.word	xPendedTicks
 1513              		.section	.text.xTaskResumeAll,"ax",%progbits
 1514              		.align	1
 1515              		.global	xTaskResumeAll
 1516              		.syntax unified
 1517              		.thumb
 1518              		.thumb_func
 1520              	xTaskResumeAll:
 1521              		@ args = 0, pretend = 0, frame = 0
 1522              		@ frame_needed = 0, uses_anonymous_args = 0
 1523 0000 38B5     		push	{r3, r4, r5, lr}
 1524 0002 354B     		ldr	r3, .L228
 1525 0004 1B68     		ldr	r3, [r3]
 1526 0006 43B9     		cbnz	r3, .L213
 1527              		.syntax unified
 1528              	@ 195 "Middlewares/Third_Party/FreeRTOS/Source/portable/GCC/ARM_CM4F/portmacro.h" 1
 1529 0008 4FF05003 			mov r3, #80												
 1530 000c 83F31188 		msr basepri, r3											
 1531 0010 BFF36F8F 		isb														
 1532 0014 BFF34F8F 		dsb														
ARM GAS  C:\Users\Rick\AppData\Local\Temp\ccHiTWuI.s 			page 27


 1533              	
 1534              	@ 0 "" 2
 1535              		.thumb
 1536              		.syntax unified
 1537              	.L214:
 1538 0018 FEE7     		b	.L214
 1539              	.L213:
 1540 001a FFF7FEFF 		bl	vPortEnterCritical
 1541 001e 2E4B     		ldr	r3, .L228
 1542 0020 1A68     		ldr	r2, [r3]
 1543 0022 013A     		subs	r2, r2, #1
 1544 0024 1A60     		str	r2, [r3]
 1545 0026 1B68     		ldr	r3, [r3]
 1546 0028 002B     		cmp	r3, #0
 1547 002a 4FD1     		bne	.L223
 1548 002c 2B4B     		ldr	r3, .L228+4
 1549 002e 1B68     		ldr	r3, [r3]
 1550 0030 0BB9     		cbnz	r3, .L224
 1551 0032 0024     		movs	r4, #0
 1552 0034 4BE0     		b	.L215
 1553              	.L224:
 1554 0036 0024     		movs	r4, #0
 1555              	.L216:
 1556 0038 294B     		ldr	r3, .L228+8
 1557 003a 1B68     		ldr	r3, [r3]
 1558 003c 1BB3     		cbz	r3, .L226
 1559 003e 284B     		ldr	r3, .L228+8
 1560 0040 DB68     		ldr	r3, [r3, #12]
 1561 0042 DC68     		ldr	r4, [r3, #12]
 1562 0044 04F11800 		add	r0, r4, #24
 1563 0048 FFF7FEFF 		bl	uxListRemove
 1564 004c 251D     		adds	r5, r4, #4
 1565 004e 2846     		mov	r0, r5
 1566 0050 FFF7FEFF 		bl	uxListRemove
 1567 0054 E06A     		ldr	r0, [r4, #44]
 1568 0056 0123     		movs	r3, #1
 1569 0058 8340     		lsls	r3, r3, r0
 1570 005a 224A     		ldr	r2, .L228+12
 1571 005c 1168     		ldr	r1, [r2]
 1572 005e 0B43     		orrs	r3, r3, r1
 1573 0060 1360     		str	r3, [r2]
 1574 0062 00EB8000 		add	r0, r0, r0, lsl #2
 1575 0066 2946     		mov	r1, r5
 1576 0068 1F4B     		ldr	r3, .L228+16
 1577 006a 03EB8000 		add	r0, r3, r0, lsl #2
 1578 006e FFF7FEFF 		bl	vListInsertEnd
 1579 0072 E26A     		ldr	r2, [r4, #44]
 1580 0074 1D4B     		ldr	r3, .L228+20
 1581 0076 1B68     		ldr	r3, [r3]
 1582 0078 DB6A     		ldr	r3, [r3, #44]
 1583 007a 9A42     		cmp	r2, r3
 1584 007c DCD3     		bcc	.L216
 1585 007e 1C4B     		ldr	r3, .L228+24
 1586 0080 0122     		movs	r2, #1
 1587 0082 1A60     		str	r2, [r3]
 1588 0084 D8E7     		b	.L216
 1589              	.L226:
ARM GAS  C:\Users\Rick\AppData\Local\Temp\ccHiTWuI.s 			page 28


 1590 0086 0CB1     		cbz	r4, .L219
 1591 0088 FFF7FEFF 		bl	prvResetNextTaskUnblockTime
 1592              	.L219:
 1593 008c 194B     		ldr	r3, .L228+28
 1594 008e 1C68     		ldr	r4, [r3]
 1595 0090 84B9     		cbnz	r4, .L222
 1596              	.L220:
 1597 0092 174B     		ldr	r3, .L228+24
 1598 0094 1C68     		ldr	r4, [r3]
 1599 0096 D4B1     		cbz	r4, .L215
 1600 0098 4FF0E023 		mov	r3, #-536813568
 1601 009c 4FF08052 		mov	r2, #268435456
 1602 00a0 C3F8042D 		str	r2, [r3, #3332]
 1603              		.syntax unified
 1604              	@ 2285 "Middlewares/Third_Party/FreeRTOS/Source/tasks.c" 1
 1605 00a4 BFF34F8F 		dsb
 1606              	@ 0 "" 2
 1607              	@ 2285 "Middlewares/Third_Party/FreeRTOS/Source/tasks.c" 1
 1608 00a8 BFF36F8F 		isb
 1609              	@ 0 "" 2
 1610              		.thumb
 1611              		.syntax unified
 1612 00ac 0124     		movs	r4, #1
 1613 00ae 0EE0     		b	.L215
 1614              	.L221:
 1615 00b0 013C     		subs	r4, r4, #1
 1616 00b2 07D0     		beq	.L227
 1617              	.L222:
 1618 00b4 FFF7FEFF 		bl	xTaskIncrementTick
 1619 00b8 0028     		cmp	r0, #0
 1620 00ba F9D0     		beq	.L221
 1621 00bc 0C4B     		ldr	r3, .L228+24
 1622 00be 0122     		movs	r2, #1
 1623 00c0 1A60     		str	r2, [r3]
 1624 00c2 F5E7     		b	.L221
 1625              	.L227:
 1626 00c4 0B4B     		ldr	r3, .L228+28
 1627 00c6 0022     		movs	r2, #0
 1628 00c8 1A60     		str	r2, [r3]
 1629 00ca E2E7     		b	.L220
 1630              	.L223:
 1631 00cc 0024     		movs	r4, #0
 1632              	.L215:
 1633 00ce FFF7FEFF 		bl	vPortExitCritical
 1634 00d2 2046     		mov	r0, r4
 1635 00d4 38BD     		pop	{r3, r4, r5, pc}
 1636              	.L229:
 1637 00d6 00BF     		.align	2
 1638              	.L228:
 1639 00d8 00000000 		.word	uxSchedulerSuspended
 1640 00dc 00000000 		.word	uxCurrentNumberOfTasks
 1641 00e0 00000000 		.word	xPendingReadyList
 1642 00e4 00000000 		.word	uxTopReadyPriority
 1643 00e8 00000000 		.word	pxReadyTasksLists
 1644 00ec 00000000 		.word	pxCurrentTCB
 1645 00f0 00000000 		.word	xYieldPending
 1646 00f4 00000000 		.word	xPendedTicks
ARM GAS  C:\Users\Rick\AppData\Local\Temp\ccHiTWuI.s 			page 29


 1648              		.section	.text.vTaskDelay,"ax",%progbits
 1649              		.align	1
 1650              		.global	vTaskDelay
 1651              		.syntax unified
 1652              		.thumb
 1653              		.thumb_func
 1655              	vTaskDelay:
 1656              		@ args = 0, pretend = 0, frame = 0
 1657              		@ frame_needed = 0, uses_anonymous_args = 0
 1658 0000 10B5     		push	{r4, lr}
 1659 0002 A8B1     		cbz	r0, .L231
 1660 0004 0446     		mov	r4, r0
 1661 0006 104B     		ldr	r3, .L236
 1662 0008 1B68     		ldr	r3, [r3]
 1663 000a 43B1     		cbz	r3, .L232
 1664              		.syntax unified
 1665              	@ 195 "Middlewares/Third_Party/FreeRTOS/Source/portable/GCC/ARM_CM4F/portmacro.h" 1
 1666 000c 4FF05003 			mov r3, #80												
 1667 0010 83F31188 		msr basepri, r3											
 1668 0014 BFF36F8F 		isb														
 1669 0018 BFF34F8F 		dsb														
 1670              	
 1671              	@ 0 "" 2
 1672              		.thumb
 1673              		.syntax unified
 1674              	.L233:
 1675 001c FEE7     		b	.L233
 1676              	.L232:
 1677 001e FFF7FEFF 		bl	vTaskSuspendAll
 1678 0022 0021     		movs	r1, #0
 1679 0024 2046     		mov	r0, r4
 1680 0026 FFF7FEFF 		bl	prvAddCurrentTaskToDelayedList
 1681 002a FFF7FEFF 		bl	xTaskResumeAll
 1682 002e 48B9     		cbnz	r0, .L230
 1683              	.L231:
 1684 0030 4FF0E023 		mov	r3, #-536813568
 1685 0034 4FF08052 		mov	r2, #268435456
 1686 0038 C3F8042D 		str	r2, [r3, #3332]
 1687              		.syntax unified
 1688              	@ 1373 "Middlewares/Third_Party/FreeRTOS/Source/tasks.c" 1
 1689 003c BFF34F8F 		dsb
 1690              	@ 0 "" 2
 1691              	@ 1373 "Middlewares/Third_Party/FreeRTOS/Source/tasks.c" 1
 1692 0040 BFF36F8F 		isb
 1693              	@ 0 "" 2
 1694              		.thumb
 1695              		.syntax unified
 1696              	.L230:
 1697 0044 10BD     		pop	{r4, pc}
 1698              	.L237:
 1699 0046 00BF     		.align	2
 1700              	.L236:
 1701 0048 00000000 		.word	uxSchedulerSuspended
 1703              		.section	.text.xTaskCatchUpTicks,"ax",%progbits
 1704              		.align	1
 1705              		.global	xTaskCatchUpTicks
 1706              		.syntax unified
ARM GAS  C:\Users\Rick\AppData\Local\Temp\ccHiTWuI.s 			page 30


 1707              		.thumb
 1708              		.thumb_func
 1710              	xTaskCatchUpTicks:
 1711              		@ args = 0, pretend = 0, frame = 0
 1712              		@ frame_needed = 0, uses_anonymous_args = 0
 1713 0000 0B4B     		ldr	r3, .L243
 1714 0002 1B68     		ldr	r3, [r3]
 1715 0004 43B1     		cbz	r3, .L239
 1716              		.syntax unified
 1717              	@ 195 "Middlewares/Third_Party/FreeRTOS/Source/portable/GCC/ARM_CM4F/portmacro.h" 1
 1718 0006 4FF05003 			mov r3, #80												
 1719 000a 83F31188 		msr basepri, r3											
 1720 000e BFF36F8F 		isb														
 1721 0012 BFF34F8F 		dsb														
 1722              	
 1723              	@ 0 "" 2
 1724              		.thumb
 1725              		.syntax unified
 1726              	.L240:
 1727 0016 FEE7     		b	.L240
 1728              	.L239:
 1729 0018 10B5     		push	{r4, lr}
 1730 001a 0446     		mov	r4, r0
 1731 001c FFF7FEFF 		bl	vTaskSuspendAll
 1732 0020 044A     		ldr	r2, .L243+4
 1733 0022 1368     		ldr	r3, [r2]
 1734 0024 2344     		add	r3, r3, r4
 1735 0026 1360     		str	r3, [r2]
 1736 0028 FFF7FEFF 		bl	xTaskResumeAll
 1737 002c 10BD     		pop	{r4, pc}
 1738              	.L244:
 1739 002e 00BF     		.align	2
 1740              	.L243:
 1741 0030 00000000 		.word	uxSchedulerSuspended
 1742 0034 00000000 		.word	xPendedTicks
 1744              		.section	.text.vTaskSwitchContext,"ax",%progbits
 1745              		.align	1
 1746              		.global	vTaskSwitchContext
 1747              		.syntax unified
 1748              		.thumb
 1749              		.thumb_func
 1751              	vTaskSwitchContext:
 1752              		@ args = 0, pretend = 0, frame = 0
 1753              		@ frame_needed = 0, uses_anonymous_args = 0
 1754              		@ link register save eliminated.
 1755 0000 204B     		ldr	r3, .L252
 1756 0002 1B68     		ldr	r3, [r3]
 1757 0004 1BB1     		cbz	r3, .L246
 1758 0006 204B     		ldr	r3, .L252+4
 1759 0008 0122     		movs	r2, #1
 1760 000a 1A60     		str	r2, [r3]
 1761 000c 7047     		bx	lr
 1762              	.L246:
 1763 000e 1E4B     		ldr	r3, .L252+4
 1764 0010 0022     		movs	r2, #0
 1765 0012 1A60     		str	r2, [r3]
 1766 0014 1D4B     		ldr	r3, .L252+8
ARM GAS  C:\Users\Rick\AppData\Local\Temp\ccHiTWuI.s 			page 31


 1767 0016 1B68     		ldr	r3, [r3]
 1768              		.syntax unified
 1769              	@ 134 "Middlewares/Third_Party/FreeRTOS/Source/portable/GCC/ARM_CM4F/portmacro.h" 1
 1770 0018 B3FA83F3 		clz r3, r3
 1771              	@ 0 "" 2
 1772              		.thumb
 1773              		.syntax unified
 1774 001c DBB2     		uxtb	r3, r3
 1775 001e C3F11F03 		rsb	r3, r3, #31
 1776 0022 03EB8301 		add	r1, r3, r3, lsl #2
 1777 0026 8A00     		lsls	r2, r1, #2
 1778 0028 1949     		ldr	r1, .L252+12
 1779 002a 8A58     		ldr	r2, [r1, r2]
 1780 002c 42B9     		cbnz	r2, .L248
 1781              		.syntax unified
 1782              	@ 195 "Middlewares/Third_Party/FreeRTOS/Source/portable/GCC/ARM_CM4F/portmacro.h" 1
 1783 002e 4FF05003 			mov r3, #80												
 1784 0032 83F31188 		msr basepri, r3											
 1785 0036 BFF36F8F 		isb														
 1786 003a BFF34F8F 		dsb														
 1787              	
 1788              	@ 0 "" 2
 1789              		.thumb
 1790              		.syntax unified
 1791              	.L249:
 1792 003e FEE7     		b	.L249
 1793              	.L248:
 1794 0040 1348     		ldr	r0, .L252+12
 1795 0042 03EB8301 		add	r1, r3, r3, lsl #2
 1796 0046 8A00     		lsls	r2, r1, #2
 1797 0048 0244     		add	r2, r2, r0
 1798 004a 5168     		ldr	r1, [r2, #4]
 1799 004c 4968     		ldr	r1, [r1, #4]
 1800 004e 5160     		str	r1, [r2, #4]
 1801 0050 03EB830C 		add	ip, r3, r3, lsl #2
 1802 0054 4FEA8C02 		lsl	r2, ip, #2
 1803 0058 0832     		adds	r2, r2, #8
 1804 005a 0244     		add	r2, r2, r0
 1805 005c 9142     		cmp	r1, r2
 1806 005e 09D0     		beq	.L251
 1807              	.L250:
 1808 0060 03EB8303 		add	r3, r3, r3, lsl #2
 1809 0064 9A00     		lsls	r2, r3, #2
 1810 0066 0A4B     		ldr	r3, .L252+12
 1811 0068 1344     		add	r3, r3, r2
 1812 006a 5B68     		ldr	r3, [r3, #4]
 1813 006c DA68     		ldr	r2, [r3, #12]
 1814 006e 094B     		ldr	r3, .L252+16
 1815 0070 1A60     		str	r2, [r3]
 1816 0072 7047     		bx	lr
 1817              	.L251:
 1818 0074 4868     		ldr	r0, [r1, #4]
 1819 0076 6246     		mov	r2, ip
 1820 0078 9100     		lsls	r1, r2, #2
 1821 007a 054A     		ldr	r2, .L252+12
 1822 007c 0A44     		add	r2, r2, r1
 1823 007e 5060     		str	r0, [r2, #4]
ARM GAS  C:\Users\Rick\AppData\Local\Temp\ccHiTWuI.s 			page 32


 1824 0080 EEE7     		b	.L250
 1825              	.L253:
 1826 0082 00BF     		.align	2
 1827              	.L252:
 1828 0084 00000000 		.word	uxSchedulerSuspended
 1829 0088 00000000 		.word	xYieldPending
 1830 008c 00000000 		.word	uxTopReadyPriority
 1831 0090 00000000 		.word	pxReadyTasksLists
 1832 0094 00000000 		.word	pxCurrentTCB
 1834              		.section	.text.vTaskSuspend,"ax",%progbits
 1835              		.align	1
 1836              		.global	vTaskSuspend
 1837              		.syntax unified
 1838              		.thumb
 1839              		.thumb_func
 1841              	vTaskSuspend:
 1842              		@ args = 0, pretend = 0, frame = 0
 1843              		@ frame_needed = 0, uses_anonymous_args = 0
 1844 0000 38B5     		push	{r3, r4, r5, lr}
 1845 0002 0446     		mov	r4, r0
 1846 0004 FFF7FEFF 		bl	vPortEnterCritical
 1847 0008 5CB3     		cbz	r4, .L266
 1848              	.L255:
 1849 000a 251D     		adds	r5, r4, #4
 1850 000c 2846     		mov	r0, r5
 1851 000e FFF7FEFF 		bl	uxListRemove
 1852 0012 70B9     		cbnz	r0, .L256
 1853 0014 E26A     		ldr	r2, [r4, #44]
 1854 0016 02EB8203 		add	r3, r2, r2, lsl #2
 1855 001a 9B00     		lsls	r3, r3, #2
 1856 001c 2B49     		ldr	r1, .L270
 1857 001e CB58     		ldr	r3, [r1, r3]
 1858 0020 3BB9     		cbnz	r3, .L256
 1859 0022 0123     		movs	r3, #1
 1860 0024 03FA02F2 		lsl	r2, r3, r2
 1861 0028 2949     		ldr	r1, .L270+4
 1862 002a 0B68     		ldr	r3, [r1]
 1863 002c 23EA0203 		bic	r3, r3, r2
 1864 0030 0B60     		str	r3, [r1]
 1865              	.L256:
 1866 0032 A36A     		ldr	r3, [r4, #40]
 1867 0034 1BB1     		cbz	r3, .L257
 1868 0036 04F11800 		add	r0, r4, #24
 1869 003a FFF7FEFF 		bl	uxListRemove
 1870              	.L257:
 1871 003e 2946     		mov	r1, r5
 1872 0040 2448     		ldr	r0, .L270+8
 1873 0042 FFF7FEFF 		bl	vListInsertEnd
 1874 0046 94F85030 		ldrb	r3, [r4, #80]	@ zero_extendqisi2
 1875 004a 012B     		cmp	r3, #1
 1876 004c 0CD0     		beq	.L267
 1877              	.L258:
 1878 004e FFF7FEFF 		bl	vPortExitCritical
 1879 0052 214B     		ldr	r3, .L270+12
 1880 0054 1B68     		ldr	r3, [r3]
 1881 0056 5BB9     		cbnz	r3, .L268
 1882              	.L259:
ARM GAS  C:\Users\Rick\AppData\Local\Temp\ccHiTWuI.s 			page 33


 1883 0058 204B     		ldr	r3, .L270+16
 1884 005a 1B68     		ldr	r3, [r3]
 1885 005c A342     		cmp	r3, r4
 1886 005e 0ED0     		beq	.L269
 1887              	.L254:
 1888 0060 38BD     		pop	{r3, r4, r5, pc}
 1889              	.L266:
 1890 0062 1E4B     		ldr	r3, .L270+16
 1891 0064 1C68     		ldr	r4, [r3]
 1892 0066 D0E7     		b	.L255
 1893              	.L267:
 1894 0068 0023     		movs	r3, #0
 1895 006a 84F85030 		strb	r3, [r4, #80]
 1896 006e EEE7     		b	.L258
 1897              	.L268:
 1898 0070 FFF7FEFF 		bl	vPortEnterCritical
 1899 0074 FFF7FEFF 		bl	prvResetNextTaskUnblockTime
 1900 0078 FFF7FEFF 		bl	vPortExitCritical
 1901 007c ECE7     		b	.L259
 1902              	.L269:
 1903 007e 164B     		ldr	r3, .L270+12
 1904 0080 1B68     		ldr	r3, [r3]
 1905 0082 B3B1     		cbz	r3, .L261
 1906 0084 164B     		ldr	r3, .L270+20
 1907 0086 1B68     		ldr	r3, [r3]
 1908 0088 43B1     		cbz	r3, .L262
 1909              		.syntax unified
 1910              	@ 195 "Middlewares/Third_Party/FreeRTOS/Source/portable/GCC/ARM_CM4F/portmacro.h" 1
 1911 008a 4FF05003 			mov r3, #80												
 1912 008e 83F31188 		msr basepri, r3											
 1913 0092 BFF36F8F 		isb														
 1914 0096 BFF34F8F 		dsb														
 1915              	
 1916              	@ 0 "" 2
 1917              		.thumb
 1918              		.syntax unified
 1919              	.L263:
 1920 009a FEE7     		b	.L263
 1921              	.L262:
 1922 009c 4FF0E023 		mov	r3, #-536813568
 1923 00a0 4FF08052 		mov	r2, #268435456
 1924 00a4 C3F8042D 		str	r2, [r3, #3332]
 1925              		.syntax unified
 1926              	@ 1773 "Middlewares/Third_Party/FreeRTOS/Source/tasks.c" 1
 1927 00a8 BFF34F8F 		dsb
 1928              	@ 0 "" 2
 1929              	@ 1773 "Middlewares/Third_Party/FreeRTOS/Source/tasks.c" 1
 1930 00ac BFF36F8F 		isb
 1931              	@ 0 "" 2
 1932              		.thumb
 1933              		.syntax unified
 1934 00b0 D6E7     		b	.L254
 1935              	.L261:
 1936 00b2 084B     		ldr	r3, .L270+8
 1937 00b4 1A68     		ldr	r2, [r3]
 1938 00b6 0B4B     		ldr	r3, .L270+24
 1939 00b8 1B68     		ldr	r3, [r3]
ARM GAS  C:\Users\Rick\AppData\Local\Temp\ccHiTWuI.s 			page 34


 1940 00ba 9A42     		cmp	r2, r3
 1941 00bc 03D1     		bne	.L264
 1942 00be 074B     		ldr	r3, .L270+16
 1943 00c0 0022     		movs	r2, #0
 1944 00c2 1A60     		str	r2, [r3]
 1945 00c4 CCE7     		b	.L254
 1946              	.L264:
 1947 00c6 FFF7FEFF 		bl	vTaskSwitchContext
 1948 00ca C9E7     		b	.L254
 1949              	.L271:
 1950              		.align	2
 1951              	.L270:
 1952 00cc 00000000 		.word	pxReadyTasksLists
 1953 00d0 00000000 		.word	uxTopReadyPriority
 1954 00d4 00000000 		.word	xSuspendedTaskList
 1955 00d8 00000000 		.word	xSchedulerRunning
 1956 00dc 00000000 		.word	pxCurrentTCB
 1957 00e0 00000000 		.word	uxSchedulerSuspended
 1958 00e4 00000000 		.word	uxCurrentNumberOfTasks
 1960              		.section	.text.vTaskPlaceOnEventList,"ax",%progbits
 1961              		.align	1
 1962              		.global	vTaskPlaceOnEventList
 1963              		.syntax unified
 1964              		.thumb
 1965              		.thumb_func
 1967              	vTaskPlaceOnEventList:
 1968              		@ args = 0, pretend = 0, frame = 0
 1969              		@ frame_needed = 0, uses_anonymous_args = 0
 1970 0000 58B1     		cbz	r0, .L277
 1971 0002 10B5     		push	{r4, lr}
 1972 0004 0C46     		mov	r4, r1
 1973 0006 094A     		ldr	r2, .L278
 1974 0008 1168     		ldr	r1, [r2]
 1975 000a 1831     		adds	r1, r1, #24
 1976 000c FFF7FEFF 		bl	vListInsert
 1977 0010 0121     		movs	r1, #1
 1978 0012 2046     		mov	r0, r4
 1979 0014 FFF7FEFF 		bl	prvAddCurrentTaskToDelayedList
 1980 0018 10BD     		pop	{r4, pc}
 1981              	.L277:
 1982              		.syntax unified
 1983              	@ 195 "Middlewares/Third_Party/FreeRTOS/Source/portable/GCC/ARM_CM4F/portmacro.h" 1
 1984 001a 4FF05003 			mov r3, #80												
 1985 001e 83F31188 		msr basepri, r3											
 1986 0022 BFF36F8F 		isb														
 1987 0026 BFF34F8F 		dsb														
 1988              	
 1989              	@ 0 "" 2
 1990              		.thumb
 1991              		.syntax unified
 1992              	.L274:
 1993 002a FEE7     		b	.L274
 1994              	.L279:
 1995              		.align	2
 1996              	.L278:
 1997 002c 00000000 		.word	pxCurrentTCB
 1999              		.section	.text.vTaskPlaceOnUnorderedEventList,"ax",%progbits
ARM GAS  C:\Users\Rick\AppData\Local\Temp\ccHiTWuI.s 			page 35


 2000              		.align	1
 2001              		.global	vTaskPlaceOnUnorderedEventList
 2002              		.syntax unified
 2003              		.thumb
 2004              		.thumb_func
 2006              	vTaskPlaceOnUnorderedEventList:
 2007              		@ args = 0, pretend = 0, frame = 0
 2008              		@ frame_needed = 0, uses_anonymous_args = 0
 2009 0000 70B1     		cbz	r0, .L287
 2010 0002 10B5     		push	{r4, lr}
 2011 0004 1446     		mov	r4, r2
 2012 0006 0246     		mov	r2, r0
 2013 0008 114B     		ldr	r3, .L288
 2014 000a 1B68     		ldr	r3, [r3]
 2015 000c 8BB9     		cbnz	r3, .L283
 2016              		.syntax unified
 2017              	@ 195 "Middlewares/Third_Party/FreeRTOS/Source/portable/GCC/ARM_CM4F/portmacro.h" 1
 2018 000e 4FF05003 			mov r3, #80												
 2019 0012 83F31188 		msr basepri, r3											
 2020 0016 BFF36F8F 		isb														
 2021 001a BFF34F8F 		dsb														
 2022              	
 2023              	@ 0 "" 2
 2024              		.thumb
 2025              		.syntax unified
 2026              	.L284:
 2027 001e FEE7     		b	.L284
 2028              	.L287:
 2029              		.syntax unified
 2030              	@ 195 "Middlewares/Third_Party/FreeRTOS/Source/portable/GCC/ARM_CM4F/portmacro.h" 1
 2031 0020 4FF05003 			mov r3, #80												
 2032 0024 83F31188 		msr basepri, r3											
 2033 0028 BFF36F8F 		isb														
 2034 002c BFF34F8F 		dsb														
 2035              	
 2036              	@ 0 "" 2
 2037              		.thumb
 2038              		.syntax unified
 2039              	.L282:
 2040 0030 FEE7     		b	.L282
 2041              	.L283:
 2042 0032 084B     		ldr	r3, .L288+4
 2043 0034 1868     		ldr	r0, [r3]
 2044 0036 41F00041 		orr	r1, r1, #-2147483648
 2045 003a 8161     		str	r1, [r0, #24]
 2046 003c 1968     		ldr	r1, [r3]
 2047 003e 1831     		adds	r1, r1, #24
 2048 0040 1046     		mov	r0, r2
 2049 0042 FFF7FEFF 		bl	vListInsertEnd
 2050 0046 0121     		movs	r1, #1
 2051 0048 2046     		mov	r0, r4
 2052 004a FFF7FEFF 		bl	prvAddCurrentTaskToDelayedList
 2053 004e 10BD     		pop	{r4, pc}
 2054              	.L289:
 2055              		.align	2
 2056              	.L288:
 2057 0050 00000000 		.word	uxSchedulerSuspended
ARM GAS  C:\Users\Rick\AppData\Local\Temp\ccHiTWuI.s 			page 36


 2058 0054 00000000 		.word	pxCurrentTCB
 2060              		.section	.text.xTaskRemoveFromEventList,"ax",%progbits
 2061              		.align	1
 2062              		.global	xTaskRemoveFromEventList
 2063              		.syntax unified
 2064              		.thumb
 2065              		.thumb_func
 2067              	xTaskRemoveFromEventList:
 2068              		@ args = 0, pretend = 0, frame = 0
 2069              		@ frame_needed = 0, uses_anonymous_args = 0
 2070 0000 38B5     		push	{r3, r4, r5, lr}
 2071 0002 C368     		ldr	r3, [r0, #12]
 2072 0004 DC68     		ldr	r4, [r3, #12]
 2073 0006 24B3     		cbz	r4, .L298
 2074 0008 04F11805 		add	r5, r4, #24
 2075 000c 2846     		mov	r0, r5
 2076 000e FFF7FEFF 		bl	uxListRemove
 2077 0012 184B     		ldr	r3, .L299
 2078 0014 1B68     		ldr	r3, [r3]
 2079 0016 2BBB     		cbnz	r3, .L293
 2080 0018 251D     		adds	r5, r4, #4
 2081 001a 2846     		mov	r0, r5
 2082 001c FFF7FEFF 		bl	uxListRemove
 2083 0020 E06A     		ldr	r0, [r4, #44]
 2084 0022 0123     		movs	r3, #1
 2085 0024 8340     		lsls	r3, r3, r0
 2086 0026 144A     		ldr	r2, .L299+4
 2087 0028 1168     		ldr	r1, [r2]
 2088 002a 0B43     		orrs	r3, r3, r1
 2089 002c 1360     		str	r3, [r2]
 2090 002e 00EB8000 		add	r0, r0, r0, lsl #2
 2091 0032 2946     		mov	r1, r5
 2092 0034 114B     		ldr	r3, .L299+8
 2093 0036 03EB8000 		add	r0, r3, r0, lsl #2
 2094 003a FFF7FEFF 		bl	vListInsertEnd
 2095              	.L294:
 2096 003e E26A     		ldr	r2, [r4, #44]
 2097 0040 0F4B     		ldr	r3, .L299+12
 2098 0042 1B68     		ldr	r3, [r3]
 2099 0044 DB6A     		ldr	r3, [r3, #44]
 2100 0046 9A42     		cmp	r2, r3
 2101 0048 11D9     		bls	.L296
 2102 004a 0120     		movs	r0, #1
 2103 004c 0D4B     		ldr	r3, .L299+16
 2104 004e 1860     		str	r0, [r3]
 2105              	.L290:
 2106 0050 38BD     		pop	{r3, r4, r5, pc}
 2107              	.L298:
 2108              		.syntax unified
 2109              	@ 195 "Middlewares/Third_Party/FreeRTOS/Source/portable/GCC/ARM_CM4F/portmacro.h" 1
 2110 0052 4FF05003 			mov r3, #80												
 2111 0056 83F31188 		msr basepri, r3											
 2112 005a BFF36F8F 		isb														
 2113 005e BFF34F8F 		dsb														
 2114              	
 2115              	@ 0 "" 2
 2116              		.thumb
ARM GAS  C:\Users\Rick\AppData\Local\Temp\ccHiTWuI.s 			page 37


 2117              		.syntax unified
 2118              	.L292:
 2119 0062 FEE7     		b	.L292
 2120              	.L293:
 2121 0064 2946     		mov	r1, r5
 2122 0066 0848     		ldr	r0, .L299+20
 2123 0068 FFF7FEFF 		bl	vListInsertEnd
 2124 006c E7E7     		b	.L294
 2125              	.L296:
 2126 006e 0020     		movs	r0, #0
 2127 0070 EEE7     		b	.L290
 2128              	.L300:
 2129 0072 00BF     		.align	2
 2130              	.L299:
 2131 0074 00000000 		.word	uxSchedulerSuspended
 2132 0078 00000000 		.word	uxTopReadyPriority
 2133 007c 00000000 		.word	pxReadyTasksLists
 2134 0080 00000000 		.word	pxCurrentTCB
 2135 0084 00000000 		.word	xYieldPending
 2136 0088 00000000 		.word	xPendingReadyList
 2138              		.section	.text.vTaskRemoveFromUnorderedEventList,"ax",%progbits
 2139              		.align	1
 2140              		.global	vTaskRemoveFromUnorderedEventList
 2141              		.syntax unified
 2142              		.thumb
 2143              		.thumb_func
 2145              	vTaskRemoveFromUnorderedEventList:
 2146              		@ args = 0, pretend = 0, frame = 0
 2147              		@ frame_needed = 0, uses_anonymous_args = 0
 2148 0000 38B5     		push	{r3, r4, r5, lr}
 2149 0002 1C4B     		ldr	r3, .L309
 2150 0004 1B68     		ldr	r3, [r3]
 2151 0006 43B9     		cbnz	r3, .L302
 2152              		.syntax unified
 2153              	@ 195 "Middlewares/Third_Party/FreeRTOS/Source/portable/GCC/ARM_CM4F/portmacro.h" 1
 2154 0008 4FF05003 			mov r3, #80												
 2155 000c 83F31188 		msr basepri, r3											
 2156 0010 BFF36F8F 		isb														
 2157 0014 BFF34F8F 		dsb														
 2158              	
 2159              	@ 0 "" 2
 2160              		.thumb
 2161              		.syntax unified
 2162              	.L303:
 2163 0018 FEE7     		b	.L303
 2164              	.L302:
 2165 001a 41F00041 		orr	r1, r1, #-2147483648
 2166 001e 0160     		str	r1, [r0]
 2167 0020 C468     		ldr	r4, [r0, #12]
 2168 0022 F4B1     		cbz	r4, .L308
 2169 0024 FFF7FEFF 		bl	uxListRemove
 2170 0028 251D     		adds	r5, r4, #4
 2171 002a 2846     		mov	r0, r5
 2172 002c FFF7FEFF 		bl	uxListRemove
 2173 0030 E06A     		ldr	r0, [r4, #44]
 2174 0032 0123     		movs	r3, #1
 2175 0034 8340     		lsls	r3, r3, r0
ARM GAS  C:\Users\Rick\AppData\Local\Temp\ccHiTWuI.s 			page 38


 2176 0036 104A     		ldr	r2, .L309+4
 2177 0038 1168     		ldr	r1, [r2]
 2178 003a 0B43     		orrs	r3, r3, r1
 2179 003c 1360     		str	r3, [r2]
 2180 003e 00EB8000 		add	r0, r0, r0, lsl #2
 2181 0042 2946     		mov	r1, r5
 2182 0044 0D4B     		ldr	r3, .L309+8
 2183 0046 03EB8000 		add	r0, r3, r0, lsl #2
 2184 004a FFF7FEFF 		bl	vListInsertEnd
 2185 004e E26A     		ldr	r2, [r4, #44]
 2186 0050 0B4B     		ldr	r3, .L309+12
 2187 0052 1B68     		ldr	r3, [r3]
 2188 0054 DB6A     		ldr	r3, [r3, #44]
 2189 0056 9A42     		cmp	r2, r3
 2190 0058 02D9     		bls	.L301
 2191 005a 0A4B     		ldr	r3, .L309+16
 2192 005c 0122     		movs	r2, #1
 2193 005e 1A60     		str	r2, [r3]
 2194              	.L301:
 2195 0060 38BD     		pop	{r3, r4, r5, pc}
 2196              	.L308:
 2197              		.syntax unified
 2198              	@ 195 "Middlewares/Third_Party/FreeRTOS/Source/portable/GCC/ARM_CM4F/portmacro.h" 1
 2199 0062 4FF05003 			mov r3, #80												
 2200 0066 83F31188 		msr basepri, r3											
 2201 006a BFF36F8F 		isb														
 2202 006e BFF34F8F 		dsb														
 2203              	
 2204              	@ 0 "" 2
 2205              		.thumb
 2206              		.syntax unified
 2207              	.L305:
 2208 0072 FEE7     		b	.L305
 2209              	.L310:
 2210              		.align	2
 2211              	.L309:
 2212 0074 00000000 		.word	uxSchedulerSuspended
 2213 0078 00000000 		.word	uxTopReadyPriority
 2214 007c 00000000 		.word	pxReadyTasksLists
 2215 0080 00000000 		.word	pxCurrentTCB
 2216 0084 00000000 		.word	xYieldPending
 2218              		.section	.text.vTaskSetTimeOutState,"ax",%progbits
 2219              		.align	1
 2220              		.global	vTaskSetTimeOutState
 2221              		.syntax unified
 2222              		.thumb
 2223              		.thumb_func
 2225              	vTaskSetTimeOutState:
 2226              		@ args = 0, pretend = 0, frame = 0
 2227              		@ frame_needed = 0, uses_anonymous_args = 0
 2228 0000 60B1     		cbz	r0, .L316
 2229 0002 10B5     		push	{r4, lr}
 2230 0004 0446     		mov	r4, r0
 2231 0006 FFF7FEFF 		bl	vPortEnterCritical
 2232 000a 094B     		ldr	r3, .L317
 2233 000c 1B68     		ldr	r3, [r3]
 2234 000e 2360     		str	r3, [r4]
ARM GAS  C:\Users\Rick\AppData\Local\Temp\ccHiTWuI.s 			page 39


 2235 0010 084B     		ldr	r3, .L317+4
 2236 0012 1B68     		ldr	r3, [r3]
 2237 0014 6360     		str	r3, [r4, #4]
 2238 0016 FFF7FEFF 		bl	vPortExitCritical
 2239 001a 10BD     		pop	{r4, pc}
 2240              	.L316:
 2241              		.syntax unified
 2242              	@ 195 "Middlewares/Third_Party/FreeRTOS/Source/portable/GCC/ARM_CM4F/portmacro.h" 1
 2243 001c 4FF05003 			mov r3, #80												
 2244 0020 83F31188 		msr basepri, r3											
 2245 0024 BFF36F8F 		isb														
 2246 0028 BFF34F8F 		dsb														
 2247              	
 2248              	@ 0 "" 2
 2249              		.thumb
 2250              		.syntax unified
 2251              	.L313:
 2252 002c FEE7     		b	.L313
 2253              	.L318:
 2254 002e 00BF     		.align	2
 2255              	.L317:
 2256 0030 00000000 		.word	xNumOfOverflows
 2257 0034 00000000 		.word	xTickCount
 2259              		.section	.text.vTaskInternalSetTimeOutState,"ax",%progbits
 2260              		.align	1
 2261              		.global	vTaskInternalSetTimeOutState
 2262              		.syntax unified
 2263              		.thumb
 2264              		.thumb_func
 2266              	vTaskInternalSetTimeOutState:
 2267              		@ args = 0, pretend = 0, frame = 0
 2268              		@ frame_needed = 0, uses_anonymous_args = 0
 2269              		@ link register save eliminated.
 2270 0000 034B     		ldr	r3, .L320
 2271 0002 1B68     		ldr	r3, [r3]
 2272 0004 0360     		str	r3, [r0]
 2273 0006 034B     		ldr	r3, .L320+4
 2274 0008 1B68     		ldr	r3, [r3]
 2275 000a 4360     		str	r3, [r0, #4]
 2276 000c 7047     		bx	lr
 2277              	.L321:
 2278 000e 00BF     		.align	2
 2279              	.L320:
 2280 0010 00000000 		.word	xNumOfOverflows
 2281 0014 00000000 		.word	xTickCount
 2283              		.section	.text.xTaskCheckForTimeOut,"ax",%progbits
 2284              		.align	1
 2285              		.global	xTaskCheckForTimeOut
 2286              		.syntax unified
 2287              		.thumb
 2288              		.thumb_func
 2290              	xTaskCheckForTimeOut:
 2291              		@ args = 0, pretend = 0, frame = 0
 2292              		@ frame_needed = 0, uses_anonymous_args = 0
 2293 0000 E0B1     		cbz	r0, .L334
 2294 0002 70B5     		push	{r4, r5, r6, lr}
 2295 0004 0C46     		mov	r4, r1
ARM GAS  C:\Users\Rick\AppData\Local\Temp\ccHiTWuI.s 			page 40


 2296 0006 0546     		mov	r5, r0
 2297 0008 09B3     		cbz	r1, .L335
 2298 000a FFF7FEFF 		bl	vPortEnterCritical
 2299 000e 1C4B     		ldr	r3, .L337
 2300 0010 1968     		ldr	r1, [r3]
 2301 0012 6B68     		ldr	r3, [r5, #4]
 2302 0014 C81A     		subs	r0, r1, r3
 2303 0016 2268     		ldr	r2, [r4]
 2304 0018 B2F1FF3F 		cmp	r2, #-1
 2305 001c 28D0     		beq	.L330
 2306 001e DFF864C0 		ldr	ip, .L337+4
 2307 0022 DCF800C0 		ldr	ip, [ip]
 2308 0026 2E68     		ldr	r6, [r5]
 2309 0028 6645     		cmp	r6, ip
 2310 002a 01D0     		beq	.L328
 2311 002c 8B42     		cmp	r3, r1
 2312 002e 24D9     		bls	.L331
 2313              	.L328:
 2314 0030 8242     		cmp	r2, r0
 2315 0032 15D8     		bhi	.L336
 2316 0034 0023     		movs	r3, #0
 2317 0036 2360     		str	r3, [r4]
 2318 0038 0124     		movs	r4, #1
 2319 003a 1AE0     		b	.L327
 2320              	.L334:
 2321              		.syntax unified
 2322              	@ 195 "Middlewares/Third_Party/FreeRTOS/Source/portable/GCC/ARM_CM4F/portmacro.h" 1
 2323 003c 4FF05003 			mov r3, #80												
 2324 0040 83F31188 		msr basepri, r3											
 2325 0044 BFF36F8F 		isb														
 2326 0048 BFF34F8F 		dsb														
 2327              	
 2328              	@ 0 "" 2
 2329              		.thumb
 2330              		.syntax unified
 2331              	.L324:
 2332 004c FEE7     		b	.L324
 2333              	.L335:
 2334              		.syntax unified
 2335              	@ 195 "Middlewares/Third_Party/FreeRTOS/Source/portable/GCC/ARM_CM4F/portmacro.h" 1
 2336 004e 4FF05003 			mov r3, #80												
 2337 0052 83F31188 		msr basepri, r3											
 2338 0056 BFF36F8F 		isb														
 2339 005a BFF34F8F 		dsb														
 2340              	
 2341              	@ 0 "" 2
 2342              		.thumb
 2343              		.syntax unified
 2344              	.L326:
 2345 005e FEE7     		b	.L326
 2346              	.L336:
 2347 0060 5B1A     		subs	r3, r3, r1
 2348 0062 1344     		add	r3, r3, r2
 2349 0064 2360     		str	r3, [r4]
 2350 0066 2846     		mov	r0, r5
 2351 0068 FFF7FEFF 		bl	vTaskInternalSetTimeOutState
 2352 006c 0024     		movs	r4, #0
ARM GAS  C:\Users\Rick\AppData\Local\Temp\ccHiTWuI.s 			page 41


 2353 006e 00E0     		b	.L327
 2354              	.L330:
 2355 0070 0024     		movs	r4, #0
 2356              	.L327:
 2357 0072 FFF7FEFF 		bl	vPortExitCritical
 2358 0076 2046     		mov	r0, r4
 2359 0078 70BD     		pop	{r4, r5, r6, pc}
 2360              	.L331:
 2361 007a 0124     		movs	r4, #1
 2362 007c F9E7     		b	.L327
 2363              	.L338:
 2364 007e 00BF     		.align	2
 2365              	.L337:
 2366 0080 00000000 		.word	xTickCount
 2367 0084 00000000 		.word	xNumOfOverflows
 2369              		.section	.text.vTaskMissedYield,"ax",%progbits
 2370              		.align	1
 2371              		.global	vTaskMissedYield
 2372              		.syntax unified
 2373              		.thumb
 2374              		.thumb_func
 2376              	vTaskMissedYield:
 2377              		@ args = 0, pretend = 0, frame = 0
 2378              		@ frame_needed = 0, uses_anonymous_args = 0
 2379              		@ link register save eliminated.
 2380 0000 014B     		ldr	r3, .L340
 2381 0002 0122     		movs	r2, #1
 2382 0004 1A60     		str	r2, [r3]
 2383 0006 7047     		bx	lr
 2384              	.L341:
 2385              		.align	2
 2386              	.L340:
 2387 0008 00000000 		.word	xYieldPending
 2389              		.section	.text.xTaskGetCurrentTaskHandle,"ax",%progbits
 2390              		.align	1
 2391              		.global	xTaskGetCurrentTaskHandle
 2392              		.syntax unified
 2393              		.thumb
 2394              		.thumb_func
 2396              	xTaskGetCurrentTaskHandle:
 2397              		@ args = 0, pretend = 0, frame = 0
 2398              		@ frame_needed = 0, uses_anonymous_args = 0
 2399              		@ link register save eliminated.
 2400 0000 014B     		ldr	r3, .L343
 2401 0002 1868     		ldr	r0, [r3]
 2402 0004 7047     		bx	lr
 2403              	.L344:
 2404 0006 00BF     		.align	2
 2405              	.L343:
 2406 0008 00000000 		.word	pxCurrentTCB
 2408              		.section	.text.xTaskGetSchedulerState,"ax",%progbits
 2409              		.align	1
 2410              		.global	xTaskGetSchedulerState
 2411              		.syntax unified
 2412              		.thumb
 2413              		.thumb_func
 2415              	xTaskGetSchedulerState:
ARM GAS  C:\Users\Rick\AppData\Local\Temp\ccHiTWuI.s 			page 42


 2416              		@ args = 0, pretend = 0, frame = 0
 2417              		@ frame_needed = 0, uses_anonymous_args = 0
 2418              		@ link register save eliminated.
 2419 0000 054B     		ldr	r3, .L350
 2420 0002 1B68     		ldr	r3, [r3]
 2421 0004 33B1     		cbz	r3, .L347
 2422 0006 054B     		ldr	r3, .L350+4
 2423 0008 1B68     		ldr	r3, [r3]
 2424 000a 0BB1     		cbz	r3, .L349
 2425 000c 0020     		movs	r0, #0
 2426 000e 7047     		bx	lr
 2427              	.L349:
 2428 0010 0220     		movs	r0, #2
 2429 0012 7047     		bx	lr
 2430              	.L347:
 2431 0014 0120     		movs	r0, #1
 2432 0016 7047     		bx	lr
 2433              	.L351:
 2434              		.align	2
 2435              	.L350:
 2436 0018 00000000 		.word	xSchedulerRunning
 2437 001c 00000000 		.word	uxSchedulerSuspended
 2439              		.section	.text.xTaskPriorityInherit,"ax",%progbits
 2440              		.align	1
 2441              		.global	xTaskPriorityInherit
 2442              		.syntax unified
 2443              		.thumb
 2444              		.thumb_func
 2446              	xTaskPriorityInherit:
 2447              		@ args = 0, pretend = 0, frame = 0
 2448              		@ frame_needed = 0, uses_anonymous_args = 0
 2449 0000 0028     		cmp	r0, #0
 2450 0002 48D0     		beq	.L358
 2451 0004 38B5     		push	{r3, r4, r5, lr}
 2452 0006 0446     		mov	r4, r0
 2453 0008 C36A     		ldr	r3, [r0, #44]
 2454 000a 254A     		ldr	r2, .L365
 2455 000c 1268     		ldr	r2, [r2]
 2456 000e D26A     		ldr	r2, [r2, #44]
 2457 0010 9342     		cmp	r3, r2
 2458 0012 38D2     		bcs	.L354
 2459 0014 8269     		ldr	r2, [r0, #24]
 2460 0016 002A     		cmp	r2, #0
 2461 0018 05DB     		blt	.L355
 2462 001a 214A     		ldr	r2, .L365
 2463 001c 1268     		ldr	r2, [r2]
 2464 001e D26A     		ldr	r2, [r2, #44]
 2465 0020 C2F10702 		rsb	r2, r2, #7
 2466 0024 8261     		str	r2, [r0, #24]
 2467              	.L355:
 2468 0026 6169     		ldr	r1, [r4, #20]
 2469 0028 03EB8303 		add	r3, r3, r3, lsl #2
 2470 002c 1D4A     		ldr	r2, .L365+4
 2471 002e 02EB8303 		add	r3, r2, r3, lsl #2
 2472 0032 9942     		cmp	r1, r3
 2473 0034 05D0     		beq	.L364
 2474 0036 1A4B     		ldr	r3, .L365
ARM GAS  C:\Users\Rick\AppData\Local\Temp\ccHiTWuI.s 			page 43


 2475 0038 1B68     		ldr	r3, [r3]
 2476 003a DB6A     		ldr	r3, [r3, #44]
 2477 003c E362     		str	r3, [r4, #44]
 2478 003e 0120     		movs	r0, #1
 2479              	.L352:
 2480 0040 38BD     		pop	{r3, r4, r5, pc}
 2481              	.L364:
 2482 0042 251D     		adds	r5, r4, #4
 2483 0044 2846     		mov	r0, r5
 2484 0046 FFF7FEFF 		bl	uxListRemove
 2485 004a 38B9     		cbnz	r0, .L357
 2486 004c E36A     		ldr	r3, [r4, #44]
 2487 004e 0122     		movs	r2, #1
 2488 0050 9A40     		lsls	r2, r2, r3
 2489 0052 1549     		ldr	r1, .L365+8
 2490 0054 0B68     		ldr	r3, [r1]
 2491 0056 23EA0203 		bic	r3, r3, r2
 2492 005a 0B60     		str	r3, [r1]
 2493              	.L357:
 2494 005c 104B     		ldr	r3, .L365
 2495 005e 1B68     		ldr	r3, [r3]
 2496 0060 D86A     		ldr	r0, [r3, #44]
 2497 0062 E062     		str	r0, [r4, #44]
 2498 0064 0124     		movs	r4, #1
 2499 0066 04FA00F3 		lsl	r3, r4, r0
 2500 006a 0F4A     		ldr	r2, .L365+8
 2501 006c 1168     		ldr	r1, [r2]
 2502 006e 0B43     		orrs	r3, r3, r1
 2503 0070 1360     		str	r3, [r2]
 2504 0072 00EB8000 		add	r0, r0, r0, lsl #2
 2505 0076 2946     		mov	r1, r5
 2506 0078 0A4B     		ldr	r3, .L365+4
 2507 007a 03EB8000 		add	r0, r3, r0, lsl #2
 2508 007e FFF7FEFF 		bl	vListInsertEnd
 2509 0082 2046     		mov	r0, r4
 2510 0084 DCE7     		b	.L352
 2511              	.L354:
 2512 0086 426C     		ldr	r2, [r0, #68]
 2513 0088 054B     		ldr	r3, .L365
 2514 008a 1B68     		ldr	r3, [r3]
 2515 008c DB6A     		ldr	r3, [r3, #44]
 2516 008e 9A42     		cmp	r2, r3
 2517 0090 03D3     		bcc	.L359
 2518 0092 0020     		movs	r0, #0
 2519 0094 D4E7     		b	.L352
 2520              	.L358:
 2521 0096 0020     		movs	r0, #0
 2522 0098 7047     		bx	lr
 2523              	.L359:
 2524 009a 0120     		movs	r0, #1
 2525 009c D0E7     		b	.L352
 2526              	.L366:
 2527 009e 00BF     		.align	2
 2528              	.L365:
 2529 00a0 00000000 		.word	pxCurrentTCB
 2530 00a4 00000000 		.word	pxReadyTasksLists
 2531 00a8 00000000 		.word	uxTopReadyPriority
ARM GAS  C:\Users\Rick\AppData\Local\Temp\ccHiTWuI.s 			page 44


 2533              		.section	.text.xTaskPriorityDisinherit,"ax",%progbits
 2534              		.align	1
 2535              		.global	xTaskPriorityDisinherit
 2536              		.syntax unified
 2537              		.thumb
 2538              		.thumb_func
 2540              	xTaskPriorityDisinherit:
 2541              		@ args = 0, pretend = 0, frame = 0
 2542              		@ frame_needed = 0, uses_anonymous_args = 0
 2543 0000 0028     		cmp	r0, #0
 2544 0002 4BD0     		beq	.L374
 2545 0004 38B5     		push	{r3, r4, r5, lr}
 2546 0006 0446     		mov	r4, r0
 2547 0008 264B     		ldr	r3, .L382
 2548 000a 1B68     		ldr	r3, [r3]
 2549 000c 8342     		cmp	r3, r0
 2550 000e 08D0     		beq	.L369
 2551              		.syntax unified
 2552              	@ 195 "Middlewares/Third_Party/FreeRTOS/Source/portable/GCC/ARM_CM4F/portmacro.h" 1
 2553 0010 4FF05003 			mov r3, #80												
 2554 0014 83F31188 		msr basepri, r3											
 2555 0018 BFF36F8F 		isb														
 2556 001c BFF34F8F 		dsb														
 2557              	
 2558              	@ 0 "" 2
 2559              		.thumb
 2560              		.syntax unified
 2561              	.L370:
 2562 0020 FEE7     		b	.L370
 2563              	.L369:
 2564 0022 836C     		ldr	r3, [r0, #72]
 2565 0024 43B9     		cbnz	r3, .L371
 2566              		.syntax unified
 2567              	@ 195 "Middlewares/Third_Party/FreeRTOS/Source/portable/GCC/ARM_CM4F/portmacro.h" 1
 2568 0026 4FF05003 			mov r3, #80												
 2569 002a 83F31188 		msr basepri, r3											
 2570 002e BFF36F8F 		isb														
 2571 0032 BFF34F8F 		dsb														
 2572              	
 2573              	@ 0 "" 2
 2574              		.thumb
 2575              		.syntax unified
 2576              	.L372:
 2577 0036 FEE7     		b	.L372
 2578              	.L371:
 2579 0038 013B     		subs	r3, r3, #1
 2580 003a 8364     		str	r3, [r0, #72]
 2581 003c C16A     		ldr	r1, [r0, #44]
 2582 003e 426C     		ldr	r2, [r0, #68]
 2583 0040 9142     		cmp	r1, r2
 2584 0042 2DD0     		beq	.L375
 2585 0044 0BB1     		cbz	r3, .L381
 2586 0046 0020     		movs	r0, #0
 2587              	.L367:
 2588 0048 38BD     		pop	{r3, r4, r5, pc}
 2589              	.L381:
 2590 004a 051D     		adds	r5, r0, #4
ARM GAS  C:\Users\Rick\AppData\Local\Temp\ccHiTWuI.s 			page 45


 2591 004c 2846     		mov	r0, r5
 2592 004e FFF7FEFF 		bl	uxListRemove
 2593 0052 68B9     		cbnz	r0, .L373
 2594 0054 E36A     		ldr	r3, [r4, #44]
 2595 0056 03EB8302 		add	r2, r3, r3, lsl #2
 2596 005a 9200     		lsls	r2, r2, #2
 2597 005c 1249     		ldr	r1, .L382+4
 2598 005e 8A58     		ldr	r2, [r1, r2]
 2599 0060 32B9     		cbnz	r2, .L373
 2600 0062 0122     		movs	r2, #1
 2601 0064 9A40     		lsls	r2, r2, r3
 2602 0066 1149     		ldr	r1, .L382+8
 2603 0068 0B68     		ldr	r3, [r1]
 2604 006a 23EA0203 		bic	r3, r3, r2
 2605 006e 0B60     		str	r3, [r1]
 2606              	.L373:
 2607 0070 606C     		ldr	r0, [r4, #68]
 2608 0072 E062     		str	r0, [r4, #44]
 2609 0074 C0F10703 		rsb	r3, r0, #7
 2610 0078 A361     		str	r3, [r4, #24]
 2611 007a 0124     		movs	r4, #1
 2612 007c 04FA00F3 		lsl	r3, r4, r0
 2613 0080 0A4A     		ldr	r2, .L382+8
 2614 0082 1168     		ldr	r1, [r2]
 2615 0084 0B43     		orrs	r3, r3, r1
 2616 0086 1360     		str	r3, [r2]
 2617 0088 00EB8000 		add	r0, r0, r0, lsl #2
 2618 008c 2946     		mov	r1, r5
 2619 008e 064B     		ldr	r3, .L382+4
 2620 0090 03EB8000 		add	r0, r3, r0, lsl #2
 2621 0094 FFF7FEFF 		bl	vListInsertEnd
 2622 0098 2046     		mov	r0, r4
 2623 009a D5E7     		b	.L367
 2624              	.L374:
 2625 009c 0020     		movs	r0, #0
 2626 009e 7047     		bx	lr
 2627              	.L375:
 2628 00a0 0020     		movs	r0, #0
 2629 00a2 D1E7     		b	.L367
 2630              	.L383:
 2631              		.align	2
 2632              	.L382:
 2633 00a4 00000000 		.word	pxCurrentTCB
 2634 00a8 00000000 		.word	pxReadyTasksLists
 2635 00ac 00000000 		.word	uxTopReadyPriority
 2637              		.section	.text.vTaskPriorityDisinheritAfterTimeout,"ax",%progbits
 2638              		.align	1
 2639              		.global	vTaskPriorityDisinheritAfterTimeout
 2640              		.syntax unified
 2641              		.thumb
 2642              		.thumb_func
 2644              	vTaskPriorityDisinheritAfterTimeout:
 2645              		@ args = 0, pretend = 0, frame = 0
 2646              		@ frame_needed = 0, uses_anonymous_args = 0
 2647 0000 0028     		cmp	r0, #0
 2648 0002 4FD0     		beq	.L394
 2649 0004 38B5     		push	{r3, r4, r5, lr}
ARM GAS  C:\Users\Rick\AppData\Local\Temp\ccHiTWuI.s 			page 46


 2650 0006 0446     		mov	r4, r0
 2651 0008 836C     		ldr	r3, [r0, #72]
 2652 000a 43B9     		cbnz	r3, .L386
 2653              		.syntax unified
 2654              	@ 195 "Middlewares/Third_Party/FreeRTOS/Source/portable/GCC/ARM_CM4F/portmacro.h" 1
 2655 000c 4FF05003 			mov r3, #80												
 2656 0010 83F31188 		msr basepri, r3											
 2657 0014 BFF36F8F 		isb														
 2658 0018 BFF34F8F 		dsb														
 2659              	
 2660              	@ 0 "" 2
 2661              		.thumb
 2662              		.syntax unified
 2663              	.L387:
 2664 001c FEE7     		b	.L387
 2665              	.L386:
 2666 001e 426C     		ldr	r2, [r0, #68]
 2667 0020 8A42     		cmp	r2, r1
 2668 0022 00D2     		bcs	.L388
 2669 0024 0A46     		mov	r2, r1
 2670              	.L388:
 2671 0026 E16A     		ldr	r1, [r4, #44]
 2672 0028 9142     		cmp	r1, r2
 2673 002a 01D0     		beq	.L384
 2674 002c 012B     		cmp	r3, #1
 2675 002e 00D0     		beq	.L397
 2676              	.L384:
 2677 0030 38BD     		pop	{r3, r4, r5, pc}
 2678              	.L397:
 2679 0032 1D4B     		ldr	r3, .L399
 2680 0034 1B68     		ldr	r3, [r3]
 2681 0036 A342     		cmp	r3, r4
 2682 0038 2BD0     		beq	.L398
 2683 003a E262     		str	r2, [r4, #44]
 2684 003c A369     		ldr	r3, [r4, #24]
 2685 003e 002B     		cmp	r3, #0
 2686 0040 02DB     		blt	.L391
 2687 0042 C2F10702 		rsb	r2, r2, #7
 2688 0046 A261     		str	r2, [r4, #24]
 2689              	.L391:
 2690 0048 6269     		ldr	r2, [r4, #20]
 2691 004a 01EB8101 		add	r1, r1, r1, lsl #2
 2692 004e 174B     		ldr	r3, .L399+4
 2693 0050 03EB8103 		add	r3, r3, r1, lsl #2
 2694 0054 9A42     		cmp	r2, r3
 2695 0056 EBD1     		bne	.L384
 2696 0058 251D     		adds	r5, r4, #4
 2697 005a 2846     		mov	r0, r5
 2698 005c FFF7FEFF 		bl	uxListRemove
 2699 0060 38B9     		cbnz	r0, .L392
 2700 0062 E36A     		ldr	r3, [r4, #44]
 2701 0064 0122     		movs	r2, #1
 2702 0066 9A40     		lsls	r2, r2, r3
 2703 0068 1149     		ldr	r1, .L399+8
 2704 006a 0B68     		ldr	r3, [r1]
 2705 006c 23EA0203 		bic	r3, r3, r2
 2706 0070 0B60     		str	r3, [r1]
ARM GAS  C:\Users\Rick\AppData\Local\Temp\ccHiTWuI.s 			page 47


 2707              	.L392:
 2708 0072 E06A     		ldr	r0, [r4, #44]
 2709 0074 0123     		movs	r3, #1
 2710 0076 8340     		lsls	r3, r3, r0
 2711 0078 0D4A     		ldr	r2, .L399+8
 2712 007a 1168     		ldr	r1, [r2]
 2713 007c 0B43     		orrs	r3, r3, r1
 2714 007e 1360     		str	r3, [r2]
 2715 0080 00EB8000 		add	r0, r0, r0, lsl #2
 2716 0084 2946     		mov	r1, r5
 2717 0086 094B     		ldr	r3, .L399+4
 2718 0088 03EB8000 		add	r0, r3, r0, lsl #2
 2719 008c FFF7FEFF 		bl	vListInsertEnd
 2720 0090 CEE7     		b	.L384
 2721              	.L398:
 2722              		.syntax unified
 2723              	@ 195 "Middlewares/Third_Party/FreeRTOS/Source/portable/GCC/ARM_CM4F/portmacro.h" 1
 2724 0092 4FF05003 			mov r3, #80												
 2725 0096 83F31188 		msr basepri, r3											
 2726 009a BFF36F8F 		isb														
 2727 009e BFF34F8F 		dsb														
 2728              	
 2729              	@ 0 "" 2
 2730              		.thumb
 2731              		.syntax unified
 2732              	.L390:
 2733 00a2 FEE7     		b	.L390
 2734              	.L394:
 2735 00a4 7047     		bx	lr
 2736              	.L400:
 2737 00a6 00BF     		.align	2
 2738              	.L399:
 2739 00a8 00000000 		.word	pxCurrentTCB
 2740 00ac 00000000 		.word	pxReadyTasksLists
 2741 00b0 00000000 		.word	uxTopReadyPriority
 2743              		.section	.text.uxTaskResetEventItemValue,"ax",%progbits
 2744              		.align	1
 2745              		.global	uxTaskResetEventItemValue
 2746              		.syntax unified
 2747              		.thumb
 2748              		.thumb_func
 2750              	uxTaskResetEventItemValue:
 2751              		@ args = 0, pretend = 0, frame = 0
 2752              		@ frame_needed = 0, uses_anonymous_args = 0
 2753              		@ link register save eliminated.
 2754 0000 044A     		ldr	r2, .L402
 2755 0002 1368     		ldr	r3, [r2]
 2756 0004 9869     		ldr	r0, [r3, #24]
 2757 0006 1368     		ldr	r3, [r2]
 2758 0008 DB6A     		ldr	r3, [r3, #44]
 2759 000a 1268     		ldr	r2, [r2]
 2760 000c C3F10703 		rsb	r3, r3, #7
 2761 0010 9361     		str	r3, [r2, #24]
 2762 0012 7047     		bx	lr
 2763              	.L403:
 2764              		.align	2
 2765              	.L402:
ARM GAS  C:\Users\Rick\AppData\Local\Temp\ccHiTWuI.s 			page 48


 2766 0014 00000000 		.word	pxCurrentTCB
 2768              		.section	.text.pvTaskIncrementMutexHeldCount,"ax",%progbits
 2769              		.align	1
 2770              		.global	pvTaskIncrementMutexHeldCount
 2771              		.syntax unified
 2772              		.thumb
 2773              		.thumb_func
 2775              	pvTaskIncrementMutexHeldCount:
 2776              		@ args = 0, pretend = 0, frame = 0
 2777              		@ frame_needed = 0, uses_anonymous_args = 0
 2778              		@ link register save eliminated.
 2779 0000 054B     		ldr	r3, .L406
 2780 0002 1B68     		ldr	r3, [r3]
 2781 0004 23B1     		cbz	r3, .L405
 2782 0006 044B     		ldr	r3, .L406
 2783 0008 1A68     		ldr	r2, [r3]
 2784 000a 936C     		ldr	r3, [r2, #72]
 2785 000c 0133     		adds	r3, r3, #1
 2786 000e 9364     		str	r3, [r2, #72]
 2787              	.L405:
 2788 0010 014B     		ldr	r3, .L406
 2789 0012 1868     		ldr	r0, [r3]
 2790 0014 7047     		bx	lr
 2791              	.L407:
 2792 0016 00BF     		.align	2
 2793              	.L406:
 2794 0018 00000000 		.word	pxCurrentTCB
 2796              		.section	.text.ulTaskNotifyTake,"ax",%progbits
 2797              		.align	1
 2798              		.global	ulTaskNotifyTake
 2799              		.syntax unified
 2800              		.thumb
 2801              		.thumb_func
 2803              	ulTaskNotifyTake:
 2804              		@ args = 0, pretend = 0, frame = 0
 2805              		@ frame_needed = 0, uses_anonymous_args = 0
 2806 0000 38B5     		push	{r3, r4, r5, lr}
 2807 0002 0546     		mov	r5, r0
 2808 0004 0C46     		mov	r4, r1
 2809 0006 FFF7FEFF 		bl	vPortEnterCritical
 2810 000a 1A4B     		ldr	r3, .L414
 2811 000c 1B68     		ldr	r3, [r3]
 2812 000e DB6C     		ldr	r3, [r3, #76]
 2813 0010 2BB9     		cbnz	r3, .L409
 2814 0012 184B     		ldr	r3, .L414
 2815 0014 1B68     		ldr	r3, [r3]
 2816 0016 0122     		movs	r2, #1
 2817 0018 83F85020 		strb	r2, [r3, #80]
 2818 001c ACB9     		cbnz	r4, .L413
 2819              	.L409:
 2820 001e FFF7FEFF 		bl	vPortExitCritical
 2821 0022 FFF7FEFF 		bl	vPortEnterCritical
 2822 0026 134B     		ldr	r3, .L414
 2823 0028 1B68     		ldr	r3, [r3]
 2824 002a DC6C     		ldr	r4, [r3, #76]
 2825 002c 24B1     		cbz	r4, .L410
 2826 002e DDB1     		cbz	r5, .L411
ARM GAS  C:\Users\Rick\AppData\Local\Temp\ccHiTWuI.s 			page 49


 2827 0030 104B     		ldr	r3, .L414
 2828 0032 1B68     		ldr	r3, [r3]
 2829 0034 0022     		movs	r2, #0
 2830 0036 DA64     		str	r2, [r3, #76]
 2831              	.L410:
 2832 0038 0E4B     		ldr	r3, .L414
 2833 003a 1B68     		ldr	r3, [r3]
 2834 003c 0022     		movs	r2, #0
 2835 003e 83F85020 		strb	r2, [r3, #80]
 2836 0042 FFF7FEFF 		bl	vPortExitCritical
 2837 0046 2046     		mov	r0, r4
 2838 0048 38BD     		pop	{r3, r4, r5, pc}
 2839              	.L413:
 2840 004a 1146     		mov	r1, r2
 2841 004c 2046     		mov	r0, r4
 2842 004e FFF7FEFF 		bl	prvAddCurrentTaskToDelayedList
 2843 0052 4FF0E023 		mov	r3, #-536813568
 2844 0056 4FF08052 		mov	r2, #268435456
 2845 005a C3F8042D 		str	r2, [r3, #3332]
 2846              		.syntax unified
 2847              	@ 4656 "Middlewares/Third_Party/FreeRTOS/Source/tasks.c" 1
 2848 005e BFF34F8F 		dsb
 2849              	@ 0 "" 2
 2850              	@ 4656 "Middlewares/Third_Party/FreeRTOS/Source/tasks.c" 1
 2851 0062 BFF36F8F 		isb
 2852              	@ 0 "" 2
 2853              		.thumb
 2854              		.syntax unified
 2855 0066 DAE7     		b	.L409
 2856              	.L411:
 2857 0068 024B     		ldr	r3, .L414
 2858 006a 1B68     		ldr	r3, [r3]
 2859 006c 621E     		subs	r2, r4, #1
 2860 006e DA64     		str	r2, [r3, #76]
 2861 0070 E2E7     		b	.L410
 2862              	.L415:
 2863 0072 00BF     		.align	2
 2864              	.L414:
 2865 0074 00000000 		.word	pxCurrentTCB
 2867              		.section	.text.xTaskNotifyWait,"ax",%progbits
 2868              		.align	1
 2869              		.global	xTaskNotifyWait
 2870              		.syntax unified
 2871              		.thumb
 2872              		.thumb_func
 2874              	xTaskNotifyWait:
 2875              		@ args = 0, pretend = 0, frame = 0
 2876              		@ frame_needed = 0, uses_anonymous_args = 0
 2877 0000 F8B5     		push	{r3, r4, r5, r6, r7, lr}
 2878 0002 0646     		mov	r6, r0
 2879 0004 0F46     		mov	r7, r1
 2880 0006 1446     		mov	r4, r2
 2881 0008 1D46     		mov	r5, r3
 2882 000a FFF7FEFF 		bl	vPortEnterCritical
 2883 000e 204B     		ldr	r3, .L424
 2884 0010 1B68     		ldr	r3, [r3]
 2885 0012 93F85030 		ldrb	r3, [r3, #80]	@ zero_extendqisi2
ARM GAS  C:\Users\Rick\AppData\Local\Temp\ccHiTWuI.s 			page 50


 2886 0016 022B     		cmp	r3, #2
 2887 0018 0AD0     		beq	.L417
 2888 001a 1D4A     		ldr	r2, .L424
 2889 001c 1168     		ldr	r1, [r2]
 2890 001e CB6C     		ldr	r3, [r1, #76]
 2891 0020 23EA0603 		bic	r3, r3, r6
 2892 0024 CB64     		str	r3, [r1, #76]
 2893 0026 1368     		ldr	r3, [r2]
 2894 0028 0122     		movs	r2, #1
 2895 002a 83F85020 		strb	r2, [r3, #80]
 2896 002e C5B9     		cbnz	r5, .L422
 2897              	.L417:
 2898 0030 FFF7FEFF 		bl	vPortExitCritical
 2899 0034 FFF7FEFF 		bl	vPortEnterCritical
 2900 0038 1CB1     		cbz	r4, .L418
 2901 003a 154B     		ldr	r3, .L424
 2902 003c 1B68     		ldr	r3, [r3]
 2903 003e DB6C     		ldr	r3, [r3, #76]
 2904 0040 2360     		str	r3, [r4]
 2905              	.L418:
 2906 0042 134B     		ldr	r3, .L424
 2907 0044 1B68     		ldr	r3, [r3]
 2908 0046 93F85030 		ldrb	r3, [r3, #80]	@ zero_extendqisi2
 2909 004a 022B     		cmp	r3, #2
 2910 004c 18D0     		beq	.L423
 2911 004e 0024     		movs	r4, #0
 2912              	.L419:
 2913 0050 0F4B     		ldr	r3, .L424
 2914 0052 1B68     		ldr	r3, [r3]
 2915 0054 0022     		movs	r2, #0
 2916 0056 83F85020 		strb	r2, [r3, #80]
 2917 005a FFF7FEFF 		bl	vPortExitCritical
 2918 005e 2046     		mov	r0, r4
 2919 0060 F8BD     		pop	{r3, r4, r5, r6, r7, pc}
 2920              	.L422:
 2921 0062 1146     		mov	r1, r2
 2922 0064 2846     		mov	r0, r5
 2923 0066 FFF7FEFF 		bl	prvAddCurrentTaskToDelayedList
 2924 006a 4FF0E023 		mov	r3, #-536813568
 2925 006e 4FF08052 		mov	r2, #268435456
 2926 0072 C3F8042D 		str	r2, [r3, #3332]
 2927              		.syntax unified
 2928              	@ 4729 "Middlewares/Third_Party/FreeRTOS/Source/tasks.c" 1
 2929 0076 BFF34F8F 		dsb
 2930              	@ 0 "" 2
 2931              	@ 4729 "Middlewares/Third_Party/FreeRTOS/Source/tasks.c" 1
 2932 007a BFF36F8F 		isb
 2933              	@ 0 "" 2
 2934              		.thumb
 2935              		.syntax unified
 2936 007e D7E7     		b	.L417
 2937              	.L423:
 2938 0080 034B     		ldr	r3, .L424
 2939 0082 1A68     		ldr	r2, [r3]
 2940 0084 D36C     		ldr	r3, [r2, #76]
 2941 0086 23EA0703 		bic	r3, r3, r7
 2942 008a D364     		str	r3, [r2, #76]
ARM GAS  C:\Users\Rick\AppData\Local\Temp\ccHiTWuI.s 			page 51


 2943 008c 0124     		movs	r4, #1
 2944 008e DFE7     		b	.L419
 2945              	.L425:
 2946              		.align	2
 2947              	.L424:
 2948 0090 00000000 		.word	pxCurrentTCB
 2950              		.section	.text.xTaskGenericNotify,"ax",%progbits
 2951              		.align	1
 2952              		.global	xTaskGenericNotify
 2953              		.syntax unified
 2954              		.thumb
 2955              		.thumb_func
 2957              	xTaskGenericNotify:
 2958              		@ args = 0, pretend = 0, frame = 0
 2959              		@ frame_needed = 0, uses_anonymous_args = 0
 2960 0000 F8B5     		push	{r3, r4, r5, r6, r7, lr}
 2961 0002 A8B1     		cbz	r0, .L446
 2962 0004 0F46     		mov	r7, r1
 2963 0006 1446     		mov	r4, r2
 2964 0008 1D46     		mov	r5, r3
 2965 000a 0646     		mov	r6, r0
 2966 000c FFF7FEFF 		bl	vPortEnterCritical
 2967 0010 0DB1     		cbz	r5, .L429
 2968 0012 F36C     		ldr	r3, [r6, #76]
 2969 0014 2B60     		str	r3, [r5]
 2970              	.L429:
 2971 0016 96F85030 		ldrb	r3, [r6, #80]	@ zero_extendqisi2
 2972 001a DBB2     		uxtb	r3, r3
 2973 001c 0222     		movs	r2, #2
 2974 001e 86F85020 		strb	r2, [r6, #80]
 2975 0022 042C     		cmp	r4, #4
 2976 0024 21D8     		bhi	.L430
 2977 0026 DFE804F0 		tbb	[pc, r4]
 2978              	.L432:
 2979 002a 0F       		.byte	(.L436-.L432)/2
 2980 002b 0C       		.byte	(.L435-.L432)/2
 2981 002c 16       		.byte	(.L434-.L432)/2
 2982 002d 1A       		.byte	(.L433-.L432)/2
 2983 002e 1C       		.byte	(.L431-.L432)/2
 2984 002f 00       		.p2align 1
 2985              	.L446:
 2986              		.syntax unified
 2987              	@ 195 "Middlewares/Third_Party/FreeRTOS/Source/portable/GCC/ARM_CM4F/portmacro.h" 1
 2988 0030 4FF05003 			mov r3, #80												
 2989 0034 83F31188 		msr basepri, r3											
 2990 0038 BFF36F8F 		isb														
 2991 003c BFF34F8F 		dsb														
 2992              	
 2993              	@ 0 "" 2
 2994              		.thumb
 2995              		.syntax unified
 2996              	.L428:
 2997 0040 FEE7     		b	.L428
 2998              	.L435:
 2999 0042 F26C     		ldr	r2, [r6, #76]
 3000 0044 3A43     		orrs	r2, r2, r7
 3001 0046 F264     		str	r2, [r6, #76]
ARM GAS  C:\Users\Rick\AppData\Local\Temp\ccHiTWuI.s 			page 52


 3002              	.L436:
 3003 0048 012B     		cmp	r3, #1
 3004 004a 1BD0     		beq	.L447
 3005 004c 0124     		movs	r4, #1
 3006              	.L437:
 3007 004e FFF7FEFF 		bl	vPortExitCritical
 3008 0052 2046     		mov	r0, r4
 3009 0054 F8BD     		pop	{r3, r4, r5, r6, r7, pc}
 3010              	.L434:
 3011 0056 F26C     		ldr	r2, [r6, #76]
 3012 0058 0132     		adds	r2, r2, #1
 3013 005a F264     		str	r2, [r6, #76]
 3014 005c F4E7     		b	.L436
 3015              	.L433:
 3016 005e F764     		str	r7, [r6, #76]
 3017 0060 F2E7     		b	.L436
 3018              	.L431:
 3019 0062 022B     		cmp	r3, #2
 3020 0064 3ED0     		beq	.L441
 3021 0066 F764     		str	r7, [r6, #76]
 3022 0068 EEE7     		b	.L436
 3023              	.L430:
 3024 006a F26C     		ldr	r2, [r6, #76]
 3025 006c B2F1FF3F 		cmp	r2, #-1
 3026 0070 EAD0     		beq	.L436
 3027              		.syntax unified
 3028              	@ 195 "Middlewares/Third_Party/FreeRTOS/Source/portable/GCC/ARM_CM4F/portmacro.h" 1
 3029 0072 4FF05003 			mov r3, #80												
 3030 0076 83F31188 		msr basepri, r3											
 3031 007a BFF36F8F 		isb														
 3032 007e BFF34F8F 		dsb														
 3033              	
 3034              	@ 0 "" 2
 3035              		.thumb
 3036              		.syntax unified
 3037              	.L438:
 3038 0082 FEE7     		b	.L438
 3039              	.L447:
 3040 0084 341D     		adds	r4, r6, #4
 3041 0086 2046     		mov	r0, r4
 3042 0088 FFF7FEFF 		bl	uxListRemove
 3043 008c F06A     		ldr	r0, [r6, #44]
 3044 008e 0123     		movs	r3, #1
 3045 0090 8340     		lsls	r3, r3, r0
 3046 0092 164A     		ldr	r2, .L448
 3047 0094 1168     		ldr	r1, [r2]
 3048 0096 0B43     		orrs	r3, r3, r1
 3049 0098 1360     		str	r3, [r2]
 3050 009a 00EB8000 		add	r0, r0, r0, lsl #2
 3051 009e 2146     		mov	r1, r4
 3052 00a0 134B     		ldr	r3, .L448+4
 3053 00a2 03EB8000 		add	r0, r3, r0, lsl #2
 3054 00a6 FFF7FEFF 		bl	vListInsertEnd
 3055 00aa B36A     		ldr	r3, [r6, #40]
 3056 00ac 43B1     		cbz	r3, .L439
 3057              		.syntax unified
 3058              	@ 195 "Middlewares/Third_Party/FreeRTOS/Source/portable/GCC/ARM_CM4F/portmacro.h" 1
ARM GAS  C:\Users\Rick\AppData\Local\Temp\ccHiTWuI.s 			page 53


 3059 00ae 4FF05003 			mov r3, #80												
 3060 00b2 83F31188 		msr basepri, r3											
 3061 00b6 BFF36F8F 		isb														
 3062 00ba BFF34F8F 		dsb														
 3063              	
 3064              	@ 0 "" 2
 3065              		.thumb
 3066              		.syntax unified
 3067              	.L440:
 3068 00be FEE7     		b	.L440
 3069              	.L439:
 3070 00c0 F26A     		ldr	r2, [r6, #44]
 3071 00c2 0C4B     		ldr	r3, .L448+8
 3072 00c4 1B68     		ldr	r3, [r3]
 3073 00c6 DB6A     		ldr	r3, [r3, #44]
 3074 00c8 9A42     		cmp	r2, r3
 3075 00ca 0DD9     		bls	.L443
 3076 00cc 4FF0E023 		mov	r3, #-536813568
 3077 00d0 4FF08052 		mov	r2, #268435456
 3078 00d4 C3F8042D 		str	r2, [r3, #3332]
 3079              		.syntax unified
 3080              	@ 4875 "Middlewares/Third_Party/FreeRTOS/Source/tasks.c" 1
 3081 00d8 BFF34F8F 		dsb
 3082              	@ 0 "" 2
 3083              	@ 4875 "Middlewares/Third_Party/FreeRTOS/Source/tasks.c" 1
 3084 00dc BFF36F8F 		isb
 3085              	@ 0 "" 2
 3086              		.thumb
 3087              		.syntax unified
 3088 00e0 0124     		movs	r4, #1
 3089 00e2 B4E7     		b	.L437
 3090              	.L441:
 3091 00e4 0024     		movs	r4, #0
 3092 00e6 B2E7     		b	.L437
 3093              	.L443:
 3094 00e8 0124     		movs	r4, #1
 3095 00ea B0E7     		b	.L437
 3096              	.L449:
 3097              		.align	2
 3098              	.L448:
 3099 00ec 00000000 		.word	uxTopReadyPriority
 3100 00f0 00000000 		.word	pxReadyTasksLists
 3101 00f4 00000000 		.word	pxCurrentTCB
 3103              		.section	.text.xTaskGenericNotifyFromISR,"ax",%progbits
 3104              		.align	1
 3105              		.global	xTaskGenericNotifyFromISR
 3106              		.syntax unified
 3107              		.thumb
 3108              		.thumb_func
 3110              	xTaskGenericNotifyFromISR:
 3111              		@ args = 4, pretend = 0, frame = 0
 3112              		@ frame_needed = 0, uses_anonymous_args = 0
 3113 0000 10B3     		cbz	r0, .L474
 3114 0002 2DE9F041 		push	{r4, r5, r6, r7, r8, lr}
 3115 0006 0F46     		mov	r7, r1
 3116 0008 1446     		mov	r4, r2
 3117 000a 1D46     		mov	r5, r3
ARM GAS  C:\Users\Rick\AppData\Local\Temp\ccHiTWuI.s 			page 54


 3118 000c 0646     		mov	r6, r0
 3119 000e FFF7FEFF 		bl	vPortValidateInterruptPriority
 3120              		.syntax unified
 3121              	@ 211 "Middlewares/Third_Party/FreeRTOS/Source/portable/GCC/ARM_CM4F/portmacro.h" 1
 3122 0012 EFF31183 			mrs r3, basepri											
 3123 0016 4FF05002 		mov r2, #80												
 3124 001a 82F31188 		msr basepri, r2											
 3125 001e BFF36F8F 		isb														
 3126 0022 BFF34F8F 		dsb														
 3127              	
 3128              	@ 0 "" 2
 3129              		.thumb
 3130              		.syntax unified
 3131 0026 9846     		mov	r8, r3
 3132 0028 0DB1     		cbz	r5, .L453
 3133 002a F36C     		ldr	r3, [r6, #76]
 3134 002c 2B60     		str	r3, [r5]
 3135              	.L453:
 3136 002e 96F85030 		ldrb	r3, [r6, #80]	@ zero_extendqisi2
 3137 0032 DBB2     		uxtb	r3, r3
 3138 0034 0222     		movs	r2, #2
 3139 0036 86F85020 		strb	r2, [r6, #80]
 3140 003a 042C     		cmp	r4, #4
 3141 003c 21D8     		bhi	.L454
 3142 003e DFE804F0 		tbb	[pc, r4]
 3143              	.L456:
 3144 0042 0F       		.byte	(.L460-.L456)/2
 3145 0043 0C       		.byte	(.L459-.L456)/2
 3146 0044 16       		.byte	(.L458-.L456)/2
 3147 0045 1A       		.byte	(.L457-.L456)/2
 3148 0046 1C       		.byte	(.L455-.L456)/2
 3149 0047 00       		.p2align 1
 3150              	.L474:
 3151              		.syntax unified
 3152              	@ 195 "Middlewares/Third_Party/FreeRTOS/Source/portable/GCC/ARM_CM4F/portmacro.h" 1
 3153 0048 4FF05003 			mov r3, #80												
 3154 004c 83F31188 		msr basepri, r3											
 3155 0050 BFF36F8F 		isb														
 3156 0054 BFF34F8F 		dsb														
 3157              	
 3158              	@ 0 "" 2
 3159              		.thumb
 3160              		.syntax unified
 3161              	.L452:
 3162 0058 FEE7     		b	.L452
 3163              	.L459:
 3164 005a F26C     		ldr	r2, [r6, #76]
 3165 005c 3A43     		orrs	r2, r2, r7
 3166 005e F264     		str	r2, [r6, #76]
 3167              	.L460:
 3168 0060 012B     		cmp	r3, #1
 3169 0062 1BD0     		beq	.L475
 3170 0064 0120     		movs	r0, #1
 3171              	.L461:
 3172              		.syntax unified
 3173              	@ 229 "Middlewares/Third_Party/FreeRTOS/Source/portable/GCC/ARM_CM4F/portmacro.h" 1
 3174 0066 88F31188 			msr basepri, r8	
ARM GAS  C:\Users\Rick\AppData\Local\Temp\ccHiTWuI.s 			page 55


 3175              	@ 0 "" 2
 3176              		.thumb
 3177              		.syntax unified
 3178 006a BDE8F081 		pop	{r4, r5, r6, r7, r8, pc}
 3179              	.L458:
 3180 006e F26C     		ldr	r2, [r6, #76]
 3181 0070 0132     		adds	r2, r2, #1
 3182 0072 F264     		str	r2, [r6, #76]
 3183 0074 F4E7     		b	.L460
 3184              	.L457:
 3185 0076 F764     		str	r7, [r6, #76]
 3186 0078 F2E7     		b	.L460
 3187              	.L455:
 3188 007a 022B     		cmp	r3, #2
 3189 007c 44D0     		beq	.L468
 3190 007e F764     		str	r7, [r6, #76]
 3191 0080 EEE7     		b	.L460
 3192              	.L454:
 3193 0082 F26C     		ldr	r2, [r6, #76]
 3194 0084 B2F1FF3F 		cmp	r2, #-1
 3195 0088 EAD0     		beq	.L460
 3196              		.syntax unified
 3197              	@ 195 "Middlewares/Third_Party/FreeRTOS/Source/portable/GCC/ARM_CM4F/portmacro.h" 1
 3198 008a 4FF05003 			mov r3, #80												
 3199 008e 83F31188 		msr basepri, r3											
 3200 0092 BFF36F8F 		isb														
 3201 0096 BFF34F8F 		dsb														
 3202              	
 3203              	@ 0 "" 2
 3204              		.thumb
 3205              		.syntax unified
 3206              	.L462:
 3207 009a FEE7     		b	.L462
 3208              	.L475:
 3209 009c B36A     		ldr	r3, [r6, #40]
 3210 009e 43B1     		cbz	r3, .L463
 3211              		.syntax unified
 3212              	@ 195 "Middlewares/Third_Party/FreeRTOS/Source/portable/GCC/ARM_CM4F/portmacro.h" 1
 3213 00a0 4FF05003 			mov r3, #80												
 3214 00a4 83F31188 		msr basepri, r3											
 3215 00a8 BFF36F8F 		isb														
 3216 00ac BFF34F8F 		dsb														
 3217              	
 3218              	@ 0 "" 2
 3219              		.thumb
 3220              		.syntax unified
 3221              	.L464:
 3222 00b0 FEE7     		b	.L464
 3223              	.L463:
 3224 00b2 174B     		ldr	r3, .L476
 3225 00b4 1B68     		ldr	r3, [r3]
 3226 00b6 0BBB     		cbnz	r3, .L465
 3227 00b8 341D     		adds	r4, r6, #4
 3228 00ba 2046     		mov	r0, r4
 3229 00bc FFF7FEFF 		bl	uxListRemove
 3230 00c0 F06A     		ldr	r0, [r6, #44]
 3231 00c2 0123     		movs	r3, #1
ARM GAS  C:\Users\Rick\AppData\Local\Temp\ccHiTWuI.s 			page 56


 3232 00c4 8340     		lsls	r3, r3, r0
 3233 00c6 134A     		ldr	r2, .L476+4
 3234 00c8 1168     		ldr	r1, [r2]
 3235 00ca 0B43     		orrs	r3, r3, r1
 3236 00cc 1360     		str	r3, [r2]
 3237 00ce 00EB8000 		add	r0, r0, r0, lsl #2
 3238 00d2 2146     		mov	r1, r4
 3239 00d4 104B     		ldr	r3, .L476+8
 3240 00d6 03EB8000 		add	r0, r3, r0, lsl #2
 3241 00da FFF7FEFF 		bl	vListInsertEnd
 3242              	.L466:
 3243 00de F26A     		ldr	r2, [r6, #44]
 3244 00e0 0E4B     		ldr	r3, .L476+12
 3245 00e2 1B68     		ldr	r3, [r3]
 3246 00e4 DB6A     		ldr	r3, [r3, #44]
 3247 00e6 9A42     		cmp	r2, r3
 3248 00e8 10D9     		bls	.L470
 3249 00ea 069B     		ldr	r3, [sp, #24]
 3250 00ec 13B1     		cbz	r3, .L467
 3251 00ee 0123     		movs	r3, #1
 3252 00f0 069A     		ldr	r2, [sp, #24]
 3253 00f2 1360     		str	r3, [r2]
 3254              	.L467:
 3255 00f4 0120     		movs	r0, #1
 3256 00f6 0A4B     		ldr	r3, .L476+16
 3257 00f8 1860     		str	r0, [r3]
 3258 00fa B4E7     		b	.L461
 3259              	.L465:
 3260 00fc 06F11801 		add	r1, r6, #24
 3261 0100 0848     		ldr	r0, .L476+20
 3262 0102 FFF7FEFF 		bl	vListInsertEnd
 3263 0106 EAE7     		b	.L466
 3264              	.L468:
 3265 0108 0020     		movs	r0, #0
 3266 010a ACE7     		b	.L461
 3267              	.L470:
 3268 010c 0120     		movs	r0, #1
 3269 010e AAE7     		b	.L461
 3270              	.L477:
 3271              		.align	2
 3272              	.L476:
 3273 0110 00000000 		.word	uxSchedulerSuspended
 3274 0114 00000000 		.word	uxTopReadyPriority
 3275 0118 00000000 		.word	pxReadyTasksLists
 3276 011c 00000000 		.word	pxCurrentTCB
 3277 0120 00000000 		.word	xYieldPending
 3278 0124 00000000 		.word	xPendingReadyList
 3280              		.section	.text.vTaskNotifyGiveFromISR,"ax",%progbits
 3281              		.align	1
 3282              		.global	vTaskNotifyGiveFromISR
 3283              		.syntax unified
 3284              		.thumb
 3285              		.thumb_func
 3287              	vTaskNotifyGiveFromISR:
 3288              		@ args = 0, pretend = 0, frame = 0
 3289              		@ frame_needed = 0, uses_anonymous_args = 0
 3290 0000 F8B5     		push	{r3, r4, r5, r6, r7, lr}
ARM GAS  C:\Users\Rick\AppData\Local\Temp\ccHiTWuI.s 			page 57


 3291 0002 D8B1     		cbz	r0, .L488
 3292 0004 0D46     		mov	r5, r1
 3293 0006 0446     		mov	r4, r0
 3294 0008 FFF7FEFF 		bl	vPortValidateInterruptPriority
 3295              		.syntax unified
 3296              	@ 211 "Middlewares/Third_Party/FreeRTOS/Source/portable/GCC/ARM_CM4F/portmacro.h" 1
 3297 000c EFF31183 			mrs r3, basepri											
 3298 0010 4FF05002 		mov r2, #80												
 3299 0014 82F31188 		msr basepri, r2											
 3300 0018 BFF36F8F 		isb														
 3301 001c BFF34F8F 		dsb														
 3302              	
 3303              	@ 0 "" 2
 3304              		.thumb
 3305              		.syntax unified
 3306 0020 1E46     		mov	r6, r3
 3307 0022 94F85020 		ldrb	r2, [r4, #80]	@ zero_extendqisi2
 3308 0026 0223     		movs	r3, #2
 3309 0028 84F85030 		strb	r3, [r4, #80]
 3310 002c E36C     		ldr	r3, [r4, #76]
 3311 002e 0133     		adds	r3, r3, #1
 3312 0030 E364     		str	r3, [r4, #76]
 3313 0032 012A     		cmp	r2, #1
 3314 0034 0BD0     		beq	.L489
 3315              	.L481:
 3316              		.syntax unified
 3317              	@ 229 "Middlewares/Third_Party/FreeRTOS/Source/portable/GCC/ARM_CM4F/portmacro.h" 1
 3318 0036 86F31188 			msr basepri, r6	
 3319              	@ 0 "" 2
 3320              		.thumb
 3321              		.syntax unified
 3322 003a F8BD     		pop	{r3, r4, r5, r6, r7, pc}
 3323              	.L488:
 3324              		.syntax unified
 3325              	@ 195 "Middlewares/Third_Party/FreeRTOS/Source/portable/GCC/ARM_CM4F/portmacro.h" 1
 3326 003c 4FF05003 			mov r3, #80												
 3327 0040 83F31188 		msr basepri, r3											
 3328 0044 BFF36F8F 		isb														
 3329 0048 BFF34F8F 		dsb														
 3330              	
 3331              	@ 0 "" 2
 3332              		.thumb
 3333              		.syntax unified
 3334              	.L480:
 3335 004c FEE7     		b	.L480
 3336              	.L489:
 3337 004e A36A     		ldr	r3, [r4, #40]
 3338 0050 43B1     		cbz	r3, .L482
 3339              		.syntax unified
 3340              	@ 195 "Middlewares/Third_Party/FreeRTOS/Source/portable/GCC/ARM_CM4F/portmacro.h" 1
 3341 0052 4FF05003 			mov r3, #80												
 3342 0056 83F31188 		msr basepri, r3											
 3343 005a BFF36F8F 		isb														
 3344 005e BFF34F8F 		dsb														
 3345              	
 3346              	@ 0 "" 2
 3347              		.thumb
ARM GAS  C:\Users\Rick\AppData\Local\Temp\ccHiTWuI.s 			page 58


 3348              		.syntax unified
 3349              	.L483:
 3350 0062 FEE7     		b	.L483
 3351              	.L482:
 3352 0064 144B     		ldr	r3, .L490
 3353 0066 1B68     		ldr	r3, [r3]
 3354 0068 FBB9     		cbnz	r3, .L484
 3355 006a 271D     		adds	r7, r4, #4
 3356 006c 3846     		mov	r0, r7
 3357 006e FFF7FEFF 		bl	uxListRemove
 3358 0072 E06A     		ldr	r0, [r4, #44]
 3359 0074 0123     		movs	r3, #1
 3360 0076 8340     		lsls	r3, r3, r0
 3361 0078 104A     		ldr	r2, .L490+4
 3362 007a 1168     		ldr	r1, [r2]
 3363 007c 0B43     		orrs	r3, r3, r1
 3364 007e 1360     		str	r3, [r2]
 3365 0080 00EB8000 		add	r0, r0, r0, lsl #2
 3366 0084 3946     		mov	r1, r7
 3367 0086 0E4B     		ldr	r3, .L490+8
 3368 0088 03EB8000 		add	r0, r3, r0, lsl #2
 3369 008c FFF7FEFF 		bl	vListInsertEnd
 3370              	.L485:
 3371 0090 E26A     		ldr	r2, [r4, #44]
 3372 0092 0C4B     		ldr	r3, .L490+12
 3373 0094 1B68     		ldr	r3, [r3]
 3374 0096 DB6A     		ldr	r3, [r3, #44]
 3375 0098 9A42     		cmp	r2, r3
 3376 009a CCD9     		bls	.L481
 3377 009c 0DB1     		cbz	r5, .L486
 3378 009e 0123     		movs	r3, #1
 3379 00a0 2B60     		str	r3, [r5]
 3380              	.L486:
 3381 00a2 094B     		ldr	r3, .L490+16
 3382 00a4 0122     		movs	r2, #1
 3383 00a6 1A60     		str	r2, [r3]
 3384 00a8 C5E7     		b	.L481
 3385              	.L484:
 3386 00aa 04F11801 		add	r1, r4, #24
 3387 00ae 0748     		ldr	r0, .L490+20
 3388 00b0 FFF7FEFF 		bl	vListInsertEnd
 3389 00b4 ECE7     		b	.L485
 3390              	.L491:
 3391 00b6 00BF     		.align	2
 3392              	.L490:
 3393 00b8 00000000 		.word	uxSchedulerSuspended
 3394 00bc 00000000 		.word	uxTopReadyPriority
 3395 00c0 00000000 		.word	pxReadyTasksLists
 3396 00c4 00000000 		.word	pxCurrentTCB
 3397 00c8 00000000 		.word	xYieldPending
 3398 00cc 00000000 		.word	xPendingReadyList
 3400              		.section	.text.xTaskNotifyStateClear,"ax",%progbits
 3401              		.align	1
 3402              		.global	xTaskNotifyStateClear
 3403              		.syntax unified
 3404              		.thumb
 3405              		.thumb_func
ARM GAS  C:\Users\Rick\AppData\Local\Temp\ccHiTWuI.s 			page 59


 3407              	xTaskNotifyStateClear:
 3408              		@ args = 0, pretend = 0, frame = 0
 3409              		@ frame_needed = 0, uses_anonymous_args = 0
 3410 0000 10B5     		push	{r4, lr}
 3411 0002 0446     		mov	r4, r0
 3412 0004 50B1     		cbz	r0, .L497
 3413              	.L493:
 3414 0006 FFF7FEFF 		bl	vPortEnterCritical
 3415 000a 94F85030 		ldrb	r3, [r4, #80]	@ zero_extendqisi2
 3416 000e 022B     		cmp	r3, #2
 3417 0010 07D0     		beq	.L498
 3418 0012 0024     		movs	r4, #0
 3419              	.L494:
 3420 0014 FFF7FEFF 		bl	vPortExitCritical
 3421 0018 2046     		mov	r0, r4
 3422 001a 10BD     		pop	{r4, pc}
 3423              	.L497:
 3424 001c 034B     		ldr	r3, .L499
 3425 001e 1C68     		ldr	r4, [r3]
 3426 0020 F1E7     		b	.L493
 3427              	.L498:
 3428 0022 0023     		movs	r3, #0
 3429 0024 84F85030 		strb	r3, [r4, #80]
 3430 0028 0124     		movs	r4, #1
 3431 002a F3E7     		b	.L494
 3432              	.L500:
 3433              		.align	2
 3434              	.L499:
 3435 002c 00000000 		.word	pxCurrentTCB
 3437              		.section	.text.ulTaskNotifyValueClear,"ax",%progbits
 3438              		.align	1
 3439              		.global	ulTaskNotifyValueClear
 3440              		.syntax unified
 3441              		.thumb
 3442              		.thumb_func
 3444              	ulTaskNotifyValueClear:
 3445              		@ args = 0, pretend = 0, frame = 0
 3446              		@ frame_needed = 0, uses_anonymous_args = 0
 3447 0000 70B5     		push	{r4, r5, r6, lr}
 3448 0002 0C46     		mov	r4, r1
 3449 0004 0546     		mov	r5, r0
 3450 0006 60B1     		cbz	r0, .L504
 3451              	.L502:
 3452 0008 FFF7FEFF 		bl	vPortEnterCritical
 3453 000c 064B     		ldr	r3, .L505
 3454 000e 1B68     		ldr	r3, [r3]
 3455 0010 DE6C     		ldr	r6, [r3, #76]
 3456 0012 EB6C     		ldr	r3, [r5, #76]
 3457 0014 23EA0403 		bic	r3, r3, r4
 3458 0018 EB64     		str	r3, [r5, #76]
 3459 001a FFF7FEFF 		bl	vPortExitCritical
 3460 001e 3046     		mov	r0, r6
 3461 0020 70BD     		pop	{r4, r5, r6, pc}
 3462              	.L504:
 3463 0022 014B     		ldr	r3, .L505
 3464 0024 1D68     		ldr	r5, [r3]
 3465 0026 EFE7     		b	.L502
ARM GAS  C:\Users\Rick\AppData\Local\Temp\ccHiTWuI.s 			page 60


 3466              	.L506:
 3467              		.align	2
 3468              	.L505:
 3469 0028 00000000 		.word	pxCurrentTCB
 3471              		.section	.bss.uxSchedulerSuspended,"aw",%nobits
 3472              		.align	2
 3475              	uxSchedulerSuspended:
 3476 0000 00000000 		.space	4
 3477              		.section	.bss.xIdleTaskHandle,"aw",%nobits
 3478              		.align	2
 3481              	xIdleTaskHandle:
 3482 0000 00000000 		.space	4
 3483              		.section	.bss.xNextTaskUnblockTime,"aw",%nobits
 3484              		.align	2
 3487              	xNextTaskUnblockTime:
 3488 0000 00000000 		.space	4
 3489              		.section	.bss.uxTaskNumber,"aw",%nobits
 3490              		.align	2
 3493              	uxTaskNumber:
 3494 0000 00000000 		.space	4
 3495              		.section	.bss.xNumOfOverflows,"aw",%nobits
 3496              		.align	2
 3499              	xNumOfOverflows:
 3500 0000 00000000 		.space	4
 3501              		.section	.bss.xYieldPending,"aw",%nobits
 3502              		.align	2
 3505              	xYieldPending:
 3506 0000 00000000 		.space	4
 3507              		.section	.bss.xPendedTicks,"aw",%nobits
 3508              		.align	2
 3511              	xPendedTicks:
 3512 0000 00000000 		.space	4
 3513              		.section	.bss.xSchedulerRunning,"aw",%nobits
 3514              		.align	2
 3517              	xSchedulerRunning:
 3518 0000 00000000 		.space	4
 3519              		.section	.bss.uxTopReadyPriority,"aw",%nobits
 3520              		.align	2
 3523              	uxTopReadyPriority:
 3524 0000 00000000 		.space	4
 3525              		.section	.bss.xTickCount,"aw",%nobits
 3526              		.align	2
 3529              	xTickCount:
 3530 0000 00000000 		.space	4
 3531              		.section	.bss.uxCurrentNumberOfTasks,"aw",%nobits
 3532              		.align	2
 3535              	uxCurrentNumberOfTasks:
 3536 0000 00000000 		.space	4
 3537              		.section	.bss.xSuspendedTaskList,"aw",%nobits
 3538              		.align	2
 3541              	xSuspendedTaskList:
 3542 0000 00000000 		.space	20
 3542      00000000 
 3542      00000000 
 3542      00000000 
 3542      00000000 
 3543              		.section	.bss.uxDeletedTasksWaitingCleanUp,"aw",%nobits
ARM GAS  C:\Users\Rick\AppData\Local\Temp\ccHiTWuI.s 			page 61


 3544              		.align	2
 3547              	uxDeletedTasksWaitingCleanUp:
 3548 0000 00000000 		.space	4
 3549              		.section	.bss.xTasksWaitingTermination,"aw",%nobits
 3550              		.align	2
 3553              	xTasksWaitingTermination:
 3554 0000 00000000 		.space	20
 3554      00000000 
 3554      00000000 
 3554      00000000 
 3554      00000000 
 3555              		.section	.bss.xPendingReadyList,"aw",%nobits
 3556              		.align	2
 3559              	xPendingReadyList:
 3560 0000 00000000 		.space	20
 3560      00000000 
 3560      00000000 
 3560      00000000 
 3560      00000000 
 3561              		.section	.bss.pxOverflowDelayedTaskList,"aw",%nobits
 3562              		.align	2
 3565              	pxOverflowDelayedTaskList:
 3566 0000 00000000 		.space	4
 3567              		.section	.bss.pxDelayedTaskList,"aw",%nobits
 3568              		.align	2
 3571              	pxDelayedTaskList:
 3572 0000 00000000 		.space	4
 3573              		.section	.bss.xDelayedTaskList2,"aw",%nobits
 3574              		.align	2
 3577              	xDelayedTaskList2:
 3578 0000 00000000 		.space	20
 3578      00000000 
 3578      00000000 
 3578      00000000 
 3578      00000000 
 3579              		.section	.bss.xDelayedTaskList1,"aw",%nobits
 3580              		.align	2
 3583              	xDelayedTaskList1:
 3584 0000 00000000 		.space	20
 3584      00000000 
 3584      00000000 
 3584      00000000 
 3584      00000000 
 3585              		.section	.bss.pxReadyTasksLists,"aw",%nobits
 3586              		.align	2
 3589              	pxReadyTasksLists:
 3590 0000 00000000 		.space	140
 3590      00000000 
 3590      00000000 
 3590      00000000 
 3590      00000000 
 3591              		.global	pxCurrentTCB
 3592              		.section	.bss.pxCurrentTCB,"aw",%nobits
 3593              		.align	2
 3596              	pxCurrentTCB:
 3597 0000 00000000 		.space	4
 3598              		.ident	"GCC: (xPack GNU Arm Embedded GCC x86_64) 14.2.1 20241119"
ARM GAS  C:\Users\Rick\AppData\Local\Temp\ccHiTWuI.s 			page 62


ARM GAS  C:\Users\Rick\AppData\Local\Temp\ccHiTWuI.s 			page 63

